ARM GAS  C:\Users\DGILLI~1\AppData\Local\Temp\ccJhWP9r.s 			page 1


   1              		.syntax unified
   2              		.cpu cortex-m3
   3              		.fpu softvfp
   4              		.eabi_attribute 20, 1
   5              		.eabi_attribute 21, 1
   6              		.eabi_attribute 23, 3
   7              		.eabi_attribute 24, 1
   8              		.eabi_attribute 25, 1
   9              		.eabi_attribute 26, 1
  10              		.eabi_attribute 30, 6
  11              		.eabi_attribute 34, 1
  12              		.eabi_attribute 18, 4
  13              		.thumb
  14              		.file	"myI2CSlave.c"
  15              		.text
  16              	.Ltext0:
  17              		.cfi_sections	.debug_frame
  18              		.comm	verboseFlag,1,1
  19              		.comm	rdBuf,5,4
  20              		.comm	wrBuf,5,4
  21              		.section	.text.initI2CBuffs,"ax",%progbits
  22              		.align	2
  23              		.global	initI2CBuffs
  24              		.thumb
  25              		.thumb_func
  26              		.type	initI2CBuffs, %function
  27              	initI2CBuffs:
  28              	.LFB63:
  29              		.file 1 "myI2CSlave.c"
   1:myI2CSlave.c  **** /* ========================================
   2:myI2CSlave.c  ****  *
   3:myI2CSlave.c  ****  * Copyright YOUR COMPANY, THE YEAR
   4:myI2CSlave.c  ****  * All Rights Reserved
   5:myI2CSlave.c  ****  * UNPUBLISHED, LICENSED SOFTWARE.
   6:myI2CSlave.c  ****  *
   7:myI2CSlave.c  ****  * CONFIDENTIAL AND PROPRIETARY INFORMATION
   8:myI2CSlave.c  ****  * WHICH IS THE PROPERTY OF your company.
   9:myI2CSlave.c  ****  *
  10:myI2CSlave.c  ****  * ========================================
  11:myI2CSlave.c  **** */
  12:myI2CSlave.c  **** 
  13:myI2CSlave.c  **** #include "myI2CSlave.h"
  14:myI2CSlave.c  **** 
  15:myI2CSlave.c  **** uint8 verboseFlag;
  16:myI2CSlave.c  **** 
  17:myI2CSlave.c  **** uint8 rdBuf[RD_BUFFER_SIZE];
  18:myI2CSlave.c  **** uint8 wrBuf[WR_BUFFER_SIZE];
  19:myI2CSlave.c  **** 
  20:myI2CSlave.c  **** void initI2CBuffs(void)
  21:myI2CSlave.c  **** {
  30              		.loc 1 21 0
  31              		.cfi_startproc
  32              		@ args = 0, pretend = 0, frame = 0
  33              		@ frame_needed = 1, uses_anonymous_args = 0
  34 0000 80B5     		push	{r7, lr}
  35              		.cfi_def_cfa_offset 8
  36              		.cfi_offset 7, -8
ARM GAS  C:\Users\DGILLI~1\AppData\Local\Temp\ccJhWP9r.s 			page 2


  37              		.cfi_offset 14, -4
  38 0002 00AF     		add	r7, sp, #0
  39              		.cfi_def_cfa_register 7
  22:myI2CSlave.c  ****     rdBuf[0] = 0;   // Buffers are globals
  40              		.loc 1 22 0
  41 0004 164B     		ldr	r3, .L2
  42 0006 0022     		movs	r2, #0
  43 0008 1A70     		strb	r2, [r3]
  23:myI2CSlave.c  ****     rdBuf[1] = 0;
  44              		.loc 1 23 0
  45 000a 154B     		ldr	r3, .L2
  46 000c 0022     		movs	r2, #0
  47 000e 5A70     		strb	r2, [r3, #1]
  24:myI2CSlave.c  ****     rdBuf[2] = 0;
  48              		.loc 1 24 0
  49 0010 134B     		ldr	r3, .L2
  50 0012 0022     		movs	r2, #0
  51 0014 9A70     		strb	r2, [r3, #2]
  25:myI2CSlave.c  ****     rdBuf[3] = 0;
  52              		.loc 1 25 0
  53 0016 124B     		ldr	r3, .L2
  54 0018 0022     		movs	r2, #0
  55 001a DA70     		strb	r2, [r3, #3]
  26:myI2CSlave.c  ****     rdBuf[4] = 0;
  56              		.loc 1 26 0
  57 001c 104B     		ldr	r3, .L2
  58 001e 0022     		movs	r2, #0
  59 0020 1A71     		strb	r2, [r3, #4]
  27:myI2CSlave.c  **** 
  28:myI2CSlave.c  ****     wrBuf[0] = NULL_CMD;
  60              		.loc 1 28 0
  61 0022 104B     		ldr	r3, .L2+4
  62 0024 0022     		movs	r2, #0
  63 0026 1A70     		strb	r2, [r3]
  29:myI2CSlave.c  ****     wrBuf[1] = 0;
  64              		.loc 1 29 0
  65 0028 0E4B     		ldr	r3, .L2+4
  66 002a 0022     		movs	r2, #0
  67 002c 5A70     		strb	r2, [r3, #1]
  30:myI2CSlave.c  ****     wrBuf[2] = 0;
  68              		.loc 1 30 0
  69 002e 0D4B     		ldr	r3, .L2+4
  70 0030 0022     		movs	r2, #0
  71 0032 9A70     		strb	r2, [r3, #2]
  31:myI2CSlave.c  ****     wrBuf[3] = 0;
  72              		.loc 1 31 0
  73 0034 0B4B     		ldr	r3, .L2+4
  74 0036 0022     		movs	r2, #0
  75 0038 DA70     		strb	r2, [r3, #3]
  32:myI2CSlave.c  ****     wrBuf[4] = 0;
  76              		.loc 1 32 0
  77 003a 0A4B     		ldr	r3, .L2+4
  78 003c 0022     		movs	r2, #0
  79 003e 1A71     		strb	r2, [r3, #4]
  33:myI2CSlave.c  **** 
  34:myI2CSlave.c  ****     // Initialize the read/write buffers
  35:myI2CSlave.c  ****     I2C_1_SlaveSetAddress(0x50);
ARM GAS  C:\Users\DGILLI~1\AppData\Local\Temp\ccJhWP9r.s 			page 3


  80              		.loc 1 35 0
  81 0040 5020     		movs	r0, #80
  82 0042 FFF7FEFF 		bl	I2C_1_SlaveSetAddress
  36:myI2CSlave.c  ****     I2C_1_SlaveInitReadBuf(rdBuf,RD_BUFFER_SIZE);       // Buffer to be read by the master
  83              		.loc 1 36 0
  84 0046 0648     		ldr	r0, .L2
  85 0048 0521     		movs	r1, #5
  86 004a FFF7FEFF 		bl	I2C_1_SlaveInitReadBuf
  37:myI2CSlave.c  ****     I2C_1_SlaveInitWriteBuf(wrBuf,WR_BUFFER_SIZE);      // Buffer from the master
  87              		.loc 1 37 0
  88 004e 0548     		ldr	r0, .L2+4
  89 0050 0521     		movs	r1, #5
  90 0052 FFF7FEFF 		bl	I2C_1_SlaveInitWriteBuf
  38:myI2CSlave.c  ****     I2C_1_SlaveClearReadStatus();
  91              		.loc 1 38 0
  92 0056 FFF7FEFF 		bl	I2C_1_SlaveClearReadStatus
  39:myI2CSlave.c  ****     I2C_1_SlaveClearWriteStatus();
  93              		.loc 1 39 0
  94 005a FFF7FEFF 		bl	I2C_1_SlaveClearWriteStatus
  40:myI2CSlave.c  **** }
  95              		.loc 1 40 0
  96 005e 80BD     		pop	{r7, pc}
  97              	.L3:
  98              		.align	2
  99              	.L2:
 100 0060 00000000 		.word	rdBuf
 101 0064 00000000 		.word	wrBuf
 102              		.cfi_endproc
 103              	.LFE63:
 104              		.size	initI2CBuffs, .-initI2CBuffs
 105              		.section	.text.waitForMasterToWrite,"ax",%progbits
 106              		.align	2
 107              		.global	waitForMasterToWrite
 108              		.thumb
 109              		.thumb_func
 110              		.type	waitForMasterToWrite, %function
 111              	waitForMasterToWrite:
 112              	.LFB64:
  41:myI2CSlave.c  **** 
  42:myI2CSlave.c  **** void waitForMasterToWrite(void)
  43:myI2CSlave.c  **** {
 113              		.loc 1 43 0
 114              		.cfi_startproc
 115              		@ args = 0, pretend = 0, frame = 0
 116              		@ frame_needed = 1, uses_anonymous_args = 0
 117 0000 80B5     		push	{r7, lr}
 118              		.cfi_def_cfa_offset 8
 119              		.cfi_offset 7, -8
 120              		.cfi_offset 14, -4
 121 0002 00AF     		add	r7, sp, #0
 122              		.cfi_def_cfa_register 7
  44:myI2CSlave.c  ****     while ((I2C_1_SlaveStatus() & I2C_1_SSTAT_WR_BUSY) != I2C_1_SSTAT_WR_BUSY);         // Wait for
 123              		.loc 1 44 0
 124 0004 00BF     		nop
 125              	.L5:
 126              		.loc 1 44 0 is_stmt 0 discriminator 1
 127 0006 FFF7FEFF 		bl	I2C_1_SlaveStatus
ARM GAS  C:\Users\DGILLI~1\AppData\Local\Temp\ccJhWP9r.s 			page 4


 128 000a 0346     		mov	r3, r0
 129 000c 03F02003 		and	r3, r3, #32
 130 0010 002B     		cmp	r3, #0
 131 0012 F8D0     		beq	.L5
  45:myI2CSlave.c  ****     while ((I2C_1_SlaveStatus() & I2C_1_SSTAT_WR_BUSY) == I2C_1_SSTAT_WR_BUSY);         // Stall wh
 132              		.loc 1 45 0 is_stmt 1
 133 0014 00BF     		nop
 134              	.L6:
 135              		.loc 1 45 0 is_stmt 0 discriminator 1
 136 0016 FFF7FEFF 		bl	I2C_1_SlaveStatus
 137 001a 0346     		mov	r3, r0
 138 001c 03F02003 		and	r3, r3, #32
 139 0020 002B     		cmp	r3, #0
 140 0022 F8D1     		bne	.L6
  46:myI2CSlave.c  ****     while ((I2C_1_SlaveStatus() & I2C_1_SSTAT_WR_CMPLT) != I2C_1_SSTAT_WR_CMPLT);       // Wait for
 141              		.loc 1 46 0 is_stmt 1
 142 0024 00BF     		nop
 143              	.L7:
 144              		.loc 1 46 0 is_stmt 0 discriminator 1
 145 0026 FFF7FEFF 		bl	I2C_1_SlaveStatus
 146 002a 0346     		mov	r3, r0
 147 002c 03F01003 		and	r3, r3, #16
 148 0030 002B     		cmp	r3, #0
 149 0032 F8D0     		beq	.L7
  47:myI2CSlave.c  ****     I2C_1_SlaveClearWriteBuf();
 150              		.loc 1 47 0 is_stmt 1
 151 0034 FFF7FEFF 		bl	I2C_1_SlaveClearWriteBuf
  48:myI2CSlave.c  **** }
 152              		.loc 1 48 0
 153 0038 80BD     		pop	{r7, pc}
 154              		.cfi_endproc
 155              	.LFE64:
 156              		.size	waitForMasterToWrite, .-waitForMasterToWrite
 157 003a 00BF     		.section	.text.waitForMasterToRead,"ax",%progbits
 158              		.align	2
 159              		.global	waitForMasterToRead
 160              		.thumb
 161              		.thumb_func
 162              		.type	waitForMasterToRead, %function
 163              	waitForMasterToRead:
 164              	.LFB65:
  49:myI2CSlave.c  **** 
  50:myI2CSlave.c  **** void waitForMasterToRead(void)
  51:myI2CSlave.c  **** {
 165              		.loc 1 51 0
 166              		.cfi_startproc
 167              		@ args = 0, pretend = 0, frame = 0
 168              		@ frame_needed = 1, uses_anonymous_args = 0
 169 0000 80B5     		push	{r7, lr}
 170              		.cfi_def_cfa_offset 8
 171              		.cfi_offset 7, -8
 172              		.cfi_offset 14, -4
 173 0002 00AF     		add	r7, sp, #0
 174              		.cfi_def_cfa_register 7
  52:myI2CSlave.c  ****     while ((I2C_1_SlaveStatus() & I2C_1_SSTAT_RD_BUSY) == I2C_1_SSTAT_RD_CMPLT);
 175              		.loc 1 52 0
 176 0004 00BF     		nop
ARM GAS  C:\Users\DGILLI~1\AppData\Local\Temp\ccJhWP9r.s 			page 5


 177 0006 FFF7FEFF 		bl	I2C_1_SlaveStatus
  53:myI2CSlave.c  ****     while ((I2C_1_SlaveStatus() & I2C_1_SSTAT_RD_BUSY) != I2C_1_SSTAT_RD_BUSY); // Wait for the rea
 178              		.loc 1 53 0
 179 000a 00BF     		nop
 180              	.L9:
 181              		.loc 1 53 0 is_stmt 0 discriminator 1
 182 000c FFF7FEFF 		bl	I2C_1_SlaveStatus
 183 0010 0346     		mov	r3, r0
 184 0012 03F00203 		and	r3, r3, #2
 185 0016 002B     		cmp	r3, #0
 186 0018 F8D0     		beq	.L9
  54:myI2CSlave.c  ****     while ((I2C_1_SlaveStatus() & I2C_1_SSTAT_RD_BUSY) == I2C_1_SSTAT_RD_BUSY);
 187              		.loc 1 54 0 is_stmt 1
 188 001a 00BF     		nop
 189              	.L10:
 190              		.loc 1 54 0 is_stmt 0 discriminator 1
 191 001c FFF7FEFF 		bl	I2C_1_SlaveStatus
 192 0020 0346     		mov	r3, r0
 193 0022 03F00203 		and	r3, r3, #2
 194 0026 002B     		cmp	r3, #0
 195 0028 F8D1     		bne	.L10
  55:myI2CSlave.c  ****     while ((I2C_1_SlaveStatus() & I2C_1_SSTAT_RD_CMPLT) != I2C_1_SSTAT_RD_CMPLT);   // Wait for pac
 196              		.loc 1 55 0 is_stmt 1
 197 002a 00BF     		nop
 198              	.L11:
 199              		.loc 1 55 0 is_stmt 0 discriminator 1
 200 002c FFF7FEFF 		bl	I2C_1_SlaveStatus
 201 0030 0346     		mov	r3, r0
 202 0032 03F00103 		and	r3, r3, #1
 203 0036 002B     		cmp	r3, #0
 204 0038 F8D0     		beq	.L11
  56:myI2CSlave.c  ****     I2C_1_SlaveClearReadStatus();
 205              		.loc 1 56 0 is_stmt 1
 206 003a FFF7FEFF 		bl	I2C_1_SlaveClearReadStatus
  57:myI2CSlave.c  ****     I2C_1_SlaveClearReadBuf();
 207              		.loc 1 57 0
 208 003e FFF7FEFF 		bl	I2C_1_SlaveClearReadBuf
  58:myI2CSlave.c  **** }
 209              		.loc 1 58 0
 210 0042 80BD     		pop	{r7, pc}
 211              		.cfi_endproc
 212              	.LFE65:
 213              		.size	waitForMasterToRead, .-waitForMasterToRead
 214              		.section	.text.fastBlink,"ax",%progbits
 215              		.align	2
 216              		.global	fastBlink
 217              		.thumb
 218              		.thumb_func
 219              		.type	fastBlink, %function
 220              	fastBlink:
 221              	.LFB66:
  59:myI2CSlave.c  **** 
  60:myI2CSlave.c  **** void fastBlink(void)
  61:myI2CSlave.c  **** {
 222              		.loc 1 61 0
 223              		.cfi_startproc
 224              		@ args = 0, pretend = 0, frame = 0
ARM GAS  C:\Users\DGILLI~1\AppData\Local\Temp\ccJhWP9r.s 			page 6


 225              		@ frame_needed = 1, uses_anonymous_args = 0
 226 0000 80B5     		push	{r7, lr}
 227              		.cfi_def_cfa_offset 8
 228              		.cfi_offset 7, -8
 229              		.cfi_offset 14, -4
 230 0002 00AF     		add	r7, sp, #0
 231              		.cfi_def_cfa_register 7
  62:myI2CSlave.c  ****     LED_Write(1);
 232              		.loc 1 62 0
 233 0004 0120     		movs	r0, #1
 234 0006 FFF7FEFF 		bl	LED_Write
  63:myI2CSlave.c  ****     CyDelay(50);
 235              		.loc 1 63 0
 236 000a 3220     		movs	r0, #50
 237 000c FFF7FEFF 		bl	CyDelay
  64:myI2CSlave.c  ****     LED_Write(0);
 238              		.loc 1 64 0
 239 0010 0020     		movs	r0, #0
 240 0012 FFF7FEFF 		bl	LED_Write
  65:myI2CSlave.c  **** }
 241              		.loc 1 65 0
 242 0016 80BD     		pop	{r7, pc}
 243              		.cfi_endproc
 244              	.LFE66:
 245              		.size	fastBlink, .-fastBlink
 246              		.text
 247              	.Letext0:
 248              		.file 2 "c:\\program files (x86)\\cypress\\psoc creator\\4.0\\psoc creator\\import\\gnu\\arm\\4.9.
 249              		.file 3 "c:\\program files (x86)\\cypress\\psoc creator\\4.0\\psoc creator\\import\\gnu\\arm\\4.9.
 250              		.file 4 "Generated_Source\\PSoC5/cytypes.h"
 251              		.file 5 "Generated_Source\\PSoC5/core_cm3.h"
 252              		.file 6 "myI2CSlave.h"