ARM GAS  C:\Users\DGILLI~1\AppData\Local\Temp\ccy1aVo0.s 			page 1


   1              		.syntax unified
   2              		.cpu cortex-m3
   3              		.fpu softvfp
   4              		.eabi_attribute 20, 1
   5              		.eabi_attribute 21, 1
   6              		.eabi_attribute 23, 3
   7              		.eabi_attribute 24, 1
   8              		.eabi_attribute 25, 1
   9              		.eabi_attribute 26, 1
  10              		.eabi_attribute 30, 6
  11              		.eabi_attribute 34, 1
  12              		.eabi_attribute 18, 4
  13              		.thumb
  14              		.file	"serialIO.c"
  15              		.text
  16              	.Ltext0:
  17              		.cfi_sections	.debug_frame
  18              		.section	.text.initSerial,"ax",%progbits
  19              		.align	2
  20              		.global	initSerial
  21              		.thumb
  22              		.thumb_func
  23              		.type	initSerial, %function
  24              	initSerial:
  25              	.LFB63:
  26              		.file 1 "serialIO.c"
   1:serialIO.c    **** /* ========================================
   2:serialIO.c    ****  * serialIO.c
   3:serialIO.c    ****  * Copyright AAC, LLC, 2017
   4:serialIO.c    ****  * All Rights Reserved
   5:serialIO.c    ****  * UNPUBLISHED, LICENSED SOFTWARE.
   6:serialIO.c    ****  *
   7:serialIO.c    ****  * CONFIDENTIAL AND PROPRIETARY INFORMATION
   8:serialIO.c    ****  * WHICH IS THE PROPERTY OF AAC.
   9:serialIO.c    ****  *
  10:serialIO.c    ****  * ========================================
  11:serialIO.c    **** */
  12:serialIO.c    **** 
  13:serialIO.c    **** #include "project.h"
  14:serialIO.c    **** #undef DEBUG_ON_PC
  15:serialIO.c    **** #include "serialIO.h"
  16:serialIO.c    **** #include "stringConvs.h"
  17:serialIO.c    **** 
  18:serialIO.c    **** ////////////////////////////////////////////////////////////////
  19:serialIO.c    **** // void initSerial(void)
  20:serialIO.c    **** ////////////////////////////////////////////////////////////////
  21:serialIO.c    **** 
  22:serialIO.c    **** void initSerial(void)
  23:serialIO.c    **** {
  27              		.loc 1 23 0
  28              		.cfi_startproc
  29              		@ args = 0, pretend = 0, frame = 0
  30              		@ frame_needed = 1, uses_anonymous_args = 0
  31 0000 80B5     		push	{r7, lr}
  32              		.cfi_def_cfa_offset 8
  33              		.cfi_offset 7, -8
  34              		.cfi_offset 14, -4
ARM GAS  C:\Users\DGILLI~1\AppData\Local\Temp\ccy1aVo0.s 			page 2


  35 0002 00AF     		add	r7, sp, #0
  36              		.cfi_def_cfa_register 7
  24:serialIO.c    ****     UART_1_Start();
  37              		.loc 1 24 0
  38 0004 FFF7FEFF 		bl	UART_1_Start
  25:serialIO.c    **** }
  39              		.loc 1 25 0
  40 0008 80BD     		pop	{r7, pc}
  41              		.cfi_endproc
  42              	.LFE63:
  43              		.size	initSerial, .-initSerial
  44 000a 00BF     		.section	.text.printSingleChar,"ax",%progbits
  45              		.align	2
  46              		.global	printSingleChar
  47              		.thumb
  48              		.thumb_func
  49              		.type	printSingleChar, %function
  50              	printSingleChar:
  51              	.LFB64:
  26:serialIO.c    **** 
  27:serialIO.c    **** ////////////////////////////////////////////////////////////////
  28:serialIO.c    **** // printSingleChar(char)
  29:serialIO.c    **** ////////////////////////////////////////////////////////////////
  30:serialIO.c    **** 
  31:serialIO.c    **** void printSingleChar(char8 txChar)
  32:serialIO.c    **** {
  52              		.loc 1 32 0
  53              		.cfi_startproc
  54              		@ args = 0, pretend = 0, frame = 16
  55              		@ frame_needed = 1, uses_anonymous_args = 0
  56 0000 80B5     		push	{r7, lr}
  57              		.cfi_def_cfa_offset 8
  58              		.cfi_offset 7, -8
  59              		.cfi_offset 14, -4
  60 0002 84B0     		sub	sp, sp, #16
  61              		.cfi_def_cfa_offset 24
  62 0004 00AF     		add	r7, sp, #0
  63              		.cfi_def_cfa_register 7
  64 0006 0346     		mov	r3, r0
  65 0008 FB71     		strb	r3, [r7, #7]
  66              	.L3:
  33:serialIO.c    ****     uint8 txStat;
  34:serialIO.c    ****     do
  35:serialIO.c    ****     {
  36:serialIO.c    ****         txStat = UART_1_ReadTxStatus();
  67              		.loc 1 36 0 discriminator 1
  68 000a FFF7FEFF 		bl	UART_1_ReadTxStatus
  69 000e 0346     		mov	r3, r0
  70 0010 FB73     		strb	r3, [r7, #15]
  37:serialIO.c    ****     }
  38:serialIO.c    ****     while (txStat & UART_1_TX_STS_FIFO_FULL);
  71              		.loc 1 38 0 discriminator 1
  72 0012 FB7B     		ldrb	r3, [r7, #15]	@ zero_extendqisi2
  73 0014 03F00403 		and	r3, r3, #4
  74 0018 002B     		cmp	r3, #0
  75 001a F6D1     		bne	.L3
  39:serialIO.c    ****     UART_1_PutChar(txChar);
ARM GAS  C:\Users\DGILLI~1\AppData\Local\Temp\ccy1aVo0.s 			page 3


  76              		.loc 1 39 0
  77 001c FB79     		ldrb	r3, [r7, #7]	@ zero_extendqisi2
  78 001e 1846     		mov	r0, r3
  79 0020 FFF7FEFF 		bl	UART_1_PutChar
  40:serialIO.c    **** }
  80              		.loc 1 40 0
  81 0024 1037     		adds	r7, r7, #16
  82              		.cfi_def_cfa_offset 8
  83 0026 BD46     		mov	sp, r7
  84              		.cfi_def_cfa_register 13
  85              		@ sp needed
  86 0028 80BD     		pop	{r7, pc}
  87              		.cfi_endproc
  88              	.LFE64:
  89              		.size	printSingleChar, .-printSingleChar
  90 002a 00BF     		.section	.text.printString,"ax",%progbits
  91              		.align	2
  92              		.global	printString
  93              		.thumb
  94              		.thumb_func
  95              		.type	printString, %function
  96              	printString:
  97              	.LFB65:
  41:serialIO.c    **** 
  42:serialIO.c    **** ////////////////////////////////////////////////////////////////
  43:serialIO.c    **** // void printString(char * lineBuffer)
  44:serialIO.c    **** ////////////////////////////////////////////////////////////////
  45:serialIO.c    **** 
  46:serialIO.c    **** void printString(char * lineBuffer)
  47:serialIO.c    **** {
  98              		.loc 1 47 0
  99              		.cfi_startproc
 100              		@ args = 0, pretend = 0, frame = 16
 101              		@ frame_needed = 1, uses_anonymous_args = 0
 102 0000 80B5     		push	{r7, lr}
 103              		.cfi_def_cfa_offset 8
 104              		.cfi_offset 7, -8
 105              		.cfi_offset 14, -4
 106 0002 84B0     		sub	sp, sp, #16
 107              		.cfi_def_cfa_offset 24
 108 0004 00AF     		add	r7, sp, #0
 109              		.cfi_def_cfa_register 7
 110 0006 7860     		str	r0, [r7, #4]
  48:serialIO.c    ****     char * linePtr;
  49:serialIO.c    ****     linePtr = lineBuffer;
 111              		.loc 1 49 0
 112 0008 7B68     		ldr	r3, [r7, #4]
 113 000a FB60     		str	r3, [r7, #12]
  50:serialIO.c    ****     while (*linePtr != 0)
 114              		.loc 1 50 0
 115 000c 06E0     		b	.L5
 116              	.L6:
  51:serialIO.c    ****         printSingleChar(*linePtr++);
 117              		.loc 1 51 0
 118 000e FB68     		ldr	r3, [r7, #12]
 119 0010 5A1C     		adds	r2, r3, #1
 120 0012 FA60     		str	r2, [r7, #12]
ARM GAS  C:\Users\DGILLI~1\AppData\Local\Temp\ccy1aVo0.s 			page 4


 121 0014 1B78     		ldrb	r3, [r3]	@ zero_extendqisi2
 122 0016 1846     		mov	r0, r3
 123 0018 FFF7FEFF 		bl	printSingleChar
 124              	.L5:
  50:serialIO.c    ****     while (*linePtr != 0)
 125              		.loc 1 50 0
 126 001c FB68     		ldr	r3, [r7, #12]
 127 001e 1B78     		ldrb	r3, [r3]	@ zero_extendqisi2
 128 0020 002B     		cmp	r3, #0
 129 0022 F4D1     		bne	.L6
  52:serialIO.c    **** }
 130              		.loc 1 52 0
 131 0024 1037     		adds	r7, r7, #16
 132              		.cfi_def_cfa_offset 8
 133 0026 BD46     		mov	sp, r7
 134              		.cfi_def_cfa_register 13
 135              		@ sp needed
 136 0028 80BD     		pop	{r7, pc}
 137              		.cfi_endproc
 138              	.LFE65:
 139              		.size	printString, .-printString
 140 002a 00BF     		.section	.text.printLine,"ax",%progbits
 141              		.align	2
 142              		.global	printLine
 143              		.thumb
 144              		.thumb_func
 145              		.type	printLine, %function
 146              	printLine:
 147              	.LFB66:
  53:serialIO.c    **** 
  54:serialIO.c    **** ////////////////////////////////////////////////////////////////
  55:serialIO.c    **** // void printLine(char *)
  56:serialIO.c    **** ////////////////////////////////////////////////////////////////
  57:serialIO.c    **** 
  58:serialIO.c    **** void printLine(char * lineBuffer)
  59:serialIO.c    **** {
 148              		.loc 1 59 0
 149              		.cfi_startproc
 150              		@ args = 0, pretend = 0, frame = 8
 151              		@ frame_needed = 1, uses_anonymous_args = 0
 152 0000 80B5     		push	{r7, lr}
 153              		.cfi_def_cfa_offset 8
 154              		.cfi_offset 7, -8
 155              		.cfi_offset 14, -4
 156 0002 82B0     		sub	sp, sp, #8
 157              		.cfi_def_cfa_offset 16
 158 0004 00AF     		add	r7, sp, #0
 159              		.cfi_def_cfa_register 7
 160 0006 7860     		str	r0, [r7, #4]
  60:serialIO.c    ****    printString(lineBuffer);
 161              		.loc 1 60 0
 162 0008 7868     		ldr	r0, [r7, #4]
 163 000a FFF7FEFF 		bl	printString
  61:serialIO.c    ****    printSingleChar(0x0d);
 164              		.loc 1 61 0
 165 000e 0D20     		movs	r0, #13
 166 0010 FFF7FEFF 		bl	printSingleChar
ARM GAS  C:\Users\DGILLI~1\AppData\Local\Temp\ccy1aVo0.s 			page 5


  62:serialIO.c    ****    printSingleChar(0x0a);
 167              		.loc 1 62 0
 168 0014 0A20     		movs	r0, #10
 169 0016 FFF7FEFF 		bl	printSingleChar
  63:serialIO.c    **** }
 170              		.loc 1 63 0
 171 001a 0837     		adds	r7, r7, #8
 172              		.cfi_def_cfa_offset 8
 173 001c BD46     		mov	sp, r7
 174              		.cfi_def_cfa_register 13
 175              		@ sp needed
 176 001e 80BD     		pop	{r7, pc}
 177              		.cfi_endproc
 178              	.LFE66:
 179              		.size	printLine, .-printLine
 180              		.section	.text.printLong,"ax",%progbits
 181              		.align	2
 182              		.global	printLong
 183              		.thumb
 184              		.thumb_func
 185              		.type	printLong, %function
 186              	printLong:
 187              	.LFB67:
  64:serialIO.c    **** 
  65:serialIO.c    **** ////////////////////////////////////////////////////////////////
  66:serialIO.c    **** // void writeLong(uint32)
  67:serialIO.c    **** ////////////////////////////////////////////////////////////////
  68:serialIO.c    **** 
  69:serialIO.c    **** void printLong(uint32 uLVal)
  70:serialIO.c    **** {
 188              		.loc 1 70 0
 189              		.cfi_startproc
 190              		@ args = 0, pretend = 0, frame = 24
 191              		@ frame_needed = 1, uses_anonymous_args = 0
 192 0000 80B5     		push	{r7, lr}
 193              		.cfi_def_cfa_offset 8
 194              		.cfi_offset 7, -8
 195              		.cfi_offset 14, -4
 196 0002 86B0     		sub	sp, sp, #24
 197              		.cfi_def_cfa_offset 32
 198 0004 00AF     		add	r7, sp, #0
 199              		.cfi_def_cfa_register 7
 200 0006 7860     		str	r0, [r7, #4]
  71:serialIO.c    ****     char myWBuff[9];
  72:serialIO.c    ****     longToString(uLVal,myWBuff);
 201              		.loc 1 72 0
 202 0008 07F10C03 		add	r3, r7, #12
 203 000c 7868     		ldr	r0, [r7, #4]
 204 000e 1946     		mov	r1, r3
 205 0010 FFF7FEFF 		bl	longToString
  73:serialIO.c    ****     printString(myWBuff);
 206              		.loc 1 73 0
 207 0014 07F10C03 		add	r3, r7, #12
 208 0018 1846     		mov	r0, r3
 209 001a FFF7FEFF 		bl	printString
  74:serialIO.c    **** }
 210              		.loc 1 74 0
ARM GAS  C:\Users\DGILLI~1\AppData\Local\Temp\ccy1aVo0.s 			page 6


 211 001e 1837     		adds	r7, r7, #24
 212              		.cfi_def_cfa_offset 8
 213 0020 BD46     		mov	sp, r7
 214              		.cfi_def_cfa_register 13
 215              		@ sp needed
 216 0022 80BD     		pop	{r7, pc}
 217              		.cfi_endproc
 218              	.LFE67:
 219              		.size	printLong, .-printLong
 220              		.section	.text.printBit,"ax",%progbits
 221              		.align	2
 222              		.global	printBit
 223              		.thumb
 224              		.thumb_func
 225              		.type	printBit, %function
 226              	printBit:
 227              	.LFB68:
  75:serialIO.c    **** 
  76:serialIO.c    **** ////////////////////////////////////////////////////////////////
  77:serialIO.c    **** // void printBit(uint8_t)
  78:serialIO.c    **** ////////////////////////////////////////////////////////////////
  79:serialIO.c    **** 
  80:serialIO.c    **** void printBit(uint8_t uBVal)
  81:serialIO.c    **** {
 228              		.loc 1 81 0
 229              		.cfi_startproc
 230              		@ args = 0, pretend = 0, frame = 24
 231              		@ frame_needed = 1, uses_anonymous_args = 0
 232 0000 80B5     		push	{r7, lr}
 233              		.cfi_def_cfa_offset 8
 234              		.cfi_offset 7, -8
 235              		.cfi_offset 14, -4
 236 0002 86B0     		sub	sp, sp, #24
 237              		.cfi_def_cfa_offset 32
 238 0004 00AF     		add	r7, sp, #0
 239              		.cfi_def_cfa_register 7
 240 0006 0346     		mov	r3, r0
 241 0008 FB71     		strb	r3, [r7, #7]
  82:serialIO.c    ****     char outChar[2];
  83:serialIO.c    ****     char myWBuff[9];
  84:serialIO.c    ****     longToString((uint32_t)uBVal,myWBuff);
 242              		.loc 1 84 0
 243 000a FA79     		ldrb	r2, [r7, #7]	@ zero_extendqisi2
 244 000c 07F10803 		add	r3, r7, #8
 245 0010 1046     		mov	r0, r2
 246 0012 1946     		mov	r1, r3
 247 0014 FFF7FEFF 		bl	longToString
  85:serialIO.c    ****     outChar[0] = myWBuff[7];
 248              		.loc 1 85 0
 249 0018 FB7B     		ldrb	r3, [r7, #15]	@ zero_extendqisi2
 250 001a 3B75     		strb	r3, [r7, #20]
  86:serialIO.c    ****     outChar[1] = 0;
 251              		.loc 1 86 0
 252 001c 0023     		movs	r3, #0
 253 001e 7B75     		strb	r3, [r7, #21]
  87:serialIO.c    ****     printString(outChar);
 254              		.loc 1 87 0
ARM GAS  C:\Users\DGILLI~1\AppData\Local\Temp\ccy1aVo0.s 			page 7


 255 0020 07F11403 		add	r3, r7, #20
 256 0024 1846     		mov	r0, r3
 257 0026 FFF7FEFF 		bl	printString
  88:serialIO.c    **** }
 258              		.loc 1 88 0
 259 002a 1837     		adds	r7, r7, #24
 260              		.cfi_def_cfa_offset 8
 261 002c BD46     		mov	sp, r7
 262              		.cfi_def_cfa_register 13
 263              		@ sp needed
 264 002e 80BD     		pop	{r7, pc}
 265              		.cfi_endproc
 266              	.LFE68:
 267              		.size	printBit, .-printBit
 268              		.section	.text.getSingleChar,"ax",%progbits
 269              		.align	2
 270              		.global	getSingleChar
 271              		.thumb
 272              		.thumb_func
 273              		.type	getSingleChar, %function
 274              	getSingleChar:
 275              	.LFB69:
  89:serialIO.c    **** 
  90:serialIO.c    **** ////////////////////////////////////////////////////////////////
  91:serialIO.c    **** // char8 getSingleChar(void)
  92:serialIO.c    **** ////////////////////////////////////////////////////////////////
  93:serialIO.c    **** 
  94:serialIO.c    **** char8 getSingleChar(void)
  95:serialIO.c    **** {
 276              		.loc 1 95 0
 277              		.cfi_startproc
 278              		@ args = 0, pretend = 0, frame = 8
 279              		@ frame_needed = 1, uses_anonymous_args = 0
 280 0000 80B5     		push	{r7, lr}
 281              		.cfi_def_cfa_offset 8
 282              		.cfi_offset 7, -8
 283              		.cfi_offset 14, -4
 284 0002 82B0     		sub	sp, sp, #8
 285              		.cfi_def_cfa_offset 16
 286 0004 00AF     		add	r7, sp, #0
 287              		.cfi_def_cfa_register 7
 288              	.L13:
  96:serialIO.c    ****     uint8 rxStat;
  97:serialIO.c    ****     char8 rxChar;       /* Data received from the Serial port */
  98:serialIO.c    ****     while(1)
  99:serialIO.c    ****     {
 100:serialIO.c    ****         rxStat = UART_1_ReadRxStatus(); 
 289              		.loc 1 100 0
 290 0006 FFF7FEFF 		bl	UART_1_ReadRxStatus
 291 000a 0346     		mov	r3, r0
 292 000c FB71     		strb	r3, [r7, #7]
 101:serialIO.c    ****         if (rxStat & UART_1_RX_STS_FIFO_NOTEMPTY)
 293              		.loc 1 101 0
 294 000e FB79     		ldrb	r3, [r7, #7]	@ zero_extendqisi2
 295 0010 03F02003 		and	r3, r3, #32
 296 0014 002B     		cmp	r3, #0
 297 0016 05D0     		beq	.L11
ARM GAS  C:\Users\DGILLI~1\AppData\Local\Temp\ccy1aVo0.s 			page 8


 102:serialIO.c    ****         {
 103:serialIO.c    ****             rxChar = UART_1_GetChar();
 298              		.loc 1 103 0
 299 0018 FFF7FEFF 		bl	UART_1_GetChar
 300 001c 0346     		mov	r3, r0
 301 001e BB71     		strb	r3, [r7, #6]
 104:serialIO.c    ****             return rxChar;
 302              		.loc 1 104 0
 303 0020 BB79     		ldrb	r3, [r7, #6]	@ zero_extendqisi2
 304 0022 00E0     		b	.L14
 305              	.L11:
 105:serialIO.c    ****         }
 106:serialIO.c    ****     }
 306              		.loc 1 106 0
 307 0024 EFE7     		b	.L13
 308              	.L14:
 107:serialIO.c    **** }
 309              		.loc 1 107 0 discriminator 1
 310 0026 1846     		mov	r0, r3
 311 0028 0837     		adds	r7, r7, #8
 312              		.cfi_def_cfa_offset 8
 313 002a BD46     		mov	sp, r7
 314              		.cfi_def_cfa_register 13
 315              		@ sp needed
 316 002c 80BD     		pop	{r7, pc}
 317              		.cfi_endproc
 318              	.LFE69:
 319              		.size	getSingleChar, .-getSingleChar
 320 002e 00BF     		.section	.text.checkReceiveChar,"ax",%progbits
 321              		.align	2
 322              		.global	checkReceiveChar
 323              		.thumb
 324              		.thumb_func
 325              		.type	checkReceiveChar, %function
 326              	checkReceiveChar:
 327              	.LFB70:
 108:serialIO.c    **** 
 109:serialIO.c    **** ////////////////////////////////////////////////////////////////
 110:serialIO.c    **** // uint8 checkReceiveChar(void) - returns True if character present
 111:serialIO.c    **** ////////////////////////////////////////////////////////////////
 112:serialIO.c    **** 
 113:serialIO.c    **** enum CHAR_PRESENT checkReceiveChar(void)
 114:serialIO.c    **** {
 328              		.loc 1 114 0
 329              		.cfi_startproc
 330              		@ args = 0, pretend = 0, frame = 8
 331              		@ frame_needed = 1, uses_anonymous_args = 0
 332 0000 80B5     		push	{r7, lr}
 333              		.cfi_def_cfa_offset 8
 334              		.cfi_offset 7, -8
 335              		.cfi_offset 14, -4
 336 0002 82B0     		sub	sp, sp, #8
 337              		.cfi_def_cfa_offset 16
 338 0004 00AF     		add	r7, sp, #0
 339              		.cfi_def_cfa_register 7
 115:serialIO.c    ****     uint8 rxStat = UART_1_ReadRxStatus();
 340              		.loc 1 115 0
ARM GAS  C:\Users\DGILLI~1\AppData\Local\Temp\ccy1aVo0.s 			page 9


 341 0006 FFF7FEFF 		bl	UART_1_ReadRxStatus
 342 000a 0346     		mov	r3, r0
 343 000c FB71     		strb	r3, [r7, #7]
 116:serialIO.c    ****     if (rxStat & UART_1_RX_STS_FIFO_NOTEMPTY)
 344              		.loc 1 116 0
 345 000e FB79     		ldrb	r3, [r7, #7]	@ zero_extendqisi2
 346 0010 03F02003 		and	r3, r3, #32
 347 0014 002B     		cmp	r3, #0
 348 0016 01D0     		beq	.L16
 117:serialIO.c    ****         return CHAR_IS_PRESENT;
 349              		.loc 1 117 0
 350 0018 0123     		movs	r3, #1
 351 001a 00E0     		b	.L17
 352              	.L16:
 118:serialIO.c    ****     return NO_CHAR_PRESENT;
 353              		.loc 1 118 0
 354 001c 0023     		movs	r3, #0
 355              	.L17:
 119:serialIO.c    **** }
 356              		.loc 1 119 0
 357 001e 1846     		mov	r0, r3
 358 0020 0837     		adds	r7, r7, #8
 359              		.cfi_def_cfa_offset 8
 360 0022 BD46     		mov	sp, r7
 361              		.cfi_def_cfa_register 13
 362              		@ sp needed
 363 0024 80BD     		pop	{r7, pc}
 364              		.cfi_endproc
 365              	.LFE70:
 366              		.size	checkReceiveChar, .-checkReceiveChar
 367 0026 00BF     		.section	.text.readLine,"ax",%progbits
 368              		.align	2
 369              		.global	readLine
 370              		.thumb
 371              		.thumb_func
 372              		.type	readLine, %function
 373              	readLine:
 374              	.LFB71:
 120:serialIO.c    **** 
 121:serialIO.c    **** ////////////////////////////////////////////////////////////////
 122:serialIO.c    **** // uint8 readLine(char * lineBuffer)
 123:serialIO.c    **** ////////////////////////////////////////////////////////////////
 124:serialIO.c    **** 
 125:serialIO.c    **** uint8 readLine(char * lineBuffer)
 126:serialIO.c    **** {
 375              		.loc 1 126 0
 376              		.cfi_startproc
 377              		@ args = 0, pretend = 0, frame = 24
 378              		@ frame_needed = 1, uses_anonymous_args = 0
 379 0000 80B5     		push	{r7, lr}
 380              		.cfi_def_cfa_offset 8
 381              		.cfi_offset 7, -8
 382              		.cfi_offset 14, -4
 383 0002 86B0     		sub	sp, sp, #24
 384              		.cfi_def_cfa_offset 32
 385 0004 00AF     		add	r7, sp, #0
 386              		.cfi_def_cfa_register 7
ARM GAS  C:\Users\DGILLI~1\AppData\Local\Temp\ccy1aVo0.s 			page 10


 387 0006 7860     		str	r0, [r7, #4]
 127:serialIO.c    ****     uint8 byteCount=0;
 388              		.loc 1 127 0
 389 0008 0023     		movs	r3, #0
 390 000a FB75     		strb	r3, [r7, #23]
 128:serialIO.c    ****     char * linePtr;
 129:serialIO.c    ****     uint8 rxStat;
 130:serialIO.c    ****     char8 rxChar;       /* Data received from the Serial port */
 131:serialIO.c    ****     uint8 endOfLine = 0;
 391              		.loc 1 131 0
 392 000c 0023     		movs	r3, #0
 393 000e FB73     		strb	r3, [r7, #15]
 132:serialIO.c    ****     linePtr = lineBuffer;
 394              		.loc 1 132 0
 395 0010 7B68     		ldr	r3, [r7, #4]
 396 0012 3B61     		str	r3, [r7, #16]
 397              	.L27:
 133:serialIO.c    ****     do
 134:serialIO.c    ****     {
 135:serialIO.c    ****         rxStat = UART_1_ReadRxStatus(); 
 398              		.loc 1 135 0
 399 0014 FFF7FEFF 		bl	UART_1_ReadRxStatus
 400 0018 0346     		mov	r3, r0
 401 001a BB73     		strb	r3, [r7, #14]
 136:serialIO.c    ****         if (rxStat & UART_1_RX_STS_FIFO_NOTEMPTY)
 402              		.loc 1 136 0
 403 001c BB7B     		ldrb	r3, [r7, #14]	@ zero_extendqisi2
 404 001e 03F02003 		and	r3, r3, #32
 405 0022 002B     		cmp	r3, #0
 406 0024 47D0     		beq	.L19
 137:serialIO.c    ****         {
 138:serialIO.c    ****             rxChar = UART_1_GetChar();
 407              		.loc 1 138 0
 408 0026 FFF7FEFF 		bl	UART_1_GetChar
 409 002a 0346     		mov	r3, r0
 410 002c 7B73     		strb	r3, [r7, #13]
 139:serialIO.c    ****             if (rxChar == 0x0a || rxChar == 0x0d)
 411              		.loc 1 139 0
 412 002e 7B7B     		ldrb	r3, [r7, #13]	@ zero_extendqisi2
 413 0030 0A2B     		cmp	r3, #10
 414 0032 02D0     		beq	.L20
 415              		.loc 1 139 0 is_stmt 0 discriminator 1
 416 0034 7B7B     		ldrb	r3, [r7, #13]	@ zero_extendqisi2
 417 0036 0D2B     		cmp	r3, #13
 418 0038 0DD1     		bne	.L21
 419              	.L20:
 140:serialIO.c    ****             {
 141:serialIO.c    ****                 printSingleChar(rxChar);
 420              		.loc 1 141 0 is_stmt 1
 421 003a 7B7B     		ldrb	r3, [r7, #13]	@ zero_extendqisi2
 422 003c 1846     		mov	r0, r3
 423 003e FFF7FEFF 		bl	printSingleChar
 142:serialIO.c    ****                 endOfLine = 1;
 424              		.loc 1 142 0
 425 0042 0123     		movs	r3, #1
 426 0044 FB73     		strb	r3, [r7, #15]
 143:serialIO.c    ****                 *linePtr = 0;
ARM GAS  C:\Users\DGILLI~1\AppData\Local\Temp\ccy1aVo0.s 			page 11


 427              		.loc 1 143 0
 428 0046 3B69     		ldr	r3, [r7, #16]
 429 0048 0022     		movs	r2, #0
 430 004a 1A70     		strb	r2, [r3]
 144:serialIO.c    ****                 byteCount++;
 431              		.loc 1 144 0
 432 004c FB7D     		ldrb	r3, [r7, #23]	@ zero_extendqisi2
 433 004e 0133     		adds	r3, r3, #1
 434 0050 FB75     		strb	r3, [r7, #23]
 145:serialIO.c    ****                 return byteCount;
 435              		.loc 1 145 0
 436 0052 FB7D     		ldrb	r3, [r7, #23]	@ zero_extendqisi2
 437 0054 33E0     		b	.L22
 438              	.L21:
 146:serialIO.c    ****             }
 147:serialIO.c    ****             else if ((rxChar == 0x08) ||(rxChar == 0x7f))
 439              		.loc 1 147 0
 440 0056 7B7B     		ldrb	r3, [r7, #13]	@ zero_extendqisi2
 441 0058 082B     		cmp	r3, #8
 442 005a 02D0     		beq	.L23
 443              		.loc 1 147 0 is_stmt 0 discriminator 1
 444 005c 7B7B     		ldrb	r3, [r7, #13]	@ zero_extendqisi2
 445 005e 7F2B     		cmp	r3, #127
 446 0060 13D1     		bne	.L24
 447              	.L23:
 148:serialIO.c    ****             {
 149:serialIO.c    ****                 if (byteCount > 0)
 448              		.loc 1 149 0 is_stmt 1
 449 0062 FB7D     		ldrb	r3, [r7, #23]	@ zero_extendqisi2
 450 0064 002B     		cmp	r3, #0
 451 0066 0FD0     		beq	.L25
 150:serialIO.c    ****                 {
 151:serialIO.c    ****                     printSingleChar(0x08);
 452              		.loc 1 151 0
 453 0068 0820     		movs	r0, #8
 454 006a FFF7FEFF 		bl	printSingleChar
 152:serialIO.c    ****                     printSingleChar(' ');
 455              		.loc 1 152 0
 456 006e 2020     		movs	r0, #32
 457 0070 FFF7FEFF 		bl	printSingleChar
 153:serialIO.c    ****                     printSingleChar(0x08);
 458              		.loc 1 153 0
 459 0074 0820     		movs	r0, #8
 460 0076 FFF7FEFF 		bl	printSingleChar
 154:serialIO.c    ****                     linePtr--;
 461              		.loc 1 154 0
 462 007a 3B69     		ldr	r3, [r7, #16]
 463 007c 013B     		subs	r3, r3, #1
 464 007e 3B61     		str	r3, [r7, #16]
 155:serialIO.c    ****                     byteCount--;
 465              		.loc 1 155 0
 466 0080 FB7D     		ldrb	r3, [r7, #23]	@ zero_extendqisi2
 467 0082 013B     		subs	r3, r3, #1
 468 0084 FB75     		strb	r3, [r7, #23]
 149:serialIO.c    ****                 {
 469              		.loc 1 149 0
 470 0086 16E0     		b	.L19
ARM GAS  C:\Users\DGILLI~1\AppData\Local\Temp\ccy1aVo0.s 			page 12


 471              	.L25:
 472 0088 15E0     		b	.L19
 473              	.L24:
 156:serialIO.c    ****                 }
 157:serialIO.c    ****             }
 158:serialIO.c    ****             else if (byteCount > MAXLINELENGTH-2)
 474              		.loc 1 158 0
 475 008a FB7D     		ldrb	r3, [r7, #23]	@ zero_extendqisi2
 476 008c 4E2B     		cmp	r3, #78
 477 008e 05D9     		bls	.L26
 159:serialIO.c    ****             {
 160:serialIO.c    ****                 endOfLine = 1;
 478              		.loc 1 160 0
 479 0090 0123     		movs	r3, #1
 480 0092 FB73     		strb	r3, [r7, #15]
 161:serialIO.c    ****                 *linePtr = 0;
 481              		.loc 1 161 0
 482 0094 3B69     		ldr	r3, [r7, #16]
 483 0096 0022     		movs	r2, #0
 484 0098 1A70     		strb	r2, [r3]
 485 009a 0CE0     		b	.L19
 486              	.L26:
 162:serialIO.c    ****             }
 163:serialIO.c    ****             else
 164:serialIO.c    ****             {
 165:serialIO.c    ****                 printSingleChar(rxChar);
 487              		.loc 1 165 0
 488 009c 7B7B     		ldrb	r3, [r7, #13]	@ zero_extendqisi2
 489 009e 1846     		mov	r0, r3
 490 00a0 FFF7FEFF 		bl	printSingleChar
 166:serialIO.c    ****                 *linePtr = rxChar;
 491              		.loc 1 166 0
 492 00a4 3B69     		ldr	r3, [r7, #16]
 493 00a6 7A7B     		ldrb	r2, [r7, #13]
 494 00a8 1A70     		strb	r2, [r3]
 167:serialIO.c    ****                 linePtr++;
 495              		.loc 1 167 0
 496 00aa 3B69     		ldr	r3, [r7, #16]
 497 00ac 0133     		adds	r3, r3, #1
 498 00ae 3B61     		str	r3, [r7, #16]
 168:serialIO.c    ****                 byteCount++;
 499              		.loc 1 168 0
 500 00b0 FB7D     		ldrb	r3, [r7, #23]	@ zero_extendqisi2
 501 00b2 0133     		adds	r3, r3, #1
 502 00b4 FB75     		strb	r3, [r7, #23]
 503              	.L19:
 169:serialIO.c    ****             }
 170:serialIO.c    ****         }    
 171:serialIO.c    ****     }
 172:serialIO.c    ****     while(endOfLine == 0);
 504              		.loc 1 172 0
 505 00b6 FB7B     		ldrb	r3, [r7, #15]	@ zero_extendqisi2
 506 00b8 002B     		cmp	r3, #0
 507 00ba ABD0     		beq	.L27
 173:serialIO.c    ****     return byteCount;
 508              		.loc 1 173 0
 509 00bc FB7D     		ldrb	r3, [r7, #23]	@ zero_extendqisi2
ARM GAS  C:\Users\DGILLI~1\AppData\Local\Temp\ccy1aVo0.s 			page 13


 510              	.L22:
 174:serialIO.c    **** }
 511              		.loc 1 174 0
 512 00be 1846     		mov	r0, r3
 513 00c0 1837     		adds	r7, r7, #24
 514              		.cfi_def_cfa_offset 8
 515 00c2 BD46     		mov	sp, r7
 516              		.cfi_def_cfa_register 13
 517              		@ sp needed
 518 00c4 80BD     		pop	{r7, pc}
 519              		.cfi_endproc
 520              	.LFE71:
 521              		.size	readLine, .-readLine
 522 00c6 00BF     		.text
 523              	.Letext0:
 524              		.file 2 "c:\\program files (x86)\\cypress\\psoc creator\\4.0\\psoc creator\\import\\gnu\\arm\\4.9.
 525              		.file 3 "c:\\program files (x86)\\cypress\\psoc creator\\4.0\\psoc creator\\import\\gnu\\arm\\4.9.
 526              		.file 4 "Generated_Source\\PSoC5/cytypes.h"
 527              		.file 5 "serialIO.h"
 528              		.file 6 "Generated_Source\\PSoC5/core_cm3.h"