ARM GAS  C:\Users\DGILLI~1\AppData\Local\Temp\ccehbQOd.s 			page 1


   1              		.syntax unified
   2              		.cpu cortex-m3
   3              		.fpu softvfp
   4              		.eabi_attribute 20, 1
   5              		.eabi_attribute 21, 1
   6              		.eabi_attribute 23, 3
   7              		.eabi_attribute 24, 1
   8              		.eabi_attribute 25, 1
   9              		.eabi_attribute 26, 1
  10              		.eabi_attribute 30, 6
  11              		.eabi_attribute 34, 1
  12              		.eabi_attribute 18, 4
  13              		.thumb
  14              		.file	"stringConvs.c"
  15              		.text
  16              	.Ltext0:
  17              		.cfi_sections	.debug_frame
  18              		.section	.text.findInString,"ax",%progbits
  19              		.align	2
  20              		.global	findInString
  21              		.thumb
  22              		.thumb_func
  23              		.type	findInString, %function
  24              	findInString:
  25              	.LFB63:
  26              		.file 1 "stringConvs.c"
   1:stringConvs.c **** /* ========================================
   2:stringConvs.c ****  * stringConvs.c
   3:stringConvs.c ****  * Copyright AAC, LLC, 2017
   4:stringConvs.c ****  * All Rights Reserved
   5:stringConvs.c ****  * UNPUBLISHED, LICENSED SOFTWARE.
   6:stringConvs.c ****  *
   7:stringConvs.c ****  * CONFIDENTIAL AND PROPRIETARY INFORMATION
   8:stringConvs.c ****  * WHICH IS THE PROPERTY OF AAC.
   9:stringConvs.c ****  *
  10:stringConvs.c ****  * ========================================
  11:stringConvs.c **** */
  12:stringConvs.c **** 
  13:stringConvs.c **** #include "project.h"
  14:stringConvs.c **** #undef DEBUG_ON_PC
  15:stringConvs.c **** #include "stringConvs.h"
  16:stringConvs.c **** 
  17:stringConvs.c **** ////////////////////////////////////////////////////////////////
  18:stringConvs.c **** // findInString
  19:stringConvs.c **** ////////////////////////////////////////////////////////////////
  20:stringConvs.c **** 
  21:stringConvs.c **** int8 findInString(char * stringToParse, char valToFind)
  22:stringConvs.c **** {
  27              		.loc 1 22 0
  28              		.cfi_startproc
  29              		@ args = 0, pretend = 0, frame = 16
  30              		@ frame_needed = 1, uses_anonymous_args = 0
  31              		@ link register save eliminated.
  32 0000 80B4     		push	{r7}
  33              		.cfi_def_cfa_offset 4
  34              		.cfi_offset 7, -4
  35 0002 85B0     		sub	sp, sp, #20
ARM GAS  C:\Users\DGILLI~1\AppData\Local\Temp\ccehbQOd.s 			page 2


  36              		.cfi_def_cfa_offset 24
  37 0004 00AF     		add	r7, sp, #0
  38              		.cfi_def_cfa_register 7
  39 0006 7860     		str	r0, [r7, #4]
  40 0008 0B46     		mov	r3, r1
  41 000a FB70     		strb	r3, [r7, #3]
  23:stringConvs.c ****     char * stringPointer = stringToParse;
  42              		.loc 1 23 0
  43 000c 7B68     		ldr	r3, [r7, #4]
  44 000e BB60     		str	r3, [r7, #8]
  24:stringConvs.c ****     int8 offset = 0;
  45              		.loc 1 24 0
  46 0010 0023     		movs	r3, #0
  47 0012 FB73     		strb	r3, [r7, #15]
  25:stringConvs.c ****     //printLine("looking for");
  26:stringConvs.c ****     //printLine(stringToParse);
  27:stringConvs.c ****     while (stringPointer[offset] != 0)
  48              		.loc 1 27 0
  49 0014 0EE0     		b	.L2
  50              	.L5:
  28:stringConvs.c ****     {
  29:stringConvs.c ****         if (stringPointer[offset] == valToFind)
  51              		.loc 1 29 0
  52 0016 97F90F30 		ldrsb	r3, [r7, #15]
  53 001a BA68     		ldr	r2, [r7, #8]
  54 001c 1344     		add	r3, r3, r2
  55 001e 1B78     		ldrb	r3, [r3]	@ zero_extendqisi2
  56 0020 FA78     		ldrb	r2, [r7, #3]	@ zero_extendqisi2
  57 0022 9A42     		cmp	r2, r3
  58 0024 01D1     		bne	.L3
  30:stringConvs.c ****             return(offset);
  59              		.loc 1 30 0
  60 0026 FB7B     		ldrb	r3, [r7, #15]	@ zero_extendqisi2
  61 0028 0CE0     		b	.L4
  62              	.L3:
  31:stringConvs.c ****         offset++;
  63              		.loc 1 31 0
  64 002a FB7B     		ldrb	r3, [r7, #15]	@ zero_extendqisi2
  65 002c DBB2     		uxtb	r3, r3
  66 002e 0133     		adds	r3, r3, #1
  67 0030 DBB2     		uxtb	r3, r3
  68 0032 FB73     		strb	r3, [r7, #15]
  69              	.L2:
  27:stringConvs.c ****     {
  70              		.loc 1 27 0
  71 0034 97F90F30 		ldrsb	r3, [r7, #15]
  72 0038 BA68     		ldr	r2, [r7, #8]
  73 003a 1344     		add	r3, r3, r2
  74 003c 1B78     		ldrb	r3, [r3]	@ zero_extendqisi2
  75 003e 002B     		cmp	r3, #0
  76 0040 E9D1     		bne	.L5
  32:stringConvs.c ****     }
  33:stringConvs.c ****     return(-1);
  77              		.loc 1 33 0
  78 0042 FF23     		movs	r3, #255
  79              	.L4:
  80 0044 5BB2     		sxtb	r3, r3
ARM GAS  C:\Users\DGILLI~1\AppData\Local\Temp\ccehbQOd.s 			page 3


  34:stringConvs.c **** }
  81              		.loc 1 34 0
  82 0046 1846     		mov	r0, r3
  83 0048 1437     		adds	r7, r7, #20
  84              		.cfi_def_cfa_offset 4
  85 004a BD46     		mov	sp, r7
  86              		.cfi_def_cfa_register 13
  87              		@ sp needed
  88 004c 5DF8047B 		ldr	r7, [sp], #4
  89              		.cfi_restore 7
  90              		.cfi_def_cfa_offset 0
  91 0050 7047     		bx	lr
  92              		.cfi_endproc
  93              	.LFE63:
  94              		.size	findInString, .-findInString
  95 0052 00BF     		.section	.text.charToNibble,"ax",%progbits
  96              		.align	2
  97              		.global	charToNibble
  98              		.thumb
  99              		.thumb_func
 100              		.type	charToNibble, %function
 101              	charToNibble:
 102              	.LFB64:
  35:stringConvs.c **** 
  36:stringConvs.c **** ////////////////////////////////////////////////////////////////
  37:stringConvs.c **** // uint8 charToNibble(char)
  38:stringConvs.c **** ////////////////////////////////////////////////////////////////
  39:stringConvs.c **** 
  40:stringConvs.c **** uint8 charToNibble(char digitChar)
  41:stringConvs.c **** {
 103              		.loc 1 41 0
 104              		.cfi_startproc
 105              		@ args = 0, pretend = 0, frame = 8
 106              		@ frame_needed = 1, uses_anonymous_args = 0
 107              		@ link register save eliminated.
 108 0000 80B4     		push	{r7}
 109              		.cfi_def_cfa_offset 4
 110              		.cfi_offset 7, -4
 111 0002 83B0     		sub	sp, sp, #12
 112              		.cfi_def_cfa_offset 16
 113 0004 00AF     		add	r7, sp, #0
 114              		.cfi_def_cfa_register 7
 115 0006 0346     		mov	r3, r0
 116 0008 FB71     		strb	r3, [r7, #7]
  42:stringConvs.c ****     //printLine("charToNibble: got here");
  43:stringConvs.c ****     if (digitChar >= '0' && digitChar <= '9')
 117              		.loc 1 43 0
 118 000a FB79     		ldrb	r3, [r7, #7]	@ zero_extendqisi2
 119 000c 2F2B     		cmp	r3, #47
 120 000e 06D9     		bls	.L7
 121              		.loc 1 43 0 is_stmt 0 discriminator 1
 122 0010 FB79     		ldrb	r3, [r7, #7]	@ zero_extendqisi2
 123 0012 392B     		cmp	r3, #57
 124 0014 03D8     		bhi	.L7
  44:stringConvs.c ****         return(digitChar-'0');
 125              		.loc 1 44 0 is_stmt 1
 126 0016 FB79     		ldrb	r3, [r7, #7]
ARM GAS  C:\Users\DGILLI~1\AppData\Local\Temp\ccehbQOd.s 			page 4


 127 0018 303B     		subs	r3, r3, #48
 128 001a DBB2     		uxtb	r3, r3
 129 001c 14E0     		b	.L8
 130              	.L7:
  45:stringConvs.c ****     else if (digitChar >= 'a' && digitChar <= 'f')
 131              		.loc 1 45 0
 132 001e FB79     		ldrb	r3, [r7, #7]	@ zero_extendqisi2
 133 0020 602B     		cmp	r3, #96
 134 0022 06D9     		bls	.L9
 135              		.loc 1 45 0 is_stmt 0 discriminator 1
 136 0024 FB79     		ldrb	r3, [r7, #7]	@ zero_extendqisi2
 137 0026 662B     		cmp	r3, #102
 138 0028 03D8     		bhi	.L9
  46:stringConvs.c ****        return(digitChar-'a'+10);
 139              		.loc 1 46 0 is_stmt 1
 140 002a FB79     		ldrb	r3, [r7, #7]
 141 002c 573B     		subs	r3, r3, #87
 142 002e DBB2     		uxtb	r3, r3
 143 0030 0AE0     		b	.L8
 144              	.L9:
  47:stringConvs.c ****     else if (digitChar >= 'A' && digitChar <= 'F')
 145              		.loc 1 47 0
 146 0032 FB79     		ldrb	r3, [r7, #7]	@ zero_extendqisi2
 147 0034 402B     		cmp	r3, #64
 148 0036 06D9     		bls	.L10
 149              		.loc 1 47 0 is_stmt 0 discriminator 1
 150 0038 FB79     		ldrb	r3, [r7, #7]	@ zero_extendqisi2
 151 003a 462B     		cmp	r3, #70
 152 003c 03D8     		bhi	.L10
  48:stringConvs.c ****        return(digitChar-'A'+10);
 153              		.loc 1 48 0 is_stmt 1
 154 003e FB79     		ldrb	r3, [r7, #7]
 155 0040 373B     		subs	r3, r3, #55
 156 0042 DBB2     		uxtb	r3, r3
 157 0044 00E0     		b	.L8
 158              	.L10:
  49:stringConvs.c ****     return(0);
 159              		.loc 1 49 0
 160 0046 0023     		movs	r3, #0
 161              	.L8:
  50:stringConvs.c **** }
 162              		.loc 1 50 0
 163 0048 1846     		mov	r0, r3
 164 004a 0C37     		adds	r7, r7, #12
 165              		.cfi_def_cfa_offset 4
 166 004c BD46     		mov	sp, r7
 167              		.cfi_def_cfa_register 13
 168              		@ sp needed
 169 004e 5DF8047B 		ldr	r7, [sp], #4
 170              		.cfi_restore 7
 171              		.cfi_def_cfa_offset 0
 172 0052 7047     		bx	lr
 173              		.cfi_endproc
 174              	.LFE64:
 175              		.size	charToNibble, .-charToNibble
 176              		.section	.text.stringToLong,"ax",%progbits
 177              		.align	2
ARM GAS  C:\Users\DGILLI~1\AppData\Local\Temp\ccehbQOd.s 			page 5


 178              		.global	stringToLong
 179              		.thumb
 180              		.thumb_func
 181              		.type	stringToLong, %function
 182              	stringToLong:
 183              	.LFB65:
  51:stringConvs.c **** 
  52:stringConvs.c **** ////////////////////////////////////////////////////////////////
  53:stringConvs.c **** // uint32 stringToLong(char *)
  54:stringConvs.c **** ////////////////////////////////////////////////////////////////
  55:stringConvs.c **** 
  56:stringConvs.c **** uint32 stringToLong(char * numString)
  57:stringConvs.c **** {
 184              		.loc 1 57 0
 185              		.cfi_startproc
 186              		@ args = 0, pretend = 0, frame = 16
 187              		@ frame_needed = 1, uses_anonymous_args = 0
 188 0000 90B5     		push	{r4, r7, lr}
 189              		.cfi_def_cfa_offset 12
 190              		.cfi_offset 4, -12
 191              		.cfi_offset 7, -8
 192              		.cfi_offset 14, -4
 193 0002 85B0     		sub	sp, sp, #20
 194              		.cfi_def_cfa_offset 32
 195 0004 00AF     		add	r7, sp, #0
 196              		.cfi_def_cfa_register 7
 197 0006 7860     		str	r0, [r7, #4]
  58:stringConvs.c ****     uint8 offset = 0;
 198              		.loc 1 58 0
 199 0008 0023     		movs	r3, #0
 200 000a FB73     		strb	r3, [r7, #15]
  59:stringConvs.c ****     uint32 theBigNumber = 0;
 201              		.loc 1 59 0
 202 000c 0023     		movs	r3, #0
 203 000e BB60     		str	r3, [r7, #8]
  60:stringConvs.c ****     
  61:stringConvs.c ****     //printLine("stringToLong: got here");
  62:stringConvs.c ****     //printLine(numString);
  63:stringConvs.c ****     while (numString[offset] != 0)
 204              		.loc 1 63 0
 205 0010 0EE0     		b	.L12
 206              	.L13:
  64:stringConvs.c ****     {
  65:stringConvs.c ****         theBigNumber = ((theBigNumber * 16) + charToNibble(numString[offset]));
 207              		.loc 1 65 0
 208 0012 BB68     		ldr	r3, [r7, #8]
 209 0014 1C01     		lsls	r4, r3, #4
 210 0016 FB7B     		ldrb	r3, [r7, #15]	@ zero_extendqisi2
 211 0018 7A68     		ldr	r2, [r7, #4]
 212 001a 1344     		add	r3, r3, r2
 213 001c 1B78     		ldrb	r3, [r3]	@ zero_extendqisi2
 214 001e 1846     		mov	r0, r3
 215 0020 FFF7FEFF 		bl	charToNibble
 216 0024 0346     		mov	r3, r0
 217 0026 2344     		add	r3, r3, r4
 218 0028 BB60     		str	r3, [r7, #8]
  66:stringConvs.c ****         offset++;
ARM GAS  C:\Users\DGILLI~1\AppData\Local\Temp\ccehbQOd.s 			page 6


 219              		.loc 1 66 0
 220 002a FB7B     		ldrb	r3, [r7, #15]	@ zero_extendqisi2
 221 002c 0133     		adds	r3, r3, #1
 222 002e FB73     		strb	r3, [r7, #15]
 223              	.L12:
  63:stringConvs.c ****     {
 224              		.loc 1 63 0
 225 0030 FB7B     		ldrb	r3, [r7, #15]	@ zero_extendqisi2
 226 0032 7A68     		ldr	r2, [r7, #4]
 227 0034 1344     		add	r3, r3, r2
 228 0036 1B78     		ldrb	r3, [r3]	@ zero_extendqisi2
 229 0038 002B     		cmp	r3, #0
 230 003a EAD1     		bne	.L13
  67:stringConvs.c ****     }
  68:stringConvs.c ****     return theBigNumber;
 231              		.loc 1 68 0
 232 003c BB68     		ldr	r3, [r7, #8]
  69:stringConvs.c **** }
 233              		.loc 1 69 0
 234 003e 1846     		mov	r0, r3
 235 0040 1437     		adds	r7, r7, #20
 236              		.cfi_def_cfa_offset 12
 237 0042 BD46     		mov	sp, r7
 238              		.cfi_def_cfa_register 13
 239              		@ sp needed
 240 0044 90BD     		pop	{r4, r7, pc}
 241              		.cfi_endproc
 242              	.LFE65:
 243              		.size	stringToLong, .-stringToLong
 244 0046 00BF     		.section	.text.longToString,"ax",%progbits
 245              		.align	2
 246              		.global	longToString
 247              		.thumb
 248              		.thumb_func
 249              		.type	longToString, %function
 250              	longToString:
 251              	.LFB66:
  70:stringConvs.c **** 
  71:stringConvs.c **** ////////////////////////////////////////////////////////////////
  72:stringConvs.c **** // void longToString(uint32 lValue, char * resultString)
  73:stringConvs.c **** ////////////////////////////////////////////////////////////////
  74:stringConvs.c **** 
  75:stringConvs.c **** void longToString(uint32 lValue, char * resultString)
  76:stringConvs.c **** {
 252              		.loc 1 76 0
 253              		.cfi_startproc
 254              		@ args = 0, pretend = 0, frame = 24
 255              		@ frame_needed = 1, uses_anonymous_args = 0
 256              		@ link register save eliminated.
 257 0000 80B4     		push	{r7}
 258              		.cfi_def_cfa_offset 4
 259              		.cfi_offset 7, -4
 260 0002 87B0     		sub	sp, sp, #28
 261              		.cfi_def_cfa_offset 32
 262 0004 00AF     		add	r7, sp, #0
 263              		.cfi_def_cfa_register 7
 264 0006 7860     		str	r0, [r7, #4]
ARM GAS  C:\Users\DGILLI~1\AppData\Local\Temp\ccehbQOd.s 			page 7


 265 0008 3960     		str	r1, [r7]
  77:stringConvs.c ****     uint32 nibbleMask = 0xf0000000;
 266              		.loc 1 77 0
 267 000a 4FF07043 		mov	r3, #-268435456
 268 000e 7B61     		str	r3, [r7, #20]
  78:stringConvs.c ****     uint8 nibbleOffset = 28;
 269              		.loc 1 78 0
 270 0010 1C23     		movs	r3, #28
 271 0012 FB74     		strb	r3, [r7, #19]
  79:stringConvs.c ****     uint32 nibbleVal;
  80:stringConvs.c ****     uint8 resultOffset=0;
 272              		.loc 1 80 0
 273 0014 0023     		movs	r3, #0
 274 0016 BB74     		strb	r3, [r7, #18]
  81:stringConvs.c ****     //printLine("longToString: got here");
  82:stringConvs.c ****     for (resultOffset = 0; resultOffset < 8; resultOffset++)
 275              		.loc 1 82 0
 276 0018 0023     		movs	r3, #0
 277 001a BB74     		strb	r3, [r7, #18]
 278 001c 23E0     		b	.L16
 279              	.L19:
  83:stringConvs.c ****     {
  84:stringConvs.c ****         nibbleVal = ((lValue&nibbleMask)>>nibbleOffset);
 280              		.loc 1 84 0
 281 001e 7A68     		ldr	r2, [r7, #4]
 282 0020 7B69     		ldr	r3, [r7, #20]
 283 0022 1A40     		ands	r2, r2, r3
 284 0024 FB7C     		ldrb	r3, [r7, #19]	@ zero_extendqisi2
 285 0026 22FA03F3 		lsr	r3, r2, r3
 286 002a FB60     		str	r3, [r7, #12]
  85:stringConvs.c ****         if (nibbleVal <= 9)
 287              		.loc 1 85 0
 288 002c FB68     		ldr	r3, [r7, #12]
 289 002e 092B     		cmp	r3, #9
 290 0030 08D8     		bhi	.L17
  86:stringConvs.c ****             resultString[resultOffset] = nibbleVal+'0';
 291              		.loc 1 86 0
 292 0032 BB7C     		ldrb	r3, [r7, #18]	@ zero_extendqisi2
 293 0034 3A68     		ldr	r2, [r7]
 294 0036 1344     		add	r3, r3, r2
 295 0038 FA68     		ldr	r2, [r7, #12]
 296 003a D2B2     		uxtb	r2, r2
 297 003c 3032     		adds	r2, r2, #48
 298 003e D2B2     		uxtb	r2, r2
 299 0040 1A70     		strb	r2, [r3]
 300 0042 07E0     		b	.L18
 301              	.L17:
  87:stringConvs.c ****         else
  88:stringConvs.c ****             resultString[resultOffset] = nibbleVal-10+'A';
 302              		.loc 1 88 0
 303 0044 BB7C     		ldrb	r3, [r7, #18]	@ zero_extendqisi2
 304 0046 3A68     		ldr	r2, [r7]
 305 0048 1344     		add	r3, r3, r2
 306 004a FA68     		ldr	r2, [r7, #12]
 307 004c D2B2     		uxtb	r2, r2
 308 004e 3732     		adds	r2, r2, #55
 309 0050 D2B2     		uxtb	r2, r2
ARM GAS  C:\Users\DGILLI~1\AppData\Local\Temp\ccehbQOd.s 			page 8


 310 0052 1A70     		strb	r2, [r3]
 311              	.L18:
  89:stringConvs.c ****         nibbleMask >>= 4;
 312              		.loc 1 89 0 discriminator 2
 313 0054 7B69     		ldr	r3, [r7, #20]
 314 0056 1B09     		lsrs	r3, r3, #4
 315 0058 7B61     		str	r3, [r7, #20]
  90:stringConvs.c ****         nibbleOffset -= 4;
 316              		.loc 1 90 0 discriminator 2
 317 005a FB7C     		ldrb	r3, [r7, #19]
 318 005c 043B     		subs	r3, r3, #4
 319 005e FB74     		strb	r3, [r7, #19]
  82:stringConvs.c ****     {
 320              		.loc 1 82 0 discriminator 2
 321 0060 BB7C     		ldrb	r3, [r7, #18]	@ zero_extendqisi2
 322 0062 0133     		adds	r3, r3, #1
 323 0064 BB74     		strb	r3, [r7, #18]
 324              	.L16:
  82:stringConvs.c ****     {
 325              		.loc 1 82 0 is_stmt 0 discriminator 1
 326 0066 BB7C     		ldrb	r3, [r7, #18]	@ zero_extendqisi2
 327 0068 072B     		cmp	r3, #7
 328 006a D8D9     		bls	.L19
  91:stringConvs.c ****     }
  92:stringConvs.c ****     resultString[8] = 0;
 329              		.loc 1 92 0 is_stmt 1
 330 006c 3B68     		ldr	r3, [r7]
 331 006e 0833     		adds	r3, r3, #8
 332 0070 0022     		movs	r2, #0
 333 0072 1A70     		strb	r2, [r3]
  93:stringConvs.c **** }
 334              		.loc 1 93 0
 335 0074 1C37     		adds	r7, r7, #28
 336              		.cfi_def_cfa_offset 4
 337 0076 BD46     		mov	sp, r7
 338              		.cfi_def_cfa_register 13
 339              		@ sp needed
 340 0078 5DF8047B 		ldr	r7, [sp], #4
 341              		.cfi_restore 7
 342              		.cfi_def_cfa_offset 0
 343 007c 7047     		bx	lr
 344              		.cfi_endproc
 345              	.LFE66:
 346              		.size	longToString, .-longToString
 347 007e 00BF     		.section	.text.shortToString,"ax",%progbits
 348              		.align	2
 349              		.global	shortToString
 350              		.thumb
 351              		.thumb_func
 352              		.type	shortToString, %function
 353              	shortToString:
 354              	.LFB67:
  94:stringConvs.c **** 
  95:stringConvs.c **** ////////////////////////////////////////////////////////////////
  96:stringConvs.c **** // void longToString(uint32 lValue, char * resultString)
  97:stringConvs.c **** ////////////////////////////////////////////////////////////////
  98:stringConvs.c **** 
ARM GAS  C:\Users\DGILLI~1\AppData\Local\Temp\ccehbQOd.s 			page 9


  99:stringConvs.c **** void shortToString(uint16 sValue, char * resultString)
 100:stringConvs.c **** {
 355              		.loc 1 100 0
 356              		.cfi_startproc
 357              		@ args = 0, pretend = 0, frame = 24
 358              		@ frame_needed = 1, uses_anonymous_args = 0
 359              		@ link register save eliminated.
 360 0000 80B4     		push	{r7}
 361              		.cfi_def_cfa_offset 4
 362              		.cfi_offset 7, -4
 363 0002 87B0     		sub	sp, sp, #28
 364              		.cfi_def_cfa_offset 32
 365 0004 00AF     		add	r7, sp, #0
 366              		.cfi_def_cfa_register 7
 367 0006 0346     		mov	r3, r0
 368 0008 3960     		str	r1, [r7]
 369 000a FB80     		strh	r3, [r7, #6]	@ movhi
 101:stringConvs.c ****     uint32 nibbleMask = 0xf000;
 370              		.loc 1 101 0
 371 000c 4FF47043 		mov	r3, #61440
 372 0010 7B61     		str	r3, [r7, #20]
 102:stringConvs.c ****     uint8 nibbleOffset = 12;
 373              		.loc 1 102 0
 374 0012 0C23     		movs	r3, #12
 375 0014 FB74     		strb	r3, [r7, #19]
 103:stringConvs.c ****     uint32 nibbleVal;
 104:stringConvs.c ****     uint8 resultOffset=0;
 376              		.loc 1 104 0
 377 0016 0023     		movs	r3, #0
 378 0018 BB74     		strb	r3, [r7, #18]
 105:stringConvs.c ****     //printLine("longToString: got here");
 106:stringConvs.c ****     for (resultOffset = 0; resultOffset < 4; resultOffset++)
 379              		.loc 1 106 0
 380 001a 0023     		movs	r3, #0
 381 001c BB74     		strb	r3, [r7, #18]
 382 001e 23E0     		b	.L21
 383              	.L24:
 107:stringConvs.c ****     {
 108:stringConvs.c ****         nibbleVal = ((sValue&nibbleMask)>>nibbleOffset);
 384              		.loc 1 108 0
 385 0020 FA88     		ldrh	r2, [r7, #6]
 386 0022 7B69     		ldr	r3, [r7, #20]
 387 0024 1A40     		ands	r2, r2, r3
 388 0026 FB7C     		ldrb	r3, [r7, #19]	@ zero_extendqisi2
 389 0028 22FA03F3 		lsr	r3, r2, r3
 390 002c FB60     		str	r3, [r7, #12]
 109:stringConvs.c ****         if (nibbleVal <= 9)
 391              		.loc 1 109 0
 392 002e FB68     		ldr	r3, [r7, #12]
 393 0030 092B     		cmp	r3, #9
 394 0032 08D8     		bhi	.L22
 110:stringConvs.c ****             resultString[resultOffset] = nibbleVal+'0';
 395              		.loc 1 110 0
 396 0034 BB7C     		ldrb	r3, [r7, #18]	@ zero_extendqisi2
 397 0036 3A68     		ldr	r2, [r7]
 398 0038 1344     		add	r3, r3, r2
 399 003a FA68     		ldr	r2, [r7, #12]
ARM GAS  C:\Users\DGILLI~1\AppData\Local\Temp\ccehbQOd.s 			page 10


 400 003c D2B2     		uxtb	r2, r2
 401 003e 3032     		adds	r2, r2, #48
 402 0040 D2B2     		uxtb	r2, r2
 403 0042 1A70     		strb	r2, [r3]
 404 0044 07E0     		b	.L23
 405              	.L22:
 111:stringConvs.c ****         else
 112:stringConvs.c ****             resultString[resultOffset] = nibbleVal-10+'A';
 406              		.loc 1 112 0
 407 0046 BB7C     		ldrb	r3, [r7, #18]	@ zero_extendqisi2
 408 0048 3A68     		ldr	r2, [r7]
 409 004a 1344     		add	r3, r3, r2
 410 004c FA68     		ldr	r2, [r7, #12]
 411 004e D2B2     		uxtb	r2, r2
 412 0050 3732     		adds	r2, r2, #55
 413 0052 D2B2     		uxtb	r2, r2
 414 0054 1A70     		strb	r2, [r3]
 415              	.L23:
 113:stringConvs.c ****         nibbleMask >>= 4;
 416              		.loc 1 113 0 discriminator 2
 417 0056 7B69     		ldr	r3, [r7, #20]
 418 0058 1B09     		lsrs	r3, r3, #4
 419 005a 7B61     		str	r3, [r7, #20]
 114:stringConvs.c ****         nibbleOffset -= 4;
 420              		.loc 1 114 0 discriminator 2
 421 005c FB7C     		ldrb	r3, [r7, #19]
 422 005e 043B     		subs	r3, r3, #4
 423 0060 FB74     		strb	r3, [r7, #19]
 106:stringConvs.c ****     {
 424              		.loc 1 106 0 discriminator 2
 425 0062 BB7C     		ldrb	r3, [r7, #18]	@ zero_extendqisi2
 426 0064 0133     		adds	r3, r3, #1
 427 0066 BB74     		strb	r3, [r7, #18]
 428              	.L21:
 106:stringConvs.c ****     {
 429              		.loc 1 106 0 is_stmt 0 discriminator 1
 430 0068 BB7C     		ldrb	r3, [r7, #18]	@ zero_extendqisi2
 431 006a 032B     		cmp	r3, #3
 432 006c D8D9     		bls	.L24
 115:stringConvs.c ****     }
 116:stringConvs.c ****     resultString[4] = 0;
 433              		.loc 1 116 0 is_stmt 1
 434 006e 3B68     		ldr	r3, [r7]
 435 0070 0433     		adds	r3, r3, #4
 436 0072 0022     		movs	r2, #0
 437 0074 1A70     		strb	r2, [r3]
 117:stringConvs.c **** }
 438              		.loc 1 117 0
 439 0076 1C37     		adds	r7, r7, #28
 440              		.cfi_def_cfa_offset 4
 441 0078 BD46     		mov	sp, r7
 442              		.cfi_def_cfa_register 13
 443              		@ sp needed
 444 007a 5DF8047B 		ldr	r7, [sp], #4
 445              		.cfi_restore 7
 446              		.cfi_def_cfa_offset 0
 447 007e 7047     		bx	lr
ARM GAS  C:\Users\DGILLI~1\AppData\Local\Temp\ccehbQOd.s 			page 11


 448              		.cfi_endproc
 449              	.LFE67:
 450              		.size	shortToString, .-shortToString
 451              		.section	.text.byteToString,"ax",%progbits
 452              		.align	2
 453              		.global	byteToString
 454              		.thumb
 455              		.thumb_func
 456              		.type	byteToString, %function
 457              	byteToString:
 458              	.LFB68:
 118:stringConvs.c **** 
 119:stringConvs.c **** ////////////////////////////////////////////////////////////////
 120:stringConvs.c **** // void byteToString(uint8 bValue, char * resultString)
 121:stringConvs.c **** ////////////////////////////////////////////////////////////////
 122:stringConvs.c **** 
 123:stringConvs.c **** void byteToString(uint8 bValue, char * resultString)
 124:stringConvs.c **** {
 459              		.loc 1 124 0
 460              		.cfi_startproc
 461              		@ args = 0, pretend = 0, frame = 24
 462              		@ frame_needed = 1, uses_anonymous_args = 0
 463              		@ link register save eliminated.
 464 0000 80B4     		push	{r7}
 465              		.cfi_def_cfa_offset 4
 466              		.cfi_offset 7, -4
 467 0002 87B0     		sub	sp, sp, #28
 468              		.cfi_def_cfa_offset 32
 469 0004 00AF     		add	r7, sp, #0
 470              		.cfi_def_cfa_register 7
 471 0006 0346     		mov	r3, r0
 472 0008 3960     		str	r1, [r7]
 473 000a FB71     		strb	r3, [r7, #7]
 125:stringConvs.c ****     uint32 nibbleMask = 0xf0;
 474              		.loc 1 125 0
 475 000c F023     		movs	r3, #240
 476 000e 7B61     		str	r3, [r7, #20]
 126:stringConvs.c ****     uint8 nibbleOffset = 4;
 477              		.loc 1 126 0
 478 0010 0423     		movs	r3, #4
 479 0012 FB74     		strb	r3, [r7, #19]
 127:stringConvs.c ****     uint32 nibbleVal;
 128:stringConvs.c ****     uint8 resultOffset=0;
 480              		.loc 1 128 0
 481 0014 0023     		movs	r3, #0
 482 0016 BB74     		strb	r3, [r7, #18]
 129:stringConvs.c ****     //printLine("byteToString: got here");
 130:stringConvs.c ****     for (resultOffset = 0; resultOffset < 2; resultOffset++)
 483              		.loc 1 130 0
 484 0018 0023     		movs	r3, #0
 485 001a BB74     		strb	r3, [r7, #18]
 486 001c 23E0     		b	.L26
 487              	.L29:
 131:stringConvs.c ****     {
 132:stringConvs.c ****         nibbleVal = ((bValue&nibbleMask)>>nibbleOffset);
 488              		.loc 1 132 0
 489 001e FA79     		ldrb	r2, [r7, #7]	@ zero_extendqisi2
ARM GAS  C:\Users\DGILLI~1\AppData\Local\Temp\ccehbQOd.s 			page 12


 490 0020 7B69     		ldr	r3, [r7, #20]
 491 0022 1A40     		ands	r2, r2, r3
 492 0024 FB7C     		ldrb	r3, [r7, #19]	@ zero_extendqisi2
 493 0026 22FA03F3 		lsr	r3, r2, r3
 494 002a FB60     		str	r3, [r7, #12]
 133:stringConvs.c ****         if (nibbleVal <= 9)
 495              		.loc 1 133 0
 496 002c FB68     		ldr	r3, [r7, #12]
 497 002e 092B     		cmp	r3, #9
 498 0030 08D8     		bhi	.L27
 134:stringConvs.c ****             resultString[resultOffset] = nibbleVal+'0';
 499              		.loc 1 134 0
 500 0032 BB7C     		ldrb	r3, [r7, #18]	@ zero_extendqisi2
 501 0034 3A68     		ldr	r2, [r7]
 502 0036 1344     		add	r3, r3, r2
 503 0038 FA68     		ldr	r2, [r7, #12]
 504 003a D2B2     		uxtb	r2, r2
 505 003c 3032     		adds	r2, r2, #48
 506 003e D2B2     		uxtb	r2, r2
 507 0040 1A70     		strb	r2, [r3]
 508 0042 07E0     		b	.L28
 509              	.L27:
 135:stringConvs.c ****         else
 136:stringConvs.c ****             resultString[resultOffset] = nibbleVal-10+'A';
 510              		.loc 1 136 0
 511 0044 BB7C     		ldrb	r3, [r7, #18]	@ zero_extendqisi2
 512 0046 3A68     		ldr	r2, [r7]
 513 0048 1344     		add	r3, r3, r2
 514 004a FA68     		ldr	r2, [r7, #12]
 515 004c D2B2     		uxtb	r2, r2
 516 004e 3732     		adds	r2, r2, #55
 517 0050 D2B2     		uxtb	r2, r2
 518 0052 1A70     		strb	r2, [r3]
 519              	.L28:
 137:stringConvs.c ****         nibbleMask >>= 4;
 520              		.loc 1 137 0 discriminator 2
 521 0054 7B69     		ldr	r3, [r7, #20]
 522 0056 1B09     		lsrs	r3, r3, #4
 523 0058 7B61     		str	r3, [r7, #20]
 138:stringConvs.c ****         nibbleOffset -= 4;
 524              		.loc 1 138 0 discriminator 2
 525 005a FB7C     		ldrb	r3, [r7, #19]
 526 005c 043B     		subs	r3, r3, #4
 527 005e FB74     		strb	r3, [r7, #19]
 130:stringConvs.c ****     {
 528              		.loc 1 130 0 discriminator 2
 529 0060 BB7C     		ldrb	r3, [r7, #18]	@ zero_extendqisi2
 530 0062 0133     		adds	r3, r3, #1
 531 0064 BB74     		strb	r3, [r7, #18]
 532              	.L26:
 130:stringConvs.c ****     {
 533              		.loc 1 130 0 is_stmt 0 discriminator 1
 534 0066 BB7C     		ldrb	r3, [r7, #18]	@ zero_extendqisi2
 535 0068 012B     		cmp	r3, #1
 536 006a D8D9     		bls	.L29
 139:stringConvs.c ****     }
 140:stringConvs.c ****     resultString[2] = 0;
ARM GAS  C:\Users\DGILLI~1\AppData\Local\Temp\ccehbQOd.s 			page 13


 537              		.loc 1 140 0 is_stmt 1
 538 006c 3B68     		ldr	r3, [r7]
 539 006e 0233     		adds	r3, r3, #2
 540 0070 0022     		movs	r2, #0
 541 0072 1A70     		strb	r2, [r3]
 141:stringConvs.c **** }
 542              		.loc 1 141 0
 543 0074 1C37     		adds	r7, r7, #28
 544              		.cfi_def_cfa_offset 4
 545 0076 BD46     		mov	sp, r7
 546              		.cfi_def_cfa_register 13
 547              		@ sp needed
 548 0078 5DF8047B 		ldr	r7, [sp], #4
 549              		.cfi_restore 7
 550              		.cfi_def_cfa_offset 0
 551 007c 7047     		bx	lr
 552              		.cfi_endproc
 553              	.LFE68:
 554              		.size	byteToString, .-byteToString
 555 007e 00BF     		.text
 556              	.Letext0:
 557              		.file 2 "c:\\program files (x86)\\cypress\\psoc creator\\4.0\\psoc creator\\import\\gnu\\arm\\4.9.
 558              		.file 3 "c:\\program files (x86)\\cypress\\psoc creator\\4.0\\psoc creator\\import\\gnu\\arm\\4.9.
 559              		.file 4 "Generated_Source\\PSoC5/cytypes.h"
 560              		.file 5 "Generated_Source\\PSoC5/core_cm3.h"