ARM GAS  C:\Users\Doug\AppData\Local\Temp\cccAx5kS.s 			page 1


   1              		.syntax unified
   2              		.cpu cortex-m3
   3              		.fpu softvfp
   4              		.eabi_attribute 20, 1
   5              		.eabi_attribute 21, 1
   6              		.eabi_attribute 23, 3
   7              		.eabi_attribute 24, 1
   8              		.eabi_attribute 25, 1
   9              		.eabi_attribute 26, 1
  10              		.eabi_attribute 30, 1
  11              		.eabi_attribute 34, 1
  12              		.eabi_attribute 18, 4
  13              		.thumb
  14              		.syntax unified
  15              		.file	"TinyBasic.c"
  16              		.text
  17              	.Ltext0:
  18              		.cfi_sections	.debug_frame
  19              		.section	.text.CfileRead,"ax",%progbits
  20              		.align	2
  21              		.global	CfileRead
  22              		.thumb
  23              		.thumb_func
  24              		.type	CfileRead, %function
  25              	CfileRead:
  26              	.LFB1:
  27              		.file 1 "TinyBasic.c"
   1:TinyBasic.c   **** /* Tiny Basic Intermediate Language Interpreter -- 2004 July 19 */
   2:TinyBasic.c   **** 
   3:TinyBasic.c   **** #include <stdio.h>
   4:TinyBasic.c   **** #include <string.h>
   5:TinyBasic.c   **** #include <stdlib.h>  /* added 08 Oct 31 */
   6:TinyBasic.c   **** 
   7:TinyBasic.c   **** /* Default input/output file names, if defined (omit otherwise)... */
   8:TinyBasic.c   **** #define DefaultInputFile "TBasm.txt"
   9:TinyBasic.c   **** #define DefaultOutputFile "TBout.txt"
  10:TinyBasic.c   **** 
  11:TinyBasic.c   **** /* File input/output function macros (adjust for C++ framework) */
  12:TinyBasic.c   **** #define FileType           FILE*
  13:TinyBasic.c   **** #define IoFileClose(fi)    fclose(fi)
  14:TinyBasic.c   **** #define InFileChar(fi)     CfileRead(fi)
  15:TinyBasic.c   **** #define OutFileChar(fi,ch) fputc(ch,fi)
  16:TinyBasic.c   **** #define ScreenChar(ch)     putchar(ch)
  17:TinyBasic.c   **** #define KeyInChar          (char)getchar()
  18:TinyBasic.c   **** #define NeedsEcho          false
  19:TinyBasic.c   **** #define BreakTest          Broken
  20:TinyBasic.c   **** 
  21:TinyBasic.c   **** /* File input/output function macros (Qt examples:) */
  22:TinyBasic.c   **** /* #define FileType           QFile* */
  23:TinyBasic.c   **** /* #define IoFileClose(fi)    fi->close() */
  24:TinyBasic.c   **** /* #define InFileChar(fi)     (fi->atEnd()?'\0':fi->getch()) */
  25:TinyBasic.c   **** /* #define OutFileChar(fi,ch) fi->putch(ch) */
  26:TinyBasic.c   **** 
  27:TinyBasic.c   **** char CfileRead(FileType fi) {   /* C file reader, returns '\0' on eof */
  28              		.loc 1 27 0
  29              		.cfi_startproc
  30              		@ args = 0, pretend = 0, frame = 0
ARM GAS  C:\Users\Doug\AppData\Local\Temp\cccAx5kS.s 			page 2


  31              		@ frame_needed = 0, uses_anonymous_args = 0
  32              	.LVL0:
  33 0000 08B5     		push	{r3, lr}
  34              		.cfi_def_cfa_offset 8
  35              		.cfi_offset 3, -8
  36              		.cfi_offset 14, -4
  28:TinyBasic.c   ****   int chn = fgetc(fi);
  37              		.loc 1 28 0
  38 0002 FFF7FEFF 		bl	fgetc
  39              	.LVL1:
  29:TinyBasic.c   ****   if (chn == EOF) return '\0';
  40              		.loc 1 29 0
  41 0006 B0F1FF3F 		cmp	r0, #-1
  42 000a 01D0     		beq	.L3
  30:TinyBasic.c   ****   return (char)chn;} /* ~CfileRead */
  43              		.loc 1 30 0
  44 000c C0B2     		uxtb	r0, r0
  45              	.LVL2:
  46 000e 08BD     		pop	{r3, pc}
  47              	.LVL3:
  48              	.L3:
  29:TinyBasic.c   ****   if (chn == EOF) return '\0';
  49              		.loc 1 29 0
  50 0010 0020     		movs	r0, #0
  51              	.LVL4:
  52              		.loc 1 30 0
  53 0012 08BD     		pop	{r3, pc}
  54              		.cfi_endproc
  55              	.LFE1:
  56              		.size	CfileRead, .-CfileRead
  57              		.section	.text.Poke2,"ax",%progbits
  58              		.align	2
  59              		.global	Poke2
  60              		.thumb
  61              		.thumb_func
  62              		.type	Poke2, %function
  63              	Poke2:
  64              	.LFB2:
  31:TinyBasic.c   **** 
  32:TinyBasic.c   **** /* Constants: */
  33:TinyBasic.c   **** 
  34:TinyBasic.c   **** #define aByte unsigned char
  35:TinyBasic.c   **** //#define CoreTop 65536 /* Core size */
  36:TinyBasic.c   **** #define CoreTop 16384 /* Core size */
  37:TinyBasic.c   **** #define UserProg 32   /* Core address of front of Basic program */
  38:TinyBasic.c   **** #define EndUser 34    /* Core address of end of stack/user space */
  39:TinyBasic.c   **** #define EndProg 36    /* Core address of end of Basic program */
  40:TinyBasic.c   **** #define GoStkTop 38   /* Core address of Gosub stack top */
  41:TinyBasic.c   **** #define LinoCore 40   /* Core address of "Current BASIC line number" */
  42:TinyBasic.c   **** #define ILPCcore 42   /* Core address of "IL Program Counter" */
  43:TinyBasic.c   **** #define BPcore 44     /* Core address of "Basic Pointer" */
  44:TinyBasic.c   **** #define SvPtCore 46   /* Core address of "Saved Pointer" */
  45:TinyBasic.c   **** #define InLine 48     /* Core address of input line */
  46:TinyBasic.c   **** #define ExpnStk 128   /* Core address of expression stack (empty) */
  47:TinyBasic.c   **** #define TabHere 191   /* Core address of output line size, for tabs */
  48:TinyBasic.c   **** #define WachPoint 255 /* Core address of debug watchpoint USR */
  49:TinyBasic.c   **** #define ColdGo 256    /* Core address of nominal restart USR */
ARM GAS  C:\Users\Doug\AppData\Local\Temp\cccAx5kS.s 			page 3


  50:TinyBasic.c   **** #define WarmGo 259    /* Core address of nominal warm start USR */
  51:TinyBasic.c   **** #define InchSub 262   /* Core address of nominal char input USR */
  52:TinyBasic.c   **** #define OutchSub 265  /* Core address of nominal char output USR */
  53:TinyBasic.c   **** #define BreakSub 268  /* Core address of nominal break test USR */
  54:TinyBasic.c   **** #define DumpSub 273   /* Core address of debug core dump USR */
  55:TinyBasic.c   **** #define PeekSub 276   /* Core address of nominal byte peek USR */
  56:TinyBasic.c   **** #define Peek2Sub 277  /* Core address of nominal 2-byte peek USR */
  57:TinyBasic.c   **** #define PokeSub 280   /* Core address of nominal byte poke USR */
  58:TinyBasic.c   **** #define TrLogSub 283  /* Core address of debug trace log USR */
  59:TinyBasic.c   **** #define BScode 271    /* Core address of backspace code */
  60:TinyBasic.c   **** #define CanCode 272   /* Core address of line cancel code */
  61:TinyBasic.c   **** #define ILfront 286   /* Core address of IL code address */
  62:TinyBasic.c   **** #define BadOp 15      /* illegal op, default IL code */
  63:TinyBasic.c   ****   /* Pascal habits die hard.. */
  64:TinyBasic.c   **** #define true 1
  65:TinyBasic.c   **** #define false 0
  66:TinyBasic.c   **** 
  67:TinyBasic.c   **** /* debugging stuff... */
  68:TinyBasic.c   **** #define DEBUGON 1     /* 1 enables \t Debugging toggle, 0 disables */
  69:TinyBasic.c   **** #define LOGSIZE 4096  /* how much to log */
  70:TinyBasic.c   **** static int Debugging = 0;    /* >0 enables debug code */
  71:TinyBasic.c   **** int DebugLog[LOGSIZE];       /* quietly logs recent activity */
  72:TinyBasic.c   **** int LogHere = 0;             /* current index in DebugLog */
  73:TinyBasic.c   **** int Watcher = 0, Watchee;    /* memory watchpoint */
  74:TinyBasic.c   **** 
  75:TinyBasic.c   **** /* Static/global data: */
  76:TinyBasic.c   **** aByte Core[CoreTop];    /* everything goes in here */
  77:TinyBasic.c   **** aByte DeCaps[128];      /* capitalization table */
  78:TinyBasic.c   **** int Lino, ILPC;         /* current line #, IL program counter */
  79:TinyBasic.c   **** int BP, SvPt;           /* current, saved TB parse pointer */
  80:TinyBasic.c   **** int SubStk, ExpnTop;    /* stack pointers */
  81:TinyBasic.c   **** int InLend, SrcEnd;     /* current input line & TB source end */
  82:TinyBasic.c   **** int UserEnd;
  83:TinyBasic.c   **** int ILend, XQhere;      /* end of IL code, start of execute loop */
  84:TinyBasic.c   **** int Broken = false;     /* =true to stop execution or listing */
  85:TinyBasic.c   **** FileType inFile = NULL; /* from option '-i' or user menu/button */
  86:TinyBasic.c   **** FileType oFile = NULL;  /* from option '-o' or user menu/button */
  87:TinyBasic.c   **** 
  88:TinyBasic.c   **** /************************* Memory Utilities.. *************************/
  89:TinyBasic.c   **** 
  90:TinyBasic.c   **** void Poke2(int loc, int valu) {         /* store integer as two bytes */
  65              		.loc 1 90 0
  66              		.cfi_startproc
  67              		@ args = 0, pretend = 0, frame = 0
  68              		@ frame_needed = 0, uses_anonymous_args = 0
  69              		@ link register save eliminated.
  70              	.LVL5:
  91:TinyBasic.c   ****   Core[loc] = (aByte)((valu>>8)&255);         /* nominally Big-Endian */
  71              		.loc 1 91 0
  72 0000 C1F30722 		ubfx	r2, r1, #8, #8
  73 0004 024B     		ldr	r3, .L6
  74 0006 1A54     		strb	r2, [r3, r0]
  92:TinyBasic.c   ****   Core[loc+1] = (aByte)(valu&255);} /* ~Poke2 */
  75              		.loc 1 92 0
  76 0008 0130     		adds	r0, r0, #1
  77              	.LVL6:
  78 000a 1954     		strb	r1, [r3, r0]
ARM GAS  C:\Users\Doug\AppData\Local\Temp\cccAx5kS.s 			page 4


  79 000c 7047     		bx	lr
  80              	.L7:
  81 000e 00BF     		.align	2
  82              	.L6:
  83 0010 00000000 		.word	Core
  84              		.cfi_endproc
  85              	.LFE2:
  86              		.size	Poke2, .-Poke2
  87              		.section	.text.Peek2,"ax",%progbits
  88              		.align	2
  89              		.global	Peek2
  90              		.thumb
  91              		.thumb_func
  92              		.type	Peek2, %function
  93              	Peek2:
  94              	.LFB3:
  93:TinyBasic.c   **** 
  94:TinyBasic.c   **** int Peek2(int loc) {                  /* fetch integer from two bytes */
  95              		.loc 1 94 0
  96              		.cfi_startproc
  97              		@ args = 0, pretend = 0, frame = 0
  98              		@ frame_needed = 0, uses_anonymous_args = 0
  99              		@ link register save eliminated.
 100              	.LVL7:
  95:TinyBasic.c   ****   return ((int)Core[loc])*256 + ((int)Core[loc+1]);} /* ~Peek2 */
 101              		.loc 1 95 0
 102 0000 034B     		ldr	r3, .L9
 103 0002 1A5C     		ldrb	r2, [r3, r0]	@ zero_extendqisi2
 104 0004 0130     		adds	r0, r0, #1
 105              	.LVL8:
 106 0006 185C     		ldrb	r0, [r3, r0]	@ zero_extendqisi2
 107              	.LVL9:
 108 0008 00EB0220 		add	r0, r0, r2, lsl #8
 109 000c 7047     		bx	lr
 110              	.L10:
 111 000e 00BF     		.align	2
 112              	.L9:
 113 0010 00000000 		.word	Core
 114              		.cfi_endproc
 115              	.LFE3:
 116              		.size	Peek2, .-Peek2
 117              		.section	.text.Ouch,"ax",%progbits
 118              		.align	2
 119              		.global	Ouch
 120              		.thumb
 121              		.thumb_func
 122              		.type	Ouch, %function
 123              	Ouch:
 124              	.LFB4:
  96:TinyBasic.c   **** 
  97:TinyBasic.c   **** /************************** I/O Utilities... **************************/
  98:TinyBasic.c   **** 
  99:TinyBasic.c   **** void Ouch(char ch) {                         /* output char to stdout */
 125              		.loc 1 99 0
 126              		.cfi_startproc
 127              		@ args = 0, pretend = 0, frame = 0
 128              		@ frame_needed = 0, uses_anonymous_args = 0
ARM GAS  C:\Users\Doug\AppData\Local\Temp\cccAx5kS.s 			page 5


 129              	.LVL10:
 130 0000 10B5     		push	{r4, lr}
 131              		.cfi_def_cfa_offset 8
 132              		.cfi_offset 4, -8
 133              		.cfi_offset 14, -4
 134 0002 0446     		mov	r4, r0
 100:TinyBasic.c   ****   if (oFile != NULL) {                   /* there is an output file.. */
 135              		.loc 1 100 0
 136 0004 224B     		ldr	r3, .L22
 137 0006 1968     		ldr	r1, [r3]
 138 0008 49B1     		cbz	r1, .L12
 101:TinyBasic.c   ****     if (ch>=' ') OutFileChar(oFile,ch);
 139              		.loc 1 101 0
 140 000a 1F28     		cmp	r0, #31
 141 000c 02D9     		bls	.L13
 142              		.loc 1 101 0 is_stmt 0 discriminator 1
 143 000e FFF7FEFF 		bl	fputc
 144              	.LVL11:
 145 0012 04E0     		b	.L12
 146              	.LVL12:
 147              	.L13:
 102:TinyBasic.c   ****     else if (ch == '\r') OutFileChar(oFile,'\n');}
 148              		.loc 1 102 0 is_stmt 1
 149 0014 0D28     		cmp	r0, #13
 150 0016 02D1     		bne	.L12
 151              		.loc 1 102 0 is_stmt 0 discriminator 1
 152 0018 0A20     		movs	r0, #10
 153              	.LVL13:
 154 001a FFF7FEFF 		bl	fputc
 155              	.LVL14:
 156              	.L12:
 103:TinyBasic.c   ****   if (ch=='\r') {
 157              		.loc 1 103 0 is_stmt 1
 158 001e 0D2C     		cmp	r4, #13
 159 0020 15D1     		bne	.L14
 104:TinyBasic.c   ****     Core[TabHere] = 0;         /* keep count of how long this line is */
 160              		.loc 1 104 0
 161 0022 0022     		movs	r2, #0
 162 0024 1B4B     		ldr	r3, .L22+4
 163 0026 83F8BF20 		strb	r2, [r3, #191]
 105:TinyBasic.c   ****     ScreenChar('\n');}
 164              		.loc 1 105 0
 165 002a 1B4B     		ldr	r3, .L22+8
 166 002c 1868     		ldr	r0, [r3]
 167 002e 8268     		ldr	r2, [r0, #8]
 168              	.LVL15:
 169              	.LBB6:
 170              	.LBB7:
 171              		.file 2 "c:\\program files (x86)\\cypress\\psoc creator\\4.2\\psoc creator\\import\\gnu\\arm\\5.4.
   1:c:\program files (x86)\cypress\psoc creator\4.2\psoc creator\import\gnu\arm\5.4.1\arm-none-eabi\include\stdio.h **** /*
   2:c:\program files (x86)\cypress\psoc creator\4.2\psoc creator\import\gnu\arm\5.4.1\arm-none-eabi\include\stdio.h ****  * Copyright (c) 1990 The Regents of the University of California.
   3:c:\program files (x86)\cypress\psoc creator\4.2\psoc creator\import\gnu\arm\5.4.1\arm-none-eabi\include\stdio.h ****  * All rights reserved.
   4:c:\program files (x86)\cypress\psoc creator\4.2\psoc creator\import\gnu\arm\5.4.1\arm-none-eabi\include\stdio.h ****  *
   5:c:\program files (x86)\cypress\psoc creator\4.2\psoc creator\import\gnu\arm\5.4.1\arm-none-eabi\include\stdio.h ****  * Redistribution and use in source and binary forms are permitted
   6:c:\program files (x86)\cypress\psoc creator\4.2\psoc creator\import\gnu\arm\5.4.1\arm-none-eabi\include\stdio.h ****  * provided that the above copyright notice and this paragraph are
   7:c:\program files (x86)\cypress\psoc creator\4.2\psoc creator\import\gnu\arm\5.4.1\arm-none-eabi\include\stdio.h ****  * duplicated in all such forms and that any documentation,
   8:c:\program files (x86)\cypress\psoc creator\4.2\psoc creator\import\gnu\arm\5.4.1\arm-none-eabi\include\stdio.h ****  * advertising materials, and other materials related to such
ARM GAS  C:\Users\Doug\AppData\Local\Temp\cccAx5kS.s 			page 6


   9:c:\program files (x86)\cypress\psoc creator\4.2\psoc creator\import\gnu\arm\5.4.1\arm-none-eabi\include\stdio.h ****  * distribution and use acknowledge that the software was developed
  10:c:\program files (x86)\cypress\psoc creator\4.2\psoc creator\import\gnu\arm\5.4.1\arm-none-eabi\include\stdio.h ****  * by the University of California, Berkeley.  The name of the
  11:c:\program files (x86)\cypress\psoc creator\4.2\psoc creator\import\gnu\arm\5.4.1\arm-none-eabi\include\stdio.h ****  * University may not be used to endorse or promote products derived
  12:c:\program files (x86)\cypress\psoc creator\4.2\psoc creator\import\gnu\arm\5.4.1\arm-none-eabi\include\stdio.h ****  * from this software without specific prior written permission.
  13:c:\program files (x86)\cypress\psoc creator\4.2\psoc creator\import\gnu\arm\5.4.1\arm-none-eabi\include\stdio.h ****  * THIS SOFTWARE IS PROVIDED ``AS IS'' AND WITHOUT ANY EXPRESS OR
  14:c:\program files (x86)\cypress\psoc creator\4.2\psoc creator\import\gnu\arm\5.4.1\arm-none-eabi\include\stdio.h ****  * IMPLIED WARRANTIES, INCLUDING, WITHOUT LIMITATION, THE IMPLIED
  15:c:\program files (x86)\cypress\psoc creator\4.2\psoc creator\import\gnu\arm\5.4.1\arm-none-eabi\include\stdio.h ****  * WARRANTIES OF MERCHANTABILITY AND FITNESS FOR A PARTICULAR PURPOSE.
  16:c:\program files (x86)\cypress\psoc creator\4.2\psoc creator\import\gnu\arm\5.4.1\arm-none-eabi\include\stdio.h ****  *
  17:c:\program files (x86)\cypress\psoc creator\4.2\psoc creator\import\gnu\arm\5.4.1\arm-none-eabi\include\stdio.h ****  *	@(#)stdio.h	5.3 (Berkeley) 3/15/86
  18:c:\program files (x86)\cypress\psoc creator\4.2\psoc creator\import\gnu\arm\5.4.1\arm-none-eabi\include\stdio.h ****  */
  19:c:\program files (x86)\cypress\psoc creator\4.2\psoc creator\import\gnu\arm\5.4.1\arm-none-eabi\include\stdio.h **** 
  20:c:\program files (x86)\cypress\psoc creator\4.2\psoc creator\import\gnu\arm\5.4.1\arm-none-eabi\include\stdio.h **** /*
  21:c:\program files (x86)\cypress\psoc creator\4.2\psoc creator\import\gnu\arm\5.4.1\arm-none-eabi\include\stdio.h ****  * NB: to fit things in six character monocase externals, the
  22:c:\program files (x86)\cypress\psoc creator\4.2\psoc creator\import\gnu\arm\5.4.1\arm-none-eabi\include\stdio.h ****  * stdio code uses the prefix `__s' for stdio objects, typically
  23:c:\program files (x86)\cypress\psoc creator\4.2\psoc creator\import\gnu\arm\5.4.1\arm-none-eabi\include\stdio.h ****  * followed by a three-character attempt at a mnemonic.
  24:c:\program files (x86)\cypress\psoc creator\4.2\psoc creator\import\gnu\arm\5.4.1\arm-none-eabi\include\stdio.h ****  */
  25:c:\program files (x86)\cypress\psoc creator\4.2\psoc creator\import\gnu\arm\5.4.1\arm-none-eabi\include\stdio.h **** 
  26:c:\program files (x86)\cypress\psoc creator\4.2\psoc creator\import\gnu\arm\5.4.1\arm-none-eabi\include\stdio.h **** #ifndef _STDIO_H_
  27:c:\program files (x86)\cypress\psoc creator\4.2\psoc creator\import\gnu\arm\5.4.1\arm-none-eabi\include\stdio.h **** #define	_STDIO_H_
  28:c:\program files (x86)\cypress\psoc creator\4.2\psoc creator\import\gnu\arm\5.4.1\arm-none-eabi\include\stdio.h **** 
  29:c:\program files (x86)\cypress\psoc creator\4.2\psoc creator\import\gnu\arm\5.4.1\arm-none-eabi\include\stdio.h **** #include "_ansi.h"
  30:c:\program files (x86)\cypress\psoc creator\4.2\psoc creator\import\gnu\arm\5.4.1\arm-none-eabi\include\stdio.h **** 
  31:c:\program files (x86)\cypress\psoc creator\4.2\psoc creator\import\gnu\arm\5.4.1\arm-none-eabi\include\stdio.h **** #define	_FSTDIO			/* ``function stdio'' */
  32:c:\program files (x86)\cypress\psoc creator\4.2\psoc creator\import\gnu\arm\5.4.1\arm-none-eabi\include\stdio.h **** 
  33:c:\program files (x86)\cypress\psoc creator\4.2\psoc creator\import\gnu\arm\5.4.1\arm-none-eabi\include\stdio.h **** #define __need_size_t
  34:c:\program files (x86)\cypress\psoc creator\4.2\psoc creator\import\gnu\arm\5.4.1\arm-none-eabi\include\stdio.h **** #define __need_NULL
  35:c:\program files (x86)\cypress\psoc creator\4.2\psoc creator\import\gnu\arm\5.4.1\arm-none-eabi\include\stdio.h **** #include <sys/cdefs.h>
  36:c:\program files (x86)\cypress\psoc creator\4.2\psoc creator\import\gnu\arm\5.4.1\arm-none-eabi\include\stdio.h **** #include <stddef.h>
  37:c:\program files (x86)\cypress\psoc creator\4.2\psoc creator\import\gnu\arm\5.4.1\arm-none-eabi\include\stdio.h **** 
  38:c:\program files (x86)\cypress\psoc creator\4.2\psoc creator\import\gnu\arm\5.4.1\arm-none-eabi\include\stdio.h **** #define __need___va_list
  39:c:\program files (x86)\cypress\psoc creator\4.2\psoc creator\import\gnu\arm\5.4.1\arm-none-eabi\include\stdio.h **** #include <stdarg.h>
  40:c:\program files (x86)\cypress\psoc creator\4.2\psoc creator\import\gnu\arm\5.4.1\arm-none-eabi\include\stdio.h **** 
  41:c:\program files (x86)\cypress\psoc creator\4.2\psoc creator\import\gnu\arm\5.4.1\arm-none-eabi\include\stdio.h **** /*
  42:c:\program files (x86)\cypress\psoc creator\4.2\psoc creator\import\gnu\arm\5.4.1\arm-none-eabi\include\stdio.h ****  * <sys/reent.h> defines __FILE, _fpos_t.
  43:c:\program files (x86)\cypress\psoc creator\4.2\psoc creator\import\gnu\arm\5.4.1\arm-none-eabi\include\stdio.h ****  * They must be defined there because struct _reent needs them (and we don't
  44:c:\program files (x86)\cypress\psoc creator\4.2\psoc creator\import\gnu\arm\5.4.1\arm-none-eabi\include\stdio.h ****  * want reent.h to include this file.
  45:c:\program files (x86)\cypress\psoc creator\4.2\psoc creator\import\gnu\arm\5.4.1\arm-none-eabi\include\stdio.h ****  */
  46:c:\program files (x86)\cypress\psoc creator\4.2\psoc creator\import\gnu\arm\5.4.1\arm-none-eabi\include\stdio.h **** 
  47:c:\program files (x86)\cypress\psoc creator\4.2\psoc creator\import\gnu\arm\5.4.1\arm-none-eabi\include\stdio.h **** #include <sys/reent.h>
  48:c:\program files (x86)\cypress\psoc creator\4.2\psoc creator\import\gnu\arm\5.4.1\arm-none-eabi\include\stdio.h **** #include <sys/types.h>
  49:c:\program files (x86)\cypress\psoc creator\4.2\psoc creator\import\gnu\arm\5.4.1\arm-none-eabi\include\stdio.h **** 
  50:c:\program files (x86)\cypress\psoc creator\4.2\psoc creator\import\gnu\arm\5.4.1\arm-none-eabi\include\stdio.h **** _BEGIN_STD_C
  51:c:\program files (x86)\cypress\psoc creator\4.2\psoc creator\import\gnu\arm\5.4.1\arm-none-eabi\include\stdio.h **** 
  52:c:\program files (x86)\cypress\psoc creator\4.2\psoc creator\import\gnu\arm\5.4.1\arm-none-eabi\include\stdio.h **** #if !defined(__FILE_defined)
  53:c:\program files (x86)\cypress\psoc creator\4.2\psoc creator\import\gnu\arm\5.4.1\arm-none-eabi\include\stdio.h **** typedef __FILE FILE;
  54:c:\program files (x86)\cypress\psoc creator\4.2\psoc creator\import\gnu\arm\5.4.1\arm-none-eabi\include\stdio.h **** # define __FILE_defined
  55:c:\program files (x86)\cypress\psoc creator\4.2\psoc creator\import\gnu\arm\5.4.1\arm-none-eabi\include\stdio.h **** #endif
  56:c:\program files (x86)\cypress\psoc creator\4.2\psoc creator\import\gnu\arm\5.4.1\arm-none-eabi\include\stdio.h **** 
  57:c:\program files (x86)\cypress\psoc creator\4.2\psoc creator\import\gnu\arm\5.4.1\arm-none-eabi\include\stdio.h **** #ifdef __CYGWIN__
  58:c:\program files (x86)\cypress\psoc creator\4.2\psoc creator\import\gnu\arm\5.4.1\arm-none-eabi\include\stdio.h **** typedef _fpos64_t fpos_t;
  59:c:\program files (x86)\cypress\psoc creator\4.2\psoc creator\import\gnu\arm\5.4.1\arm-none-eabi\include\stdio.h **** #else
  60:c:\program files (x86)\cypress\psoc creator\4.2\psoc creator\import\gnu\arm\5.4.1\arm-none-eabi\include\stdio.h **** typedef _fpos_t fpos_t;
  61:c:\program files (x86)\cypress\psoc creator\4.2\psoc creator\import\gnu\arm\5.4.1\arm-none-eabi\include\stdio.h **** #ifdef __LARGE64_FILES
  62:c:\program files (x86)\cypress\psoc creator\4.2\psoc creator\import\gnu\arm\5.4.1\arm-none-eabi\include\stdio.h **** typedef _fpos64_t fpos64_t;
  63:c:\program files (x86)\cypress\psoc creator\4.2\psoc creator\import\gnu\arm\5.4.1\arm-none-eabi\include\stdio.h **** #endif
  64:c:\program files (x86)\cypress\psoc creator\4.2\psoc creator\import\gnu\arm\5.4.1\arm-none-eabi\include\stdio.h **** #endif /* !__CYGWIN__ */
  65:c:\program files (x86)\cypress\psoc creator\4.2\psoc creator\import\gnu\arm\5.4.1\arm-none-eabi\include\stdio.h **** 
ARM GAS  C:\Users\Doug\AppData\Local\Temp\cccAx5kS.s 			page 7


  66:c:\program files (x86)\cypress\psoc creator\4.2\psoc creator\import\gnu\arm\5.4.1\arm-none-eabi\include\stdio.h **** #include <sys/stdio.h>
  67:c:\program files (x86)\cypress\psoc creator\4.2\psoc creator\import\gnu\arm\5.4.1\arm-none-eabi\include\stdio.h **** 
  68:c:\program files (x86)\cypress\psoc creator\4.2\psoc creator\import\gnu\arm\5.4.1\arm-none-eabi\include\stdio.h **** #define	__SLBF	0x0001		/* line buffered */
  69:c:\program files (x86)\cypress\psoc creator\4.2\psoc creator\import\gnu\arm\5.4.1\arm-none-eabi\include\stdio.h **** #define	__SNBF	0x0002		/* unbuffered */
  70:c:\program files (x86)\cypress\psoc creator\4.2\psoc creator\import\gnu\arm\5.4.1\arm-none-eabi\include\stdio.h **** #define	__SRD	0x0004		/* OK to read */
  71:c:\program files (x86)\cypress\psoc creator\4.2\psoc creator\import\gnu\arm\5.4.1\arm-none-eabi\include\stdio.h **** #define	__SWR	0x0008		/* OK to write */
  72:c:\program files (x86)\cypress\psoc creator\4.2\psoc creator\import\gnu\arm\5.4.1\arm-none-eabi\include\stdio.h **** 	/* RD and WR are never simultaneously asserted */
  73:c:\program files (x86)\cypress\psoc creator\4.2\psoc creator\import\gnu\arm\5.4.1\arm-none-eabi\include\stdio.h **** #define	__SRW	0x0010		/* open for reading & writing */
  74:c:\program files (x86)\cypress\psoc creator\4.2\psoc creator\import\gnu\arm\5.4.1\arm-none-eabi\include\stdio.h **** #define	__SEOF	0x0020		/* found EOF */
  75:c:\program files (x86)\cypress\psoc creator\4.2\psoc creator\import\gnu\arm\5.4.1\arm-none-eabi\include\stdio.h **** #define	__SERR	0x0040		/* found error */
  76:c:\program files (x86)\cypress\psoc creator\4.2\psoc creator\import\gnu\arm\5.4.1\arm-none-eabi\include\stdio.h **** #define	__SMBF	0x0080		/* _buf is from malloc */
  77:c:\program files (x86)\cypress\psoc creator\4.2\psoc creator\import\gnu\arm\5.4.1\arm-none-eabi\include\stdio.h **** #define	__SAPP	0x0100		/* fdopen()ed in append mode - so must  write to end */
  78:c:\program files (x86)\cypress\psoc creator\4.2\psoc creator\import\gnu\arm\5.4.1\arm-none-eabi\include\stdio.h **** #define	__SSTR	0x0200		/* this is an sprintf/snprintf string */
  79:c:\program files (x86)\cypress\psoc creator\4.2\psoc creator\import\gnu\arm\5.4.1\arm-none-eabi\include\stdio.h **** #define	__SOPT	0x0400		/* do fseek() optimisation */
  80:c:\program files (x86)\cypress\psoc creator\4.2\psoc creator\import\gnu\arm\5.4.1\arm-none-eabi\include\stdio.h **** #define	__SNPT	0x0800		/* do not do fseek() optimisation */
  81:c:\program files (x86)\cypress\psoc creator\4.2\psoc creator\import\gnu\arm\5.4.1\arm-none-eabi\include\stdio.h **** #define	__SOFF	0x1000		/* set iff _offset is in fact correct */
  82:c:\program files (x86)\cypress\psoc creator\4.2\psoc creator\import\gnu\arm\5.4.1\arm-none-eabi\include\stdio.h **** #define	__SORD	0x2000		/* true => stream orientation (byte/wide) decided */
  83:c:\program files (x86)\cypress\psoc creator\4.2\psoc creator\import\gnu\arm\5.4.1\arm-none-eabi\include\stdio.h **** #if defined(__CYGWIN__)
  84:c:\program files (x86)\cypress\psoc creator\4.2\psoc creator\import\gnu\arm\5.4.1\arm-none-eabi\include\stdio.h **** #  define __SCLE  0x4000        /* convert line endings CR/LF <-> NL */
  85:c:\program files (x86)\cypress\psoc creator\4.2\psoc creator\import\gnu\arm\5.4.1\arm-none-eabi\include\stdio.h **** #endif
  86:c:\program files (x86)\cypress\psoc creator\4.2\psoc creator\import\gnu\arm\5.4.1\arm-none-eabi\include\stdio.h **** #define	__SL64	0x8000		/* is 64-bit offset large file */
  87:c:\program files (x86)\cypress\psoc creator\4.2\psoc creator\import\gnu\arm\5.4.1\arm-none-eabi\include\stdio.h **** 
  88:c:\program files (x86)\cypress\psoc creator\4.2\psoc creator\import\gnu\arm\5.4.1\arm-none-eabi\include\stdio.h **** /* _flags2 flags */
  89:c:\program files (x86)\cypress\psoc creator\4.2\psoc creator\import\gnu\arm\5.4.1\arm-none-eabi\include\stdio.h **** #define	__SNLK  0x0001		/* stdio functions do not lock streams themselves */
  90:c:\program files (x86)\cypress\psoc creator\4.2\psoc creator\import\gnu\arm\5.4.1\arm-none-eabi\include\stdio.h **** #define	__SWID	0x2000		/* true => stream orientation wide, false => byte, only valid if __SORD in _
  91:c:\program files (x86)\cypress\psoc creator\4.2\psoc creator\import\gnu\arm\5.4.1\arm-none-eabi\include\stdio.h **** 
  92:c:\program files (x86)\cypress\psoc creator\4.2\psoc creator\import\gnu\arm\5.4.1\arm-none-eabi\include\stdio.h **** /*
  93:c:\program files (x86)\cypress\psoc creator\4.2\psoc creator\import\gnu\arm\5.4.1\arm-none-eabi\include\stdio.h ****  * The following three definitions are for ANSI C, which took them
  94:c:\program files (x86)\cypress\psoc creator\4.2\psoc creator\import\gnu\arm\5.4.1\arm-none-eabi\include\stdio.h ****  * from System V, which stupidly took internal interface macros and
  95:c:\program files (x86)\cypress\psoc creator\4.2\psoc creator\import\gnu\arm\5.4.1\arm-none-eabi\include\stdio.h ****  * made them official arguments to setvbuf(), without renaming them.
  96:c:\program files (x86)\cypress\psoc creator\4.2\psoc creator\import\gnu\arm\5.4.1\arm-none-eabi\include\stdio.h ****  * Hence, these ugly _IOxxx names are *supposed* to appear in user code.
  97:c:\program files (x86)\cypress\psoc creator\4.2\psoc creator\import\gnu\arm\5.4.1\arm-none-eabi\include\stdio.h ****  *
  98:c:\program files (x86)\cypress\psoc creator\4.2\psoc creator\import\gnu\arm\5.4.1\arm-none-eabi\include\stdio.h ****  * Although these happen to match their counterparts above, the
  99:c:\program files (x86)\cypress\psoc creator\4.2\psoc creator\import\gnu\arm\5.4.1\arm-none-eabi\include\stdio.h ****  * implementation does not rely on that (so these could be renumbered).
 100:c:\program files (x86)\cypress\psoc creator\4.2\psoc creator\import\gnu\arm\5.4.1\arm-none-eabi\include\stdio.h ****  */
 101:c:\program files (x86)\cypress\psoc creator\4.2\psoc creator\import\gnu\arm\5.4.1\arm-none-eabi\include\stdio.h **** #define	_IOFBF	0		/* setvbuf should set fully buffered */
 102:c:\program files (x86)\cypress\psoc creator\4.2\psoc creator\import\gnu\arm\5.4.1\arm-none-eabi\include\stdio.h **** #define	_IOLBF	1		/* setvbuf should set line buffered */
 103:c:\program files (x86)\cypress\psoc creator\4.2\psoc creator\import\gnu\arm\5.4.1\arm-none-eabi\include\stdio.h **** #define	_IONBF	2		/* setvbuf should set unbuffered */
 104:c:\program files (x86)\cypress\psoc creator\4.2\psoc creator\import\gnu\arm\5.4.1\arm-none-eabi\include\stdio.h **** 
 105:c:\program files (x86)\cypress\psoc creator\4.2\psoc creator\import\gnu\arm\5.4.1\arm-none-eabi\include\stdio.h **** #define	EOF	(-1)
 106:c:\program files (x86)\cypress\psoc creator\4.2\psoc creator\import\gnu\arm\5.4.1\arm-none-eabi\include\stdio.h **** 
 107:c:\program files (x86)\cypress\psoc creator\4.2\psoc creator\import\gnu\arm\5.4.1\arm-none-eabi\include\stdio.h **** #ifdef __BUFSIZ__
 108:c:\program files (x86)\cypress\psoc creator\4.2\psoc creator\import\gnu\arm\5.4.1\arm-none-eabi\include\stdio.h **** #define	BUFSIZ		__BUFSIZ__
 109:c:\program files (x86)\cypress\psoc creator\4.2\psoc creator\import\gnu\arm\5.4.1\arm-none-eabi\include\stdio.h **** #else
 110:c:\program files (x86)\cypress\psoc creator\4.2\psoc creator\import\gnu\arm\5.4.1\arm-none-eabi\include\stdio.h **** #define	BUFSIZ		1024
 111:c:\program files (x86)\cypress\psoc creator\4.2\psoc creator\import\gnu\arm\5.4.1\arm-none-eabi\include\stdio.h **** #endif
 112:c:\program files (x86)\cypress\psoc creator\4.2\psoc creator\import\gnu\arm\5.4.1\arm-none-eabi\include\stdio.h **** 
 113:c:\program files (x86)\cypress\psoc creator\4.2\psoc creator\import\gnu\arm\5.4.1\arm-none-eabi\include\stdio.h **** #ifdef __FOPEN_MAX__
 114:c:\program files (x86)\cypress\psoc creator\4.2\psoc creator\import\gnu\arm\5.4.1\arm-none-eabi\include\stdio.h **** #define FOPEN_MAX	__FOPEN_MAX__
 115:c:\program files (x86)\cypress\psoc creator\4.2\psoc creator\import\gnu\arm\5.4.1\arm-none-eabi\include\stdio.h **** #else
 116:c:\program files (x86)\cypress\psoc creator\4.2\psoc creator\import\gnu\arm\5.4.1\arm-none-eabi\include\stdio.h **** #define	FOPEN_MAX	20
 117:c:\program files (x86)\cypress\psoc creator\4.2\psoc creator\import\gnu\arm\5.4.1\arm-none-eabi\include\stdio.h **** #endif
 118:c:\program files (x86)\cypress\psoc creator\4.2\psoc creator\import\gnu\arm\5.4.1\arm-none-eabi\include\stdio.h **** 
 119:c:\program files (x86)\cypress\psoc creator\4.2\psoc creator\import\gnu\arm\5.4.1\arm-none-eabi\include\stdio.h **** #ifdef __FILENAME_MAX__
 120:c:\program files (x86)\cypress\psoc creator\4.2\psoc creator\import\gnu\arm\5.4.1\arm-none-eabi\include\stdio.h **** #define FILENAME_MAX    __FILENAME_MAX__
 121:c:\program files (x86)\cypress\psoc creator\4.2\psoc creator\import\gnu\arm\5.4.1\arm-none-eabi\include\stdio.h **** #else
 122:c:\program files (x86)\cypress\psoc creator\4.2\psoc creator\import\gnu\arm\5.4.1\arm-none-eabi\include\stdio.h **** #define	FILENAME_MAX	1024
ARM GAS  C:\Users\Doug\AppData\Local\Temp\cccAx5kS.s 			page 8


 123:c:\program files (x86)\cypress\psoc creator\4.2\psoc creator\import\gnu\arm\5.4.1\arm-none-eabi\include\stdio.h **** #endif
 124:c:\program files (x86)\cypress\psoc creator\4.2\psoc creator\import\gnu\arm\5.4.1\arm-none-eabi\include\stdio.h **** 
 125:c:\program files (x86)\cypress\psoc creator\4.2\psoc creator\import\gnu\arm\5.4.1\arm-none-eabi\include\stdio.h **** #ifdef __L_tmpnam__
 126:c:\program files (x86)\cypress\psoc creator\4.2\psoc creator\import\gnu\arm\5.4.1\arm-none-eabi\include\stdio.h **** #define L_tmpnam	__L_tmpnam__
 127:c:\program files (x86)\cypress\psoc creator\4.2\psoc creator\import\gnu\arm\5.4.1\arm-none-eabi\include\stdio.h **** #else
 128:c:\program files (x86)\cypress\psoc creator\4.2\psoc creator\import\gnu\arm\5.4.1\arm-none-eabi\include\stdio.h **** #define	L_tmpnam	FILENAME_MAX
 129:c:\program files (x86)\cypress\psoc creator\4.2\psoc creator\import\gnu\arm\5.4.1\arm-none-eabi\include\stdio.h **** #endif
 130:c:\program files (x86)\cypress\psoc creator\4.2\psoc creator\import\gnu\arm\5.4.1\arm-none-eabi\include\stdio.h **** 
 131:c:\program files (x86)\cypress\psoc creator\4.2\psoc creator\import\gnu\arm\5.4.1\arm-none-eabi\include\stdio.h **** #if __BSD_VISIBLE || __XSI_VISIBLE
 132:c:\program files (x86)\cypress\psoc creator\4.2\psoc creator\import\gnu\arm\5.4.1\arm-none-eabi\include\stdio.h **** #define P_tmpdir        "/tmp"
 133:c:\program files (x86)\cypress\psoc creator\4.2\psoc creator\import\gnu\arm\5.4.1\arm-none-eabi\include\stdio.h **** #endif
 134:c:\program files (x86)\cypress\psoc creator\4.2\psoc creator\import\gnu\arm\5.4.1\arm-none-eabi\include\stdio.h **** 
 135:c:\program files (x86)\cypress\psoc creator\4.2\psoc creator\import\gnu\arm\5.4.1\arm-none-eabi\include\stdio.h **** #ifndef SEEK_SET
 136:c:\program files (x86)\cypress\psoc creator\4.2\psoc creator\import\gnu\arm\5.4.1\arm-none-eabi\include\stdio.h **** #define	SEEK_SET	0	/* set file offset to offset */
 137:c:\program files (x86)\cypress\psoc creator\4.2\psoc creator\import\gnu\arm\5.4.1\arm-none-eabi\include\stdio.h **** #endif
 138:c:\program files (x86)\cypress\psoc creator\4.2\psoc creator\import\gnu\arm\5.4.1\arm-none-eabi\include\stdio.h **** #ifndef SEEK_CUR
 139:c:\program files (x86)\cypress\psoc creator\4.2\psoc creator\import\gnu\arm\5.4.1\arm-none-eabi\include\stdio.h **** #define	SEEK_CUR	1	/* set file offset to current plus offset */
 140:c:\program files (x86)\cypress\psoc creator\4.2\psoc creator\import\gnu\arm\5.4.1\arm-none-eabi\include\stdio.h **** #endif
 141:c:\program files (x86)\cypress\psoc creator\4.2\psoc creator\import\gnu\arm\5.4.1\arm-none-eabi\include\stdio.h **** #ifndef SEEK_END
 142:c:\program files (x86)\cypress\psoc creator\4.2\psoc creator\import\gnu\arm\5.4.1\arm-none-eabi\include\stdio.h **** #define	SEEK_END	2	/* set file offset to EOF plus offset */
 143:c:\program files (x86)\cypress\psoc creator\4.2\psoc creator\import\gnu\arm\5.4.1\arm-none-eabi\include\stdio.h **** #endif
 144:c:\program files (x86)\cypress\psoc creator\4.2\psoc creator\import\gnu\arm\5.4.1\arm-none-eabi\include\stdio.h **** 
 145:c:\program files (x86)\cypress\psoc creator\4.2\psoc creator\import\gnu\arm\5.4.1\arm-none-eabi\include\stdio.h **** #define	TMP_MAX		26
 146:c:\program files (x86)\cypress\psoc creator\4.2\psoc creator\import\gnu\arm\5.4.1\arm-none-eabi\include\stdio.h **** 
 147:c:\program files (x86)\cypress\psoc creator\4.2\psoc creator\import\gnu\arm\5.4.1\arm-none-eabi\include\stdio.h **** #define	stdin	(_REENT->_stdin)
 148:c:\program files (x86)\cypress\psoc creator\4.2\psoc creator\import\gnu\arm\5.4.1\arm-none-eabi\include\stdio.h **** #define	stdout	(_REENT->_stdout)
 149:c:\program files (x86)\cypress\psoc creator\4.2\psoc creator\import\gnu\arm\5.4.1\arm-none-eabi\include\stdio.h **** #define	stderr	(_REENT->_stderr)
 150:c:\program files (x86)\cypress\psoc creator\4.2\psoc creator\import\gnu\arm\5.4.1\arm-none-eabi\include\stdio.h **** 
 151:c:\program files (x86)\cypress\psoc creator\4.2\psoc creator\import\gnu\arm\5.4.1\arm-none-eabi\include\stdio.h **** #define _stdin_r(x)	((x)->_stdin)
 152:c:\program files (x86)\cypress\psoc creator\4.2\psoc creator\import\gnu\arm\5.4.1\arm-none-eabi\include\stdio.h **** #define _stdout_r(x)	((x)->_stdout)
 153:c:\program files (x86)\cypress\psoc creator\4.2\psoc creator\import\gnu\arm\5.4.1\arm-none-eabi\include\stdio.h **** #define _stderr_r(x)	((x)->_stderr)
 154:c:\program files (x86)\cypress\psoc creator\4.2\psoc creator\import\gnu\arm\5.4.1\arm-none-eabi\include\stdio.h **** 
 155:c:\program files (x86)\cypress\psoc creator\4.2\psoc creator\import\gnu\arm\5.4.1\arm-none-eabi\include\stdio.h **** /*
 156:c:\program files (x86)\cypress\psoc creator\4.2\psoc creator\import\gnu\arm\5.4.1\arm-none-eabi\include\stdio.h ****  * Functions defined in ANSI C standard.
 157:c:\program files (x86)\cypress\psoc creator\4.2\psoc creator\import\gnu\arm\5.4.1\arm-none-eabi\include\stdio.h ****  */
 158:c:\program files (x86)\cypress\psoc creator\4.2\psoc creator\import\gnu\arm\5.4.1\arm-none-eabi\include\stdio.h **** 
 159:c:\program files (x86)\cypress\psoc creator\4.2\psoc creator\import\gnu\arm\5.4.1\arm-none-eabi\include\stdio.h **** #ifndef __VALIST
 160:c:\program files (x86)\cypress\psoc creator\4.2\psoc creator\import\gnu\arm\5.4.1\arm-none-eabi\include\stdio.h **** #ifdef __GNUC__
 161:c:\program files (x86)\cypress\psoc creator\4.2\psoc creator\import\gnu\arm\5.4.1\arm-none-eabi\include\stdio.h **** #define __VALIST __gnuc_va_list
 162:c:\program files (x86)\cypress\psoc creator\4.2\psoc creator\import\gnu\arm\5.4.1\arm-none-eabi\include\stdio.h **** #else
 163:c:\program files (x86)\cypress\psoc creator\4.2\psoc creator\import\gnu\arm\5.4.1\arm-none-eabi\include\stdio.h **** #define __VALIST char*
 164:c:\program files (x86)\cypress\psoc creator\4.2\psoc creator\import\gnu\arm\5.4.1\arm-none-eabi\include\stdio.h **** #endif
 165:c:\program files (x86)\cypress\psoc creator\4.2\psoc creator\import\gnu\arm\5.4.1\arm-none-eabi\include\stdio.h **** #endif
 166:c:\program files (x86)\cypress\psoc creator\4.2\psoc creator\import\gnu\arm\5.4.1\arm-none-eabi\include\stdio.h **** 
 167:c:\program files (x86)\cypress\psoc creator\4.2\psoc creator\import\gnu\arm\5.4.1\arm-none-eabi\include\stdio.h **** #if __POSIX_VISIBLE
 168:c:\program files (x86)\cypress\psoc creator\4.2\psoc creator\import\gnu\arm\5.4.1\arm-none-eabi\include\stdio.h **** char *	_EXFUN(ctermid, (char *));
 169:c:\program files (x86)\cypress\psoc creator\4.2\psoc creator\import\gnu\arm\5.4.1\arm-none-eabi\include\stdio.h **** #endif
 170:c:\program files (x86)\cypress\psoc creator\4.2\psoc creator\import\gnu\arm\5.4.1\arm-none-eabi\include\stdio.h **** #if __XSI_VISIBLE && __XSI_VISIBLE < 600
 171:c:\program files (x86)\cypress\psoc creator\4.2\psoc creator\import\gnu\arm\5.4.1\arm-none-eabi\include\stdio.h **** char *	_EXFUN(cuserid, (char *));
 172:c:\program files (x86)\cypress\psoc creator\4.2\psoc creator\import\gnu\arm\5.4.1\arm-none-eabi\include\stdio.h **** #endif
 173:c:\program files (x86)\cypress\psoc creator\4.2\psoc creator\import\gnu\arm\5.4.1\arm-none-eabi\include\stdio.h **** FILE *	_EXFUN(tmpfile, (void));
 174:c:\program files (x86)\cypress\psoc creator\4.2\psoc creator\import\gnu\arm\5.4.1\arm-none-eabi\include\stdio.h **** char *	_EXFUN(tmpnam, (char *));
 175:c:\program files (x86)\cypress\psoc creator\4.2\psoc creator\import\gnu\arm\5.4.1\arm-none-eabi\include\stdio.h **** #if __BSD_VISIBLE || __XSI_VISIBLE || __POSIX_VISIBLE >= 200112
 176:c:\program files (x86)\cypress\psoc creator\4.2\psoc creator\import\gnu\arm\5.4.1\arm-none-eabi\include\stdio.h **** char *	_EXFUN(tempnam, (const char *, const char *));
 177:c:\program files (x86)\cypress\psoc creator\4.2\psoc creator\import\gnu\arm\5.4.1\arm-none-eabi\include\stdio.h **** #endif
 178:c:\program files (x86)\cypress\psoc creator\4.2\psoc creator\import\gnu\arm\5.4.1\arm-none-eabi\include\stdio.h **** int	_EXFUN(fclose, (FILE *));
 179:c:\program files (x86)\cypress\psoc creator\4.2\psoc creator\import\gnu\arm\5.4.1\arm-none-eabi\include\stdio.h **** int	_EXFUN(fflush, (FILE *));
ARM GAS  C:\Users\Doug\AppData\Local\Temp\cccAx5kS.s 			page 9


 180:c:\program files (x86)\cypress\psoc creator\4.2\psoc creator\import\gnu\arm\5.4.1\arm-none-eabi\include\stdio.h **** FILE *	_EXFUN(freopen, (const char *__restrict, const char *__restrict, FILE *__restrict));
 181:c:\program files (x86)\cypress\psoc creator\4.2\psoc creator\import\gnu\arm\5.4.1\arm-none-eabi\include\stdio.h **** void	_EXFUN(setbuf, (FILE *__restrict, char *__restrict));
 182:c:\program files (x86)\cypress\psoc creator\4.2\psoc creator\import\gnu\arm\5.4.1\arm-none-eabi\include\stdio.h **** int	_EXFUN(setvbuf, (FILE *__restrict, char *__restrict, int, size_t));
 183:c:\program files (x86)\cypress\psoc creator\4.2\psoc creator\import\gnu\arm\5.4.1\arm-none-eabi\include\stdio.h **** int	_EXFUN(fprintf, (FILE *__restrict, const char *__restrict, ...)
 184:c:\program files (x86)\cypress\psoc creator\4.2\psoc creator\import\gnu\arm\5.4.1\arm-none-eabi\include\stdio.h ****                _ATTRIBUTE ((__format__ (__printf__, 2, 3))));
 185:c:\program files (x86)\cypress\psoc creator\4.2\psoc creator\import\gnu\arm\5.4.1\arm-none-eabi\include\stdio.h **** int	_EXFUN(fscanf, (FILE *__restrict, const char *__restrict, ...)
 186:c:\program files (x86)\cypress\psoc creator\4.2\psoc creator\import\gnu\arm\5.4.1\arm-none-eabi\include\stdio.h ****                _ATTRIBUTE ((__format__ (__scanf__, 2, 3))));
 187:c:\program files (x86)\cypress\psoc creator\4.2\psoc creator\import\gnu\arm\5.4.1\arm-none-eabi\include\stdio.h **** int	_EXFUN(printf, (const char *__restrict, ...)
 188:c:\program files (x86)\cypress\psoc creator\4.2\psoc creator\import\gnu\arm\5.4.1\arm-none-eabi\include\stdio.h ****                _ATTRIBUTE ((__format__ (__printf__, 1, 2))));
 189:c:\program files (x86)\cypress\psoc creator\4.2\psoc creator\import\gnu\arm\5.4.1\arm-none-eabi\include\stdio.h **** int	_EXFUN(scanf, (const char *__restrict, ...)
 190:c:\program files (x86)\cypress\psoc creator\4.2\psoc creator\import\gnu\arm\5.4.1\arm-none-eabi\include\stdio.h ****                _ATTRIBUTE ((__format__ (__scanf__, 1, 2))));
 191:c:\program files (x86)\cypress\psoc creator\4.2\psoc creator\import\gnu\arm\5.4.1\arm-none-eabi\include\stdio.h **** int	_EXFUN(sscanf, (const char *__restrict, const char *__restrict, ...)
 192:c:\program files (x86)\cypress\psoc creator\4.2\psoc creator\import\gnu\arm\5.4.1\arm-none-eabi\include\stdio.h ****                _ATTRIBUTE ((__format__ (__scanf__, 2, 3))));
 193:c:\program files (x86)\cypress\psoc creator\4.2\psoc creator\import\gnu\arm\5.4.1\arm-none-eabi\include\stdio.h **** int	_EXFUN(vfprintf, (FILE *__restrict, const char *__restrict, __VALIST)
 194:c:\program files (x86)\cypress\psoc creator\4.2\psoc creator\import\gnu\arm\5.4.1\arm-none-eabi\include\stdio.h ****                _ATTRIBUTE ((__format__ (__printf__, 2, 0))));
 195:c:\program files (x86)\cypress\psoc creator\4.2\psoc creator\import\gnu\arm\5.4.1\arm-none-eabi\include\stdio.h **** int	_EXFUN(vprintf, (const char *, __VALIST)
 196:c:\program files (x86)\cypress\psoc creator\4.2\psoc creator\import\gnu\arm\5.4.1\arm-none-eabi\include\stdio.h ****                _ATTRIBUTE ((__format__ (__printf__, 1, 0))));
 197:c:\program files (x86)\cypress\psoc creator\4.2\psoc creator\import\gnu\arm\5.4.1\arm-none-eabi\include\stdio.h **** int	_EXFUN(vsprintf, (char *__restrict, const char *__restrict, __VALIST)
 198:c:\program files (x86)\cypress\psoc creator\4.2\psoc creator\import\gnu\arm\5.4.1\arm-none-eabi\include\stdio.h ****                _ATTRIBUTE ((__format__ (__printf__, 2, 0))));
 199:c:\program files (x86)\cypress\psoc creator\4.2\psoc creator\import\gnu\arm\5.4.1\arm-none-eabi\include\stdio.h **** int	_EXFUN(fgetc, (FILE *));
 200:c:\program files (x86)\cypress\psoc creator\4.2\psoc creator\import\gnu\arm\5.4.1\arm-none-eabi\include\stdio.h **** char *  _EXFUN(fgets, (char *__restrict, int, FILE *__restrict));
 201:c:\program files (x86)\cypress\psoc creator\4.2\psoc creator\import\gnu\arm\5.4.1\arm-none-eabi\include\stdio.h **** int	_EXFUN(fputc, (int, FILE *));
 202:c:\program files (x86)\cypress\psoc creator\4.2\psoc creator\import\gnu\arm\5.4.1\arm-none-eabi\include\stdio.h **** int	_EXFUN(fputs, (const char *__restrict, FILE *__restrict));
 203:c:\program files (x86)\cypress\psoc creator\4.2\psoc creator\import\gnu\arm\5.4.1\arm-none-eabi\include\stdio.h **** int	_EXFUN(getc, (FILE *));
 204:c:\program files (x86)\cypress\psoc creator\4.2\psoc creator\import\gnu\arm\5.4.1\arm-none-eabi\include\stdio.h **** int	_EXFUN(getchar, (void));
 205:c:\program files (x86)\cypress\psoc creator\4.2\psoc creator\import\gnu\arm\5.4.1\arm-none-eabi\include\stdio.h **** char *  _EXFUN(gets, (char *));
 206:c:\program files (x86)\cypress\psoc creator\4.2\psoc creator\import\gnu\arm\5.4.1\arm-none-eabi\include\stdio.h **** int	_EXFUN(putc, (int, FILE *));
 207:c:\program files (x86)\cypress\psoc creator\4.2\psoc creator\import\gnu\arm\5.4.1\arm-none-eabi\include\stdio.h **** int	_EXFUN(putchar, (int));
 208:c:\program files (x86)\cypress\psoc creator\4.2\psoc creator\import\gnu\arm\5.4.1\arm-none-eabi\include\stdio.h **** int	_EXFUN(puts, (const char *));
 209:c:\program files (x86)\cypress\psoc creator\4.2\psoc creator\import\gnu\arm\5.4.1\arm-none-eabi\include\stdio.h **** int	_EXFUN(ungetc, (int, FILE *));
 210:c:\program files (x86)\cypress\psoc creator\4.2\psoc creator\import\gnu\arm\5.4.1\arm-none-eabi\include\stdio.h **** size_t	_EXFUN(fread, (_PTR __restrict, size_t _size, size_t _n, FILE *__restrict));
 211:c:\program files (x86)\cypress\psoc creator\4.2\psoc creator\import\gnu\arm\5.4.1\arm-none-eabi\include\stdio.h **** size_t	_EXFUN(fwrite, (const _PTR __restrict , size_t _size, size_t _n, FILE *));
 212:c:\program files (x86)\cypress\psoc creator\4.2\psoc creator\import\gnu\arm\5.4.1\arm-none-eabi\include\stdio.h **** #ifdef _COMPILING_NEWLIB
 213:c:\program files (x86)\cypress\psoc creator\4.2\psoc creator\import\gnu\arm\5.4.1\arm-none-eabi\include\stdio.h **** int	_EXFUN(fgetpos, (FILE *, _fpos_t *));
 214:c:\program files (x86)\cypress\psoc creator\4.2\psoc creator\import\gnu\arm\5.4.1\arm-none-eabi\include\stdio.h **** #else
 215:c:\program files (x86)\cypress\psoc creator\4.2\psoc creator\import\gnu\arm\5.4.1\arm-none-eabi\include\stdio.h **** int	_EXFUN(fgetpos, (FILE *__restrict, fpos_t *__restrict));
 216:c:\program files (x86)\cypress\psoc creator\4.2\psoc creator\import\gnu\arm\5.4.1\arm-none-eabi\include\stdio.h **** #endif
 217:c:\program files (x86)\cypress\psoc creator\4.2\psoc creator\import\gnu\arm\5.4.1\arm-none-eabi\include\stdio.h **** int	_EXFUN(fseek, (FILE *, long, int));
 218:c:\program files (x86)\cypress\psoc creator\4.2\psoc creator\import\gnu\arm\5.4.1\arm-none-eabi\include\stdio.h **** #ifdef _COMPILING_NEWLIB
 219:c:\program files (x86)\cypress\psoc creator\4.2\psoc creator\import\gnu\arm\5.4.1\arm-none-eabi\include\stdio.h **** int	_EXFUN(fsetpos, (FILE *, const _fpos_t *));
 220:c:\program files (x86)\cypress\psoc creator\4.2\psoc creator\import\gnu\arm\5.4.1\arm-none-eabi\include\stdio.h **** #else
 221:c:\program files (x86)\cypress\psoc creator\4.2\psoc creator\import\gnu\arm\5.4.1\arm-none-eabi\include\stdio.h **** int	_EXFUN(fsetpos, (FILE *, const fpos_t *));
 222:c:\program files (x86)\cypress\psoc creator\4.2\psoc creator\import\gnu\arm\5.4.1\arm-none-eabi\include\stdio.h **** #endif
 223:c:\program files (x86)\cypress\psoc creator\4.2\psoc creator\import\gnu\arm\5.4.1\arm-none-eabi\include\stdio.h **** long	_EXFUN(ftell, ( FILE *));
 224:c:\program files (x86)\cypress\psoc creator\4.2\psoc creator\import\gnu\arm\5.4.1\arm-none-eabi\include\stdio.h **** void	_EXFUN(rewind, (FILE *));
 225:c:\program files (x86)\cypress\psoc creator\4.2\psoc creator\import\gnu\arm\5.4.1\arm-none-eabi\include\stdio.h **** void	_EXFUN(clearerr, (FILE *));
 226:c:\program files (x86)\cypress\psoc creator\4.2\psoc creator\import\gnu\arm\5.4.1\arm-none-eabi\include\stdio.h **** int	_EXFUN(feof, (FILE *));
 227:c:\program files (x86)\cypress\psoc creator\4.2\psoc creator\import\gnu\arm\5.4.1\arm-none-eabi\include\stdio.h **** int	_EXFUN(ferror, (FILE *));
 228:c:\program files (x86)\cypress\psoc creator\4.2\psoc creator\import\gnu\arm\5.4.1\arm-none-eabi\include\stdio.h **** void    _EXFUN(perror, (const char *));
 229:c:\program files (x86)\cypress\psoc creator\4.2\psoc creator\import\gnu\arm\5.4.1\arm-none-eabi\include\stdio.h **** #ifndef _REENT_ONLY
 230:c:\program files (x86)\cypress\psoc creator\4.2\psoc creator\import\gnu\arm\5.4.1\arm-none-eabi\include\stdio.h **** FILE *	_EXFUN(fopen, (const char *__restrict _name, const char *__restrict _type));
 231:c:\program files (x86)\cypress\psoc creator\4.2\psoc creator\import\gnu\arm\5.4.1\arm-none-eabi\include\stdio.h **** int	_EXFUN(sprintf, (char *__restrict, const char *__restrict, ...)
 232:c:\program files (x86)\cypress\psoc creator\4.2\psoc creator\import\gnu\arm\5.4.1\arm-none-eabi\include\stdio.h ****                _ATTRIBUTE ((__format__ (__printf__, 2, 3))));
 233:c:\program files (x86)\cypress\psoc creator\4.2\psoc creator\import\gnu\arm\5.4.1\arm-none-eabi\include\stdio.h **** int	_EXFUN(remove, (const char *));
 234:c:\program files (x86)\cypress\psoc creator\4.2\psoc creator\import\gnu\arm\5.4.1\arm-none-eabi\include\stdio.h **** int	_EXFUN(rename, (const char *, const char *));
 235:c:\program files (x86)\cypress\psoc creator\4.2\psoc creator\import\gnu\arm\5.4.1\arm-none-eabi\include\stdio.h **** #ifdef _COMPILING_NEWLIB
 236:c:\program files (x86)\cypress\psoc creator\4.2\psoc creator\import\gnu\arm\5.4.1\arm-none-eabi\include\stdio.h **** int	_EXFUN(_rename, (const char *, const char *));
ARM GAS  C:\Users\Doug\AppData\Local\Temp\cccAx5kS.s 			page 10


 237:c:\program files (x86)\cypress\psoc creator\4.2\psoc creator\import\gnu\arm\5.4.1\arm-none-eabi\include\stdio.h **** #endif
 238:c:\program files (x86)\cypress\psoc creator\4.2\psoc creator\import\gnu\arm\5.4.1\arm-none-eabi\include\stdio.h **** #endif
 239:c:\program files (x86)\cypress\psoc creator\4.2\psoc creator\import\gnu\arm\5.4.1\arm-none-eabi\include\stdio.h **** #if __LARGEFILE_VISIBLE || __POSIX_VISIBLE >= 200112
 240:c:\program files (x86)\cypress\psoc creator\4.2\psoc creator\import\gnu\arm\5.4.1\arm-none-eabi\include\stdio.h **** #ifdef _COMPILING_NEWLIB
 241:c:\program files (x86)\cypress\psoc creator\4.2\psoc creator\import\gnu\arm\5.4.1\arm-none-eabi\include\stdio.h **** int	_EXFUN(fseeko, (FILE *, _off_t, int));
 242:c:\program files (x86)\cypress\psoc creator\4.2\psoc creator\import\gnu\arm\5.4.1\arm-none-eabi\include\stdio.h **** _off_t	_EXFUN(ftello, ( FILE *));
 243:c:\program files (x86)\cypress\psoc creator\4.2\psoc creator\import\gnu\arm\5.4.1\arm-none-eabi\include\stdio.h **** #else
 244:c:\program files (x86)\cypress\psoc creator\4.2\psoc creator\import\gnu\arm\5.4.1\arm-none-eabi\include\stdio.h **** int	_EXFUN(fseeko, (FILE *, off_t, int));
 245:c:\program files (x86)\cypress\psoc creator\4.2\psoc creator\import\gnu\arm\5.4.1\arm-none-eabi\include\stdio.h **** off_t	_EXFUN(ftello, ( FILE *));
 246:c:\program files (x86)\cypress\psoc creator\4.2\psoc creator\import\gnu\arm\5.4.1\arm-none-eabi\include\stdio.h **** #endif
 247:c:\program files (x86)\cypress\psoc creator\4.2\psoc creator\import\gnu\arm\5.4.1\arm-none-eabi\include\stdio.h **** #endif
 248:c:\program files (x86)\cypress\psoc creator\4.2\psoc creator\import\gnu\arm\5.4.1\arm-none-eabi\include\stdio.h **** #if __GNU_VISIBLE
 249:c:\program files (x86)\cypress\psoc creator\4.2\psoc creator\import\gnu\arm\5.4.1\arm-none-eabi\include\stdio.h **** int	_EXFUN(fcloseall, (_VOID));
 250:c:\program files (x86)\cypress\psoc creator\4.2\psoc creator\import\gnu\arm\5.4.1\arm-none-eabi\include\stdio.h **** #endif
 251:c:\program files (x86)\cypress\psoc creator\4.2\psoc creator\import\gnu\arm\5.4.1\arm-none-eabi\include\stdio.h **** #ifndef _REENT_ONLY
 252:c:\program files (x86)\cypress\psoc creator\4.2\psoc creator\import\gnu\arm\5.4.1\arm-none-eabi\include\stdio.h **** #if __ISO_C_VISIBLE >= 1999
 253:c:\program files (x86)\cypress\psoc creator\4.2\psoc creator\import\gnu\arm\5.4.1\arm-none-eabi\include\stdio.h **** int	_EXFUN(snprintf, (char *__restrict, size_t, const char *__restrict, ...)
 254:c:\program files (x86)\cypress\psoc creator\4.2\psoc creator\import\gnu\arm\5.4.1\arm-none-eabi\include\stdio.h ****                _ATTRIBUTE ((__format__ (__printf__, 3, 4))));
 255:c:\program files (x86)\cypress\psoc creator\4.2\psoc creator\import\gnu\arm\5.4.1\arm-none-eabi\include\stdio.h **** int	_EXFUN(vsnprintf, (char *__restrict, size_t, const char *__restrict, __VALIST)
 256:c:\program files (x86)\cypress\psoc creator\4.2\psoc creator\import\gnu\arm\5.4.1\arm-none-eabi\include\stdio.h ****                _ATTRIBUTE ((__format__ (__printf__, 3, 0))));
 257:c:\program files (x86)\cypress\psoc creator\4.2\psoc creator\import\gnu\arm\5.4.1\arm-none-eabi\include\stdio.h **** int	_EXFUN(vfscanf, (FILE *__restrict, const char *__restrict, __VALIST)
 258:c:\program files (x86)\cypress\psoc creator\4.2\psoc creator\import\gnu\arm\5.4.1\arm-none-eabi\include\stdio.h ****                _ATTRIBUTE ((__format__ (__scanf__, 2, 0))));
 259:c:\program files (x86)\cypress\psoc creator\4.2\psoc creator\import\gnu\arm\5.4.1\arm-none-eabi\include\stdio.h **** int	_EXFUN(vscanf, (const char *, __VALIST)
 260:c:\program files (x86)\cypress\psoc creator\4.2\psoc creator\import\gnu\arm\5.4.1\arm-none-eabi\include\stdio.h ****                _ATTRIBUTE ((__format__ (__scanf__, 1, 0))));
 261:c:\program files (x86)\cypress\psoc creator\4.2\psoc creator\import\gnu\arm\5.4.1\arm-none-eabi\include\stdio.h **** int	_EXFUN(vsscanf, (const char *__restrict, const char *__restrict, __VALIST)
 262:c:\program files (x86)\cypress\psoc creator\4.2\psoc creator\import\gnu\arm\5.4.1\arm-none-eabi\include\stdio.h ****                _ATTRIBUTE ((__format__ (__scanf__, 2, 0))));
 263:c:\program files (x86)\cypress\psoc creator\4.2\psoc creator\import\gnu\arm\5.4.1\arm-none-eabi\include\stdio.h **** #endif
 264:c:\program files (x86)\cypress\psoc creator\4.2\psoc creator\import\gnu\arm\5.4.1\arm-none-eabi\include\stdio.h **** #if __GNU_VISIBLE
 265:c:\program files (x86)\cypress\psoc creator\4.2\psoc creator\import\gnu\arm\5.4.1\arm-none-eabi\include\stdio.h **** int	_EXFUN(asprintf, (char **__restrict, const char *__restrict, ...)
 266:c:\program files (x86)\cypress\psoc creator\4.2\psoc creator\import\gnu\arm\5.4.1\arm-none-eabi\include\stdio.h ****                _ATTRIBUTE ((__format__ (__printf__, 2, 3))));
 267:c:\program files (x86)\cypress\psoc creator\4.2\psoc creator\import\gnu\arm\5.4.1\arm-none-eabi\include\stdio.h **** int	_EXFUN(vasprintf, (char **, const char *, __VALIST)
 268:c:\program files (x86)\cypress\psoc creator\4.2\psoc creator\import\gnu\arm\5.4.1\arm-none-eabi\include\stdio.h ****                _ATTRIBUTE ((__format__ (__printf__, 2, 0))));
 269:c:\program files (x86)\cypress\psoc creator\4.2\psoc creator\import\gnu\arm\5.4.1\arm-none-eabi\include\stdio.h **** #endif
 270:c:\program files (x86)\cypress\psoc creator\4.2\psoc creator\import\gnu\arm\5.4.1\arm-none-eabi\include\stdio.h **** #if __MISC_VISIBLE /* Newlib-specific */
 271:c:\program files (x86)\cypress\psoc creator\4.2\psoc creator\import\gnu\arm\5.4.1\arm-none-eabi\include\stdio.h **** int	_EXFUN(asiprintf, (char **, const char *, ...)
 272:c:\program files (x86)\cypress\psoc creator\4.2\psoc creator\import\gnu\arm\5.4.1\arm-none-eabi\include\stdio.h ****                _ATTRIBUTE ((__format__ (__printf__, 2, 3))));
 273:c:\program files (x86)\cypress\psoc creator\4.2\psoc creator\import\gnu\arm\5.4.1\arm-none-eabi\include\stdio.h **** char *	_EXFUN(asniprintf, (char *, size_t *, const char *, ...)
 274:c:\program files (x86)\cypress\psoc creator\4.2\psoc creator\import\gnu\arm\5.4.1\arm-none-eabi\include\stdio.h ****                _ATTRIBUTE ((__format__ (__printf__, 3, 4))));
 275:c:\program files (x86)\cypress\psoc creator\4.2\psoc creator\import\gnu\arm\5.4.1\arm-none-eabi\include\stdio.h **** char *	_EXFUN(asnprintf, (char *__restrict, size_t *__restrict, const char *__restrict, ...)
 276:c:\program files (x86)\cypress\psoc creator\4.2\psoc creator\import\gnu\arm\5.4.1\arm-none-eabi\include\stdio.h ****                _ATTRIBUTE ((__format__ (__printf__, 3, 4))));
 277:c:\program files (x86)\cypress\psoc creator\4.2\psoc creator\import\gnu\arm\5.4.1\arm-none-eabi\include\stdio.h **** #ifndef diprintf
 278:c:\program files (x86)\cypress\psoc creator\4.2\psoc creator\import\gnu\arm\5.4.1\arm-none-eabi\include\stdio.h **** int	_EXFUN(diprintf, (int, const char *, ...)
 279:c:\program files (x86)\cypress\psoc creator\4.2\psoc creator\import\gnu\arm\5.4.1\arm-none-eabi\include\stdio.h ****                _ATTRIBUTE ((__format__ (__printf__, 2, 3))));
 280:c:\program files (x86)\cypress\psoc creator\4.2\psoc creator\import\gnu\arm\5.4.1\arm-none-eabi\include\stdio.h **** #endif
 281:c:\program files (x86)\cypress\psoc creator\4.2\psoc creator\import\gnu\arm\5.4.1\arm-none-eabi\include\stdio.h **** int	_EXFUN(fiprintf, (FILE *, const char *, ...)
 282:c:\program files (x86)\cypress\psoc creator\4.2\psoc creator\import\gnu\arm\5.4.1\arm-none-eabi\include\stdio.h ****                _ATTRIBUTE ((__format__ (__printf__, 2, 3))));
 283:c:\program files (x86)\cypress\psoc creator\4.2\psoc creator\import\gnu\arm\5.4.1\arm-none-eabi\include\stdio.h **** int	_EXFUN(fiscanf, (FILE *, const char *, ...)
 284:c:\program files (x86)\cypress\psoc creator\4.2\psoc creator\import\gnu\arm\5.4.1\arm-none-eabi\include\stdio.h ****                _ATTRIBUTE ((__format__ (__scanf__, 2, 3))));
 285:c:\program files (x86)\cypress\psoc creator\4.2\psoc creator\import\gnu\arm\5.4.1\arm-none-eabi\include\stdio.h **** int	_EXFUN(iprintf, (const char *, ...)
 286:c:\program files (x86)\cypress\psoc creator\4.2\psoc creator\import\gnu\arm\5.4.1\arm-none-eabi\include\stdio.h ****                _ATTRIBUTE ((__format__ (__printf__, 1, 2))));
 287:c:\program files (x86)\cypress\psoc creator\4.2\psoc creator\import\gnu\arm\5.4.1\arm-none-eabi\include\stdio.h **** int	_EXFUN(iscanf, (const char *, ...)
 288:c:\program files (x86)\cypress\psoc creator\4.2\psoc creator\import\gnu\arm\5.4.1\arm-none-eabi\include\stdio.h ****                _ATTRIBUTE ((__format__ (__scanf__, 1, 2))));
 289:c:\program files (x86)\cypress\psoc creator\4.2\psoc creator\import\gnu\arm\5.4.1\arm-none-eabi\include\stdio.h **** int	_EXFUN(siprintf, (char *, const char *, ...)
 290:c:\program files (x86)\cypress\psoc creator\4.2\psoc creator\import\gnu\arm\5.4.1\arm-none-eabi\include\stdio.h ****                _ATTRIBUTE ((__format__ (__printf__, 2, 3))));
 291:c:\program files (x86)\cypress\psoc creator\4.2\psoc creator\import\gnu\arm\5.4.1\arm-none-eabi\include\stdio.h **** int	_EXFUN(siscanf, (const char *, const char *, ...)
 292:c:\program files (x86)\cypress\psoc creator\4.2\psoc creator\import\gnu\arm\5.4.1\arm-none-eabi\include\stdio.h ****                _ATTRIBUTE ((__format__ (__scanf__, 2, 3))));
 293:c:\program files (x86)\cypress\psoc creator\4.2\psoc creator\import\gnu\arm\5.4.1\arm-none-eabi\include\stdio.h **** int	_EXFUN(sniprintf, (char *, size_t, const char *, ...)
ARM GAS  C:\Users\Doug\AppData\Local\Temp\cccAx5kS.s 			page 11


 294:c:\program files (x86)\cypress\psoc creator\4.2\psoc creator\import\gnu\arm\5.4.1\arm-none-eabi\include\stdio.h ****                _ATTRIBUTE ((__format__ (__printf__, 3, 4))));
 295:c:\program files (x86)\cypress\psoc creator\4.2\psoc creator\import\gnu\arm\5.4.1\arm-none-eabi\include\stdio.h **** int	_EXFUN(vasiprintf, (char **, const char *, __VALIST)
 296:c:\program files (x86)\cypress\psoc creator\4.2\psoc creator\import\gnu\arm\5.4.1\arm-none-eabi\include\stdio.h ****                _ATTRIBUTE ((__format__ (__printf__, 2, 0))));
 297:c:\program files (x86)\cypress\psoc creator\4.2\psoc creator\import\gnu\arm\5.4.1\arm-none-eabi\include\stdio.h **** char *	_EXFUN(vasniprintf, (char *, size_t *, const char *, __VALIST)
 298:c:\program files (x86)\cypress\psoc creator\4.2\psoc creator\import\gnu\arm\5.4.1\arm-none-eabi\include\stdio.h ****                _ATTRIBUTE ((__format__ (__printf__, 3, 0))));
 299:c:\program files (x86)\cypress\psoc creator\4.2\psoc creator\import\gnu\arm\5.4.1\arm-none-eabi\include\stdio.h **** char *	_EXFUN(vasnprintf, (char *, size_t *, const char *, __VALIST)
 300:c:\program files (x86)\cypress\psoc creator\4.2\psoc creator\import\gnu\arm\5.4.1\arm-none-eabi\include\stdio.h ****                _ATTRIBUTE ((__format__ (__printf__, 3, 0))));
 301:c:\program files (x86)\cypress\psoc creator\4.2\psoc creator\import\gnu\arm\5.4.1\arm-none-eabi\include\stdio.h **** int	_EXFUN(vdiprintf, (int, const char *, __VALIST)
 302:c:\program files (x86)\cypress\psoc creator\4.2\psoc creator\import\gnu\arm\5.4.1\arm-none-eabi\include\stdio.h ****                _ATTRIBUTE ((__format__ (__printf__, 2, 0))));
 303:c:\program files (x86)\cypress\psoc creator\4.2\psoc creator\import\gnu\arm\5.4.1\arm-none-eabi\include\stdio.h **** int	_EXFUN(vfiprintf, (FILE *, const char *, __VALIST)
 304:c:\program files (x86)\cypress\psoc creator\4.2\psoc creator\import\gnu\arm\5.4.1\arm-none-eabi\include\stdio.h ****                _ATTRIBUTE ((__format__ (__printf__, 2, 0))));
 305:c:\program files (x86)\cypress\psoc creator\4.2\psoc creator\import\gnu\arm\5.4.1\arm-none-eabi\include\stdio.h **** int	_EXFUN(vfiscanf, (FILE *, const char *, __VALIST)
 306:c:\program files (x86)\cypress\psoc creator\4.2\psoc creator\import\gnu\arm\5.4.1\arm-none-eabi\include\stdio.h ****                _ATTRIBUTE ((__format__ (__scanf__, 2, 0))));
 307:c:\program files (x86)\cypress\psoc creator\4.2\psoc creator\import\gnu\arm\5.4.1\arm-none-eabi\include\stdio.h **** int	_EXFUN(viprintf, (const char *, __VALIST)
 308:c:\program files (x86)\cypress\psoc creator\4.2\psoc creator\import\gnu\arm\5.4.1\arm-none-eabi\include\stdio.h ****                _ATTRIBUTE ((__format__ (__printf__, 1, 0))));
 309:c:\program files (x86)\cypress\psoc creator\4.2\psoc creator\import\gnu\arm\5.4.1\arm-none-eabi\include\stdio.h **** int	_EXFUN(viscanf, (const char *, __VALIST)
 310:c:\program files (x86)\cypress\psoc creator\4.2\psoc creator\import\gnu\arm\5.4.1\arm-none-eabi\include\stdio.h ****                _ATTRIBUTE ((__format__ (__scanf__, 1, 0))));
 311:c:\program files (x86)\cypress\psoc creator\4.2\psoc creator\import\gnu\arm\5.4.1\arm-none-eabi\include\stdio.h **** int	_EXFUN(vsiprintf, (char *, const char *, __VALIST)
 312:c:\program files (x86)\cypress\psoc creator\4.2\psoc creator\import\gnu\arm\5.4.1\arm-none-eabi\include\stdio.h ****                _ATTRIBUTE ((__format__ (__printf__, 2, 0))));
 313:c:\program files (x86)\cypress\psoc creator\4.2\psoc creator\import\gnu\arm\5.4.1\arm-none-eabi\include\stdio.h **** int	_EXFUN(vsiscanf, (const char *, const char *, __VALIST)
 314:c:\program files (x86)\cypress\psoc creator\4.2\psoc creator\import\gnu\arm\5.4.1\arm-none-eabi\include\stdio.h ****                _ATTRIBUTE ((__format__ (__scanf__, 2, 0))));
 315:c:\program files (x86)\cypress\psoc creator\4.2\psoc creator\import\gnu\arm\5.4.1\arm-none-eabi\include\stdio.h **** int	_EXFUN(vsniprintf, (char *, size_t, const char *, __VALIST)
 316:c:\program files (x86)\cypress\psoc creator\4.2\psoc creator\import\gnu\arm\5.4.1\arm-none-eabi\include\stdio.h ****                _ATTRIBUTE ((__format__ (__printf__, 3, 0))));
 317:c:\program files (x86)\cypress\psoc creator\4.2\psoc creator\import\gnu\arm\5.4.1\arm-none-eabi\include\stdio.h **** #endif /* __MISC_VISIBLE */
 318:c:\program files (x86)\cypress\psoc creator\4.2\psoc creator\import\gnu\arm\5.4.1\arm-none-eabi\include\stdio.h **** #endif /* !_REENT_ONLY */
 319:c:\program files (x86)\cypress\psoc creator\4.2\psoc creator\import\gnu\arm\5.4.1\arm-none-eabi\include\stdio.h **** 
 320:c:\program files (x86)\cypress\psoc creator\4.2\psoc creator\import\gnu\arm\5.4.1\arm-none-eabi\include\stdio.h **** /*
 321:c:\program files (x86)\cypress\psoc creator\4.2\psoc creator\import\gnu\arm\5.4.1\arm-none-eabi\include\stdio.h ****  * Routines in POSIX 1003.1:2001.
 322:c:\program files (x86)\cypress\psoc creator\4.2\psoc creator\import\gnu\arm\5.4.1\arm-none-eabi\include\stdio.h ****  */
 323:c:\program files (x86)\cypress\psoc creator\4.2\psoc creator\import\gnu\arm\5.4.1\arm-none-eabi\include\stdio.h **** 
 324:c:\program files (x86)\cypress\psoc creator\4.2\psoc creator\import\gnu\arm\5.4.1\arm-none-eabi\include\stdio.h **** #if __POSIX_VISIBLE
 325:c:\program files (x86)\cypress\psoc creator\4.2\psoc creator\import\gnu\arm\5.4.1\arm-none-eabi\include\stdio.h **** #ifndef _REENT_ONLY
 326:c:\program files (x86)\cypress\psoc creator\4.2\psoc creator\import\gnu\arm\5.4.1\arm-none-eabi\include\stdio.h **** FILE *	_EXFUN(fdopen, (int, const char *));
 327:c:\program files (x86)\cypress\psoc creator\4.2\psoc creator\import\gnu\arm\5.4.1\arm-none-eabi\include\stdio.h **** #endif
 328:c:\program files (x86)\cypress\psoc creator\4.2\psoc creator\import\gnu\arm\5.4.1\arm-none-eabi\include\stdio.h **** int	_EXFUN(fileno, (FILE *));
 329:c:\program files (x86)\cypress\psoc creator\4.2\psoc creator\import\gnu\arm\5.4.1\arm-none-eabi\include\stdio.h **** #endif
 330:c:\program files (x86)\cypress\psoc creator\4.2\psoc creator\import\gnu\arm\5.4.1\arm-none-eabi\include\stdio.h **** #if __MISC_VISIBLE || __POSIX_VISIBLE >= 199209
 331:c:\program files (x86)\cypress\psoc creator\4.2\psoc creator\import\gnu\arm\5.4.1\arm-none-eabi\include\stdio.h **** int	_EXFUN(pclose, (FILE *));
 332:c:\program files (x86)\cypress\psoc creator\4.2\psoc creator\import\gnu\arm\5.4.1\arm-none-eabi\include\stdio.h **** FILE *  _EXFUN(popen, (const char *, const char *));
 333:c:\program files (x86)\cypress\psoc creator\4.2\psoc creator\import\gnu\arm\5.4.1\arm-none-eabi\include\stdio.h **** #endif
 334:c:\program files (x86)\cypress\psoc creator\4.2\psoc creator\import\gnu\arm\5.4.1\arm-none-eabi\include\stdio.h **** 
 335:c:\program files (x86)\cypress\psoc creator\4.2\psoc creator\import\gnu\arm\5.4.1\arm-none-eabi\include\stdio.h **** #if __BSD_VISIBLE
 336:c:\program files (x86)\cypress\psoc creator\4.2\psoc creator\import\gnu\arm\5.4.1\arm-none-eabi\include\stdio.h **** void    _EXFUN(setbuffer, (FILE *, char *, int));
 337:c:\program files (x86)\cypress\psoc creator\4.2\psoc creator\import\gnu\arm\5.4.1\arm-none-eabi\include\stdio.h **** int	_EXFUN(setlinebuf, (FILE *));
 338:c:\program files (x86)\cypress\psoc creator\4.2\psoc creator\import\gnu\arm\5.4.1\arm-none-eabi\include\stdio.h **** #endif
 339:c:\program files (x86)\cypress\psoc creator\4.2\psoc creator\import\gnu\arm\5.4.1\arm-none-eabi\include\stdio.h **** 
 340:c:\program files (x86)\cypress\psoc creator\4.2\psoc creator\import\gnu\arm\5.4.1\arm-none-eabi\include\stdio.h **** #if __MISC_VISIBLE || (__XSI_VISIBLE && __POSIX_VISIBLE < 200112)
 341:c:\program files (x86)\cypress\psoc creator\4.2\psoc creator\import\gnu\arm\5.4.1\arm-none-eabi\include\stdio.h **** int	_EXFUN(getw, (FILE *));
 342:c:\program files (x86)\cypress\psoc creator\4.2\psoc creator\import\gnu\arm\5.4.1\arm-none-eabi\include\stdio.h **** int	_EXFUN(putw, (int, FILE *));
 343:c:\program files (x86)\cypress\psoc creator\4.2\psoc creator\import\gnu\arm\5.4.1\arm-none-eabi\include\stdio.h **** #endif
 344:c:\program files (x86)\cypress\psoc creator\4.2\psoc creator\import\gnu\arm\5.4.1\arm-none-eabi\include\stdio.h **** #if __MISC_VISIBLE || __POSIX_VISIBLE
 345:c:\program files (x86)\cypress\psoc creator\4.2\psoc creator\import\gnu\arm\5.4.1\arm-none-eabi\include\stdio.h **** int	_EXFUN(getc_unlocked, (FILE *));
 346:c:\program files (x86)\cypress\psoc creator\4.2\psoc creator\import\gnu\arm\5.4.1\arm-none-eabi\include\stdio.h **** int	_EXFUN(getchar_unlocked, (void));
 347:c:\program files (x86)\cypress\psoc creator\4.2\psoc creator\import\gnu\arm\5.4.1\arm-none-eabi\include\stdio.h **** void	_EXFUN(flockfile, (FILE *));
 348:c:\program files (x86)\cypress\psoc creator\4.2\psoc creator\import\gnu\arm\5.4.1\arm-none-eabi\include\stdio.h **** int	_EXFUN(ftrylockfile, (FILE *));
 349:c:\program files (x86)\cypress\psoc creator\4.2\psoc creator\import\gnu\arm\5.4.1\arm-none-eabi\include\stdio.h **** void	_EXFUN(funlockfile, (FILE *));
 350:c:\program files (x86)\cypress\psoc creator\4.2\psoc creator\import\gnu\arm\5.4.1\arm-none-eabi\include\stdio.h **** int	_EXFUN(putc_unlocked, (int, FILE *));
ARM GAS  C:\Users\Doug\AppData\Local\Temp\cccAx5kS.s 			page 12


 351:c:\program files (x86)\cypress\psoc creator\4.2\psoc creator\import\gnu\arm\5.4.1\arm-none-eabi\include\stdio.h **** int	_EXFUN(putchar_unlocked, (int));
 352:c:\program files (x86)\cypress\psoc creator\4.2\psoc creator\import\gnu\arm\5.4.1\arm-none-eabi\include\stdio.h **** #endif
 353:c:\program files (x86)\cypress\psoc creator\4.2\psoc creator\import\gnu\arm\5.4.1\arm-none-eabi\include\stdio.h **** 
 354:c:\program files (x86)\cypress\psoc creator\4.2\psoc creator\import\gnu\arm\5.4.1\arm-none-eabi\include\stdio.h **** /*
 355:c:\program files (x86)\cypress\psoc creator\4.2\psoc creator\import\gnu\arm\5.4.1\arm-none-eabi\include\stdio.h ****  * Routines in POSIX 1003.1:200x.
 356:c:\program files (x86)\cypress\psoc creator\4.2\psoc creator\import\gnu\arm\5.4.1\arm-none-eabi\include\stdio.h ****  */
 357:c:\program files (x86)\cypress\psoc creator\4.2\psoc creator\import\gnu\arm\5.4.1\arm-none-eabi\include\stdio.h **** 
 358:c:\program files (x86)\cypress\psoc creator\4.2\psoc creator\import\gnu\arm\5.4.1\arm-none-eabi\include\stdio.h **** #if __POSIX_VISIBLE >= 200809
 359:c:\program files (x86)\cypress\psoc creator\4.2\psoc creator\import\gnu\arm\5.4.1\arm-none-eabi\include\stdio.h **** # ifndef _REENT_ONLY
 360:c:\program files (x86)\cypress\psoc creator\4.2\psoc creator\import\gnu\arm\5.4.1\arm-none-eabi\include\stdio.h **** #  ifndef dprintf
 361:c:\program files (x86)\cypress\psoc creator\4.2\psoc creator\import\gnu\arm\5.4.1\arm-none-eabi\include\stdio.h **** int	_EXFUN(dprintf, (int, const char *__restrict, ...)
 362:c:\program files (x86)\cypress\psoc creator\4.2\psoc creator\import\gnu\arm\5.4.1\arm-none-eabi\include\stdio.h ****                _ATTRIBUTE ((__format__ (__printf__, 2, 3))));
 363:c:\program files (x86)\cypress\psoc creator\4.2\psoc creator\import\gnu\arm\5.4.1\arm-none-eabi\include\stdio.h **** #  endif
 364:c:\program files (x86)\cypress\psoc creator\4.2\psoc creator\import\gnu\arm\5.4.1\arm-none-eabi\include\stdio.h **** FILE *	_EXFUN(fmemopen, (void *__restrict, size_t, const char *__restrict));
 365:c:\program files (x86)\cypress\psoc creator\4.2\psoc creator\import\gnu\arm\5.4.1\arm-none-eabi\include\stdio.h **** /* getdelim - see __getdelim for now */
 366:c:\program files (x86)\cypress\psoc creator\4.2\psoc creator\import\gnu\arm\5.4.1\arm-none-eabi\include\stdio.h **** /* getline - see __getline for now */
 367:c:\program files (x86)\cypress\psoc creator\4.2\psoc creator\import\gnu\arm\5.4.1\arm-none-eabi\include\stdio.h **** FILE *	_EXFUN(open_memstream, (char **, size_t *));
 368:c:\program files (x86)\cypress\psoc creator\4.2\psoc creator\import\gnu\arm\5.4.1\arm-none-eabi\include\stdio.h **** int	_EXFUN(vdprintf, (int, const char *__restrict, __VALIST)
 369:c:\program files (x86)\cypress\psoc creator\4.2\psoc creator\import\gnu\arm\5.4.1\arm-none-eabi\include\stdio.h ****                _ATTRIBUTE ((__format__ (__printf__, 2, 0))));
 370:c:\program files (x86)\cypress\psoc creator\4.2\psoc creator\import\gnu\arm\5.4.1\arm-none-eabi\include\stdio.h **** # endif
 371:c:\program files (x86)\cypress\psoc creator\4.2\psoc creator\import\gnu\arm\5.4.1\arm-none-eabi\include\stdio.h **** #endif
 372:c:\program files (x86)\cypress\psoc creator\4.2\psoc creator\import\gnu\arm\5.4.1\arm-none-eabi\include\stdio.h **** #if __ATFILE_VISIBLE
 373:c:\program files (x86)\cypress\psoc creator\4.2\psoc creator\import\gnu\arm\5.4.1\arm-none-eabi\include\stdio.h **** int	_EXFUN(renameat, (int, const char *, int, const char *));
 374:c:\program files (x86)\cypress\psoc creator\4.2\psoc creator\import\gnu\arm\5.4.1\arm-none-eabi\include\stdio.h **** #endif
 375:c:\program files (x86)\cypress\psoc creator\4.2\psoc creator\import\gnu\arm\5.4.1\arm-none-eabi\include\stdio.h **** 
 376:c:\program files (x86)\cypress\psoc creator\4.2\psoc creator\import\gnu\arm\5.4.1\arm-none-eabi\include\stdio.h **** /*
 377:c:\program files (x86)\cypress\psoc creator\4.2\psoc creator\import\gnu\arm\5.4.1\arm-none-eabi\include\stdio.h ****  * Recursive versions of the above.
 378:c:\program files (x86)\cypress\psoc creator\4.2\psoc creator\import\gnu\arm\5.4.1\arm-none-eabi\include\stdio.h ****  */
 379:c:\program files (x86)\cypress\psoc creator\4.2\psoc creator\import\gnu\arm\5.4.1\arm-none-eabi\include\stdio.h **** 
 380:c:\program files (x86)\cypress\psoc creator\4.2\psoc creator\import\gnu\arm\5.4.1\arm-none-eabi\include\stdio.h **** int	_EXFUN(_asiprintf_r, (struct _reent *, char **, const char *, ...)
 381:c:\program files (x86)\cypress\psoc creator\4.2\psoc creator\import\gnu\arm\5.4.1\arm-none-eabi\include\stdio.h ****                _ATTRIBUTE ((__format__ (__printf__, 3, 4))));
 382:c:\program files (x86)\cypress\psoc creator\4.2\psoc creator\import\gnu\arm\5.4.1\arm-none-eabi\include\stdio.h **** char *	_EXFUN(_asniprintf_r, (struct _reent *, char *, size_t *, const char *, ...)
 383:c:\program files (x86)\cypress\psoc creator\4.2\psoc creator\import\gnu\arm\5.4.1\arm-none-eabi\include\stdio.h ****                _ATTRIBUTE ((__format__ (__printf__, 4, 5))));
 384:c:\program files (x86)\cypress\psoc creator\4.2\psoc creator\import\gnu\arm\5.4.1\arm-none-eabi\include\stdio.h **** char *	_EXFUN(_asnprintf_r, (struct _reent *, char *__restrict, size_t *__restrict, const char *__r
 385:c:\program files (x86)\cypress\psoc creator\4.2\psoc creator\import\gnu\arm\5.4.1\arm-none-eabi\include\stdio.h ****                _ATTRIBUTE ((__format__ (__printf__, 4, 5))));
 386:c:\program files (x86)\cypress\psoc creator\4.2\psoc creator\import\gnu\arm\5.4.1\arm-none-eabi\include\stdio.h **** int	_EXFUN(_asprintf_r, (struct _reent *, char **__restrict, const char *__restrict, ...)
 387:c:\program files (x86)\cypress\psoc creator\4.2\psoc creator\import\gnu\arm\5.4.1\arm-none-eabi\include\stdio.h ****                _ATTRIBUTE ((__format__ (__printf__, 3, 4))));
 388:c:\program files (x86)\cypress\psoc creator\4.2\psoc creator\import\gnu\arm\5.4.1\arm-none-eabi\include\stdio.h **** int	_EXFUN(_diprintf_r, (struct _reent *, int, const char *, ...)
 389:c:\program files (x86)\cypress\psoc creator\4.2\psoc creator\import\gnu\arm\5.4.1\arm-none-eabi\include\stdio.h ****                _ATTRIBUTE ((__format__ (__printf__, 3, 4))));
 390:c:\program files (x86)\cypress\psoc creator\4.2\psoc creator\import\gnu\arm\5.4.1\arm-none-eabi\include\stdio.h **** int	_EXFUN(_dprintf_r, (struct _reent *, int, const char *__restrict, ...)
 391:c:\program files (x86)\cypress\psoc creator\4.2\psoc creator\import\gnu\arm\5.4.1\arm-none-eabi\include\stdio.h ****                _ATTRIBUTE ((__format__ (__printf__, 3, 4))));
 392:c:\program files (x86)\cypress\psoc creator\4.2\psoc creator\import\gnu\arm\5.4.1\arm-none-eabi\include\stdio.h **** int	_EXFUN(_fclose_r, (struct _reent *, FILE *));
 393:c:\program files (x86)\cypress\psoc creator\4.2\psoc creator\import\gnu\arm\5.4.1\arm-none-eabi\include\stdio.h **** int	_EXFUN(_fcloseall_r, (struct _reent *));
 394:c:\program files (x86)\cypress\psoc creator\4.2\psoc creator\import\gnu\arm\5.4.1\arm-none-eabi\include\stdio.h **** FILE *	_EXFUN(_fdopen_r, (struct _reent *, int, const char *));
 395:c:\program files (x86)\cypress\psoc creator\4.2\psoc creator\import\gnu\arm\5.4.1\arm-none-eabi\include\stdio.h **** int	_EXFUN(_fflush_r, (struct _reent *, FILE *));
 396:c:\program files (x86)\cypress\psoc creator\4.2\psoc creator\import\gnu\arm\5.4.1\arm-none-eabi\include\stdio.h **** int	_EXFUN(_fgetc_r, (struct _reent *, FILE *));
 397:c:\program files (x86)\cypress\psoc creator\4.2\psoc creator\import\gnu\arm\5.4.1\arm-none-eabi\include\stdio.h **** int	_EXFUN(_fgetc_unlocked_r, (struct _reent *, FILE *));
 398:c:\program files (x86)\cypress\psoc creator\4.2\psoc creator\import\gnu\arm\5.4.1\arm-none-eabi\include\stdio.h **** char *  _EXFUN(_fgets_r, (struct _reent *, char *__restrict, int, FILE *__restrict));
 399:c:\program files (x86)\cypress\psoc creator\4.2\psoc creator\import\gnu\arm\5.4.1\arm-none-eabi\include\stdio.h **** char *  _EXFUN(_fgets_unlocked_r, (struct _reent *, char *__restrict, int, FILE *__restrict));
 400:c:\program files (x86)\cypress\psoc creator\4.2\psoc creator\import\gnu\arm\5.4.1\arm-none-eabi\include\stdio.h **** #ifdef _COMPILING_NEWLIB
 401:c:\program files (x86)\cypress\psoc creator\4.2\psoc creator\import\gnu\arm\5.4.1\arm-none-eabi\include\stdio.h **** int	_EXFUN(_fgetpos_r, (struct _reent *, FILE *__restrict, _fpos_t *__restrict));
 402:c:\program files (x86)\cypress\psoc creator\4.2\psoc creator\import\gnu\arm\5.4.1\arm-none-eabi\include\stdio.h **** int	_EXFUN(_fsetpos_r, (struct _reent *, FILE *, const _fpos_t *));
 403:c:\program files (x86)\cypress\psoc creator\4.2\psoc creator\import\gnu\arm\5.4.1\arm-none-eabi\include\stdio.h **** #else
 404:c:\program files (x86)\cypress\psoc creator\4.2\psoc creator\import\gnu\arm\5.4.1\arm-none-eabi\include\stdio.h **** int	_EXFUN(_fgetpos_r, (struct _reent *, FILE *, fpos_t *));
 405:c:\program files (x86)\cypress\psoc creator\4.2\psoc creator\import\gnu\arm\5.4.1\arm-none-eabi\include\stdio.h **** int	_EXFUN(_fsetpos_r, (struct _reent *, FILE *, const fpos_t *));
 406:c:\program files (x86)\cypress\psoc creator\4.2\psoc creator\import\gnu\arm\5.4.1\arm-none-eabi\include\stdio.h **** #endif
 407:c:\program files (x86)\cypress\psoc creator\4.2\psoc creator\import\gnu\arm\5.4.1\arm-none-eabi\include\stdio.h **** int	_EXFUN(_fiprintf_r, (struct _reent *, FILE *, const char *, ...)
ARM GAS  C:\Users\Doug\AppData\Local\Temp\cccAx5kS.s 			page 13


 408:c:\program files (x86)\cypress\psoc creator\4.2\psoc creator\import\gnu\arm\5.4.1\arm-none-eabi\include\stdio.h ****                _ATTRIBUTE ((__format__ (__printf__, 3, 4))));
 409:c:\program files (x86)\cypress\psoc creator\4.2\psoc creator\import\gnu\arm\5.4.1\arm-none-eabi\include\stdio.h **** int	_EXFUN(_fiscanf_r, (struct _reent *, FILE *, const char *, ...)
 410:c:\program files (x86)\cypress\psoc creator\4.2\psoc creator\import\gnu\arm\5.4.1\arm-none-eabi\include\stdio.h ****                _ATTRIBUTE ((__format__ (__scanf__, 3, 4))));
 411:c:\program files (x86)\cypress\psoc creator\4.2\psoc creator\import\gnu\arm\5.4.1\arm-none-eabi\include\stdio.h **** FILE *	_EXFUN(_fmemopen_r, (struct _reent *, void *__restrict, size_t, const char *__restrict));
 412:c:\program files (x86)\cypress\psoc creator\4.2\psoc creator\import\gnu\arm\5.4.1\arm-none-eabi\include\stdio.h **** FILE *	_EXFUN(_fopen_r, (struct _reent *, const char *__restrict, const char *__restrict));
 413:c:\program files (x86)\cypress\psoc creator\4.2\psoc creator\import\gnu\arm\5.4.1\arm-none-eabi\include\stdio.h **** FILE *	_EXFUN(_freopen_r, (struct _reent *, const char *__restrict, const char *__restrict, FILE *_
 414:c:\program files (x86)\cypress\psoc creator\4.2\psoc creator\import\gnu\arm\5.4.1\arm-none-eabi\include\stdio.h **** int	_EXFUN(_fprintf_r, (struct _reent *, FILE *__restrict, const char *__restrict, ...)
 415:c:\program files (x86)\cypress\psoc creator\4.2\psoc creator\import\gnu\arm\5.4.1\arm-none-eabi\include\stdio.h ****                _ATTRIBUTE ((__format__ (__printf__, 3, 4))));
 416:c:\program files (x86)\cypress\psoc creator\4.2\psoc creator\import\gnu\arm\5.4.1\arm-none-eabi\include\stdio.h **** int	_EXFUN(_fpurge_r, (struct _reent *, FILE *));
 417:c:\program files (x86)\cypress\psoc creator\4.2\psoc creator\import\gnu\arm\5.4.1\arm-none-eabi\include\stdio.h **** int	_EXFUN(_fputc_r, (struct _reent *, int, FILE *));
 418:c:\program files (x86)\cypress\psoc creator\4.2\psoc creator\import\gnu\arm\5.4.1\arm-none-eabi\include\stdio.h **** int	_EXFUN(_fputc_unlocked_r, (struct _reent *, int, FILE *));
 419:c:\program files (x86)\cypress\psoc creator\4.2\psoc creator\import\gnu\arm\5.4.1\arm-none-eabi\include\stdio.h **** int	_EXFUN(_fputs_r, (struct _reent *, const char *__restrict, FILE *__restrict));
 420:c:\program files (x86)\cypress\psoc creator\4.2\psoc creator\import\gnu\arm\5.4.1\arm-none-eabi\include\stdio.h **** int	_EXFUN(_fputs_unlocked_r, (struct _reent *, const char *__restrict, FILE *__restrict));
 421:c:\program files (x86)\cypress\psoc creator\4.2\psoc creator\import\gnu\arm\5.4.1\arm-none-eabi\include\stdio.h **** size_t	_EXFUN(_fread_r, (struct _reent *, _PTR __restrict, size_t _size, size_t _n, FILE *__restric
 422:c:\program files (x86)\cypress\psoc creator\4.2\psoc creator\import\gnu\arm\5.4.1\arm-none-eabi\include\stdio.h **** size_t	_EXFUN(_fread_unlocked_r, (struct _reent *, _PTR __restrict, size_t _size, size_t _n, FILE *
 423:c:\program files (x86)\cypress\psoc creator\4.2\psoc creator\import\gnu\arm\5.4.1\arm-none-eabi\include\stdio.h **** int	_EXFUN(_fscanf_r, (struct _reent *, FILE *__restrict, const char *__restrict, ...)
 424:c:\program files (x86)\cypress\psoc creator\4.2\psoc creator\import\gnu\arm\5.4.1\arm-none-eabi\include\stdio.h ****                _ATTRIBUTE ((__format__ (__scanf__, 3, 4))));
 425:c:\program files (x86)\cypress\psoc creator\4.2\psoc creator\import\gnu\arm\5.4.1\arm-none-eabi\include\stdio.h **** int	_EXFUN(_fseek_r, (struct _reent *, FILE *, long, int));
 426:c:\program files (x86)\cypress\psoc creator\4.2\psoc creator\import\gnu\arm\5.4.1\arm-none-eabi\include\stdio.h **** int	_EXFUN(_fseeko_r,(struct _reent *, FILE *, _off_t, int));
 427:c:\program files (x86)\cypress\psoc creator\4.2\psoc creator\import\gnu\arm\5.4.1\arm-none-eabi\include\stdio.h **** long	_EXFUN(_ftell_r, (struct _reent *, FILE *));
 428:c:\program files (x86)\cypress\psoc creator\4.2\psoc creator\import\gnu\arm\5.4.1\arm-none-eabi\include\stdio.h **** _off_t	_EXFUN(_ftello_r,(struct _reent *, FILE *));
 429:c:\program files (x86)\cypress\psoc creator\4.2\psoc creator\import\gnu\arm\5.4.1\arm-none-eabi\include\stdio.h **** void	_EXFUN(_rewind_r, (struct _reent *, FILE *));
 430:c:\program files (x86)\cypress\psoc creator\4.2\psoc creator\import\gnu\arm\5.4.1\arm-none-eabi\include\stdio.h **** size_t	_EXFUN(_fwrite_r, (struct _reent *, const _PTR __restrict, size_t _size, size_t _n, FILE *__
 431:c:\program files (x86)\cypress\psoc creator\4.2\psoc creator\import\gnu\arm\5.4.1\arm-none-eabi\include\stdio.h **** size_t	_EXFUN(_fwrite_unlocked_r, (struct _reent *, const _PTR __restrict, size_t _size, size_t _n,
 432:c:\program files (x86)\cypress\psoc creator\4.2\psoc creator\import\gnu\arm\5.4.1\arm-none-eabi\include\stdio.h **** int	_EXFUN(_getc_r, (struct _reent *, FILE *));
 433:c:\program files (x86)\cypress\psoc creator\4.2\psoc creator\import\gnu\arm\5.4.1\arm-none-eabi\include\stdio.h **** int	_EXFUN(_getc_unlocked_r, (struct _reent *, FILE *));
 434:c:\program files (x86)\cypress\psoc creator\4.2\psoc creator\import\gnu\arm\5.4.1\arm-none-eabi\include\stdio.h **** int	_EXFUN(_getchar_r, (struct _reent *));
 435:c:\program files (x86)\cypress\psoc creator\4.2\psoc creator\import\gnu\arm\5.4.1\arm-none-eabi\include\stdio.h **** int	_EXFUN(_getchar_unlocked_r, (struct _reent *));
 436:c:\program files (x86)\cypress\psoc creator\4.2\psoc creator\import\gnu\arm\5.4.1\arm-none-eabi\include\stdio.h **** char *	_EXFUN(_gets_r, (struct _reent *, char *));
 437:c:\program files (x86)\cypress\psoc creator\4.2\psoc creator\import\gnu\arm\5.4.1\arm-none-eabi\include\stdio.h **** int	_EXFUN(_iprintf_r, (struct _reent *, const char *, ...)
 438:c:\program files (x86)\cypress\psoc creator\4.2\psoc creator\import\gnu\arm\5.4.1\arm-none-eabi\include\stdio.h ****                _ATTRIBUTE ((__format__ (__printf__, 2, 3))));
 439:c:\program files (x86)\cypress\psoc creator\4.2\psoc creator\import\gnu\arm\5.4.1\arm-none-eabi\include\stdio.h **** int	_EXFUN(_iscanf_r, (struct _reent *, const char *, ...)
 440:c:\program files (x86)\cypress\psoc creator\4.2\psoc creator\import\gnu\arm\5.4.1\arm-none-eabi\include\stdio.h ****                _ATTRIBUTE ((__format__ (__scanf__, 2, 3))));
 441:c:\program files (x86)\cypress\psoc creator\4.2\psoc creator\import\gnu\arm\5.4.1\arm-none-eabi\include\stdio.h **** FILE *	_EXFUN(_open_memstream_r, (struct _reent *, char **, size_t *));
 442:c:\program files (x86)\cypress\psoc creator\4.2\psoc creator\import\gnu\arm\5.4.1\arm-none-eabi\include\stdio.h **** void	_EXFUN(_perror_r, (struct _reent *, const char *));
 443:c:\program files (x86)\cypress\psoc creator\4.2\psoc creator\import\gnu\arm\5.4.1\arm-none-eabi\include\stdio.h **** int	_EXFUN(_printf_r, (struct _reent *, const char *__restrict, ...)
 444:c:\program files (x86)\cypress\psoc creator\4.2\psoc creator\import\gnu\arm\5.4.1\arm-none-eabi\include\stdio.h ****                _ATTRIBUTE ((__format__ (__printf__, 2, 3))));
 445:c:\program files (x86)\cypress\psoc creator\4.2\psoc creator\import\gnu\arm\5.4.1\arm-none-eabi\include\stdio.h **** int	_EXFUN(_putc_r, (struct _reent *, int, FILE *));
 446:c:\program files (x86)\cypress\psoc creator\4.2\psoc creator\import\gnu\arm\5.4.1\arm-none-eabi\include\stdio.h **** int	_EXFUN(_putc_unlocked_r, (struct _reent *, int, FILE *));
 447:c:\program files (x86)\cypress\psoc creator\4.2\psoc creator\import\gnu\arm\5.4.1\arm-none-eabi\include\stdio.h **** int	_EXFUN(_putchar_unlocked_r, (struct _reent *, int));
 448:c:\program files (x86)\cypress\psoc creator\4.2\psoc creator\import\gnu\arm\5.4.1\arm-none-eabi\include\stdio.h **** int	_EXFUN(_putchar_r, (struct _reent *, int));
 449:c:\program files (x86)\cypress\psoc creator\4.2\psoc creator\import\gnu\arm\5.4.1\arm-none-eabi\include\stdio.h **** int	_EXFUN(_puts_r, (struct _reent *, const char *));
 450:c:\program files (x86)\cypress\psoc creator\4.2\psoc creator\import\gnu\arm\5.4.1\arm-none-eabi\include\stdio.h **** int	_EXFUN(_remove_r, (struct _reent *, const char *));
 451:c:\program files (x86)\cypress\psoc creator\4.2\psoc creator\import\gnu\arm\5.4.1\arm-none-eabi\include\stdio.h **** int	_EXFUN(_rename_r, (struct _reent *,
 452:c:\program files (x86)\cypress\psoc creator\4.2\psoc creator\import\gnu\arm\5.4.1\arm-none-eabi\include\stdio.h **** 			   const char *_old, const char *_new));
 453:c:\program files (x86)\cypress\psoc creator\4.2\psoc creator\import\gnu\arm\5.4.1\arm-none-eabi\include\stdio.h **** int	_EXFUN(_scanf_r, (struct _reent *, const char *__restrict, ...)
 454:c:\program files (x86)\cypress\psoc creator\4.2\psoc creator\import\gnu\arm\5.4.1\arm-none-eabi\include\stdio.h ****                _ATTRIBUTE ((__format__ (__scanf__, 2, 3))));
 455:c:\program files (x86)\cypress\psoc creator\4.2\psoc creator\import\gnu\arm\5.4.1\arm-none-eabi\include\stdio.h **** int	_EXFUN(_siprintf_r, (struct _reent *, char *, const char *, ...)
 456:c:\program files (x86)\cypress\psoc creator\4.2\psoc creator\import\gnu\arm\5.4.1\arm-none-eabi\include\stdio.h ****                _ATTRIBUTE ((__format__ (__printf__, 3, 4))));
 457:c:\program files (x86)\cypress\psoc creator\4.2\psoc creator\import\gnu\arm\5.4.1\arm-none-eabi\include\stdio.h **** int	_EXFUN(_siscanf_r, (struct _reent *, const char *, const char *, ...)
 458:c:\program files (x86)\cypress\psoc creator\4.2\psoc creator\import\gnu\arm\5.4.1\arm-none-eabi\include\stdio.h ****                _ATTRIBUTE ((__format__ (__scanf__, 3, 4))));
 459:c:\program files (x86)\cypress\psoc creator\4.2\psoc creator\import\gnu\arm\5.4.1\arm-none-eabi\include\stdio.h **** int	_EXFUN(_sniprintf_r, (struct _reent *, char *, size_t, const char *, ...)
 460:c:\program files (x86)\cypress\psoc creator\4.2\psoc creator\import\gnu\arm\5.4.1\arm-none-eabi\include\stdio.h ****                _ATTRIBUTE ((__format__ (__printf__, 4, 5))));
 461:c:\program files (x86)\cypress\psoc creator\4.2\psoc creator\import\gnu\arm\5.4.1\arm-none-eabi\include\stdio.h **** int	_EXFUN(_snprintf_r, (struct _reent *, char *__restrict, size_t, const char *__restrict, ...)
 462:c:\program files (x86)\cypress\psoc creator\4.2\psoc creator\import\gnu\arm\5.4.1\arm-none-eabi\include\stdio.h ****                _ATTRIBUTE ((__format__ (__printf__, 4, 5))));
 463:c:\program files (x86)\cypress\psoc creator\4.2\psoc creator\import\gnu\arm\5.4.1\arm-none-eabi\include\stdio.h **** int	_EXFUN(_sprintf_r, (struct _reent *, char *__restrict, const char *__restrict, ...)
 464:c:\program files (x86)\cypress\psoc creator\4.2\psoc creator\import\gnu\arm\5.4.1\arm-none-eabi\include\stdio.h ****                _ATTRIBUTE ((__format__ (__printf__, 3, 4))));
ARM GAS  C:\Users\Doug\AppData\Local\Temp\cccAx5kS.s 			page 14


 465:c:\program files (x86)\cypress\psoc creator\4.2\psoc creator\import\gnu\arm\5.4.1\arm-none-eabi\include\stdio.h **** int	_EXFUN(_sscanf_r, (struct _reent *, const char *__restrict, const char *__restrict, ...)
 466:c:\program files (x86)\cypress\psoc creator\4.2\psoc creator\import\gnu\arm\5.4.1\arm-none-eabi\include\stdio.h ****                _ATTRIBUTE ((__format__ (__scanf__, 3, 4))));
 467:c:\program files (x86)\cypress\psoc creator\4.2\psoc creator\import\gnu\arm\5.4.1\arm-none-eabi\include\stdio.h **** char *	_EXFUN(_tempnam_r, (struct _reent *, const char *, const char *));
 468:c:\program files (x86)\cypress\psoc creator\4.2\psoc creator\import\gnu\arm\5.4.1\arm-none-eabi\include\stdio.h **** FILE *	_EXFUN(_tmpfile_r, (struct _reent *));
 469:c:\program files (x86)\cypress\psoc creator\4.2\psoc creator\import\gnu\arm\5.4.1\arm-none-eabi\include\stdio.h **** char *	_EXFUN(_tmpnam_r, (struct _reent *, char *));
 470:c:\program files (x86)\cypress\psoc creator\4.2\psoc creator\import\gnu\arm\5.4.1\arm-none-eabi\include\stdio.h **** int	_EXFUN(_ungetc_r, (struct _reent *, int, FILE *));
 471:c:\program files (x86)\cypress\psoc creator\4.2\psoc creator\import\gnu\arm\5.4.1\arm-none-eabi\include\stdio.h **** int	_EXFUN(_vasiprintf_r, (struct _reent *, char **, const char *, __VALIST)
 472:c:\program files (x86)\cypress\psoc creator\4.2\psoc creator\import\gnu\arm\5.4.1\arm-none-eabi\include\stdio.h ****                _ATTRIBUTE ((__format__ (__printf__, 3, 0))));
 473:c:\program files (x86)\cypress\psoc creator\4.2\psoc creator\import\gnu\arm\5.4.1\arm-none-eabi\include\stdio.h **** char *	_EXFUN(_vasniprintf_r, (struct _reent*, char *, size_t *, const char *, __VALIST)
 474:c:\program files (x86)\cypress\psoc creator\4.2\psoc creator\import\gnu\arm\5.4.1\arm-none-eabi\include\stdio.h ****                _ATTRIBUTE ((__format__ (__printf__, 4, 0))));
 475:c:\program files (x86)\cypress\psoc creator\4.2\psoc creator\import\gnu\arm\5.4.1\arm-none-eabi\include\stdio.h **** char *	_EXFUN(_vasnprintf_r, (struct _reent*, char *, size_t *, const char *, __VALIST)
 476:c:\program files (x86)\cypress\psoc creator\4.2\psoc creator\import\gnu\arm\5.4.1\arm-none-eabi\include\stdio.h ****                _ATTRIBUTE ((__format__ (__printf__, 4, 0))));
 477:c:\program files (x86)\cypress\psoc creator\4.2\psoc creator\import\gnu\arm\5.4.1\arm-none-eabi\include\stdio.h **** int	_EXFUN(_vasprintf_r, (struct _reent *, char **, const char *, __VALIST)
 478:c:\program files (x86)\cypress\psoc creator\4.2\psoc creator\import\gnu\arm\5.4.1\arm-none-eabi\include\stdio.h ****                _ATTRIBUTE ((__format__ (__printf__, 3, 0))));
 479:c:\program files (x86)\cypress\psoc creator\4.2\psoc creator\import\gnu\arm\5.4.1\arm-none-eabi\include\stdio.h **** int	_EXFUN(_vdiprintf_r, (struct _reent *, int, const char *, __VALIST)
 480:c:\program files (x86)\cypress\psoc creator\4.2\psoc creator\import\gnu\arm\5.4.1\arm-none-eabi\include\stdio.h ****                _ATTRIBUTE ((__format__ (__printf__, 3, 0))));
 481:c:\program files (x86)\cypress\psoc creator\4.2\psoc creator\import\gnu\arm\5.4.1\arm-none-eabi\include\stdio.h **** int	_EXFUN(_vdprintf_r, (struct _reent *, int, const char *__restrict, __VALIST)
 482:c:\program files (x86)\cypress\psoc creator\4.2\psoc creator\import\gnu\arm\5.4.1\arm-none-eabi\include\stdio.h ****                _ATTRIBUTE ((__format__ (__printf__, 3, 0))));
 483:c:\program files (x86)\cypress\psoc creator\4.2\psoc creator\import\gnu\arm\5.4.1\arm-none-eabi\include\stdio.h **** int	_EXFUN(_vfiprintf_r, (struct _reent *, FILE *, const char *, __VALIST)
 484:c:\program files (x86)\cypress\psoc creator\4.2\psoc creator\import\gnu\arm\5.4.1\arm-none-eabi\include\stdio.h ****                _ATTRIBUTE ((__format__ (__printf__, 3, 0))));
 485:c:\program files (x86)\cypress\psoc creator\4.2\psoc creator\import\gnu\arm\5.4.1\arm-none-eabi\include\stdio.h **** int	_EXFUN(_vfiscanf_r, (struct _reent *, FILE *, const char *, __VALIST)
 486:c:\program files (x86)\cypress\psoc creator\4.2\psoc creator\import\gnu\arm\5.4.1\arm-none-eabi\include\stdio.h ****                _ATTRIBUTE ((__format__ (__scanf__, 3, 0))));
 487:c:\program files (x86)\cypress\psoc creator\4.2\psoc creator\import\gnu\arm\5.4.1\arm-none-eabi\include\stdio.h **** int	_EXFUN(_vfprintf_r, (struct _reent *, FILE *__restrict, const char *__restrict, __VALIST)
 488:c:\program files (x86)\cypress\psoc creator\4.2\psoc creator\import\gnu\arm\5.4.1\arm-none-eabi\include\stdio.h ****                _ATTRIBUTE ((__format__ (__printf__, 3, 0))));
 489:c:\program files (x86)\cypress\psoc creator\4.2\psoc creator\import\gnu\arm\5.4.1\arm-none-eabi\include\stdio.h **** int	_EXFUN(_vfscanf_r, (struct _reent *, FILE *__restrict, const char *__restrict, __VALIST)
 490:c:\program files (x86)\cypress\psoc creator\4.2\psoc creator\import\gnu\arm\5.4.1\arm-none-eabi\include\stdio.h ****                _ATTRIBUTE ((__format__ (__scanf__, 3, 0))));
 491:c:\program files (x86)\cypress\psoc creator\4.2\psoc creator\import\gnu\arm\5.4.1\arm-none-eabi\include\stdio.h **** int	_EXFUN(_viprintf_r, (struct _reent *, const char *, __VALIST)
 492:c:\program files (x86)\cypress\psoc creator\4.2\psoc creator\import\gnu\arm\5.4.1\arm-none-eabi\include\stdio.h ****                _ATTRIBUTE ((__format__ (__printf__, 2, 0))));
 493:c:\program files (x86)\cypress\psoc creator\4.2\psoc creator\import\gnu\arm\5.4.1\arm-none-eabi\include\stdio.h **** int	_EXFUN(_viscanf_r, (struct _reent *, const char *, __VALIST)
 494:c:\program files (x86)\cypress\psoc creator\4.2\psoc creator\import\gnu\arm\5.4.1\arm-none-eabi\include\stdio.h ****                _ATTRIBUTE ((__format__ (__scanf__, 2, 0))));
 495:c:\program files (x86)\cypress\psoc creator\4.2\psoc creator\import\gnu\arm\5.4.1\arm-none-eabi\include\stdio.h **** int	_EXFUN(_vprintf_r, (struct _reent *, const char *__restrict, __VALIST)
 496:c:\program files (x86)\cypress\psoc creator\4.2\psoc creator\import\gnu\arm\5.4.1\arm-none-eabi\include\stdio.h ****                _ATTRIBUTE ((__format__ (__printf__, 2, 0))));
 497:c:\program files (x86)\cypress\psoc creator\4.2\psoc creator\import\gnu\arm\5.4.1\arm-none-eabi\include\stdio.h **** int	_EXFUN(_vscanf_r, (struct _reent *, const char *__restrict, __VALIST)
 498:c:\program files (x86)\cypress\psoc creator\4.2\psoc creator\import\gnu\arm\5.4.1\arm-none-eabi\include\stdio.h ****                _ATTRIBUTE ((__format__ (__scanf__, 2, 0))));
 499:c:\program files (x86)\cypress\psoc creator\4.2\psoc creator\import\gnu\arm\5.4.1\arm-none-eabi\include\stdio.h **** int	_EXFUN(_vsiprintf_r, (struct _reent *, char *, const char *, __VALIST)
 500:c:\program files (x86)\cypress\psoc creator\4.2\psoc creator\import\gnu\arm\5.4.1\arm-none-eabi\include\stdio.h ****                _ATTRIBUTE ((__format__ (__printf__, 3, 0))));
 501:c:\program files (x86)\cypress\psoc creator\4.2\psoc creator\import\gnu\arm\5.4.1\arm-none-eabi\include\stdio.h **** int	_EXFUN(_vsiscanf_r, (struct _reent *, const char *, const char *, __VALIST)
 502:c:\program files (x86)\cypress\psoc creator\4.2\psoc creator\import\gnu\arm\5.4.1\arm-none-eabi\include\stdio.h ****                _ATTRIBUTE ((__format__ (__scanf__, 3, 0))));
 503:c:\program files (x86)\cypress\psoc creator\4.2\psoc creator\import\gnu\arm\5.4.1\arm-none-eabi\include\stdio.h **** int	_EXFUN(_vsniprintf_r, (struct _reent *, char *, size_t, const char *, __VALIST)
 504:c:\program files (x86)\cypress\psoc creator\4.2\psoc creator\import\gnu\arm\5.4.1\arm-none-eabi\include\stdio.h ****                _ATTRIBUTE ((__format__ (__printf__, 4, 0))));
 505:c:\program files (x86)\cypress\psoc creator\4.2\psoc creator\import\gnu\arm\5.4.1\arm-none-eabi\include\stdio.h **** int	_EXFUN(_vsnprintf_r, (struct _reent *, char *__restrict, size_t, const char *__restrict, __VALI
 506:c:\program files (x86)\cypress\psoc creator\4.2\psoc creator\import\gnu\arm\5.4.1\arm-none-eabi\include\stdio.h ****                _ATTRIBUTE ((__format__ (__printf__, 4, 0))));
 507:c:\program files (x86)\cypress\psoc creator\4.2\psoc creator\import\gnu\arm\5.4.1\arm-none-eabi\include\stdio.h **** int	_EXFUN(_vsprintf_r, (struct _reent *, char *__restrict, const char *__restrict, __VALIST)
 508:c:\program files (x86)\cypress\psoc creator\4.2\psoc creator\import\gnu\arm\5.4.1\arm-none-eabi\include\stdio.h ****                _ATTRIBUTE ((__format__ (__printf__, 3, 0))));
 509:c:\program files (x86)\cypress\psoc creator\4.2\psoc creator\import\gnu\arm\5.4.1\arm-none-eabi\include\stdio.h **** int	_EXFUN(_vsscanf_r, (struct _reent *, const char *__restrict, const char *__restrict, __VALIST)
 510:c:\program files (x86)\cypress\psoc creator\4.2\psoc creator\import\gnu\arm\5.4.1\arm-none-eabi\include\stdio.h ****                _ATTRIBUTE ((__format__ (__scanf__, 3, 0))));
 511:c:\program files (x86)\cypress\psoc creator\4.2\psoc creator\import\gnu\arm\5.4.1\arm-none-eabi\include\stdio.h **** 
 512:c:\program files (x86)\cypress\psoc creator\4.2\psoc creator\import\gnu\arm\5.4.1\arm-none-eabi\include\stdio.h **** /* Other extensions.  */
 513:c:\program files (x86)\cypress\psoc creator\4.2\psoc creator\import\gnu\arm\5.4.1\arm-none-eabi\include\stdio.h **** 
 514:c:\program files (x86)\cypress\psoc creator\4.2\psoc creator\import\gnu\arm\5.4.1\arm-none-eabi\include\stdio.h **** int	_EXFUN(fpurge, (FILE *));
 515:c:\program files (x86)\cypress\psoc creator\4.2\psoc creator\import\gnu\arm\5.4.1\arm-none-eabi\include\stdio.h **** ssize_t _EXFUN(__getdelim, (char **, size_t *, int, FILE *));
 516:c:\program files (x86)\cypress\psoc creator\4.2\psoc creator\import\gnu\arm\5.4.1\arm-none-eabi\include\stdio.h **** ssize_t _EXFUN(__getline, (char **, size_t *, FILE *));
 517:c:\program files (x86)\cypress\psoc creator\4.2\psoc creator\import\gnu\arm\5.4.1\arm-none-eabi\include\stdio.h **** 
 518:c:\program files (x86)\cypress\psoc creator\4.2\psoc creator\import\gnu\arm\5.4.1\arm-none-eabi\include\stdio.h **** #if __MISC_VISIBLE
 519:c:\program files (x86)\cypress\psoc creator\4.2\psoc creator\import\gnu\arm\5.4.1\arm-none-eabi\include\stdio.h **** void	_EXFUN(clearerr_unlocked, (FILE *));
 520:c:\program files (x86)\cypress\psoc creator\4.2\psoc creator\import\gnu\arm\5.4.1\arm-none-eabi\include\stdio.h **** int	_EXFUN(feof_unlocked, (FILE *));
 521:c:\program files (x86)\cypress\psoc creator\4.2\psoc creator\import\gnu\arm\5.4.1\arm-none-eabi\include\stdio.h **** int	_EXFUN(ferror_unlocked, (FILE *));
ARM GAS  C:\Users\Doug\AppData\Local\Temp\cccAx5kS.s 			page 15


 522:c:\program files (x86)\cypress\psoc creator\4.2\psoc creator\import\gnu\arm\5.4.1\arm-none-eabi\include\stdio.h **** int	_EXFUN(fileno_unlocked, (FILE *));
 523:c:\program files (x86)\cypress\psoc creator\4.2\psoc creator\import\gnu\arm\5.4.1\arm-none-eabi\include\stdio.h **** int	_EXFUN(fflush_unlocked, (FILE *));
 524:c:\program files (x86)\cypress\psoc creator\4.2\psoc creator\import\gnu\arm\5.4.1\arm-none-eabi\include\stdio.h **** int	_EXFUN(fgetc_unlocked, (FILE *));
 525:c:\program files (x86)\cypress\psoc creator\4.2\psoc creator\import\gnu\arm\5.4.1\arm-none-eabi\include\stdio.h **** int	_EXFUN(fputc_unlocked, (int, FILE *));
 526:c:\program files (x86)\cypress\psoc creator\4.2\psoc creator\import\gnu\arm\5.4.1\arm-none-eabi\include\stdio.h **** size_t	_EXFUN(fread_unlocked, (_PTR __restrict, size_t _size, size_t _n, FILE *__restrict));
 527:c:\program files (x86)\cypress\psoc creator\4.2\psoc creator\import\gnu\arm\5.4.1\arm-none-eabi\include\stdio.h **** size_t	_EXFUN(fwrite_unlocked, (const _PTR __restrict , size_t _size, size_t _n, FILE *));
 528:c:\program files (x86)\cypress\psoc creator\4.2\psoc creator\import\gnu\arm\5.4.1\arm-none-eabi\include\stdio.h **** #endif
 529:c:\program files (x86)\cypress\psoc creator\4.2\psoc creator\import\gnu\arm\5.4.1\arm-none-eabi\include\stdio.h **** 
 530:c:\program files (x86)\cypress\psoc creator\4.2\psoc creator\import\gnu\arm\5.4.1\arm-none-eabi\include\stdio.h **** #if __GNU_VISIBLE
 531:c:\program files (x86)\cypress\psoc creator\4.2\psoc creator\import\gnu\arm\5.4.1\arm-none-eabi\include\stdio.h **** char *  _EXFUN(fgets_unlocked, (char *__restrict, int, FILE *__restrict));
 532:c:\program files (x86)\cypress\psoc creator\4.2\psoc creator\import\gnu\arm\5.4.1\arm-none-eabi\include\stdio.h **** int	_EXFUN(fputs_unlocked, (const char *__restrict, FILE *__restrict));
 533:c:\program files (x86)\cypress\psoc creator\4.2\psoc creator\import\gnu\arm\5.4.1\arm-none-eabi\include\stdio.h **** #endif
 534:c:\program files (x86)\cypress\psoc creator\4.2\psoc creator\import\gnu\arm\5.4.1\arm-none-eabi\include\stdio.h **** 
 535:c:\program files (x86)\cypress\psoc creator\4.2\psoc creator\import\gnu\arm\5.4.1\arm-none-eabi\include\stdio.h **** #ifdef __LARGE64_FILES
 536:c:\program files (x86)\cypress\psoc creator\4.2\psoc creator\import\gnu\arm\5.4.1\arm-none-eabi\include\stdio.h **** #if !defined(__CYGWIN__) || defined(_COMPILING_NEWLIB)
 537:c:\program files (x86)\cypress\psoc creator\4.2\psoc creator\import\gnu\arm\5.4.1\arm-none-eabi\include\stdio.h **** FILE *	_EXFUN(fdopen64, (int, const char *));
 538:c:\program files (x86)\cypress\psoc creator\4.2\psoc creator\import\gnu\arm\5.4.1\arm-none-eabi\include\stdio.h **** FILE *  _EXFUN(fopen64, (const char *, const char *));
 539:c:\program files (x86)\cypress\psoc creator\4.2\psoc creator\import\gnu\arm\5.4.1\arm-none-eabi\include\stdio.h **** FILE *  _EXFUN(freopen64, (_CONST char *, _CONST char *, FILE *));
 540:c:\program files (x86)\cypress\psoc creator\4.2\psoc creator\import\gnu\arm\5.4.1\arm-none-eabi\include\stdio.h **** _off64_t _EXFUN(ftello64, (FILE *));
 541:c:\program files (x86)\cypress\psoc creator\4.2\psoc creator\import\gnu\arm\5.4.1\arm-none-eabi\include\stdio.h **** _off64_t _EXFUN(fseeko64, (FILE *, _off64_t, int));
 542:c:\program files (x86)\cypress\psoc creator\4.2\psoc creator\import\gnu\arm\5.4.1\arm-none-eabi\include\stdio.h **** int     _EXFUN(fgetpos64, (FILE *, _fpos64_t *));
 543:c:\program files (x86)\cypress\psoc creator\4.2\psoc creator\import\gnu\arm\5.4.1\arm-none-eabi\include\stdio.h **** int     _EXFUN(fsetpos64, (FILE *, const _fpos64_t *));
 544:c:\program files (x86)\cypress\psoc creator\4.2\psoc creator\import\gnu\arm\5.4.1\arm-none-eabi\include\stdio.h **** FILE *  _EXFUN(tmpfile64, (void));
 545:c:\program files (x86)\cypress\psoc creator\4.2\psoc creator\import\gnu\arm\5.4.1\arm-none-eabi\include\stdio.h **** 
 546:c:\program files (x86)\cypress\psoc creator\4.2\psoc creator\import\gnu\arm\5.4.1\arm-none-eabi\include\stdio.h **** FILE *	_EXFUN(_fdopen64_r, (struct _reent *, int, const char *));
 547:c:\program files (x86)\cypress\psoc creator\4.2\psoc creator\import\gnu\arm\5.4.1\arm-none-eabi\include\stdio.h **** FILE *  _EXFUN(_fopen64_r, (struct _reent *,const char *, const char *));
 548:c:\program files (x86)\cypress\psoc creator\4.2\psoc creator\import\gnu\arm\5.4.1\arm-none-eabi\include\stdio.h **** FILE *  _EXFUN(_freopen64_r, (struct _reent *, _CONST char *, _CONST char *, FILE *));
 549:c:\program files (x86)\cypress\psoc creator\4.2\psoc creator\import\gnu\arm\5.4.1\arm-none-eabi\include\stdio.h **** _off64_t _EXFUN(_ftello64_r, (struct _reent *, FILE *));
 550:c:\program files (x86)\cypress\psoc creator\4.2\psoc creator\import\gnu\arm\5.4.1\arm-none-eabi\include\stdio.h **** _off64_t _EXFUN(_fseeko64_r, (struct _reent *, FILE *, _off64_t, int));
 551:c:\program files (x86)\cypress\psoc creator\4.2\psoc creator\import\gnu\arm\5.4.1\arm-none-eabi\include\stdio.h **** int     _EXFUN(_fgetpos64_r, (struct _reent *, FILE *, _fpos64_t *));
 552:c:\program files (x86)\cypress\psoc creator\4.2\psoc creator\import\gnu\arm\5.4.1\arm-none-eabi\include\stdio.h **** int     _EXFUN(_fsetpos64_r, (struct _reent *, FILE *, const _fpos64_t *));
 553:c:\program files (x86)\cypress\psoc creator\4.2\psoc creator\import\gnu\arm\5.4.1\arm-none-eabi\include\stdio.h **** FILE *  _EXFUN(_tmpfile64_r, (struct _reent *));
 554:c:\program files (x86)\cypress\psoc creator\4.2\psoc creator\import\gnu\arm\5.4.1\arm-none-eabi\include\stdio.h **** #endif /* !__CYGWIN__ */
 555:c:\program files (x86)\cypress\psoc creator\4.2\psoc creator\import\gnu\arm\5.4.1\arm-none-eabi\include\stdio.h **** #endif /* __LARGE64_FILES */
 556:c:\program files (x86)\cypress\psoc creator\4.2\psoc creator\import\gnu\arm\5.4.1\arm-none-eabi\include\stdio.h **** 
 557:c:\program files (x86)\cypress\psoc creator\4.2\psoc creator\import\gnu\arm\5.4.1\arm-none-eabi\include\stdio.h **** /*
 558:c:\program files (x86)\cypress\psoc creator\4.2\psoc creator\import\gnu\arm\5.4.1\arm-none-eabi\include\stdio.h ****  * Routines internal to the implementation.
 559:c:\program files (x86)\cypress\psoc creator\4.2\psoc creator\import\gnu\arm\5.4.1\arm-none-eabi\include\stdio.h ****  */
 560:c:\program files (x86)\cypress\psoc creator\4.2\psoc creator\import\gnu\arm\5.4.1\arm-none-eabi\include\stdio.h **** 
 561:c:\program files (x86)\cypress\psoc creator\4.2\psoc creator\import\gnu\arm\5.4.1\arm-none-eabi\include\stdio.h **** int	_EXFUN(__srget_r, (struct _reent *, FILE *));
 562:c:\program files (x86)\cypress\psoc creator\4.2\psoc creator\import\gnu\arm\5.4.1\arm-none-eabi\include\stdio.h **** int	_EXFUN(__swbuf_r, (struct _reent *, int, FILE *));
 563:c:\program files (x86)\cypress\psoc creator\4.2\psoc creator\import\gnu\arm\5.4.1\arm-none-eabi\include\stdio.h **** 
 564:c:\program files (x86)\cypress\psoc creator\4.2\psoc creator\import\gnu\arm\5.4.1\arm-none-eabi\include\stdio.h **** /*
 565:c:\program files (x86)\cypress\psoc creator\4.2\psoc creator\import\gnu\arm\5.4.1\arm-none-eabi\include\stdio.h ****  * Stdio function-access interface.
 566:c:\program files (x86)\cypress\psoc creator\4.2\psoc creator\import\gnu\arm\5.4.1\arm-none-eabi\include\stdio.h ****  */
 567:c:\program files (x86)\cypress\psoc creator\4.2\psoc creator\import\gnu\arm\5.4.1\arm-none-eabi\include\stdio.h **** 
 568:c:\program files (x86)\cypress\psoc creator\4.2\psoc creator\import\gnu\arm\5.4.1\arm-none-eabi\include\stdio.h **** #if __BSD_VISIBLE
 569:c:\program files (x86)\cypress\psoc creator\4.2\psoc creator\import\gnu\arm\5.4.1\arm-none-eabi\include\stdio.h **** # ifdef __LARGE64_FILES
 570:c:\program files (x86)\cypress\psoc creator\4.2\psoc creator\import\gnu\arm\5.4.1\arm-none-eabi\include\stdio.h **** FILE	*_EXFUN(funopen,(const _PTR __cookie,
 571:c:\program files (x86)\cypress\psoc creator\4.2\psoc creator\import\gnu\arm\5.4.1\arm-none-eabi\include\stdio.h **** 		int (*__readfn)(_PTR __c, char *__buf,
 572:c:\program files (x86)\cypress\psoc creator\4.2\psoc creator\import\gnu\arm\5.4.1\arm-none-eabi\include\stdio.h **** 				_READ_WRITE_BUFSIZE_TYPE __n),
 573:c:\program files (x86)\cypress\psoc creator\4.2\psoc creator\import\gnu\arm\5.4.1\arm-none-eabi\include\stdio.h **** 		int (*__writefn)(_PTR __c, const char *__buf,
 574:c:\program files (x86)\cypress\psoc creator\4.2\psoc creator\import\gnu\arm\5.4.1\arm-none-eabi\include\stdio.h **** 				 _READ_WRITE_BUFSIZE_TYPE __n),
 575:c:\program files (x86)\cypress\psoc creator\4.2\psoc creator\import\gnu\arm\5.4.1\arm-none-eabi\include\stdio.h **** 		_fpos64_t (*__seekfn)(_PTR __c, _fpos64_t __off, int __whence),
 576:c:\program files (x86)\cypress\psoc creator\4.2\psoc creator\import\gnu\arm\5.4.1\arm-none-eabi\include\stdio.h **** 		int (*__closefn)(_PTR __c)));
 577:c:\program files (x86)\cypress\psoc creator\4.2\psoc creator\import\gnu\arm\5.4.1\arm-none-eabi\include\stdio.h **** FILE	*_EXFUN(_funopen_r,(struct _reent *, const _PTR __cookie,
 578:c:\program files (x86)\cypress\psoc creator\4.2\psoc creator\import\gnu\arm\5.4.1\arm-none-eabi\include\stdio.h **** 		int (*__readfn)(_PTR __c, char *__buf,
ARM GAS  C:\Users\Doug\AppData\Local\Temp\cccAx5kS.s 			page 16


 579:c:\program files (x86)\cypress\psoc creator\4.2\psoc creator\import\gnu\arm\5.4.1\arm-none-eabi\include\stdio.h **** 				_READ_WRITE_BUFSIZE_TYPE __n),
 580:c:\program files (x86)\cypress\psoc creator\4.2\psoc creator\import\gnu\arm\5.4.1\arm-none-eabi\include\stdio.h **** 		int (*__writefn)(_PTR __c, const char *__buf,
 581:c:\program files (x86)\cypress\psoc creator\4.2\psoc creator\import\gnu\arm\5.4.1\arm-none-eabi\include\stdio.h **** 				 _READ_WRITE_BUFSIZE_TYPE __n),
 582:c:\program files (x86)\cypress\psoc creator\4.2\psoc creator\import\gnu\arm\5.4.1\arm-none-eabi\include\stdio.h **** 		_fpos64_t (*__seekfn)(_PTR __c, _fpos64_t __off, int __whence),
 583:c:\program files (x86)\cypress\psoc creator\4.2\psoc creator\import\gnu\arm\5.4.1\arm-none-eabi\include\stdio.h **** 		int (*__closefn)(_PTR __c)));
 584:c:\program files (x86)\cypress\psoc creator\4.2\psoc creator\import\gnu\arm\5.4.1\arm-none-eabi\include\stdio.h **** # else
 585:c:\program files (x86)\cypress\psoc creator\4.2\psoc creator\import\gnu\arm\5.4.1\arm-none-eabi\include\stdio.h **** FILE	*_EXFUN(funopen,(const _PTR __cookie,
 586:c:\program files (x86)\cypress\psoc creator\4.2\psoc creator\import\gnu\arm\5.4.1\arm-none-eabi\include\stdio.h **** 		int (*__readfn)(_PTR __cookie, char *__buf,
 587:c:\program files (x86)\cypress\psoc creator\4.2\psoc creator\import\gnu\arm\5.4.1\arm-none-eabi\include\stdio.h **** 				_READ_WRITE_BUFSIZE_TYPE __n),
 588:c:\program files (x86)\cypress\psoc creator\4.2\psoc creator\import\gnu\arm\5.4.1\arm-none-eabi\include\stdio.h **** 		int (*__writefn)(_PTR __cookie, const char *__buf,
 589:c:\program files (x86)\cypress\psoc creator\4.2\psoc creator\import\gnu\arm\5.4.1\arm-none-eabi\include\stdio.h **** 				 _READ_WRITE_BUFSIZE_TYPE __n),
 590:c:\program files (x86)\cypress\psoc creator\4.2\psoc creator\import\gnu\arm\5.4.1\arm-none-eabi\include\stdio.h **** 		fpos_t (*__seekfn)(_PTR __cookie, fpos_t __off, int __whence),
 591:c:\program files (x86)\cypress\psoc creator\4.2\psoc creator\import\gnu\arm\5.4.1\arm-none-eabi\include\stdio.h **** 		int (*__closefn)(_PTR __cookie)));
 592:c:\program files (x86)\cypress\psoc creator\4.2\psoc creator\import\gnu\arm\5.4.1\arm-none-eabi\include\stdio.h **** FILE	*_EXFUN(_funopen_r,(struct _reent *, const _PTR __cookie,
 593:c:\program files (x86)\cypress\psoc creator\4.2\psoc creator\import\gnu\arm\5.4.1\arm-none-eabi\include\stdio.h **** 		int (*__readfn)(_PTR __cookie, char *__buf,
 594:c:\program files (x86)\cypress\psoc creator\4.2\psoc creator\import\gnu\arm\5.4.1\arm-none-eabi\include\stdio.h **** 				_READ_WRITE_BUFSIZE_TYPE __n),
 595:c:\program files (x86)\cypress\psoc creator\4.2\psoc creator\import\gnu\arm\5.4.1\arm-none-eabi\include\stdio.h **** 		int (*__writefn)(_PTR __cookie, const char *__buf,
 596:c:\program files (x86)\cypress\psoc creator\4.2\psoc creator\import\gnu\arm\5.4.1\arm-none-eabi\include\stdio.h **** 				 _READ_WRITE_BUFSIZE_TYPE __n),
 597:c:\program files (x86)\cypress\psoc creator\4.2\psoc creator\import\gnu\arm\5.4.1\arm-none-eabi\include\stdio.h **** 		fpos_t (*__seekfn)(_PTR __cookie, fpos_t __off, int __whence),
 598:c:\program files (x86)\cypress\psoc creator\4.2\psoc creator\import\gnu\arm\5.4.1\arm-none-eabi\include\stdio.h **** 		int (*__closefn)(_PTR __cookie)));
 599:c:\program files (x86)\cypress\psoc creator\4.2\psoc creator\import\gnu\arm\5.4.1\arm-none-eabi\include\stdio.h **** # endif /* !__LARGE64_FILES */
 600:c:\program files (x86)\cypress\psoc creator\4.2\psoc creator\import\gnu\arm\5.4.1\arm-none-eabi\include\stdio.h **** 
 601:c:\program files (x86)\cypress\psoc creator\4.2\psoc creator\import\gnu\arm\5.4.1\arm-none-eabi\include\stdio.h **** # define	fropen(__cookie, __fn) funopen(__cookie, __fn, (int (*)())0, \
 602:c:\program files (x86)\cypress\psoc creator\4.2\psoc creator\import\gnu\arm\5.4.1\arm-none-eabi\include\stdio.h **** 					       (fpos_t (*)())0, (int (*)())0)
 603:c:\program files (x86)\cypress\psoc creator\4.2\psoc creator\import\gnu\arm\5.4.1\arm-none-eabi\include\stdio.h **** # define	fwopen(__cookie, __fn) funopen(__cookie, (int (*)())0, __fn, \
 604:c:\program files (x86)\cypress\psoc creator\4.2\psoc creator\import\gnu\arm\5.4.1\arm-none-eabi\include\stdio.h **** 					       (fpos_t (*)())0, (int (*)())0)
 605:c:\program files (x86)\cypress\psoc creator\4.2\psoc creator\import\gnu\arm\5.4.1\arm-none-eabi\include\stdio.h **** #endif /* __BSD_VISIBLE */
 606:c:\program files (x86)\cypress\psoc creator\4.2\psoc creator\import\gnu\arm\5.4.1\arm-none-eabi\include\stdio.h **** 
 607:c:\program files (x86)\cypress\psoc creator\4.2\psoc creator\import\gnu\arm\5.4.1\arm-none-eabi\include\stdio.h **** #if __GNU_VISIBLE
 608:c:\program files (x86)\cypress\psoc creator\4.2\psoc creator\import\gnu\arm\5.4.1\arm-none-eabi\include\stdio.h **** typedef ssize_t cookie_read_function_t(void *__cookie, char *__buf, size_t __n);
 609:c:\program files (x86)\cypress\psoc creator\4.2\psoc creator\import\gnu\arm\5.4.1\arm-none-eabi\include\stdio.h **** typedef ssize_t cookie_write_function_t(void *__cookie, const char *__buf,
 610:c:\program files (x86)\cypress\psoc creator\4.2\psoc creator\import\gnu\arm\5.4.1\arm-none-eabi\include\stdio.h **** 					size_t __n);
 611:c:\program files (x86)\cypress\psoc creator\4.2\psoc creator\import\gnu\arm\5.4.1\arm-none-eabi\include\stdio.h **** # ifdef __LARGE64_FILES
 612:c:\program files (x86)\cypress\psoc creator\4.2\psoc creator\import\gnu\arm\5.4.1\arm-none-eabi\include\stdio.h **** typedef int cookie_seek_function_t(void *__cookie, _off64_t *__off,
 613:c:\program files (x86)\cypress\psoc creator\4.2\psoc creator\import\gnu\arm\5.4.1\arm-none-eabi\include\stdio.h **** 				   int __whence);
 614:c:\program files (x86)\cypress\psoc creator\4.2\psoc creator\import\gnu\arm\5.4.1\arm-none-eabi\include\stdio.h **** # else
 615:c:\program files (x86)\cypress\psoc creator\4.2\psoc creator\import\gnu\arm\5.4.1\arm-none-eabi\include\stdio.h **** typedef int cookie_seek_function_t(void *__cookie, off_t *__off, int __whence);
 616:c:\program files (x86)\cypress\psoc creator\4.2\psoc creator\import\gnu\arm\5.4.1\arm-none-eabi\include\stdio.h **** # endif /* !__LARGE64_FILES */
 617:c:\program files (x86)\cypress\psoc creator\4.2\psoc creator\import\gnu\arm\5.4.1\arm-none-eabi\include\stdio.h **** typedef int cookie_close_function_t(void *__cookie);
 618:c:\program files (x86)\cypress\psoc creator\4.2\psoc creator\import\gnu\arm\5.4.1\arm-none-eabi\include\stdio.h **** typedef struct
 619:c:\program files (x86)\cypress\psoc creator\4.2\psoc creator\import\gnu\arm\5.4.1\arm-none-eabi\include\stdio.h **** {
 620:c:\program files (x86)\cypress\psoc creator\4.2\psoc creator\import\gnu\arm\5.4.1\arm-none-eabi\include\stdio.h ****   /* These four struct member names are dictated by Linux; hopefully,
 621:c:\program files (x86)\cypress\psoc creator\4.2\psoc creator\import\gnu\arm\5.4.1\arm-none-eabi\include\stdio.h ****      they don't conflict with any macros.  */
 622:c:\program files (x86)\cypress\psoc creator\4.2\psoc creator\import\gnu\arm\5.4.1\arm-none-eabi\include\stdio.h ****   cookie_read_function_t  *read;
 623:c:\program files (x86)\cypress\psoc creator\4.2\psoc creator\import\gnu\arm\5.4.1\arm-none-eabi\include\stdio.h ****   cookie_write_function_t *write;
 624:c:\program files (x86)\cypress\psoc creator\4.2\psoc creator\import\gnu\arm\5.4.1\arm-none-eabi\include\stdio.h ****   cookie_seek_function_t  *seek;
 625:c:\program files (x86)\cypress\psoc creator\4.2\psoc creator\import\gnu\arm\5.4.1\arm-none-eabi\include\stdio.h ****   cookie_close_function_t *close;
 626:c:\program files (x86)\cypress\psoc creator\4.2\psoc creator\import\gnu\arm\5.4.1\arm-none-eabi\include\stdio.h **** } cookie_io_functions_t;
 627:c:\program files (x86)\cypress\psoc creator\4.2\psoc creator\import\gnu\arm\5.4.1\arm-none-eabi\include\stdio.h **** FILE *_EXFUN(fopencookie,(void *__cookie,
 628:c:\program files (x86)\cypress\psoc creator\4.2\psoc creator\import\gnu\arm\5.4.1\arm-none-eabi\include\stdio.h **** 		const char *__mode, cookie_io_functions_t __functions));
 629:c:\program files (x86)\cypress\psoc creator\4.2\psoc creator\import\gnu\arm\5.4.1\arm-none-eabi\include\stdio.h **** FILE *_EXFUN(_fopencookie_r,(struct _reent *, void *__cookie,
 630:c:\program files (x86)\cypress\psoc creator\4.2\psoc creator\import\gnu\arm\5.4.1\arm-none-eabi\include\stdio.h **** 		const char *__mode, cookie_io_functions_t __functions));
 631:c:\program files (x86)\cypress\psoc creator\4.2\psoc creator\import\gnu\arm\5.4.1\arm-none-eabi\include\stdio.h **** #endif /* __GNU_VISIBLE */
 632:c:\program files (x86)\cypress\psoc creator\4.2\psoc creator\import\gnu\arm\5.4.1\arm-none-eabi\include\stdio.h **** 
 633:c:\program files (x86)\cypress\psoc creator\4.2\psoc creator\import\gnu\arm\5.4.1\arm-none-eabi\include\stdio.h **** #ifndef __CUSTOM_FILE_IO__
 634:c:\program files (x86)\cypress\psoc creator\4.2\psoc creator\import\gnu\arm\5.4.1\arm-none-eabi\include\stdio.h **** /*
 635:c:\program files (x86)\cypress\psoc creator\4.2\psoc creator\import\gnu\arm\5.4.1\arm-none-eabi\include\stdio.h ****  * The __sfoo macros are here so that we can 
ARM GAS  C:\Users\Doug\AppData\Local\Temp\cccAx5kS.s 			page 17


 636:c:\program files (x86)\cypress\psoc creator\4.2\psoc creator\import\gnu\arm\5.4.1\arm-none-eabi\include\stdio.h ****  * define function versions in the C library.
 637:c:\program files (x86)\cypress\psoc creator\4.2\psoc creator\import\gnu\arm\5.4.1\arm-none-eabi\include\stdio.h ****  */
 638:c:\program files (x86)\cypress\psoc creator\4.2\psoc creator\import\gnu\arm\5.4.1\arm-none-eabi\include\stdio.h **** #define       __sgetc_raw_r(__ptr, __f) (--(__f)->_r < 0 ? __srget_r(__ptr, __f) : (int)(*(__f)->_p
 639:c:\program files (x86)\cypress\psoc creator\4.2\psoc creator\import\gnu\arm\5.4.1\arm-none-eabi\include\stdio.h **** 
 640:c:\program files (x86)\cypress\psoc creator\4.2\psoc creator\import\gnu\arm\5.4.1\arm-none-eabi\include\stdio.h **** #ifdef __SCLE
 641:c:\program files (x86)\cypress\psoc creator\4.2\psoc creator\import\gnu\arm\5.4.1\arm-none-eabi\include\stdio.h **** /*  For a platform with CR/LF, additional logic is required by
 642:c:\program files (x86)\cypress\psoc creator\4.2\psoc creator\import\gnu\arm\5.4.1\arm-none-eabi\include\stdio.h ****   __sgetc_r which would otherwise simply be a macro; therefore we
 643:c:\program files (x86)\cypress\psoc creator\4.2\psoc creator\import\gnu\arm\5.4.1\arm-none-eabi\include\stdio.h ****   use an inlined function.  The function is only meant to be inlined
 644:c:\program files (x86)\cypress\psoc creator\4.2\psoc creator\import\gnu\arm\5.4.1\arm-none-eabi\include\stdio.h ****   in place as used and the function body should never be emitted.  
 645:c:\program files (x86)\cypress\psoc creator\4.2\psoc creator\import\gnu\arm\5.4.1\arm-none-eabi\include\stdio.h **** 
 646:c:\program files (x86)\cypress\psoc creator\4.2\psoc creator\import\gnu\arm\5.4.1\arm-none-eabi\include\stdio.h ****   There are two possible means to this end when compiling with GCC,
 647:c:\program files (x86)\cypress\psoc creator\4.2\psoc creator\import\gnu\arm\5.4.1\arm-none-eabi\include\stdio.h ****   one when compiling with a standard C99 compiler, and for other
 648:c:\program files (x86)\cypress\psoc creator\4.2\psoc creator\import\gnu\arm\5.4.1\arm-none-eabi\include\stdio.h ****   compilers we're just stuck.  At the moment, this issue only
 649:c:\program files (x86)\cypress\psoc creator\4.2\psoc creator\import\gnu\arm\5.4.1\arm-none-eabi\include\stdio.h ****   affects the Cygwin target, so we'll most likely be using GCC. */
 650:c:\program files (x86)\cypress\psoc creator\4.2\psoc creator\import\gnu\arm\5.4.1\arm-none-eabi\include\stdio.h **** 
 651:c:\program files (x86)\cypress\psoc creator\4.2\psoc creator\import\gnu\arm\5.4.1\arm-none-eabi\include\stdio.h **** _ELIDABLE_INLINE int __sgetc_r(struct _reent *__ptr, FILE *__p);
 652:c:\program files (x86)\cypress\psoc creator\4.2\psoc creator\import\gnu\arm\5.4.1\arm-none-eabi\include\stdio.h **** 
 653:c:\program files (x86)\cypress\psoc creator\4.2\psoc creator\import\gnu\arm\5.4.1\arm-none-eabi\include\stdio.h **** _ELIDABLE_INLINE int __sgetc_r(struct _reent *__ptr, FILE *__p)
 654:c:\program files (x86)\cypress\psoc creator\4.2\psoc creator\import\gnu\arm\5.4.1\arm-none-eabi\include\stdio.h ****   {
 655:c:\program files (x86)\cypress\psoc creator\4.2\psoc creator\import\gnu\arm\5.4.1\arm-none-eabi\include\stdio.h ****     int __c = __sgetc_raw_r(__ptr, __p);
 656:c:\program files (x86)\cypress\psoc creator\4.2\psoc creator\import\gnu\arm\5.4.1\arm-none-eabi\include\stdio.h ****     if ((__p->_flags & __SCLE) && (__c == '\r'))
 657:c:\program files (x86)\cypress\psoc creator\4.2\psoc creator\import\gnu\arm\5.4.1\arm-none-eabi\include\stdio.h ****       {
 658:c:\program files (x86)\cypress\psoc creator\4.2\psoc creator\import\gnu\arm\5.4.1\arm-none-eabi\include\stdio.h ****       int __c2 = __sgetc_raw_r(__ptr, __p);
 659:c:\program files (x86)\cypress\psoc creator\4.2\psoc creator\import\gnu\arm\5.4.1\arm-none-eabi\include\stdio.h ****       if (__c2 == '\n')
 660:c:\program files (x86)\cypress\psoc creator\4.2\psoc creator\import\gnu\arm\5.4.1\arm-none-eabi\include\stdio.h ****         __c = __c2;
 661:c:\program files (x86)\cypress\psoc creator\4.2\psoc creator\import\gnu\arm\5.4.1\arm-none-eabi\include\stdio.h ****       else
 662:c:\program files (x86)\cypress\psoc creator\4.2\psoc creator\import\gnu\arm\5.4.1\arm-none-eabi\include\stdio.h ****         ungetc(__c2, __p);
 663:c:\program files (x86)\cypress\psoc creator\4.2\psoc creator\import\gnu\arm\5.4.1\arm-none-eabi\include\stdio.h ****       }
 664:c:\program files (x86)\cypress\psoc creator\4.2\psoc creator\import\gnu\arm\5.4.1\arm-none-eabi\include\stdio.h ****     return __c;
 665:c:\program files (x86)\cypress\psoc creator\4.2\psoc creator\import\gnu\arm\5.4.1\arm-none-eabi\include\stdio.h ****   }
 666:c:\program files (x86)\cypress\psoc creator\4.2\psoc creator\import\gnu\arm\5.4.1\arm-none-eabi\include\stdio.h **** #else
 667:c:\program files (x86)\cypress\psoc creator\4.2\psoc creator\import\gnu\arm\5.4.1\arm-none-eabi\include\stdio.h **** #define __sgetc_r(__ptr, __p) __sgetc_raw_r(__ptr, __p)
 668:c:\program files (x86)\cypress\psoc creator\4.2\psoc creator\import\gnu\arm\5.4.1\arm-none-eabi\include\stdio.h **** #endif
 669:c:\program files (x86)\cypress\psoc creator\4.2\psoc creator\import\gnu\arm\5.4.1\arm-none-eabi\include\stdio.h **** 
 670:c:\program files (x86)\cypress\psoc creator\4.2\psoc creator\import\gnu\arm\5.4.1\arm-none-eabi\include\stdio.h **** #ifdef __GNUC__
 671:c:\program files (x86)\cypress\psoc creator\4.2\psoc creator\import\gnu\arm\5.4.1\arm-none-eabi\include\stdio.h **** _ELIDABLE_INLINE int __sputc_r(struct _reent *_ptr, int _c, FILE *_p) {
 672:c:\program files (x86)\cypress\psoc creator\4.2\psoc creator\import\gnu\arm\5.4.1\arm-none-eabi\include\stdio.h **** #ifdef __SCLE
 673:c:\program files (x86)\cypress\psoc creator\4.2\psoc creator\import\gnu\arm\5.4.1\arm-none-eabi\include\stdio.h **** 	if ((_p->_flags & __SCLE) && _c == '\n')
 674:c:\program files (x86)\cypress\psoc creator\4.2\psoc creator\import\gnu\arm\5.4.1\arm-none-eabi\include\stdio.h **** 	  __sputc_r (_ptr, '\r', _p);
 675:c:\program files (x86)\cypress\psoc creator\4.2\psoc creator\import\gnu\arm\5.4.1\arm-none-eabi\include\stdio.h **** #endif
 676:c:\program files (x86)\cypress\psoc creator\4.2\psoc creator\import\gnu\arm\5.4.1\arm-none-eabi\include\stdio.h **** 	if (--_p->_w >= 0 || (_p->_w >= _p->_lbfsize && (char)_c != '\n'))
 172              		.loc 2 676 0
 173 0030 9368     		ldr	r3, [r2, #8]
 174 0032 013B     		subs	r3, r3, #1
 175 0034 9360     		str	r3, [r2, #8]
 176 0036 002B     		cmp	r3, #0
 177 0038 03DA     		bge	.L15
 677:c:\program files (x86)\cypress\psoc creator\4.2\psoc creator\import\gnu\arm\5.4.1\arm-none-eabi\include\stdio.h **** 		return (*_p->_p++ = _c);
 678:c:\program files (x86)\cypress\psoc creator\4.2\psoc creator\import\gnu\arm\5.4.1\arm-none-eabi\include\stdio.h **** 	else
 679:c:\program files (x86)\cypress\psoc creator\4.2\psoc creator\import\gnu\arm\5.4.1\arm-none-eabi\include\stdio.h **** 		return (__swbuf_r(_ptr, _c, _p));
 178              		.loc 2 679 0
 179 003a 0A21     		movs	r1, #10
 180 003c FFF7FEFF 		bl	__swbuf_r
 181              	.LVL16:
 182 0040 10BD     		pop	{r4, pc}
 183              	.LVL17:
 184              	.L15:
ARM GAS  C:\Users\Doug\AppData\Local\Temp\cccAx5kS.s 			page 18


 677:c:\program files (x86)\cypress\psoc creator\4.2\psoc creator\import\gnu\arm\5.4.1\arm-none-eabi\include\stdio.h **** 		return (*_p->_p++ = _c);
 185              		.loc 2 677 0
 186 0042 1368     		ldr	r3, [r2]
 187 0044 591C     		adds	r1, r3, #1
 188 0046 1160     		str	r1, [r2]
 189 0048 0A22     		movs	r2, #10
 190              	.LVL18:
 191 004a 1A70     		strb	r2, [r3]
 192 004c 10BD     		pop	{r4, pc}
 193              	.LVL19:
 194              	.L14:
 195              	.LBE7:
 196              	.LBE6:
 106:TinyBasic.c   ****   else if (ch>=' ') if (ch<='~') {  /* ignore non-print control chars */
 197              		.loc 1 106 0
 198 004e 1F2C     		cmp	r4, #31
 199 0050 1DD9     		bls	.L11
 200              		.loc 1 106 0 is_stmt 0 discriminator 1
 201 0052 7E2C     		cmp	r4, #126
 202 0054 1BD8     		bhi	.L11
 107:TinyBasic.c   ****     Core[TabHere]++;
 203              		.loc 1 107 0 is_stmt 1
 204 0056 0F4A     		ldr	r2, .L22+4
 205 0058 92F8BF30 		ldrb	r3, [r2, #191]	@ zero_extendqisi2
 206 005c 0133     		adds	r3, r3, #1
 207 005e 82F8BF30 		strb	r3, [r2, #191]
 108:TinyBasic.c   ****     ScreenChar(ch);}} /* ~Ouch */
 208              		.loc 1 108 0
 209 0062 0D4B     		ldr	r3, .L22+8
 210 0064 1868     		ldr	r0, [r3]
 211 0066 8268     		ldr	r2, [r0, #8]
 212              	.LVL20:
 213              	.LBB8:
 214              	.LBB9:
 676:c:\program files (x86)\cypress\psoc creator\4.2\psoc creator\import\gnu\arm\5.4.1\arm-none-eabi\include\stdio.h **** 		return (*_p->_p++ = _c);
 215              		.loc 2 676 0
 216 0068 9368     		ldr	r3, [r2, #8]
 217 006a 013B     		subs	r3, r3, #1
 218 006c 9360     		str	r3, [r2, #8]
 219 006e 002B     		cmp	r3, #0
 220 0070 05DA     		bge	.L18
 221 0072 9169     		ldr	r1, [r2, #24]
 222 0074 8B42     		cmp	r3, r1
 223 0076 07DB     		blt	.L19
 224 0078 E3B2     		uxtb	r3, r4
 225 007a 0A2B     		cmp	r3, #10
 226 007c 04D0     		beq	.L19
 227              	.L18:
 677:c:\program files (x86)\cypress\psoc creator\4.2\psoc creator\import\gnu\arm\5.4.1\arm-none-eabi\include\stdio.h **** 	else
 228              		.loc 2 677 0
 229 007e 1368     		ldr	r3, [r2]
 230 0080 591C     		adds	r1, r3, #1
 231 0082 1160     		str	r1, [r2]
 232 0084 1C70     		strb	r4, [r3]
 233 0086 10BD     		pop	{r4, pc}
 234              	.LVL21:
 235              	.L19:
ARM GAS  C:\Users\Doug\AppData\Local\Temp\cccAx5kS.s 			page 19


 236              		.loc 2 679 0
 237 0088 2146     		mov	r1, r4
 238 008a FFF7FEFF 		bl	__swbuf_r
 239              	.LVL22:
 240              	.L11:
 241 008e 10BD     		pop	{r4, pc}
 242              	.L23:
 243              		.align	2
 244              	.L22:
 245 0090 00000000 		.word	.LANCHOR0
 246 0094 00000000 		.word	Core
 247 0098 00000000 		.word	_impure_ptr
 248              	.LBE9:
 249              	.LBE8:
 250              		.cfi_endproc
 251              	.LFE4:
 252              		.size	Ouch, .-Ouch
 253              		.section	.text.Inch,"ax",%progbits
 254              		.align	2
 255              		.global	Inch
 256              		.thumb
 257              		.thumb_func
 258              		.type	Inch, %function
 259              	Inch:
 260              	.LFB5:
 109:TinyBasic.c   **** 
 110:TinyBasic.c   **** char Inch(void) {          /* read input character from stdin or file */
 261              		.loc 1 110 0
 262              		.cfi_startproc
 263              		@ args = 0, pretend = 0, frame = 0
 264              		@ frame_needed = 0, uses_anonymous_args = 0
 265 0000 10B5     		push	{r4, lr}
 266              		.cfi_def_cfa_offset 8
 267              		.cfi_offset 4, -8
 268              		.cfi_offset 14, -4
 111:TinyBasic.c   ****   char ch;
 112:TinyBasic.c   ****   if (inFile != NULL) {        /* there is a file to get input from.. */
 269              		.loc 1 112 0
 270 0002 1C4B     		ldr	r3, .L35
 271 0004 5868     		ldr	r0, [r3, #4]
 272 0006 90B1     		cbz	r0, .L25
 113:TinyBasic.c   ****     ch = InFileChar(inFile);
 273              		.loc 1 113 0
 274 0008 FFF7FEFF 		bl	CfileRead
 275              	.LVL23:
 276 000c 0446     		mov	r4, r0
 277              	.LVL24:
 114:TinyBasic.c   ****     if (ch == '\n') ch = '\r';
 278              		.loc 1 114 0
 279 000e 0A28     		cmp	r0, #10
 280 0010 00D1     		bne	.L26
 281 0012 0D24     		movs	r4, #13
 282              	.L26:
 283              	.LVL25:
 115:TinyBasic.c   ****     if (ch == '\0') {          /* switch over to console input at eof */
 284              		.loc 1 115 0
 285 0014 34B9     		cbnz	r4, .L27
ARM GAS  C:\Users\Doug\AppData\Local\Temp\cccAx5kS.s 			page 20


 116:TinyBasic.c   ****       IoFileClose(inFile);
 286              		.loc 1 116 0
 287 0016 174C     		ldr	r4, .L35
 288              	.LVL26:
 289 0018 6068     		ldr	r0, [r4, #4]
 290 001a FFF7FEFF 		bl	fclose
 291              	.LVL27:
 117:TinyBasic.c   ****       inFile = NULL;}
 292              		.loc 1 117 0
 293 001e 0023     		movs	r3, #0
 294 0020 6360     		str	r3, [r4, #4]
 295 0022 04E0     		b	.L25
 296              	.LVL28:
 297              	.L27:
 118:TinyBasic.c   ****     else {
 119:TinyBasic.c   ****       Ouch(ch);         /* echo input to screen (but not output file) */
 298              		.loc 1 119 0
 299 0024 2046     		mov	r0, r4
 300 0026 FFF7FEFF 		bl	Ouch
 301              	.LVL29:
 120:TinyBasic.c   ****       return ch;}}
 302              		.loc 1 120 0
 303 002a 2046     		mov	r0, r4
 304 002c 10BD     		pop	{r4, pc}
 305              	.LVL30:
 306              	.L25:
 121:TinyBasic.c   ****   ch = KeyInChar;                             /* get input from stdin */
 307              		.loc 1 121 0
 308 002e 124B     		ldr	r3, .L35+4
 309 0030 1868     		ldr	r0, [r3]
 310 0032 4268     		ldr	r2, [r0, #4]
 311 0034 5368     		ldr	r3, [r2, #4]
 312 0036 013B     		subs	r3, r3, #1
 313 0038 5360     		str	r3, [r2, #4]
 314 003a 002B     		cmp	r3, #0
 315 003c 04DA     		bge	.L29
 316              		.loc 1 121 0 is_stmt 0 discriminator 1
 317 003e 4168     		ldr	r1, [r0, #4]
 318 0040 FFF7FEFF 		bl	__srget_r
 319              	.LVL31:
 320 0044 C4B2     		uxtb	r4, r0
 321 0046 04E0     		b	.L30
 322              	.L29:
 323              		.loc 1 121 0 discriminator 2
 324 0048 4268     		ldr	r2, [r0, #4]
 325 004a 1368     		ldr	r3, [r2]
 326 004c 591C     		adds	r1, r3, #1
 327 004e 1160     		str	r1, [r2]
 328 0050 1C78     		ldrb	r4, [r3]	@ zero_extendqisi2
 329              	.L30:
 330              	.LVL32:
 122:TinyBasic.c   ****   if (NeedsEcho) ScreenChar(ch);   /* alternative input may need this */
 123:TinyBasic.c   ****   if (oFile != NULL) OutFileChar(oFile,ch); /* echo it to output file */
 331              		.loc 1 123 0 is_stmt 1 discriminator 4
 332 0052 084B     		ldr	r3, .L35
 333 0054 1968     		ldr	r1, [r3]
 334 0056 11B1     		cbz	r1, .L31
ARM GAS  C:\Users\Doug\AppData\Local\Temp\cccAx5kS.s 			page 21


 335              		.loc 1 123 0 is_stmt 0 discriminator 1
 336 0058 2046     		mov	r0, r4
 337 005a FFF7FEFF 		bl	fputc
 338              	.LVL33:
 339              	.L31:
 124:TinyBasic.c   ****   if (ch == '\n') {
 340              		.loc 1 124 0 is_stmt 1
 341 005e 0A2C     		cmp	r4, #10
 342 0060 05D1     		bne	.L33
 343              	.LVL34:
 125:TinyBasic.c   ****     ch = '\r';                     /* convert line end to TB standard */
 126:TinyBasic.c   ****     Core[TabHere] = 0;}                          /* reset tab counter */
 344              		.loc 1 126 0
 345 0062 0022     		movs	r2, #0
 346 0064 054B     		ldr	r3, .L35+8
 347 0066 83F8BF20 		strb	r2, [r3, #191]
 125:TinyBasic.c   ****     ch = '\r';                     /* convert line end to TB standard */
 348              		.loc 1 125 0
 349 006a 0D20     		movs	r0, #13
 350 006c 10BD     		pop	{r4, pc}
 351              	.LVL35:
 352              	.L33:
 121:TinyBasic.c   ****   if (NeedsEcho) ScreenChar(ch);   /* alternative input may need this */
 353              		.loc 1 121 0
 354 006e 2046     		mov	r0, r4
 127:TinyBasic.c   ****   return ch;} /* ~Inch */
 355              		.loc 1 127 0
 356 0070 10BD     		pop	{r4, pc}
 357              	.LVL36:
 358              	.L36:
 359 0072 00BF     		.align	2
 360              	.L35:
 361 0074 00000000 		.word	.LANCHOR0
 362 0078 00000000 		.word	_impure_ptr
 363 007c 00000000 		.word	Core
 364              		.cfi_endproc
 365              	.LFE5:
 366              		.size	Inch, .-Inch
 367              		.section	.text.StopIt,"ax",%progbits
 368              		.align	2
 369              		.global	StopIt
 370              		.thumb
 371              		.thumb_func
 372              		.type	StopIt, %function
 373              	StopIt:
 374              	.LFB6:
 128:TinyBasic.c   **** 
 129:TinyBasic.c   **** int StopIt(void) {return BreakTest;}   /* ~StopIt, .. not implemented */
 375              		.loc 1 129 0
 376              		.cfi_startproc
 377              		@ args = 0, pretend = 0, frame = 0
 378              		@ frame_needed = 0, uses_anonymous_args = 0
 379              		@ link register save eliminated.
 380              		.loc 1 129 0
 381 0000 014B     		ldr	r3, .L38
 382 0002 9868     		ldr	r0, [r3, #8]
 383 0004 7047     		bx	lr
ARM GAS  C:\Users\Doug\AppData\Local\Temp\cccAx5kS.s 			page 22


 384              	.L39:
 385 0006 00BF     		.align	2
 386              	.L38:
 387 0008 00000000 		.word	.LANCHOR0
 388              		.cfi_endproc
 389              	.LFE6:
 390              		.size	StopIt, .-StopIt
 391              		.section	.text.OutStr,"ax",%progbits
 392              		.align	2
 393              		.global	OutStr
 394              		.thumb
 395              		.thumb_func
 396              		.type	OutStr, %function
 397              	OutStr:
 398              	.LFB7:
 130:TinyBasic.c   **** 
 131:TinyBasic.c   **** void OutStr(char* theMsg) {         /* output a string to the console */
 399              		.loc 1 131 0
 400              		.cfi_startproc
 401              		@ args = 0, pretend = 0, frame = 0
 402              		@ frame_needed = 0, uses_anonymous_args = 0
 403              	.LVL37:
 404 0000 10B5     		push	{r4, lr}
 405              		.cfi_def_cfa_offset 8
 406              		.cfi_offset 4, -8
 407              		.cfi_offset 14, -4
 408 0002 0446     		mov	r4, r0
 132:TinyBasic.c   ****   while (*theMsg != '\0') Ouch(*theMsg++);} /* ~OutStr */
 409              		.loc 1 132 0
 410 0004 02E0     		b	.L41
 411              	.LVL38:
 412              	.L42:
 413              		.loc 1 132 0 is_stmt 0 discriminator 2
 414 0006 0134     		adds	r4, r4, #1
 415              	.LVL39:
 416 0008 FFF7FEFF 		bl	Ouch
 417              	.LVL40:
 418              	.L41:
 419              		.loc 1 132 0 discriminator 1
 420 000c 2078     		ldrb	r0, [r4]	@ zero_extendqisi2
 421 000e 0028     		cmp	r0, #0
 422 0010 F9D1     		bne	.L42
 423              		.loc 1 132 0
 424 0012 10BD     		pop	{r4, pc}
 425              		.cfi_endproc
 426              	.LFE7:
 427              		.size	OutStr, .-OutStr
 428              		.section	.text.OutLn,"ax",%progbits
 429              		.align	2
 430              		.global	OutLn
 431              		.thumb
 432              		.thumb_func
 433              		.type	OutLn, %function
 434              	OutLn:
 435              	.LFB8:
 133:TinyBasic.c   **** 
 134:TinyBasic.c   **** void OutLn(void) {            /* terminate output line to the console */
ARM GAS  C:\Users\Doug\AppData\Local\Temp\cccAx5kS.s 			page 23


 436              		.loc 1 134 0 is_stmt 1
 437              		.cfi_startproc
 438              		@ args = 0, pretend = 0, frame = 0
 439              		@ frame_needed = 0, uses_anonymous_args = 0
 440 0000 08B5     		push	{r3, lr}
 441              		.cfi_def_cfa_offset 8
 442              		.cfi_offset 3, -8
 443              		.cfi_offset 14, -4
 135:TinyBasic.c   ****   OutStr("\r");} /* ~OutLn */
 444              		.loc 1 135 0
 445 0002 0248     		ldr	r0, .L46
 446 0004 FFF7FEFF 		bl	OutStr
 447              	.LVL41:
 448 0008 08BD     		pop	{r3, pc}
 449              	.L47:
 450 000a 00BF     		.align	2
 451              	.L46:
 452 000c 00000000 		.word	.LC0
 453              		.cfi_endproc
 454              	.LFE8:
 455              		.size	OutLn, .-OutLn
 456              		.section	.text.OutInt,"ax",%progbits
 457              		.align	2
 458              		.global	OutInt
 459              		.thumb
 460              		.thumb_func
 461              		.type	OutInt, %function
 462              	OutInt:
 463              	.LFB9:
 136:TinyBasic.c   **** 
 137:TinyBasic.c   **** void OutInt(int theNum) {           /* output a number to the console */
 464              		.loc 1 137 0
 465              		.cfi_startproc
 466              		@ args = 0, pretend = 0, frame = 0
 467              		@ frame_needed = 0, uses_anonymous_args = 0
 468              	.LVL42:
 469 0000 10B5     		push	{r4, lr}
 470              		.cfi_def_cfa_offset 8
 471              		.cfi_offset 4, -8
 472              		.cfi_offset 14, -4
 138:TinyBasic.c   ****   if (theNum<0) {
 473              		.loc 1 138 0
 474 0002 041E     		subs	r4, r0, #0
 475 0004 03DA     		bge	.L49
 139:TinyBasic.c   ****     Ouch('-');
 476              		.loc 1 139 0
 477 0006 2D20     		movs	r0, #45
 478              	.LVL43:
 479 0008 FFF7FEFF 		bl	Ouch
 480              	.LVL44:
 140:TinyBasic.c   ****     theNum = -theNum;}
 481              		.loc 1 140 0
 482 000c 6442     		negs	r4, r4
 483              	.LVL45:
 484              	.L49:
 141:TinyBasic.c   ****   if (theNum>9) OutInt(theNum/10);
 485              		.loc 1 141 0
ARM GAS  C:\Users\Doug\AppData\Local\Temp\cccAx5kS.s 			page 24


 486 000e 092C     		cmp	r4, #9
 487 0010 07DD     		ble	.L50
 488              		.loc 1 141 0 is_stmt 0 discriminator 1
 489 0012 0B4B     		ldr	r3, .L52
 490 0014 83FB0423 		smull	r2, r3, r3, r4
 491 0018 E017     		asrs	r0, r4, #31
 492 001a C0EBA300 		rsb	r0, r0, r3, asr #2
 493 001e FFF7FEFF 		bl	OutInt
 494              	.LVL46:
 495              	.L50:
 142:TinyBasic.c   ****   Ouch((char)(theNum%10+48));} /* ~OutInt */
 496              		.loc 1 142 0 is_stmt 1
 497 0022 0748     		ldr	r0, .L52
 498 0024 80FB0430 		smull	r3, r0, r0, r4
 499 0028 E317     		asrs	r3, r4, #31
 500 002a C3EBA000 		rsb	r0, r3, r0, asr #2
 501 002e 00EB8000 		add	r0, r0, r0, lsl #2
 502 0032 4300     		lsls	r3, r0, #1
 503 0034 E01A     		subs	r0, r4, r3
 504 0036 3030     		adds	r0, r0, #48
 505 0038 C0B2     		uxtb	r0, r0
 506 003a FFF7FEFF 		bl	Ouch
 507              	.LVL47:
 508 003e 10BD     		pop	{r4, pc}
 509              	.LVL48:
 510              	.L53:
 511              		.align	2
 512              	.L52:
 513 0040 67666666 		.word	1717986919
 514              		.cfi_endproc
 515              	.LFE9:
 516              		.size	OutInt, .-OutInt
 517              		.section	.text.OutHex,"ax",%progbits
 518              		.align	2
 519              		.global	OutHex
 520              		.thumb
 521              		.thumb_func
 522              		.type	OutHex, %function
 523              	OutHex:
 524              	.LFB10:
 143:TinyBasic.c   **** 
 144:TinyBasic.c   **** /*********************** Debugging Utilities... ***********************/
 145:TinyBasic.c   **** 
 146:TinyBasic.c   **** void OutHex(int num, int nd) {  /* output a hex number to the console */
 525              		.loc 1 146 0
 526              		.cfi_startproc
 527              		@ args = 0, pretend = 0, frame = 0
 528              		@ frame_needed = 0, uses_anonymous_args = 0
 529              	.LVL49:
 530 0000 10B5     		push	{r4, lr}
 531              		.cfi_def_cfa_offset 8
 532              		.cfi_offset 4, -8
 533              		.cfi_offset 14, -4
 534 0002 0446     		mov	r4, r0
 147:TinyBasic.c   ****   if (nd>1) OutHex(num>>4, nd-1);
 535              		.loc 1 147 0
 536 0004 0129     		cmp	r1, #1
ARM GAS  C:\Users\Doug\AppData\Local\Temp\cccAx5kS.s 			page 25


 537 0006 03DD     		ble	.L55
 538              		.loc 1 147 0 is_stmt 0 discriminator 1
 539 0008 0139     		subs	r1, r1, #1
 540              	.LVL50:
 541 000a 0011     		asrs	r0, r0, #4
 542              	.LVL51:
 543 000c FFF7FEFF 		bl	OutHex
 544              	.LVL52:
 545              	.L55:
 148:TinyBasic.c   ****   num = num&15;
 546              		.loc 1 148 0 is_stmt 1
 547 0010 04F00F00 		and	r0, r4, #15
 548              	.LVL53:
 149:TinyBasic.c   ****   if (num>9) Ouch((char)(num+55));
 549              		.loc 1 149 0
 550 0014 0928     		cmp	r0, #9
 551 0016 03DD     		ble	.L56
 552              		.loc 1 149 0 is_stmt 0 discriminator 1
 553 0018 3730     		adds	r0, r0, #55
 554              	.LVL54:
 555 001a FFF7FEFF 		bl	Ouch
 556              	.LVL55:
 557 001e 10BD     		pop	{r4, pc}
 558              	.LVL56:
 559              	.L56:
 150:TinyBasic.c   ****     else Ouch((char)(num+48));} /* ~OutHex */
 560              		.loc 1 150 0 is_stmt 1
 561 0020 3030     		adds	r0, r0, #48
 562              	.LVL57:
 563 0022 FFF7FEFF 		bl	Ouch
 564              	.LVL58:
 565 0026 10BD     		pop	{r4, pc}
 566              		.cfi_endproc
 567              	.LFE10:
 568              		.size	OutHex, .-OutHex
 569              		.section	.text.ShowSubs,"ax",%progbits
 570              		.align	2
 571              		.global	ShowSubs
 572              		.thumb
 573              		.thumb_func
 574              		.type	ShowSubs, %function
 575              	ShowSubs:
 576              	.LFB11:
 151:TinyBasic.c   **** 
 152:TinyBasic.c   **** void ShowSubs(void) {       /* display subroutine stack for debugging */
 577              		.loc 1 152 0
 578              		.cfi_startproc
 579              		@ args = 0, pretend = 0, frame = 0
 580              		@ frame_needed = 0, uses_anonymous_args = 0
 581 0000 10B5     		push	{r4, lr}
 582              		.cfi_def_cfa_offset 8
 583              		.cfi_offset 4, -8
 584              		.cfi_offset 14, -4
 153:TinyBasic.c   ****   int ix;
 154:TinyBasic.c   ****   OutLn(); OutStr(" [Stk "); OutHex(SubStk,5);
 585              		.loc 1 154 0
 586 0002 FFF7FEFF 		bl	OutLn
ARM GAS  C:\Users\Doug\AppData\Local\Temp\cccAx5kS.s 			page 26


 587              	.LVL59:
 588 0006 0D48     		ldr	r0, .L63
 589 0008 FFF7FEFF 		bl	OutStr
 590              	.LVL60:
 591 000c 0C4C     		ldr	r4, .L63+4
 592 000e 0521     		movs	r1, #5
 593 0010 2068     		ldr	r0, [r4]
 594 0012 FFF7FEFF 		bl	OutHex
 595              	.LVL61:
 155:TinyBasic.c   ****   for (ix=SubStk; ix<UserEnd; ix++) {
 596              		.loc 1 155 0
 597 0016 2468     		ldr	r4, [r4]
 598              	.LVL62:
 599 0018 08E0     		b	.L60
 600              	.L61:
 156:TinyBasic.c   ****     OutStr(" ");
 601              		.loc 1 156 0 discriminator 3
 602 001a 0A48     		ldr	r0, .L63+8
 603 001c FFF7FEFF 		bl	OutStr
 604              	.LVL63:
 157:TinyBasic.c   ****     OutInt(Peek2(ix++));}
 605              		.loc 1 157 0 discriminator 3
 606 0020 2046     		mov	r0, r4
 607 0022 FFF7FEFF 		bl	Peek2
 608              	.LVL64:
 609 0026 FFF7FEFF 		bl	OutInt
 610              	.LVL65:
 155:TinyBasic.c   ****   for (ix=SubStk; ix<UserEnd; ix++) {
 611              		.loc 1 155 0 discriminator 3
 612 002a 0234     		adds	r4, r4, #2
 613              	.LVL66:
 614              	.L60:
 155:TinyBasic.c   ****   for (ix=SubStk; ix<UserEnd; ix++) {
 615              		.loc 1 155 0 is_stmt 0 discriminator 1
 616 002c 064B     		ldr	r3, .L63+12
 617 002e 1B68     		ldr	r3, [r3]
 618 0030 9C42     		cmp	r4, r3
 619 0032 F2DB     		blt	.L61
 158:TinyBasic.c   ****   OutStr("]");} /* ~ShowSubs */
 620              		.loc 1 158 0 is_stmt 1
 621 0034 0548     		ldr	r0, .L63+16
 622 0036 FFF7FEFF 		bl	OutStr
 623              	.LVL67:
 624 003a 10BD     		pop	{r4, pc}
 625              	.LVL68:
 626              	.L64:
 627              		.align	2
 628              	.L63:
 629 003c 04000000 		.word	.LC1
 630 0040 00000000 		.word	SubStk
 631 0044 0C000000 		.word	.LC2
 632 0048 00000000 		.word	UserEnd
 633 004c 10000000 		.word	.LC3
 634              		.cfi_endproc
 635              	.LFE11:
 636              		.size	ShowSubs, .-ShowSubs
 637              		.section	.text.ShowExSt,"ax",%progbits
ARM GAS  C:\Users\Doug\AppData\Local\Temp\cccAx5kS.s 			page 27


 638              		.align	2
 639              		.global	ShowExSt
 640              		.thumb
 641              		.thumb_func
 642              		.type	ShowExSt, %function
 643              	ShowExSt:
 644              	.LFB12:
 159:TinyBasic.c   **** 
 160:TinyBasic.c   **** void ShowExSt(void) {       /* display expression stack for debugging */
 645              		.loc 1 160 0
 646              		.cfi_startproc
 647              		@ args = 0, pretend = 0, frame = 0
 648              		@ frame_needed = 0, uses_anonymous_args = 0
 649 0000 10B5     		push	{r4, lr}
 650              		.cfi_def_cfa_offset 8
 651              		.cfi_offset 4, -8
 652              		.cfi_offset 14, -4
 161:TinyBasic.c   ****   int ix;
 162:TinyBasic.c   ****   OutLn(); OutStr(" [Exp "); OutHex(ExpnTop,3);
 653              		.loc 1 162 0
 654 0002 FFF7FEFF 		bl	OutLn
 655              	.LVL69:
 656 0006 1448     		ldr	r0, .L72
 657 0008 FFF7FEFF 		bl	OutStr
 658              	.LVL70:
 659 000c 134C     		ldr	r4, .L72+4
 660 000e 0321     		movs	r1, #3
 661 0010 2068     		ldr	r0, [r4]
 662 0012 FFF7FEFF 		bl	OutHex
 663              	.LVL71:
 163:TinyBasic.c   ****   if ((ExpnTop&1)==0) for (ix=ExpnTop; ix<ExpnStk; ix++) {
 664              		.loc 1 163 0
 665 0016 2468     		ldr	r4, [r4]
 666 0018 14F0010F 		tst	r4, #1
 667 001c 0AD0     		beq	.L66
 668 001e 14E0     		b	.L67
 669              	.LVL72:
 670              	.L68:
 164:TinyBasic.c   ****     OutStr(" ");
 671              		.loc 1 164 0 discriminator 4
 672 0020 0F48     		ldr	r0, .L72+8
 673 0022 FFF7FEFF 		bl	OutStr
 674              	.LVL73:
 165:TinyBasic.c   ****     OutInt((int)((short)Peek2(ix++)));}
 675              		.loc 1 165 0 discriminator 4
 676 0026 2046     		mov	r0, r4
 677 0028 FFF7FEFF 		bl	Peek2
 678              	.LVL74:
 679 002c 00B2     		sxth	r0, r0
 680 002e FFF7FEFF 		bl	OutInt
 681              	.LVL75:
 163:TinyBasic.c   ****   if ((ExpnTop&1)==0) for (ix=ExpnTop; ix<ExpnStk; ix++) {
 682              		.loc 1 163 0 discriminator 4
 683 0032 0234     		adds	r4, r4, #2
 684              	.LVL76:
 685              	.L66:
 163:TinyBasic.c   ****   if ((ExpnTop&1)==0) for (ix=ExpnTop; ix<ExpnStk; ix++) {
ARM GAS  C:\Users\Doug\AppData\Local\Temp\cccAx5kS.s 			page 28


 686              		.loc 1 163 0 is_stmt 0 discriminator 2
 687 0034 7F2C     		cmp	r4, #127
 688 0036 F3DD     		ble	.L68
 689 0038 09E0     		b	.L69
 690              	.L70:
 166:TinyBasic.c   ****   else for (ix=ExpnTop; ix<ExpnStk; ix++) {
 167:TinyBasic.c   ****     OutStr(".");
 691              		.loc 1 167 0 is_stmt 1 discriminator 3
 692 003a 0A48     		ldr	r0, .L72+12
 693 003c FFF7FEFF 		bl	OutStr
 694              	.LVL77:
 168:TinyBasic.c   ****     OutInt((int)Core[ix]);}
 695              		.loc 1 168 0 discriminator 3
 696 0040 094B     		ldr	r3, .L72+16
 697 0042 185D     		ldrb	r0, [r3, r4]	@ zero_extendqisi2
 698 0044 FFF7FEFF 		bl	OutInt
 699              	.LVL78:
 166:TinyBasic.c   ****   else for (ix=ExpnTop; ix<ExpnStk; ix++) {
 700              		.loc 1 166 0 discriminator 3
 701 0048 0134     		adds	r4, r4, #1
 702              	.LVL79:
 703              	.L67:
 166:TinyBasic.c   ****   else for (ix=ExpnTop; ix<ExpnStk; ix++) {
 704              		.loc 1 166 0 is_stmt 0 discriminator 1
 705 004a 7F2C     		cmp	r4, #127
 706 004c F5DD     		ble	.L70
 707              	.L69:
 169:TinyBasic.c   ****   OutStr("]");} /* ~ShowExSt */
 708              		.loc 1 169 0 is_stmt 1
 709 004e 0748     		ldr	r0, .L72+20
 710 0050 FFF7FEFF 		bl	OutStr
 711              	.LVL80:
 712 0054 10BD     		pop	{r4, pc}
 713              	.LVL81:
 714              	.L73:
 715 0056 00BF     		.align	2
 716              	.L72:
 717 0058 14000000 		.word	.LC4
 718 005c 00000000 		.word	ExpnTop
 719 0060 0C000000 		.word	.LC2
 720 0064 1C000000 		.word	.LC5
 721 0068 00000000 		.word	Core
 722 006c 10000000 		.word	.LC3
 723              		.cfi_endproc
 724              	.LFE12:
 725              		.size	ShowExSt, .-ShowExSt
 726              		.section	.text.ShowVars,"ax",%progbits
 727              		.align	2
 728              		.global	ShowVars
 729              		.thumb
 730              		.thumb_func
 731              		.type	ShowVars, %function
 732              	ShowVars:
 733              	.LFB13:
 170:TinyBasic.c   **** 
 171:TinyBasic.c   **** void ShowVars(int whom) {               /* display vars for debugging */
 734              		.loc 1 171 0
ARM GAS  C:\Users\Doug\AppData\Local\Temp\cccAx5kS.s 			page 29


 735              		.cfi_startproc
 736              		@ args = 0, pretend = 0, frame = 0
 737              		@ frame_needed = 0, uses_anonymous_args = 0
 738              	.LVL82:
 739 0000 F8B5     		push	{r3, r4, r5, r6, r7, lr}
 740              		.cfi_def_cfa_offset 24
 741              		.cfi_offset 3, -24
 742              		.cfi_offset 4, -20
 743              		.cfi_offset 5, -16
 744              		.cfi_offset 6, -12
 745              		.cfi_offset 7, -8
 746              		.cfi_offset 14, -4
 747              	.LVL83:
 172:TinyBasic.c   ****   int ix, valu = 1, prior = 1;
 173:TinyBasic.c   ****   if (whom==0) whom = 26; else {
 748              		.loc 1 173 0
 749 0002 18B1     		cbz	r0, .L80
 174:TinyBasic.c   ****     whom = (whom>>1)&31;             /* whom is a specified var, or 0 */
 750              		.loc 1 174 0
 751 0004 C0F34407 		ubfx	r7, r0, #1, #5
 752              	.LVL84:
 175:TinyBasic.c   ****     valu = whom;}
 753              		.loc 1 175 0
 754 0008 3C46     		mov	r4, r7
 755 000a 01E0     		b	.L75
 756              	.LVL85:
 757              	.L80:
 172:TinyBasic.c   ****   int ix, valu = 1, prior = 1;
 758              		.loc 1 172 0
 759 000c 0124     		movs	r4, #1
 173:TinyBasic.c   ****     whom = (whom>>1)&31;             /* whom is a specified var, or 0 */
 760              		.loc 1 173 0
 761 000e 1A27     		movs	r7, #26
 762              	.LVL86:
 763              	.L75:
 176:TinyBasic.c   ****   OutLn(); OutStr("  [Vars");
 764              		.loc 1 176 0
 765 0010 FFF7FEFF 		bl	OutLn
 766              	.LVL87:
 767 0014 1148     		ldr	r0, .L82
 768 0016 FFF7FEFF 		bl	OutStr
 769              	.LVL88:
 172:TinyBasic.c   ****   if (whom==0) whom = 26; else {
 770              		.loc 1 172 0
 771 001a 0126     		movs	r6, #1
 177:TinyBasic.c   ****   for (ix=valu; ix<=whom; ix++) {  /* all non-zero vars, or else whom */
 772              		.loc 1 177 0
 773 001c 17E0     		b	.L76
 774              	.LVL89:
 775              	.L79:
 178:TinyBasic.c   ****     valu = (int)((short)Peek2(ix*2+ExpnStk));
 776              		.loc 1 178 0
 777 001e 04F14000 		add	r0, r4, #64
 778 0022 4000     		lsls	r0, r0, #1
 779 0024 FFF7FEFF 		bl	Peek2
 780              	.LVL90:
 781 0028 05B2     		sxth	r5, r0
ARM GAS  C:\Users\Doug\AppData\Local\Temp\cccAx5kS.s 			page 30


 782              	.LVL91:
 179:TinyBasic.c   ****     if (valu==0) if (prior==0) continue;          /* omit multiple 0s */
 783              		.loc 1 179 0
 784 002a 05B9     		cbnz	r5, .L77
 785              		.loc 1 179 0 is_stmt 0 discriminator 1
 786 002c 76B1     		cbz	r6, .L78
 787              	.L77:
 788              	.LVL92:
 180:TinyBasic.c   ****     prior = valu;
 181:TinyBasic.c   ****     OutStr(" ");
 789              		.loc 1 181 0 is_stmt 1
 790 002e 0C48     		ldr	r0, .L82+4
 791 0030 FFF7FEFF 		bl	OutStr
 792              	.LVL93:
 182:TinyBasic.c   ****     Ouch((char)(ix+64));                             /* show var name */
 793              		.loc 1 182 0
 794 0034 04F14000 		add	r0, r4, #64
 795 0038 C0B2     		uxtb	r0, r0
 796 003a FFF7FEFF 		bl	Ouch
 797              	.LVL94:
 183:TinyBasic.c   ****     OutStr("=");
 798              		.loc 1 183 0
 799 003e 0948     		ldr	r0, .L82+8
 800 0040 FFF7FEFF 		bl	OutStr
 801              	.LVL95:
 184:TinyBasic.c   ****     OutInt(valu);}
 802              		.loc 1 184 0
 803 0044 2846     		mov	r0, r5
 804 0046 FFF7FEFF 		bl	OutInt
 805              	.LVL96:
 180:TinyBasic.c   ****     OutStr(" ");
 806              		.loc 1 180 0
 807 004a 2E46     		mov	r6, r5
 808              	.LVL97:
 809              	.L78:
 177:TinyBasic.c   ****     valu = (int)((short)Peek2(ix*2+ExpnStk));
 810              		.loc 1 177 0 discriminator 2
 811 004c 0134     		adds	r4, r4, #1
 812              	.LVL98:
 813              	.L76:
 177:TinyBasic.c   ****     valu = (int)((short)Peek2(ix*2+ExpnStk));
 814              		.loc 1 177 0 is_stmt 0 discriminator 1
 815 004e A742     		cmp	r7, r4
 816 0050 E5DA     		bge	.L79
 185:TinyBasic.c   ****   OutStr("]");} /* ~ShowVars */
 817              		.loc 1 185 0 is_stmt 1
 818 0052 0548     		ldr	r0, .L82+12
 819 0054 FFF7FEFF 		bl	OutStr
 820              	.LVL99:
 821 0058 F8BD     		pop	{r3, r4, r5, r6, r7, pc}
 822              	.LVL100:
 823              	.L83:
 824 005a 00BF     		.align	2
 825              	.L82:
 826 005c 20000000 		.word	.LC6
 827 0060 0C000000 		.word	.LC2
 828 0064 28000000 		.word	.LC7
ARM GAS  C:\Users\Doug\AppData\Local\Temp\cccAx5kS.s 			page 31


 829 0068 10000000 		.word	.LC3
 830              		.cfi_endproc
 831              	.LFE13:
 832              		.size	ShowVars, .-ShowVars
 833              		.section	.text.ShoMemDump,"ax",%progbits
 834              		.align	2
 835              		.global	ShoMemDump
 836              		.thumb
 837              		.thumb_func
 838              		.type	ShoMemDump, %function
 839              	ShoMemDump:
 840              	.LFB14:
 186:TinyBasic.c   **** 
 187:TinyBasic.c   **** void ShoMemDump(int here, int nlocs) {     /* display hex memory dump */
 841              		.loc 1 187 0
 842              		.cfi_startproc
 843              		@ args = 0, pretend = 0, frame = 0
 844              		@ frame_needed = 0, uses_anonymous_args = 0
 845              	.LVL101:
 846 0000 2DE9F041 		push	{r4, r5, r6, r7, r8, lr}
 847              		.cfi_def_cfa_offset 24
 848              		.cfi_offset 4, -24
 849              		.cfi_offset 5, -20
 850              		.cfi_offset 6, -16
 851              		.cfi_offset 7, -12
 852              		.cfi_offset 8, -8
 853              		.cfi_offset 14, -4
 854 0004 0546     		mov	r5, r0
 855 0006 0F46     		mov	r7, r1
 188:TinyBasic.c   ****   int temp, thar = here&-16;
 856              		.loc 1 188 0
 857 0008 20F00F08 		bic	r8, r0, #15
 858              	.LVL102:
 189:TinyBasic.c   ****   while (nlocs>0) {
 859              		.loc 1 189 0
 860 000c 59E0     		b	.L85
 861              	.LVL103:
 862              	.L100:
 190:TinyBasic.c   ****     temp = thar;
 191:TinyBasic.c   ****     OutLn();
 863              		.loc 1 191 0
 864 000e FFF7FEFF 		bl	OutLn
 865              	.LVL104:
 192:TinyBasic.c   ****     OutHex(here,4);
 866              		.loc 1 192 0
 867 0012 0421     		movs	r1, #4
 868 0014 2846     		mov	r0, r5
 869 0016 FFF7FEFF 		bl	OutHex
 870              	.LVL105:
 193:TinyBasic.c   ****     OutStr(": ");
 871              		.loc 1 193 0
 872 001a 2D48     		ldr	r0, .L104
 873 001c FFF7FEFF 		bl	OutStr
 874              	.LVL106:
 194:TinyBasic.c   ****     while (thar<here) {OutStr("   "); thar++;}
 875              		.loc 1 194 0
 876 0020 4446     		mov	r4, r8
ARM GAS  C:\Users\Doug\AppData\Local\Temp\cccAx5kS.s 			page 32


 877 0022 03E0     		b	.L86
 878              	.LVL107:
 879              	.L87:
 880              		.loc 1 194 0 is_stmt 0 discriminator 2
 881 0024 2B48     		ldr	r0, .L104+4
 882 0026 FFF7FEFF 		bl	OutStr
 883              	.LVL108:
 884 002a 0134     		adds	r4, r4, #1
 885              	.LVL109:
 886              	.L86:
 887              		.loc 1 194 0 discriminator 1
 888 002c A542     		cmp	r5, r4
 889 002e F9DC     		bgt	.L87
 890 0030 00E0     		b	.L90
 891              	.LVL110:
 892              	.L101:
 195:TinyBasic.c   ****     do {
 196:TinyBasic.c   ****       OutStr(" ");
 197:TinyBasic.c   ****       if (nlocs-- >0) OutHex(Core[here],2);
 893              		.loc 1 197 0 is_stmt 1
 894 0032 3746     		mov	r7, r6
 895              	.LVL111:
 896              	.L90:
 196:TinyBasic.c   ****       if (nlocs-- >0) OutHex(Core[here],2);
 897              		.loc 1 196 0
 898 0034 2848     		ldr	r0, .L104+8
 899 0036 FFF7FEFF 		bl	OutStr
 900              	.LVL112:
 901              		.loc 1 197 0
 902 003a 7E1E     		subs	r6, r7, #1
 903              	.LVL113:
 904 003c 002F     		cmp	r7, #0
 905 003e 05DD     		ble	.L88
 906              		.loc 1 197 0 is_stmt 0 discriminator 1
 907 0040 0221     		movs	r1, #2
 908 0042 264B     		ldr	r3, .L104+12
 909 0044 585D     		ldrb	r0, [r3, r5]	@ zero_extendqisi2
 910 0046 FFF7FEFF 		bl	OutHex
 911              	.LVL114:
 912 004a 02E0     		b	.L89
 913              	.L88:
 198:TinyBasic.c   ****         else OutStr("  ");}
 914              		.loc 1 198 0 is_stmt 1
 915 004c 2448     		ldr	r0, .L104+16
 916 004e FFF7FEFF 		bl	OutStr
 917              	.LVL115:
 918              	.L89:
 199:TinyBasic.c   ****       while (++here%16 !=0);
 919              		.loc 1 199 0
 920 0052 0135     		adds	r5, r5, #1
 921              	.LVL116:
 922 0054 15F00F0F 		tst	r5, #15
 923 0058 EBD1     		bne	.L101
 200:TinyBasic.c   ****     OutStr("  ");
 924              		.loc 1 200 0
 925 005a 2148     		ldr	r0, .L104+16
 926 005c FFF7FEFF 		bl	OutStr
ARM GAS  C:\Users\Doug\AppData\Local\Temp\cccAx5kS.s 			page 33


 927              	.LVL117:
 201:TinyBasic.c   ****     while (temp<thar) {OutStr(" "); temp++;}
 928              		.loc 1 201 0
 929 0060 04E0     		b	.L91
 930              	.L92:
 931              		.loc 1 201 0 is_stmt 0 discriminator 2
 932 0062 1D48     		ldr	r0, .L104+8
 933 0064 FFF7FEFF 		bl	OutStr
 934              	.LVL118:
 935 0068 08F10108 		add	r8, r8, #1
 936              	.LVL119:
 937              	.L91:
 938              		.loc 1 201 0 discriminator 1
 939 006c A045     		cmp	r8, r4
 940 006e F8DB     		blt	.L92
 941 0070 20E0     		b	.L93
 942              	.LVL120:
 943              	.L99:
 202:TinyBasic.c   ****     while (thar<here) {
 203:TinyBasic.c   ****       if (nlocs<0) if ((thar&15) >= nlocs+16) break;
 944              		.loc 1 203 0 is_stmt 1
 945 0072 002E     		cmp	r6, #0
 946 0074 05DA     		bge	.L94
 947              		.loc 1 203 0 is_stmt 0 discriminator 1
 948 0076 04F00F03 		and	r3, r4, #15
 949 007a 07F10F02 		add	r2, r7, #15
 950 007e 9342     		cmp	r3, r2
 951 0080 1DDA     		bge	.L102
 952              	.L94:
 204:TinyBasic.c   ****       temp = Core[thar++];
 953              		.loc 1 204 0 is_stmt 1
 954 0082 04F10108 		add	r8, r4, #1
 955              	.LVL121:
 956 0086 154B     		ldr	r3, .L104+12
 957 0088 185D     		ldrb	r0, [r3, r4]	@ zero_extendqisi2
 958              	.LVL122:
 205:TinyBasic.c   ****       if (temp == (int)'\r') Ouch('\\');
 959              		.loc 1 205 0
 960 008a 0D28     		cmp	r0, #13
 961 008c 03D1     		bne	.L95
 962              		.loc 1 205 0 is_stmt 0 discriminator 1
 963 008e 5C20     		movs	r0, #92
 964              	.LVL123:
 965 0090 FFF7FEFF 		bl	Ouch
 966              	.LVL124:
 967 0094 0DE0     		b	.L96
 968              	.LVL125:
 969              	.L95:
 206:TinyBasic.c   ****       else if (temp<32) Ouch('`');
 970              		.loc 1 206 0 is_stmt 1
 971 0096 1F28     		cmp	r0, #31
 972 0098 03DC     		bgt	.L97
 973              		.loc 1 206 0 is_stmt 0 discriminator 1
 974 009a 6020     		movs	r0, #96
 975              	.LVL126:
 976 009c FFF7FEFF 		bl	Ouch
 977              	.LVL127:
ARM GAS  C:\Users\Doug\AppData\Local\Temp\cccAx5kS.s 			page 34


 978 00a0 07E0     		b	.L96
 979              	.LVL128:
 980              	.L97:
 207:TinyBasic.c   ****       else if (temp>126) Ouch('~');
 981              		.loc 1 207 0 is_stmt 1
 982 00a2 7E28     		cmp	r0, #126
 983 00a4 03DD     		ble	.L98
 984              		.loc 1 207 0 is_stmt 0 discriminator 1
 985 00a6 7E20     		movs	r0, #126
 986              	.LVL129:
 987 00a8 FFF7FEFF 		bl	Ouch
 988              	.LVL130:
 989 00ac 01E0     		b	.L96
 990              	.LVL131:
 991              	.L98:
 208:TinyBasic.c   ****         else Ouch((char)temp);}}
 992              		.loc 1 208 0 is_stmt 1
 993 00ae FFF7FEFF 		bl	Ouch
 994              	.LVL132:
 995              	.L96:
 197:TinyBasic.c   ****         else OutStr("  ");}
 996              		.loc 1 197 0
 997 00b2 4446     		mov	r4, r8
 998              	.LVL133:
 999              	.L93:
 202:TinyBasic.c   ****       if (nlocs<0) if ((thar&15) >= nlocs+16) break;
 1000              		.loc 1 202 0
 1001 00b4 AC42     		cmp	r4, r5
 1002 00b6 DCDB     		blt	.L99
 1003 00b8 A046     		mov	r8, r4
 1004 00ba 3746     		mov	r7, r6
 1005 00bc 01E0     		b	.L85
 1006              	.L102:
 1007 00be A046     		mov	r8, r4
 1008 00c0 3746     		mov	r7, r6
 1009              	.LVL134:
 1010              	.L85:
 189:TinyBasic.c   ****     temp = thar;
 1011              		.loc 1 189 0
 1012 00c2 002F     		cmp	r7, #0
 1013 00c4 A3DC     		bgt	.L100
 209:TinyBasic.c   ****   OutLn();} /* ~ShoMemDump */
 1014              		.loc 1 209 0
 1015 00c6 FFF7FEFF 		bl	OutLn
 1016              	.LVL135:
 1017 00ca BDE8F081 		pop	{r4, r5, r6, r7, r8, pc}
 1018              	.LVL136:
 1019              	.L105:
 1020 00ce 00BF     		.align	2
 1021              	.L104:
 1022 00d0 2C000000 		.word	.LC8
 1023 00d4 30000000 		.word	.LC9
 1024 00d8 0C000000 		.word	.LC2
 1025 00dc 00000000 		.word	Core
 1026 00e0 34000000 		.word	.LC10
 1027              		.cfi_endproc
 1028              	.LFE14:
ARM GAS  C:\Users\Doug\AppData\Local\Temp\cccAx5kS.s 			page 35


 1029              		.size	ShoMemDump, .-ShoMemDump
 1030              		.section	.text.ShoLogVal,"ax",%progbits
 1031              		.align	2
 1032              		.global	ShoLogVal
 1033              		.thumb
 1034              		.thumb_func
 1035              		.type	ShoLogVal, %function
 1036              	ShoLogVal:
 1037              	.LFB15:
 210:TinyBasic.c   **** 
 211:TinyBasic.c   **** void ShoLogVal(int item) {   /* format & output one activity log item */
 1038              		.loc 1 211 0
 1039              		.cfi_startproc
 1040              		@ args = 0, pretend = 0, frame = 0
 1041              		@ frame_needed = 0, uses_anonymous_args = 0
 1042              	.LVL137:
 1043 0000 10B5     		push	{r4, lr}
 1044              		.cfi_def_cfa_offset 8
 1045              		.cfi_offset 4, -8
 1046              		.cfi_offset 14, -4
 212:TinyBasic.c   ****   int valu = DebugLog[item];
 1047              		.loc 1 212 0
 1048 0002 254B     		ldr	r3, .L113
 1049 0004 53F82040 		ldr	r4, [r3, r0, lsl #2]
 1050              	.LVL138:
 213:TinyBasic.c   ****   OutLn();
 1051              		.loc 1 213 0
 1052 0008 FFF7FEFF 		bl	OutLn
 1053              	.LVL139:
 214:TinyBasic.c   ****   if (valu < -65536) {                         /* store to a variable */
 1054              		.loc 1 214 0
 1055 000c 14F5803F 		cmn	r4, #65536
 1056 0010 0FDA     		bge	.L107
 215:TinyBasic.c   ****     Ouch((char)(((valu>>17)&31)+64));
 1057              		.loc 1 215 0
 1058 0012 C4F34440 		ubfx	r0, r4, #17, #5
 1059 0016 4030     		adds	r0, r0, #64
 1060 0018 FFF7FEFF 		bl	Ouch
 1061              	.LVL140:
 216:TinyBasic.c   ****     OutStr("=");
 1062              		.loc 1 216 0
 1063 001c 1F48     		ldr	r0, .L113+4
 1064 001e FFF7FEFF 		bl	OutStr
 1065              	.LVL141:
 217:TinyBasic.c   ****     OutInt((valu&0x7FFF)-(valu&0x8000));}
 1066              		.loc 1 217 0
 1067 0022 C4F30E00 		ubfx	r0, r4, #0, #15
 1068 0026 04F40044 		and	r4, r4, #32768
 1069              	.LVL142:
 1070 002a 001B     		subs	r0, r0, r4
 1071 002c FFF7FEFF 		bl	OutInt
 1072              	.LVL143:
 1073 0030 10BD     		pop	{r4, pc}
 1074              	.LVL144:
 1075              	.L107:
 218:TinyBasic.c   ****   else if (valu < -32768) {                                /* error # */
 1076              		.loc 1 218 0
ARM GAS  C:\Users\Doug\AppData\Local\Temp\cccAx5kS.s 			page 36


 1077 0032 14F5004F 		cmn	r4, #32768
 1078 0036 07DA     		bge	.L109
 219:TinyBasic.c   ****     OutStr("Err ");
 1079              		.loc 1 219 0
 1080 0038 1948     		ldr	r0, .L113+8
 1081 003a FFF7FEFF 		bl	OutStr
 1082              	.LVL145:
 220:TinyBasic.c   ****     OutInt(-valu-32768);}
 1083              		.loc 1 220 0
 1084 003e 1948     		ldr	r0, .L113+12
 1085 0040 001B     		subs	r0, r0, r4
 1086 0042 FFF7FEFF 		bl	OutInt
 1087              	.LVL146:
 1088 0046 10BD     		pop	{r4, pc}
 1089              	.LVL147:
 1090              	.L109:
 221:TinyBasic.c   ****   else if (valu<0) {                 /* only logs IL sequence changes */
 1091              		.loc 1 221 0
 1092 0048 002C     		cmp	r4, #0
 1093 004a 0CDA     		bge	.L110
 222:TinyBasic.c   ****     OutStr("  IL+");
 1094              		.loc 1 222 0
 1095 004c 1648     		ldr	r0, .L113+16
 1096 004e FFF7FEFF 		bl	OutStr
 1097              	.LVL148:
 223:TinyBasic.c   ****     OutHex(-Peek2(ILfront)-valu,3);}
 1098              		.loc 1 223 0
 1099 0052 4FF48F70 		mov	r0, #286
 1100 0056 FFF7FEFF 		bl	Peek2
 1101              	.LVL149:
 1102 005a 4042     		negs	r0, r0
 1103 005c 0321     		movs	r1, #3
 1104 005e 001B     		subs	r0, r0, r4
 1105 0060 FFF7FEFF 		bl	OutHex
 1106              	.LVL150:
 1107 0064 10BD     		pop	{r4, pc}
 1108              	.LVL151:
 1109              	.L110:
 224:TinyBasic.c   ****   else if (valu<65536) {                          /* TinyBasic line # */
 1110              		.loc 1 224 0
 1111 0066 B4F5803F 		cmp	r4, #65536
 1112 006a 06DA     		bge	.L111
 225:TinyBasic.c   ****     OutStr("#");
 1113              		.loc 1 225 0
 1114 006c 0F48     		ldr	r0, .L113+20
 1115 006e FFF7FEFF 		bl	OutStr
 1116              	.LVL152:
 226:TinyBasic.c   ****     OutInt(valu);}
 1117              		.loc 1 226 0
 1118 0072 2046     		mov	r0, r4
 1119 0074 FFF7FEFF 		bl	OutInt
 1120              	.LVL153:
 1121 0078 10BD     		pop	{r4, pc}
 1122              	.LVL154:
 1123              	.L111:
 227:TinyBasic.c   ****   else {                                          /* poke memory byte */
 228:TinyBasic.c   ****     OutStr("!");
ARM GAS  C:\Users\Doug\AppData\Local\Temp\cccAx5kS.s 			page 37


 1124              		.loc 1 228 0
 1125 007a 0D48     		ldr	r0, .L113+24
 1126 007c FFF7FEFF 		bl	OutStr
 1127              	.LVL155:
 229:TinyBasic.c   ****     OutHex(valu,4);
 1128              		.loc 1 229 0
 1129 0080 0421     		movs	r1, #4
 1130 0082 2046     		mov	r0, r4
 1131 0084 FFF7FEFF 		bl	OutHex
 1132              	.LVL156:
 230:TinyBasic.c   ****     OutStr("=");
 1133              		.loc 1 230 0
 1134 0088 0448     		ldr	r0, .L113+4
 1135 008a FFF7FEFF 		bl	OutStr
 1136              	.LVL157:
 231:TinyBasic.c   ****     OutInt(valu>>16);}} /* ~ShoLogVal */
 1137              		.loc 1 231 0
 1138 008e 2014     		asrs	r0, r4, #16
 1139 0090 FFF7FEFF 		bl	OutInt
 1140              	.LVL158:
 1141 0094 10BD     		pop	{r4, pc}
 1142              	.LVL159:
 1143              	.L114:
 1144 0096 00BF     		.align	2
 1145              	.L113:
 1146 0098 00000000 		.word	DebugLog
 1147 009c 28000000 		.word	.LC7
 1148 00a0 38000000 		.word	.LC11
 1149 00a4 0080FFFF 		.word	-32768
 1150 00a8 40000000 		.word	.LC12
 1151 00ac 48000000 		.word	.LC13
 1152 00b0 4C000000 		.word	.LC14
 1153              		.cfi_endproc
 1154              	.LFE15:
 1155              		.size	ShoLogVal, .-ShoLogVal
 1156              		.section	.text.ShowLog,"ax",%progbits
 1157              		.align	2
 1158              		.global	ShowLog
 1159              		.thumb
 1160              		.thumb_func
 1161              		.type	ShowLog, %function
 1162              	ShowLog:
 1163              	.LFB16:
 232:TinyBasic.c   **** 
 233:TinyBasic.c   **** void ShowLog(void) {            /* display activity log for debugging */
 1164              		.loc 1 233 0
 1165              		.cfi_startproc
 1166              		@ args = 0, pretend = 0, frame = 0
 1167              		@ frame_needed = 0, uses_anonymous_args = 0
 1168 0000 10B5     		push	{r4, lr}
 1169              		.cfi_def_cfa_offset 8
 1170              		.cfi_offset 4, -8
 1171              		.cfi_offset 14, -4
 234:TinyBasic.c   ****   int ix;
 235:TinyBasic.c   ****   OutLn();
 1172              		.loc 1 235 0
 1173 0002 FFF7FEFF 		bl	OutLn
ARM GAS  C:\Users\Doug\AppData\Local\Temp\cccAx5kS.s 			page 38


 1174              	.LVL160:
 236:TinyBasic.c   ****   OutStr("*** Activity Log @ ");
 1175              		.loc 1 236 0
 1176 0006 1648     		ldr	r0, .L122
 1177 0008 FFF7FEFF 		bl	OutStr
 1178              	.LVL161:
 237:TinyBasic.c   ****   OutInt(LogHere);
 1179              		.loc 1 237 0
 1180 000c 154C     		ldr	r4, .L122+4
 1181 000e E068     		ldr	r0, [r4, #12]
 1182 0010 FFF7FEFF 		bl	OutInt
 1183              	.LVL162:
 238:TinyBasic.c   ****   OutStr(" ***");
 1184              		.loc 1 238 0
 1185 0014 1448     		ldr	r0, .L122+8
 1186 0016 FFF7FEFF 		bl	OutStr
 1187              	.LVL163:
 239:TinyBasic.c   ****   if (LogHere >= LOGSIZE)   /* circular, show only last 4K activities */
 1188              		.loc 1 239 0
 1189 001a E468     		ldr	r4, [r4, #12]
 1190 001c B4F5805F 		cmp	r4, #4096
 1191 0020 09DB     		blt	.L116
 240:TinyBasic.c   ****     for (ix=(LogHere&(LOGSIZE-1)); ix<LOGSIZE; ix++) ShoLogVal(ix);
 1192              		.loc 1 240 0
 1193 0022 C4F30B04 		ubfx	r4, r4, #0, #12
 1194              	.LVL164:
 1195 0026 03E0     		b	.L117
 1196              	.L118:
 1197              		.loc 1 240 0 is_stmt 0 discriminator 3
 1198 0028 2046     		mov	r0, r4
 1199 002a FFF7FEFF 		bl	ShoLogVal
 1200              	.LVL165:
 1201 002e 0134     		adds	r4, r4, #1
 1202              	.LVL166:
 1203              	.L117:
 1204              		.loc 1 240 0 discriminator 1
 1205 0030 B4F5805F 		cmp	r4, #4096
 1206 0034 F8DB     		blt	.L118
 1207              	.LVL167:
 1208              	.L116:
 233:TinyBasic.c   ****   int ix;
 1209              		.loc 1 233 0 is_stmt 1 discriminator 1
 1210 0036 0024     		movs	r4, #0
 1211 0038 03E0     		b	.L119
 1212              	.LVL168:
 1213              	.L120:
 241:TinyBasic.c   ****   for (ix=0; ix<(LogHere&(LOGSIZE-1)); ix++) ShoLogVal(ix);
 1214              		.loc 1 241 0 discriminator 3
 1215 003a 2046     		mov	r0, r4
 1216 003c FFF7FEFF 		bl	ShoLogVal
 1217              	.LVL169:
 1218 0040 0134     		adds	r4, r4, #1
 1219              	.LVL170:
 1220              	.L119:
 1221              		.loc 1 241 0 is_stmt 0 discriminator 1
 1222 0042 084B     		ldr	r3, .L122+4
 1223 0044 DB68     		ldr	r3, [r3, #12]
ARM GAS  C:\Users\Doug\AppData\Local\Temp\cccAx5kS.s 			page 39


 1224 0046 C3F30B03 		ubfx	r3, r3, #0, #12
 1225 004a 9C42     		cmp	r4, r3
 1226 004c F5DB     		blt	.L120
 242:TinyBasic.c   ****   OutLn();
 1227              		.loc 1 242 0 is_stmt 1
 1228 004e FFF7FEFF 		bl	OutLn
 1229              	.LVL171:
 243:TinyBasic.c   ****   OutStr("*****");
 1230              		.loc 1 243 0
 1231 0052 0648     		ldr	r0, .L122+12
 1232 0054 FFF7FEFF 		bl	OutStr
 1233              	.LVL172:
 244:TinyBasic.c   ****   OutLn();} /* ~ShowLog */
 1234              		.loc 1 244 0
 1235 0058 FFF7FEFF 		bl	OutLn
 1236              	.LVL173:
 1237 005c 10BD     		pop	{r4, pc}
 1238              	.LVL174:
 1239              	.L123:
 1240 005e 00BF     		.align	2
 1241              	.L122:
 1242 0060 50000000 		.word	.LC15
 1243 0064 00000000 		.word	.LANCHOR0
 1244 0068 64000000 		.word	.LC16
 1245 006c 6C000000 		.word	.LC17
 1246              		.cfi_endproc
 1247              	.LFE16:
 1248              		.size	ShowLog, .-ShowLog
 1249              		.section	.text.LogIt,"ax",%progbits
 1250              		.align	2
 1251              		.global	LogIt
 1252              		.thumb
 1253              		.thumb_func
 1254              		.type	LogIt, %function
 1255              	LogIt:
 1256              	.LFB17:
 245:TinyBasic.c   **** 
 246:TinyBasic.c   **** void LogIt(int valu) {          /* insert this valu into activity log */
 1257              		.loc 1 246 0
 1258              		.cfi_startproc
 1259              		@ args = 0, pretend = 0, frame = 0
 1260              		@ frame_needed = 0, uses_anonymous_args = 0
 1261              		@ link register save eliminated.
 1262              	.LVL175:
 247:TinyBasic.c   ****   DebugLog[(LogHere++)&(LOGSIZE-1)] = valu;}
 1263              		.loc 1 247 0
 1264 0000 044A     		ldr	r2, .L125
 1265 0002 D368     		ldr	r3, [r2, #12]
 1266 0004 591C     		adds	r1, r3, #1
 1267 0006 D160     		str	r1, [r2, #12]
 1268 0008 C3F30B03 		ubfx	r3, r3, #0, #12
 1269 000c 024A     		ldr	r2, .L125+4
 1270 000e 42F82300 		str	r0, [r2, r3, lsl #2]
 1271 0012 7047     		bx	lr
 1272              	.L126:
 1273              		.align	2
 1274              	.L125:
ARM GAS  C:\Users\Doug\AppData\Local\Temp\cccAx5kS.s 			page 40


 1275 0014 00000000 		.word	.LANCHOR0
 1276 0018 00000000 		.word	DebugLog
 1277              		.cfi_endproc
 1278              	.LFE17:
 1279              		.size	LogIt, .-LogIt
 1280              		.section	.text.WarmStart,"ax",%progbits
 1281              		.align	2
 1282              		.global	WarmStart
 1283              		.thumb
 1284              		.thumb_func
 1285              		.type	WarmStart, %function
 1286              	WarmStart:
 1287              	.LFB18:
 248:TinyBasic.c   **** 
 249:TinyBasic.c   **** /************************ Utility functions... ************************/
 250:TinyBasic.c   **** 
 251:TinyBasic.c   **** void WarmStart(void) {                 /* initialize existing program */
 1288              		.loc 1 251 0
 1289              		.cfi_startproc
 1290              		@ args = 0, pretend = 0, frame = 0
 1291              		@ frame_needed = 0, uses_anonymous_args = 0
 1292 0000 08B5     		push	{r3, lr}
 1293              		.cfi_def_cfa_offset 8
 1294              		.cfi_offset 3, -8
 1295              		.cfi_offset 14, -4
 252:TinyBasic.c   ****   UserEnd = Peek2(EndUser);
 1296              		.loc 1 252 0
 1297 0002 2220     		movs	r0, #34
 1298 0004 FFF7FEFF 		bl	Peek2
 1299              	.LVL176:
 1300 0008 0146     		mov	r1, r0
 1301 000a 0E4B     		ldr	r3, .L129
 1302 000c 1860     		str	r0, [r3]
 253:TinyBasic.c   ****   SubStk = UserEnd;            /* empty subroutine, expression stacks */
 1303              		.loc 1 253 0
 1304 000e 0E4B     		ldr	r3, .L129+4
 1305 0010 1860     		str	r0, [r3]
 254:TinyBasic.c   ****   Poke2(GoStkTop,SubStk);
 1306              		.loc 1 254 0
 1307 0012 2620     		movs	r0, #38
 1308 0014 FFF7FEFF 		bl	Poke2
 1309              	.LVL177:
 255:TinyBasic.c   ****   ExpnTop = ExpnStk;
 1310              		.loc 1 255 0
 1311 0018 8022     		movs	r2, #128
 1312 001a 0C4B     		ldr	r3, .L129+8
 1313 001c 1A60     		str	r2, [r3]
 256:TinyBasic.c   ****   Lino = 0;                                        /* not in any line */
 1314              		.loc 1 256 0
 1315 001e 0023     		movs	r3, #0
 1316 0020 0B4A     		ldr	r2, .L129+12
 1317 0022 1360     		str	r3, [r2]
 257:TinyBasic.c   ****   ILPC = 0;                                      /* start IL at front */
 1318              		.loc 1 257 0
 1319 0024 0B4A     		ldr	r2, .L129+16
 1320 0026 1360     		str	r3, [r2]
 258:TinyBasic.c   ****   SvPt = InLine;
ARM GAS  C:\Users\Doug\AppData\Local\Temp\cccAx5kS.s 			page 41


 1321              		.loc 1 258 0
 1322 0028 3022     		movs	r2, #48
 1323 002a 0B49     		ldr	r1, .L129+20
 1324 002c 0A60     		str	r2, [r1]
 259:TinyBasic.c   ****   BP = InLine;
 1325              		.loc 1 259 0
 1326 002e 0B49     		ldr	r1, .L129+24
 1327 0030 0A60     		str	r2, [r1]
 260:TinyBasic.c   ****   Core[BP] = 0;
 1328              		.loc 1 260 0
 1329 0032 0B49     		ldr	r1, .L129+28
 1330 0034 81F83030 		strb	r3, [r1, #48]
 261:TinyBasic.c   ****   Core[TabHere] = 0;
 1331              		.loc 1 261 0
 1332 0038 81F8BF30 		strb	r3, [r1, #191]
 262:TinyBasic.c   ****   InLend = InLine;} /* ~WarmStart */
 1333              		.loc 1 262 0
 1334 003c 094B     		ldr	r3, .L129+32
 1335 003e 1A60     		str	r2, [r3]
 1336 0040 08BD     		pop	{r3, pc}
 1337              	.L130:
 1338 0042 00BF     		.align	2
 1339              	.L129:
 1340 0044 00000000 		.word	UserEnd
 1341 0048 00000000 		.word	SubStk
 1342 004c 00000000 		.word	ExpnTop
 1343 0050 00000000 		.word	Lino
 1344 0054 00000000 		.word	ILPC
 1345 0058 00000000 		.word	SvPt
 1346 005c 00000000 		.word	BP
 1347 0060 00000000 		.word	Core
 1348 0064 00000000 		.word	InLend
 1349              		.cfi_endproc
 1350              	.LFE18:
 1351              		.size	WarmStart, .-WarmStart
 1352              		.section	.text.ColdStart,"ax",%progbits
 1353              		.align	2
 1354              		.global	ColdStart
 1355              		.thumb
 1356              		.thumb_func
 1357              		.type	ColdStart, %function
 1358              	ColdStart:
 1359              	.LFB19:
 263:TinyBasic.c   **** 
 264:TinyBasic.c   **** void ColdStart(void) {                 /* initialize program to empty */
 1360              		.loc 1 264 0
 1361              		.cfi_startproc
 1362              		@ args = 0, pretend = 0, frame = 0
 1363              		@ frame_needed = 0, uses_anonymous_args = 0
 1364 0000 10B5     		push	{r4, lr}
 1365              		.cfi_def_cfa_offset 8
 1366              		.cfi_offset 4, -8
 1367              		.cfi_offset 14, -4
 265:TinyBasic.c   ****   if (Peek2(ILfront) != ILfront+2) ILend = Peek2(ILfront)+0x800;
 1368              		.loc 1 265 0
 1369 0002 4FF48F70 		mov	r0, #286
 1370 0006 FFF7FEFF 		bl	Peek2
ARM GAS  C:\Users\Doug\AppData\Local\Temp\cccAx5kS.s 			page 42


 1371              	.LVL178:
 1372 000a B0F5907F 		cmp	r0, #288
 1373 000e 03D0     		beq	.L132
 1374              		.loc 1 265 0 is_stmt 0 discriminator 1
 1375 0010 00F50060 		add	r0, r0, #2048
 1376 0014 104B     		ldr	r3, .L134
 1377 0016 1860     		str	r0, [r3]
 1378              	.L132:
 266:TinyBasic.c   ****   Poke2(UserProg,(ILend+255)&-256);   /* start Basic shortly after IL */
 1379              		.loc 1 266 0 is_stmt 1
 1380 0018 0F4B     		ldr	r3, .L134
 1381 001a 1968     		ldr	r1, [r3]
 1382 001c FF31     		adds	r1, r1, #255
 1383 001e 21F0FF01 		bic	r1, r1, #255
 1384 0022 2020     		movs	r0, #32
 1385 0024 FFF7FEFF 		bl	Poke2
 1386              	.LVL179:
 267:TinyBasic.c   ****   if (CoreTop>65535) {
 268:TinyBasic.c   ****     Poke2(EndUser,65534);
 269:TinyBasic.c   ****     Poke2(65534,0xDEAD);}
 270:TinyBasic.c   ****   else Poke2(EndUser,CoreTop);
 1387              		.loc 1 270 0
 1388 0028 4FF48041 		mov	r1, #16384
 1389 002c 2220     		movs	r0, #34
 1390 002e FFF7FEFF 		bl	Poke2
 1391              	.LVL180:
 271:TinyBasic.c   ****   WarmStart();
 1392              		.loc 1 271 0
 1393 0032 FFF7FEFF 		bl	WarmStart
 1394              	.LVL181:
 272:TinyBasic.c   ****   SrcEnd = Peek2(UserProg);
 1395              		.loc 1 272 0
 1396 0036 2020     		movs	r0, #32
 1397 0038 FFF7FEFF 		bl	Peek2
 1398              	.LVL182:
 1399 003c 074C     		ldr	r4, .L134+4
 273:TinyBasic.c   ****   Poke2(SrcEnd++,0);
 1400              		.loc 1 273 0
 1401 003e 431C     		adds	r3, r0, #1
 1402 0040 2360     		str	r3, [r4]
 1403 0042 0021     		movs	r1, #0
 1404 0044 FFF7FEFF 		bl	Poke2
 1405              	.LVL183:
 274:TinyBasic.c   ****   Poke2(EndProg,++SrcEnd);} /* ~ColdStart */
 1406              		.loc 1 274 0
 1407 0048 2168     		ldr	r1, [r4]
 1408 004a 0131     		adds	r1, r1, #1
 1409 004c 2160     		str	r1, [r4]
 1410 004e 2420     		movs	r0, #36
 1411 0050 FFF7FEFF 		bl	Poke2
 1412              	.LVL184:
 1413 0054 10BD     		pop	{r4, pc}
 1414              	.L135:
 1415 0056 00BF     		.align	2
 1416              	.L134:
 1417 0058 00000000 		.word	ILend
 1418 005c 00000000 		.word	SrcEnd
ARM GAS  C:\Users\Doug\AppData\Local\Temp\cccAx5kS.s 			page 43


 1419              		.cfi_endproc
 1420              	.LFE19:
 1421              		.size	ColdStart, .-ColdStart
 1422              		.section	.text.TBerror,"ax",%progbits
 1423              		.align	2
 1424              		.global	TBerror
 1425              		.thumb
 1426              		.thumb_func
 1427              		.type	TBerror, %function
 1428              	TBerror:
 1429              	.LFB20:
 275:TinyBasic.c   **** 
 276:TinyBasic.c   **** void TBerror(void) {                      /* report interpreter error */
 1430              		.loc 1 276 0
 1431              		.cfi_startproc
 1432              		@ args = 0, pretend = 0, frame = 0
 1433              		@ frame_needed = 0, uses_anonymous_args = 0
 277:TinyBasic.c   ****   if (ILPC == 0) return;                       /* already reported it */
 1434              		.loc 1 277 0
 1435 0000 304B     		ldr	r3, .L142
 1436 0002 1B68     		ldr	r3, [r3]
 1437 0004 002B     		cmp	r3, #0
 1438 0006 5CD0     		beq	.L141
 276:TinyBasic.c   ****   if (ILPC == 0) return;                       /* already reported it */
 1439              		.loc 1 276 0
 1440 0008 10B5     		push	{r4, lr}
 1441              		.cfi_def_cfa_offset 8
 1442              		.cfi_offset 4, -8
 1443              		.cfi_offset 14, -4
 278:TinyBasic.c   ****   OutLn();
 1444              		.loc 1 278 0
 1445 000a FFF7FEFF 		bl	OutLn
 1446              	.LVL185:
 279:TinyBasic.c   ****   LogIt(-ILPC-32768);
 1447              		.loc 1 279 0
 1448 000e 2D4C     		ldr	r4, .L142
 1449 0010 2368     		ldr	r3, [r4]
 1450 0012 2D48     		ldr	r0, .L142+4
 1451 0014 C01A     		subs	r0, r0, r3
 1452 0016 FFF7FEFF 		bl	LogIt
 1453              	.LVL186:
 280:TinyBasic.c   ****   OutStr("Tiny Basic error #");          /* IL address is the error # */
 1454              		.loc 1 280 0
 1455 001a 2C48     		ldr	r0, .L142+8
 1456 001c FFF7FEFF 		bl	OutStr
 1457              	.LVL187:
 281:TinyBasic.c   ****   OutInt(ILPC-Peek2(ILfront));
 1458              		.loc 1 281 0
 1459 0020 2468     		ldr	r4, [r4]
 1460 0022 4FF48F70 		mov	r0, #286
 1461 0026 FFF7FEFF 		bl	Peek2
 1462              	.LVL188:
 1463 002a 201A     		subs	r0, r4, r0
 1464 002c FFF7FEFF 		bl	OutInt
 1465              	.LVL189:
 282:TinyBasic.c   ****   if (Lino>0) {                          /* Lino=0 if in command line */
 1466              		.loc 1 282 0
ARM GAS  C:\Users\Doug\AppData\Local\Temp\cccAx5kS.s 			page 44


 1467 0030 274B     		ldr	r3, .L142+12
 1468 0032 1B68     		ldr	r3, [r3]
 1469 0034 002B     		cmp	r3, #0
 1470 0036 06DD     		ble	.L138
 283:TinyBasic.c   ****     OutStr(" at line ");
 1471              		.loc 1 283 0
 1472 0038 2648     		ldr	r0, .L142+16
 1473 003a FFF7FEFF 		bl	OutStr
 1474              	.LVL190:
 284:TinyBasic.c   ****     OutInt(Lino);}
 1475              		.loc 1 284 0
 1476 003e 244B     		ldr	r3, .L142+12
 1477 0040 1868     		ldr	r0, [r3]
 1478 0042 FFF7FEFF 		bl	OutInt
 1479              	.LVL191:
 1480              	.L138:
 285:TinyBasic.c   ****   OutLn();
 1481              		.loc 1 285 0
 1482 0046 FFF7FEFF 		bl	OutLn
 1483              	.LVL192:
 286:TinyBasic.c   ****   if (Debugging>0) {                /* some extra info if debugging.. */
 1484              		.loc 1 286 0
 1485 004a 234B     		ldr	r3, .L142+20
 1486 004c 1B69     		ldr	r3, [r3, #16]
 1487 004e 002B     		cmp	r3, #0
 1488 0050 2BDD     		ble	.L139
 287:TinyBasic.c   ****     ShowSubs();
 1489              		.loc 1 287 0
 1490 0052 FFF7FEFF 		bl	ShowSubs
 1491              	.LVL193:
 288:TinyBasic.c   ****     ShowExSt();
 1492              		.loc 1 288 0
 1493 0056 FFF7FEFF 		bl	ShowExSt
 1494              	.LVL194:
 289:TinyBasic.c   ****     ShowVars(0);
 1495              		.loc 1 289 0
 1496 005a 0020     		movs	r0, #0
 1497 005c FFF7FEFF 		bl	ShowVars
 1498              	.LVL195:
 290:TinyBasic.c   ****     OutStr(" [BP=");
 1499              		.loc 1 290 0
 1500 0060 1E48     		ldr	r0, .L142+24
 1501 0062 FFF7FEFF 		bl	OutStr
 1502              	.LVL196:
 291:TinyBasic.c   ****     OutHex(BP,4);
 1503              		.loc 1 291 0
 1504 0066 1E4C     		ldr	r4, .L142+28
 1505 0068 0421     		movs	r1, #4
 1506 006a 2068     		ldr	r0, [r4]
 1507 006c FFF7FEFF 		bl	OutHex
 1508              	.LVL197:
 292:TinyBasic.c   ****     OutStr(", TB@");
 1509              		.loc 1 292 0
 1510 0070 1C48     		ldr	r0, .L142+32
 1511 0072 FFF7FEFF 		bl	OutStr
 1512              	.LVL198:
 293:TinyBasic.c   ****     OutHex(Peek2(UserProg),4);
ARM GAS  C:\Users\Doug\AppData\Local\Temp\cccAx5kS.s 			page 45


 1513              		.loc 1 293 0
 1514 0076 2020     		movs	r0, #32
 1515 0078 FFF7FEFF 		bl	Peek2
 1516              	.LVL199:
 1517 007c 0421     		movs	r1, #4
 1518 007e FFF7FEFF 		bl	OutHex
 1519              	.LVL200:
 294:TinyBasic.c   ****     OutStr(", IL@");
 1520              		.loc 1 294 0
 1521 0082 1948     		ldr	r0, .L142+36
 1522 0084 FFF7FEFF 		bl	OutStr
 1523              	.LVL201:
 295:TinyBasic.c   ****     OutHex(Peek2(ILfront),4);
 1524              		.loc 1 295 0
 1525 0088 4FF48F70 		mov	r0, #286
 1526 008c FFF7FEFF 		bl	Peek2
 1527              	.LVL202:
 1528 0090 0421     		movs	r1, #4
 1529 0092 FFF7FEFF 		bl	OutHex
 1530              	.LVL203:
 296:TinyBasic.c   ****     OutStr("]");
 1531              		.loc 1 296 0
 1532 0096 1548     		ldr	r0, .L142+40
 1533 0098 FFF7FEFF 		bl	OutStr
 1534              	.LVL204:
 297:TinyBasic.c   ****     ShoMemDump((BP-30)&-16,64);}
 1535              		.loc 1 297 0
 1536 009c 2068     		ldr	r0, [r4]
 1537 009e 1E38     		subs	r0, r0, #30
 1538 00a0 4021     		movs	r1, #64
 1539 00a2 20F00F00 		bic	r0, r0, #15
 1540 00a6 FFF7FEFF 		bl	ShoMemDump
 1541              	.LVL205:
 1542              	.L139:
 298:TinyBasic.c   ****   Lino = 0;                           /* restart interpreter at front */
 1543              		.loc 1 298 0
 1544 00aa 0023     		movs	r3, #0
 1545 00ac 084A     		ldr	r2, .L142+12
 1546 00ae 1360     		str	r3, [r2]
 299:TinyBasic.c   ****   ExpnTop = ExpnStk;                   /* with empty expression stack */
 1547              		.loc 1 299 0
 1548 00b0 8021     		movs	r1, #128
 1549 00b2 0F4A     		ldr	r2, .L142+44
 1550 00b4 1160     		str	r1, [r2]
 300:TinyBasic.c   ****   ILPC = 0;       /* cheap error test; interp reloads it from ILfront */
 1551              		.loc 1 300 0
 1552 00b6 034A     		ldr	r2, .L142
 1553 00b8 1360     		str	r3, [r2]
 301:TinyBasic.c   ****   BP = InLine;} /* ~TBerror */
 1554              		.loc 1 301 0
 1555 00ba 3022     		movs	r2, #48
 1556 00bc 084B     		ldr	r3, .L142+28
 1557 00be 1A60     		str	r2, [r3]
 1558 00c0 10BD     		pop	{r4, pc}
 1559              	.L141:
 1560              		.cfi_def_cfa_offset 0
 1561              		.cfi_restore 4
ARM GAS  C:\Users\Doug\AppData\Local\Temp\cccAx5kS.s 			page 46


 1562              		.cfi_restore 14
 1563 00c2 7047     		bx	lr
 1564              	.L143:
 1565              		.align	2
 1566              	.L142:
 1567 00c4 00000000 		.word	ILPC
 1568 00c8 0080FFFF 		.word	-32768
 1569 00cc 74000000 		.word	.LC18
 1570 00d0 00000000 		.word	Lino
 1571 00d4 88000000 		.word	.LC19
 1572 00d8 00000000 		.word	.LANCHOR0
 1573 00dc 94000000 		.word	.LC20
 1574 00e0 00000000 		.word	BP
 1575 00e4 9C000000 		.word	.LC21
 1576 00e8 A4000000 		.word	.LC22
 1577 00ec 10000000 		.word	.LC3
 1578 00f0 00000000 		.word	ExpnTop
 1579              		.cfi_endproc
 1580              	.LFE20:
 1581              		.size	TBerror, .-TBerror
 1582              		.section	.text.PushSub,"ax",%progbits
 1583              		.align	2
 1584              		.global	PushSub
 1585              		.thumb
 1586              		.thumb_func
 1587              		.type	PushSub, %function
 1588              	PushSub:
 1589              	.LFB21:
 302:TinyBasic.c   **** 
 303:TinyBasic.c   **** void PushSub(int valu) {               /* push value onto Gosub stack */
 1590              		.loc 1 303 0
 1591              		.cfi_startproc
 1592              		@ args = 0, pretend = 0, frame = 0
 1593              		@ frame_needed = 0, uses_anonymous_args = 0
 1594              	.LVL206:
 1595 0000 38B5     		push	{r3, r4, r5, lr}
 1596              		.cfi_def_cfa_offset 16
 1597              		.cfi_offset 3, -16
 1598              		.cfi_offset 4, -12
 1599              		.cfi_offset 5, -8
 1600              		.cfi_offset 14, -4
 304:TinyBasic.c   ****   if (SubStk<=SrcEnd) TBerror(); /* overflow: bumped into program end */
 1601              		.loc 1 304 0
 1602 0002 0D4B     		ldr	r3, .L149
 1603 0004 1968     		ldr	r1, [r3]
 1604 0006 0D4B     		ldr	r3, .L149+4
 1605 0008 1B68     		ldr	r3, [r3]
 1606 000a 9942     		cmp	r1, r3
 1607 000c 02DC     		bgt	.L145
 1608              		.loc 1 304 0 is_stmt 0 discriminator 1
 1609 000e FFF7FEFF 		bl	TBerror
 1610              	.LVL207:
 1611 0012 0AE0     		b	.L146
 1612              	.LVL208:
 1613              	.L145:
 1614 0014 0546     		mov	r5, r0
 305:TinyBasic.c   ****   else {
ARM GAS  C:\Users\Doug\AppData\Local\Temp\cccAx5kS.s 			page 47


 306:TinyBasic.c   ****     SubStk = SubStk-2;
 1615              		.loc 1 306 0 is_stmt 1
 1616 0016 0239     		subs	r1, r1, #2
 1617 0018 074C     		ldr	r4, .L149
 1618 001a 2160     		str	r1, [r4]
 307:TinyBasic.c   ****     Poke2(GoStkTop,SubStk);
 1619              		.loc 1 307 0
 1620 001c 2620     		movs	r0, #38
 1621              	.LVL209:
 1622 001e FFF7FEFF 		bl	Poke2
 1623              	.LVL210:
 308:TinyBasic.c   ****     Poke2(SubStk,valu);}
 1624              		.loc 1 308 0
 1625 0022 2946     		mov	r1, r5
 1626 0024 2068     		ldr	r0, [r4]
 1627 0026 FFF7FEFF 		bl	Poke2
 1628              	.LVL211:
 1629              	.L146:
 309:TinyBasic.c   ****   if (Debugging>0) ShowSubs();} /* ~PushSub */
 1630              		.loc 1 309 0
 1631 002a 054B     		ldr	r3, .L149+8
 1632 002c 1B69     		ldr	r3, [r3, #16]
 1633 002e 002B     		cmp	r3, #0
 1634 0030 01DD     		ble	.L144
 1635              		.loc 1 309 0 is_stmt 0 discriminator 1
 1636 0032 FFF7FEFF 		bl	ShowSubs
 1637              	.LVL212:
 1638              	.L144:
 1639 0036 38BD     		pop	{r3, r4, r5, pc}
 1640              	.L150:
 1641              		.align	2
 1642              	.L149:
 1643 0038 00000000 		.word	SubStk
 1644 003c 00000000 		.word	SrcEnd
 1645 0040 00000000 		.word	.LANCHOR0
 1646              		.cfi_endproc
 1647              	.LFE21:
 1648              		.size	PushSub, .-PushSub
 1649              		.section	.text.PopSub,"ax",%progbits
 1650              		.align	2
 1651              		.global	PopSub
 1652              		.thumb
 1653              		.thumb_func
 1654              		.type	PopSub, %function
 1655              	PopSub:
 1656              	.LFB22:
 310:TinyBasic.c   **** 
 311:TinyBasic.c   **** int PopSub(void) {                       /* pop value off Gosub stack */
 1657              		.loc 1 311 0 is_stmt 1
 1658              		.cfi_startproc
 1659              		@ args = 0, pretend = 0, frame = 0
 1660              		@ frame_needed = 0, uses_anonymous_args = 0
 1661 0000 10B5     		push	{r4, lr}
 1662              		.cfi_def_cfa_offset 8
 1663              		.cfi_offset 4, -8
 1664              		.cfi_offset 14, -4
 312:TinyBasic.c   ****   if (SubStk>=Peek2(EndUser)-1) {   /* underflow (nothing in stack).. */
ARM GAS  C:\Users\Doug\AppData\Local\Temp\cccAx5kS.s 			page 48


 1665              		.loc 1 312 0
 1666 0002 2220     		movs	r0, #34
 1667 0004 FFF7FEFF 		bl	Peek2
 1668              	.LVL213:
 1669 0008 0138     		subs	r0, r0, #1
 1670 000a 0D4B     		ldr	r3, .L156
 1671 000c 1B68     		ldr	r3, [r3]
 1672 000e 9842     		cmp	r0, r3
 1673 0010 04DC     		bgt	.L152
 313:TinyBasic.c   ****     TBerror();
 1674              		.loc 1 313 0
 1675 0012 FFF7FEFF 		bl	TBerror
 1676              	.LVL214:
 314:TinyBasic.c   ****     return -1;}
 1677              		.loc 1 314 0
 1678 0016 4FF0FF30 		mov	r0, #-1
 1679 001a 10BD     		pop	{r4, pc}
 1680              	.L152:
 315:TinyBasic.c   ****   else {
 316:TinyBasic.c   ****       if (Debugging>1) ShowSubs();
 1681              		.loc 1 316 0
 1682 001c 094B     		ldr	r3, .L156+4
 1683 001e 1B69     		ldr	r3, [r3, #16]
 1684 0020 012B     		cmp	r3, #1
 1685 0022 01DD     		ble	.L154
 1686              		.loc 1 316 0 is_stmt 0 discriminator 1
 1687 0024 FFF7FEFF 		bl	ShowSubs
 1688              	.LVL215:
 1689              	.L154:
 317:TinyBasic.c   ****     SubStk = SubStk+2;
 1690              		.loc 1 317 0 is_stmt 1
 1691 0028 054C     		ldr	r4, .L156
 1692 002a 2168     		ldr	r1, [r4]
 1693 002c 0231     		adds	r1, r1, #2
 1694 002e 2160     		str	r1, [r4]
 318:TinyBasic.c   ****     Poke2(GoStkTop,SubStk);
 1695              		.loc 1 318 0
 1696 0030 2620     		movs	r0, #38
 1697 0032 FFF7FEFF 		bl	Poke2
 1698              	.LVL216:
 319:TinyBasic.c   ****     return Peek2(SubStk-2);}} /* ~PopSub */
 1699              		.loc 1 319 0
 1700 0036 2068     		ldr	r0, [r4]
 1701 0038 0238     		subs	r0, r0, #2
 1702 003a FFF7FEFF 		bl	Peek2
 1703              	.LVL217:
 1704 003e 10BD     		pop	{r4, pc}
 1705              	.L157:
 1706              		.align	2
 1707              	.L156:
 1708 0040 00000000 		.word	SubStk
 1709 0044 00000000 		.word	.LANCHOR0
 1710              		.cfi_endproc
 1711              	.LFE22:
 1712              		.size	PopSub, .-PopSub
 1713              		.section	.text.PushExBy,"ax",%progbits
 1714              		.align	2
ARM GAS  C:\Users\Doug\AppData\Local\Temp\cccAx5kS.s 			page 49


 1715              		.global	PushExBy
 1716              		.thumb
 1717              		.thumb_func
 1718              		.type	PushExBy, %function
 1719              	PushExBy:
 1720              	.LFB23:
 320:TinyBasic.c   **** 
 321:TinyBasic.c   **** void PushExBy(int valu) {          /* push byte onto expression stack */
 1721              		.loc 1 321 0
 1722              		.cfi_startproc
 1723              		@ args = 0, pretend = 0, frame = 0
 1724              		@ frame_needed = 0, uses_anonymous_args = 0
 1725              	.LVL218:
 1726 0000 08B5     		push	{r3, lr}
 1727              		.cfi_def_cfa_offset 8
 1728              		.cfi_offset 3, -8
 1729              		.cfi_offset 14, -4
 322:TinyBasic.c   ****   if (ExpnTop<=InLend) TBerror(); /* overflow: bumped into input line */
 1730              		.loc 1 322 0
 1731 0002 0A4B     		ldr	r3, .L163
 1732 0004 1B68     		ldr	r3, [r3]
 1733 0006 0A4A     		ldr	r2, .L163+4
 1734 0008 1268     		ldr	r2, [r2]
 1735 000a 9342     		cmp	r3, r2
 1736 000c 02DC     		bgt	.L159
 1737              		.loc 1 322 0 is_stmt 0 discriminator 1
 1738 000e FFF7FEFF 		bl	TBerror
 1739              	.LVL219:
 1740 0012 04E0     		b	.L160
 1741              	.LVL220:
 1742              	.L159:
 323:TinyBasic.c   ****     else Core[--ExpnTop] = (aByte)(valu&255);
 1743              		.loc 1 323 0 is_stmt 1
 1744 0014 013B     		subs	r3, r3, #1
 1745 0016 054A     		ldr	r2, .L163
 1746 0018 1360     		str	r3, [r2]
 1747 001a 064A     		ldr	r2, .L163+8
 1748 001c D054     		strb	r0, [r2, r3]
 1749              	.LVL221:
 1750              	.L160:
 324:TinyBasic.c   ****   if (Debugging>0) ShowExSt();} /* ~PushExBy */
 1751              		.loc 1 324 0
 1752 001e 064B     		ldr	r3, .L163+12
 1753 0020 1B69     		ldr	r3, [r3, #16]
 1754 0022 002B     		cmp	r3, #0
 1755 0024 01DD     		ble	.L158
 1756              		.loc 1 324 0 is_stmt 0 discriminator 1
 1757 0026 FFF7FEFF 		bl	ShowExSt
 1758              	.LVL222:
 1759              	.L158:
 1760 002a 08BD     		pop	{r3, pc}
 1761              	.L164:
 1762              		.align	2
 1763              	.L163:
 1764 002c 00000000 		.word	ExpnTop
 1765 0030 00000000 		.word	InLend
 1766 0034 00000000 		.word	Core
ARM GAS  C:\Users\Doug\AppData\Local\Temp\cccAx5kS.s 			page 50


 1767 0038 00000000 		.word	.LANCHOR0
 1768              		.cfi_endproc
 1769              	.LFE23:
 1770              		.size	PushExBy, .-PushExBy
 1771              		.section	.text.PopExBy,"ax",%progbits
 1772              		.align	2
 1773              		.global	PopExBy
 1774              		.thumb
 1775              		.thumb_func
 1776              		.type	PopExBy, %function
 1777              	PopExBy:
 1778              	.LFB24:
 325:TinyBasic.c   **** 
 326:TinyBasic.c   **** int PopExBy(void) {                  /* pop byte off expression stack */
 1779              		.loc 1 326 0 is_stmt 1
 1780              		.cfi_startproc
 1781              		@ args = 0, pretend = 0, frame = 0
 1782              		@ frame_needed = 0, uses_anonymous_args = 0
 1783 0000 08B5     		push	{r3, lr}
 1784              		.cfi_def_cfa_offset 8
 1785              		.cfi_offset 3, -8
 1786              		.cfi_offset 14, -4
 327:TinyBasic.c   ****   if (ExpnTop<ExpnStk) return (int)Core[ExpnTop++];
 1787              		.loc 1 327 0
 1788 0002 074B     		ldr	r3, .L169
 1789 0004 1B68     		ldr	r3, [r3]
 1790 0006 7F2B     		cmp	r3, #127
 1791 0008 05DC     		bgt	.L166
 1792              		.loc 1 327 0 is_stmt 0 discriminator 1
 1793 000a 591C     		adds	r1, r3, #1
 1794 000c 044A     		ldr	r2, .L169
 1795 000e 1160     		str	r1, [r2]
 1796 0010 044A     		ldr	r2, .L169+4
 1797 0012 D05C     		ldrb	r0, [r2, r3]	@ zero_extendqisi2
 1798 0014 08BD     		pop	{r3, pc}
 1799              	.L166:
 328:TinyBasic.c   ****   TBerror();                          /* underflow (nothing in stack) */
 1800              		.loc 1 328 0 is_stmt 1
 1801 0016 FFF7FEFF 		bl	TBerror
 1802              	.LVL223:
 329:TinyBasic.c   ****   return -1;} /* ~PopExBy */
 1803              		.loc 1 329 0
 1804 001a 4FF0FF30 		mov	r0, #-1
 1805 001e 08BD     		pop	{r3, pc}
 1806              	.L170:
 1807              		.align	2
 1808              	.L169:
 1809 0020 00000000 		.word	ExpnTop
 1810 0024 00000000 		.word	Core
 1811              		.cfi_endproc
 1812              	.LFE24:
 1813              		.size	PopExBy, .-PopExBy
 1814              		.section	.text.PushExInt,"ax",%progbits
 1815              		.align	2
 1816              		.global	PushExInt
 1817              		.thumb
 1818              		.thumb_func
ARM GAS  C:\Users\Doug\AppData\Local\Temp\cccAx5kS.s 			page 51


 1819              		.type	PushExInt, %function
 1820              	PushExInt:
 1821              	.LFB25:
 330:TinyBasic.c   **** 
 331:TinyBasic.c   **** void PushExInt(int valu) {      /* push integer onto expression stack */
 1822              		.loc 1 331 0
 1823              		.cfi_startproc
 1824              		@ args = 0, pretend = 0, frame = 0
 1825              		@ frame_needed = 0, uses_anonymous_args = 0
 1826              	.LVL224:
 1827 0000 08B5     		push	{r3, lr}
 1828              		.cfi_def_cfa_offset 8
 1829              		.cfi_offset 3, -8
 1830              		.cfi_offset 14, -4
 332:TinyBasic.c   ****   ExpnTop = ExpnTop-2;
 1831              		.loc 1 332 0
 1832 0002 0B4A     		ldr	r2, .L176
 1833 0004 1368     		ldr	r3, [r2]
 1834 0006 023B     		subs	r3, r3, #2
 1835 0008 1360     		str	r3, [r2]
 333:TinyBasic.c   ****   if (ExpnTop<InLend) TBerror();  /* overflow: bumped into input line */
 1836              		.loc 1 333 0
 1837 000a 0A4A     		ldr	r2, .L176+4
 1838 000c 1268     		ldr	r2, [r2]
 1839 000e 9342     		cmp	r3, r2
 1840 0010 02DA     		bge	.L172
 1841              		.loc 1 333 0 is_stmt 0 discriminator 1
 1842 0012 FFF7FEFF 		bl	TBerror
 1843              	.LVL225:
 1844 0016 03E0     		b	.L173
 1845              	.LVL226:
 1846              	.L172:
 334:TinyBasic.c   ****     else Poke2(ExpnTop,valu);
 1847              		.loc 1 334 0 is_stmt 1
 1848 0018 0146     		mov	r1, r0
 1849 001a 1846     		mov	r0, r3
 1850              	.LVL227:
 1851 001c FFF7FEFF 		bl	Poke2
 1852              	.LVL228:
 1853              	.L173:
 335:TinyBasic.c   ****   if (Debugging>0) ShowExSt();} /* ~PushExInt */
 1854              		.loc 1 335 0
 1855 0020 054B     		ldr	r3, .L176+8
 1856 0022 1B69     		ldr	r3, [r3, #16]
 1857 0024 002B     		cmp	r3, #0
 1858 0026 01DD     		ble	.L171
 1859              		.loc 1 335 0 is_stmt 0 discriminator 1
 1860 0028 FFF7FEFF 		bl	ShowExSt
 1861              	.LVL229:
 1862              	.L171:
 1863 002c 08BD     		pop	{r3, pc}
 1864              	.L177:
 1865 002e 00BF     		.align	2
 1866              	.L176:
 1867 0030 00000000 		.word	ExpnTop
 1868 0034 00000000 		.word	InLend
 1869 0038 00000000 		.word	.LANCHOR0
ARM GAS  C:\Users\Doug\AppData\Local\Temp\cccAx5kS.s 			page 52


 1870              		.cfi_endproc
 1871              	.LFE25:
 1872              		.size	PushExInt, .-PushExInt
 1873              		.section	.text.PopExInt,"ax",%progbits
 1874              		.align	2
 1875              		.global	PopExInt
 1876              		.thumb
 1877              		.thumb_func
 1878              		.type	PopExInt, %function
 1879              	PopExInt:
 1880              	.LFB26:
 336:TinyBasic.c   **** 
 337:TinyBasic.c   **** int PopExInt(void) {              /* pop integer off expression stack */
 1881              		.loc 1 337 0 is_stmt 1
 1882              		.cfi_startproc
 1883              		@ args = 0, pretend = 0, frame = 0
 1884              		@ frame_needed = 0, uses_anonymous_args = 0
 1885 0000 08B5     		push	{r3, lr}
 1886              		.cfi_def_cfa_offset 8
 1887              		.cfi_offset 3, -8
 1888              		.cfi_offset 14, -4
 338:TinyBasic.c   ****   if (++ExpnTop<ExpnStk) return (int)((short)Peek2((ExpnTop++)-1));
 1889              		.loc 1 338 0
 1890 0002 084A     		ldr	r2, .L182
 1891 0004 1068     		ldr	r0, [r2]
 1892 0006 431C     		adds	r3, r0, #1
 1893 0008 1360     		str	r3, [r2]
 1894 000a 7F2B     		cmp	r3, #127
 1895 000c 05DC     		bgt	.L179
 1896              		.loc 1 338 0 is_stmt 0 discriminator 1
 1897 000e 831C     		adds	r3, r0, #2
 1898 0010 1360     		str	r3, [r2]
 1899 0012 FFF7FEFF 		bl	Peek2
 1900              	.LVL230:
 1901 0016 00B2     		sxth	r0, r0
 1902 0018 08BD     		pop	{r3, pc}
 1903              	.L179:
 339:TinyBasic.c   ****   TBerror();    /* underflow (nothing in stack) */
 1904              		.loc 1 339 0 is_stmt 1
 1905 001a FFF7FEFF 		bl	TBerror
 1906              	.LVL231:
 340:TinyBasic.c   ****   return -1;} /* ~PopExInt */
 1907              		.loc 1 340 0
 1908 001e 4FF0FF30 		mov	r0, #-1
 1909 0022 08BD     		pop	{r3, pc}
 1910              	.L183:
 1911              		.align	2
 1912              	.L182:
 1913 0024 00000000 		.word	ExpnTop
 1914              		.cfi_endproc
 1915              	.LFE26:
 1916              		.size	PopExInt, .-PopExInt
 1917              		.section	.text.DeHex,"ax",%progbits
 1918              		.align	2
 1919              		.global	DeHex
 1920              		.thumb
 1921              		.thumb_func
ARM GAS  C:\Users\Doug\AppData\Local\Temp\cccAx5kS.s 			page 53


 1922              		.type	DeHex, %function
 1923              	DeHex:
 1924              	.LFB27:
 341:TinyBasic.c   **** 
 342:TinyBasic.c   **** int DeHex(char* txt, int ndigs) {                /* decode hex -> int */
 1925              		.loc 1 342 0
 1926              		.cfi_startproc
 1927              		@ args = 0, pretend = 0, frame = 0
 1928              		@ frame_needed = 0, uses_anonymous_args = 0
 1929              		@ link register save eliminated.
 1930              	.LVL232:
 343:TinyBasic.c   ****   int num = 0;
 344:TinyBasic.c   ****   char ch = ' ';
 1931              		.loc 1 344 0
 1932 0000 2023     		movs	r3, #32
 345:TinyBasic.c   ****   while (ch<'0')                              /* first skip to num... */
 1933              		.loc 1 345 0
 1934 0002 06E0     		b	.L185
 1935              	.LVL233:
 1936              	.L187:
 346:TinyBasic.c   ****     if (ch == '\0') return -1; else ch = DeCaps[((int)*txt++)&127];
 1937              		.loc 1 346 0
 1938 0004 6BB3     		cbz	r3, .L192
 1939              	.LVL234:
 1940              		.loc 1 346 0 is_stmt 0 discriminator 2
 1941 0006 0378     		ldrb	r3, [r0]	@ zero_extendqisi2
 1942              	.LVL235:
 1943 0008 03F07F03 		and	r3, r3, #127
 1944 000c 1C4A     		ldr	r2, .L199
 1945 000e D35C     		ldrb	r3, [r2, r3]	@ zero_extendqisi2
 1946              	.LVL236:
 1947 0010 0130     		adds	r0, r0, #1
 1948              	.LVL237:
 1949              	.L185:
 345:TinyBasic.c   ****   while (ch<'0')                              /* first skip to num... */
 1950              		.loc 1 345 0 is_stmt 1
 1951 0012 2F2B     		cmp	r3, #47
 1952 0014 F6D9     		bls	.L187
 347:TinyBasic.c   ****   if (ch>'F' || (ch>'9' && ch<'A')) return -1;               /* not hex */
 1953              		.loc 1 347 0
 1954 0016 462B     		cmp	r3, #70
 1955 0018 26D8     		bhi	.L193
 1956              		.loc 1 347 0 is_stmt 0 discriminator 2
 1957 001a A3F13A02 		sub	r2, r3, #58
 1958 001e D2B2     		uxtb	r2, r2
 1959 0020 062A     		cmp	r2, #6
 1960 0022 24D9     		bls	.L194
 342:TinyBasic.c   ****   int num = 0;
 1961              		.loc 1 342 0 is_stmt 1
 1962 0024 10B4     		push	{r4}
 1963              		.cfi_def_cfa_offset 4
 1964              		.cfi_offset 4, -4
 1965 0026 0022     		movs	r2, #0
 1966 0028 16E0     		b	.L188
 1967              	.LVL238:
 1968              	.L191:
 348:TinyBasic.c   ****   while ((ndigs--) >0) {                 /* only get requested digits */
ARM GAS  C:\Users\Doug\AppData\Local\Temp\cccAx5kS.s 			page 54


 349:TinyBasic.c   ****     if (ch<'0' || ch>'F') return num;              /* not a hex digit */
 1969              		.loc 1 349 0
 1970 002a A3F13001 		sub	r1, r3, #48
 1971 002e C9B2     		uxtb	r1, r1
 1972 0030 1629     		cmp	r1, #22
 1973 0032 1FD8     		bhi	.L195
 350:TinyBasic.c   ****     if (ch>='A') num = num*16-55+((int)ch);      /* A-F */
 1974              		.loc 1 350 0
 1975 0034 402B     		cmp	r3, #64
 1976 0036 03D9     		bls	.L189
 1977              		.loc 1 350 0 is_stmt 0 discriminator 1
 1978 0038 1201     		lsls	r2, r2, #4
 1979              	.LVL239:
 1980 003a 373A     		subs	r2, r2, #55
 1981 003c 1A44     		add	r2, r2, r3
 1982              	.LVL240:
 1983 003e 04E0     		b	.L190
 1984              	.L189:
 351:TinyBasic.c   ****     else if (ch<='9') num = num*16-48+((int)ch); /* 0-9 */
 1985              		.loc 1 351 0 is_stmt 1
 1986 0040 392B     		cmp	r3, #57
 1987 0042 19D8     		bhi	.L196
 1988              		.loc 1 351 0 is_stmt 0 discriminator 1
 1989 0044 033A     		subs	r2, r2, #3
 1990              	.LVL241:
 1991 0046 03EB0212 		add	r2, r3, r2, lsl #4
 1992              	.LVL242:
 1993              	.L190:
 352:TinyBasic.c   ****       else return num;          /* something in between, i.e. not hex */
 353:TinyBasic.c   ****     ch = DeCaps[((int)*txt++)&127];}
 1994              		.loc 1 353 0 is_stmt 1
 1995 004a 0378     		ldrb	r3, [r0]	@ zero_extendqisi2
 1996              	.LVL243:
 1997 004c 03F07F03 		and	r3, r3, #127
 1998 0050 0B49     		ldr	r1, .L199
 1999 0052 CB5C     		ldrb	r3, [r1, r3]	@ zero_extendqisi2
 2000              	.LVL244:
 348:TinyBasic.c   ****     if (ch<'0' || ch>'F') return num;              /* not a hex digit */
 2001              		.loc 1 348 0
 2002 0054 2146     		mov	r1, r4
 2003              		.loc 1 353 0
 2004 0056 0130     		adds	r0, r0, #1
 2005              	.LVL245:
 2006              	.L188:
 348:TinyBasic.c   ****     if (ch<'0' || ch>'F') return num;              /* not a hex digit */
 2007              		.loc 1 348 0
 2008 0058 4C1E     		subs	r4, r1, #1
 2009              	.LVL246:
 2010 005a 0029     		cmp	r1, #0
 2011 005c E5DC     		bgt	.L191
 354:TinyBasic.c   ****   return num;} /* ~DeHex */
 2012              		.loc 1 354 0
 2013 005e 1046     		mov	r0, r2
 2014              	.LVL247:
 2015 0060 0BE0     		b	.L186
 2016              	.LVL248:
 2017              	.L192:
ARM GAS  C:\Users\Doug\AppData\Local\Temp\cccAx5kS.s 			page 55


 2018              		.cfi_def_cfa_offset 0
 2019              		.cfi_restore 4
 346:TinyBasic.c   ****   if (ch>'F' || (ch>'9' && ch<'A')) return -1;               /* not hex */
 2020              		.loc 1 346 0
 2021 0062 4FF0FF30 		mov	r0, #-1
 2022              	.LVL249:
 2023 0066 7047     		bx	lr
 2024              	.LVL250:
 2025              	.L193:
 347:TinyBasic.c   ****   while ((ndigs--) >0) {                 /* only get requested digits */
 2026              		.loc 1 347 0
 2027 0068 4FF0FF30 		mov	r0, #-1
 2028              	.LVL251:
 2029 006c 7047     		bx	lr
 2030              	.LVL252:
 2031              	.L194:
 2032 006e 4FF0FF30 		mov	r0, #-1
 2033              	.LVL253:
 2034              		.loc 1 354 0
 2035 0072 7047     		bx	lr
 2036              	.LVL254:
 2037              	.L195:
 2038              		.cfi_def_cfa_offset 4
 2039              		.cfi_offset 4, -4
 349:TinyBasic.c   ****     if (ch>='A') num = num*16-55+((int)ch);      /* A-F */
 2040              		.loc 1 349 0
 2041 0074 1046     		mov	r0, r2
 2042              	.LVL255:
 2043 0076 00E0     		b	.L186
 2044              	.LVL256:
 2045              	.L196:
 352:TinyBasic.c   ****     ch = DeCaps[((int)*txt++)&127];}
 2046              		.loc 1 352 0
 2047 0078 1046     		mov	r0, r2
 2048              	.LVL257:
 2049              	.L186:
 2050              		.loc 1 354 0
 2051 007a 10BC     		pop	{r4}
 2052              		.cfi_restore 4
 2053              		.cfi_def_cfa_offset 0
 2054              	.LVL258:
 2055 007c 7047     		bx	lr
 2056              	.L200:
 2057 007e 00BF     		.align	2
 2058              	.L199:
 2059 0080 00000000 		.word	DeCaps
 2060              		.cfi_endproc
 2061              	.LFE27:
 2062              		.size	DeHex, .-DeHex
 2063              		.section	.text.SkipTo,"ax",%progbits
 2064              		.align	2
 2065              		.global	SkipTo
 2066              		.thumb
 2067              		.thumb_func
 2068              		.type	SkipTo, %function
 2069              	SkipTo:
 2070              	.LFB28:
ARM GAS  C:\Users\Doug\AppData\Local\Temp\cccAx5kS.s 			page 56


 355:TinyBasic.c   **** 
 356:TinyBasic.c   **** int SkipTo(int here, char fch) {     /* search for'd past next marker */
 2071              		.loc 1 356 0
 2072              		.cfi_startproc
 2073              		@ args = 0, pretend = 0, frame = 0
 2074              		@ frame_needed = 0, uses_anonymous_args = 0
 2075              		@ link register save eliminated.
 2076              	.LVL259:
 2077 0000 0346     		mov	r3, r0
 2078 0002 00E0     		b	.L203
 2079              	.LVL260:
 2080              	.L204:
 2081              	.LBB10:
 357:TinyBasic.c   ****   while (true) {
 358:TinyBasic.c   ****     char ch = (char)Core[here++];                /* look at next char */
 2082              		.loc 1 358 0
 2083 0004 0346     		mov	r3, r0
 2084              	.LVL261:
 2085              	.L203:
 2086 0006 581C     		adds	r0, r3, #1
 2087              	.LVL262:
 2088 0008 034A     		ldr	r2, .L205
 2089 000a D25C     		ldrb	r2, [r2, r3]	@ zero_extendqisi2
 2090              	.LVL263:
 359:TinyBasic.c   ****     if (ch == fch) return here;                             /* got it */
 2091              		.loc 1 359 0
 2092 000c 8A42     		cmp	r2, r1
 2093 000e 02D0     		beq	.L202
 360:TinyBasic.c   ****     if (ch == '\0') return --here;}} /* ~SkipTo */
 2094              		.loc 1 360 0
 2095 0010 002A     		cmp	r2, #0
 2096 0012 F7D1     		bne	.L204
 2097 0014 1846     		mov	r0, r3
 2098              	.LVL264:
 2099              	.L202:
 2100              	.LBE10:
 2101 0016 7047     		bx	lr
 2102              	.L206:
 2103              		.align	2
 2104              	.L205:
 2105 0018 00000000 		.word	Core
 2106              		.cfi_endproc
 2107              	.LFE28:
 2108              		.size	SkipTo, .-SkipTo
 2109              		.section	.text.FindLine,"ax",%progbits
 2110              		.align	2
 2111              		.global	FindLine
 2112              		.thumb
 2113              		.thumb_func
 2114              		.type	FindLine, %function
 2115              	FindLine:
 2116              	.LFB29:
 361:TinyBasic.c   **** 
 362:TinyBasic.c   **** int FindLine(int theLine) {         /* find theLine in TB source code */
 2117              		.loc 1 362 0
 2118              		.cfi_startproc
 2119              		@ args = 0, pretend = 0, frame = 0
ARM GAS  C:\Users\Doug\AppData\Local\Temp\cccAx5kS.s 			page 57


 2120              		@ frame_needed = 0, uses_anonymous_args = 0
 2121              	.LVL265:
 2122 0000 38B5     		push	{r3, r4, r5, lr}
 2123              		.cfi_def_cfa_offset 16
 2124              		.cfi_offset 3, -16
 2125              		.cfi_offset 4, -12
 2126              		.cfi_offset 5, -8
 2127              		.cfi_offset 14, -4
 2128 0002 0546     		mov	r5, r0
 363:TinyBasic.c   ****   int ix;
 364:TinyBasic.c   ****   int here = Peek2(UserProg);                       /* start at front */
 2129              		.loc 1 364 0
 2130 0004 2020     		movs	r0, #32
 2131              	.LVL266:
 2132 0006 FFF7FEFF 		bl	Peek2
 2133              	.LVL267:
 2134 000a 0446     		mov	r4, r0
 2135              	.LVL268:
 2136              	.L210:
 365:TinyBasic.c   ****   while (true) {
 366:TinyBasic.c   ****     ix = Peek2(here++);
 2137              		.loc 1 366 0
 2138 000c 2046     		mov	r0, r4
 2139 000e FFF7FEFF 		bl	Peek2
 2140              	.LVL269:
 367:TinyBasic.c   ****     if (theLine<=ix || ix==0) return --here;  /* found it or overshot */
 2141              		.loc 1 367 0
 2142 0012 A842     		cmp	r0, r5
 2143 0014 06DA     		bge	.L211
 2144              		.loc 1 367 0 is_stmt 0 discriminator 2
 2145 0016 28B1     		cbz	r0, .L211
 2146              	.LVL270:
 368:TinyBasic.c   ****     here = SkipTo(++here, '\r');}         /* skip to end of this line */
 2147              		.loc 1 368 0 is_stmt 1
 2148 0018 0D21     		movs	r1, #13
 2149 001a A01C     		adds	r0, r4, #2
 2150              	.LVL271:
 2151 001c FFF7FEFF 		bl	SkipTo
 2152              	.LVL272:
 2153 0020 0446     		mov	r4, r0
 2154              	.LVL273:
 2155 0022 F3E7     		b	.L210
 2156              	.LVL274:
 2157              	.L211:
 369:TinyBasic.c   ****   } /* ~FindLine */
 2158              		.loc 1 369 0
 2159 0024 2046     		mov	r0, r4
 2160              	.LVL275:
 2161 0026 38BD     		pop	{r3, r4, r5, pc}
 2162              		.cfi_endproc
 2163              	.LFE29:
 2164              		.size	FindLine, .-FindLine
 2165              		.section	.text.GoToLino,"ax",%progbits
 2166              		.align	2
 2167              		.global	GoToLino
 2168              		.thumb
 2169              		.thumb_func
ARM GAS  C:\Users\Doug\AppData\Local\Temp\cccAx5kS.s 			page 58


 2170              		.type	GoToLino, %function
 2171              	GoToLino:
 2172              	.LFB30:
 370:TinyBasic.c   **** 
 371:TinyBasic.c   **** void GoToLino(void) {     /* find line # Lino and set BP to its front */
 2173              		.loc 1 371 0
 2174              		.cfi_startproc
 2175              		@ args = 0, pretend = 0, frame = 0
 2176              		@ frame_needed = 0, uses_anonymous_args = 0
 2177 0000 38B5     		push	{r3, r4, r5, lr}
 2178              		.cfi_def_cfa_offset 16
 2179              		.cfi_offset 3, -16
 2180              		.cfi_offset 4, -12
 2181              		.cfi_offset 5, -8
 2182              		.cfi_offset 14, -4
 372:TinyBasic.c   ****   int here;
 373:TinyBasic.c   ****   if (Lino <= 0) {              /* Lino=0 is just command line (OK).. */
 2183              		.loc 1 373 0
 2184 0002 194B     		ldr	r3, .L220
 2185 0004 1868     		ldr	r0, [r3]
 2186 0006 0028     		cmp	r0, #0
 2187 0008 06DC     		bgt	.L214
 374:TinyBasic.c   ****     BP = InLine;
 2188              		.loc 1 374 0
 2189 000a 3022     		movs	r2, #48
 2190 000c 174B     		ldr	r3, .L220+4
 2191 000e 1A60     		str	r2, [r3]
 375:TinyBasic.c   ****     if (DEBUGON>0) LogIt(0);
 2192              		.loc 1 375 0
 2193 0010 0020     		movs	r0, #0
 2194 0012 FFF7FEFF 		bl	LogIt
 2195              	.LVL276:
 2196 0016 38BD     		pop	{r3, r4, r5, pc}
 2197              	.L214:
 376:TinyBasic.c   ****     return;}
 377:TinyBasic.c   ****   if (DEBUGON>0) LogIt(Lino);
 2198              		.loc 1 377 0 discriminator 1
 2199 0018 FFF7FEFF 		bl	LogIt
 2200              	.LVL277:
 378:TinyBasic.c   ****   if (Debugging>0) {OutStr(" [#"); OutInt(Lino); OutStr("]");}
 2201              		.loc 1 378 0 discriminator 1
 2202 001c 144B     		ldr	r3, .L220+8
 2203 001e 1B69     		ldr	r3, [r3, #16]
 2204 0020 002B     		cmp	r3, #0
 2205 0022 09DD     		ble	.L216
 2206 0024 1348     		ldr	r0, .L220+12
 2207 0026 FFF7FEFF 		bl	OutStr
 2208              	.LVL278:
 2209 002a 0F4B     		ldr	r3, .L220
 2210 002c 1868     		ldr	r0, [r3]
 2211 002e FFF7FEFF 		bl	OutInt
 2212              	.LVL279:
 2213 0032 1148     		ldr	r0, .L220+16
 2214 0034 FFF7FEFF 		bl	OutStr
 2215              	.LVL280:
 2216              	.L216:
 379:TinyBasic.c   ****   BP = FindLine(Lino);                  /* otherwise try to find it.. */
ARM GAS  C:\Users\Doug\AppData\Local\Temp\cccAx5kS.s 			page 59


 2217              		.loc 1 379 0
 2218 0038 0B4B     		ldr	r3, .L220
 2219 003a 1D68     		ldr	r5, [r3]
 2220 003c 2846     		mov	r0, r5
 2221 003e FFF7FEFF 		bl	FindLine
 2222              	.LVL281:
 380:TinyBasic.c   ****   here = Peek2(BP++);
 2223              		.loc 1 380 0
 2224 0042 441C     		adds	r4, r0, #1
 2225 0044 094B     		ldr	r3, .L220+4
 2226 0046 1C60     		str	r4, [r3]
 2227 0048 FFF7FEFF 		bl	Peek2
 2228              	.LVL282:
 381:TinyBasic.c   ****   if (here==0) TBerror();               /* ran off the end, error off */
 2229              		.loc 1 381 0
 2230 004c 10B9     		cbnz	r0, .L217
 2231              		.loc 1 381 0 is_stmt 0 discriminator 1
 2232 004e FFF7FEFF 		bl	TBerror
 2233              	.LVL283:
 2234 0052 38BD     		pop	{r3, r4, r5, pc}
 2235              	.LVL284:
 2236              	.L217:
 382:TinyBasic.c   ****   else if (Lino != here) TBerror();                      /* not there */
 2237              		.loc 1 382 0 is_stmt 1
 2238 0054 8542     		cmp	r5, r0
 2239 0056 02D0     		beq	.L218
 2240              		.loc 1 382 0 is_stmt 0 discriminator 1
 2241 0058 FFF7FEFF 		bl	TBerror
 2242              	.LVL285:
 2243 005c 38BD     		pop	{r3, r4, r5, pc}
 2244              	.LVL286:
 2245              	.L218:
 383:TinyBasic.c   ****     else BP++;} /* ~GoToLino */                             /* got it */
 2246              		.loc 1 383 0 is_stmt 1
 2247 005e 0134     		adds	r4, r4, #1
 2248 0060 024B     		ldr	r3, .L220+4
 2249 0062 1C60     		str	r4, [r3]
 2250 0064 38BD     		pop	{r3, r4, r5, pc}
 2251              	.L221:
 2252 0066 00BF     		.align	2
 2253              	.L220:
 2254 0068 00000000 		.word	Lino
 2255 006c 00000000 		.word	BP
 2256 0070 00000000 		.word	.LANCHOR0
 2257 0074 AC000000 		.word	.LC23
 2258 0078 10000000 		.word	.LC3
 2259              		.cfi_endproc
 2260              	.LFE30:
 2261              		.size	GoToLino, .-GoToLino
 2262              		.section	.text.ListIt,"ax",%progbits
 2263              		.align	2
 2264              		.global	ListIt
 2265              		.thumb
 2266              		.thumb_func
 2267              		.type	ListIt, %function
 2268              	ListIt:
 2269              	.LFB31:
ARM GAS  C:\Users\Doug\AppData\Local\Temp\cccAx5kS.s 			page 60


 384:TinyBasic.c   **** 
 385:TinyBasic.c   **** void ListIt(int frm, int too) {            /* list the stored program */
 2270              		.loc 1 385 0
 2271              		.cfi_startproc
 2272              		@ args = 0, pretend = 0, frame = 0
 2273              		@ frame_needed = 0, uses_anonymous_args = 0
 2274              	.LVL287:
 2275 0000 F8B5     		push	{r3, r4, r5, r6, r7, lr}
 2276              		.cfi_def_cfa_offset 24
 2277              		.cfi_offset 3, -24
 2278              		.cfi_offset 4, -20
 2279              		.cfi_offset 5, -16
 2280              		.cfi_offset 6, -12
 2281              		.cfi_offset 7, -8
 2282              		.cfi_offset 14, -4
 386:TinyBasic.c   ****   char ch;
 387:TinyBasic.c   ****   int here;
 388:TinyBasic.c   ****   if (frm==0) {           /* 0,0 defaults to all; n,0 defaults to n,n */
 2283              		.loc 1 388 0
 2284 0002 18B1     		cbz	r0, .L228
 2285 0004 0F46     		mov	r7, r1
 2286 0006 0346     		mov	r3, r0
 389:TinyBasic.c   ****     too = 65535;
 390:TinyBasic.c   ****     frm = 1;}
 391:TinyBasic.c   ****   else if (too==0) too = frm;
 2287              		.loc 1 391 0
 2288 0008 21B1     		cbz	r1, .L229
 2289 000a 04E0     		b	.L223
 2290              	.L228:
 389:TinyBasic.c   ****     too = 65535;
 2291              		.loc 1 389 0
 2292 000c 4FF6FF77 		movw	r7, #65535
 390:TinyBasic.c   ****   else if (too==0) too = frm;
 2293              		.loc 1 390 0
 2294 0010 0123     		movs	r3, #1
 2295 0012 00E0     		b	.L223
 2296              	.L229:
 2297              		.loc 1 391 0
 2298 0014 0746     		mov	r7, r0
 2299              	.L223:
 2300              	.LVL288:
 392:TinyBasic.c   ****   here = FindLine(frm);                   /* try to find first line.. */
 2301              		.loc 1 392 0
 2302 0016 1846     		mov	r0, r3
 2303 0018 FFF7FEFF 		bl	FindLine
 2304              	.LVL289:
 2305 001c 0646     		mov	r6, r0
 2306              	.LVL290:
 393:TinyBasic.c   ****   while (!StopIt()) {
 2307              		.loc 1 393 0
 2308 001e 14E0     		b	.L224
 2309              	.LVL291:
 2310              	.L227:
 394:TinyBasic.c   ****     frm = Peek2(here++);             /* get this line's # to print it */
 2311              		.loc 1 394 0
 2312 0020 3046     		mov	r0, r6
 2313 0022 FFF7FEFF 		bl	Peek2
ARM GAS  C:\Users\Doug\AppData\Local\Temp\cccAx5kS.s 			page 61


 2314              	.LVL292:
 395:TinyBasic.c   ****     if (frm>too || frm==0) break;
 2315              		.loc 1 395 0
 2316 0026 8742     		cmp	r7, r0
 2317 0028 13DB     		blt	.L222
 2318              		.loc 1 395 0 is_stmt 0 discriminator 1
 2319 002a 90B1     		cbz	r0, .L222
 396:TinyBasic.c   ****     here++;
 2320              		.loc 1 396 0 is_stmt 1
 2321 002c B41C     		adds	r4, r6, #2
 2322              	.LVL293:
 397:TinyBasic.c   ****     OutInt(frm);
 2323              		.loc 1 397 0
 2324 002e FFF7FEFF 		bl	OutInt
 2325              	.LVL294:
 398:TinyBasic.c   ****     Ouch(' ');
 2326              		.loc 1 398 0
 2327 0032 2020     		movs	r0, #32
 2328 0034 FFF7FEFF 		bl	Ouch
 2329              	.LVL295:
 2330              	.L226:
 399:TinyBasic.c   ****     do {                                            /* print the text */
 400:TinyBasic.c   ****       ch = (char)Core[here++];
 2331              		.loc 1 400 0 discriminator 1
 2332 0038 661C     		adds	r6, r4, #1
 2333              	.LVL296:
 2334 003a 064B     		ldr	r3, .L231
 2335 003c 1D5D     		ldrb	r5, [r3, r4]	@ zero_extendqisi2
 2336              	.LVL297:
 401:TinyBasic.c   ****       Ouch(ch);}
 2337              		.loc 1 401 0 discriminator 1
 2338 003e 2846     		mov	r0, r5
 2339 0040 FFF7FEFF 		bl	Ouch
 2340              	.LVL298:
 400:TinyBasic.c   ****       Ouch(ch);}
 2341              		.loc 1 400 0 discriminator 1
 2342 0044 3446     		mov	r4, r6
 402:TinyBasic.c   ****       while (ch>'\r');}} /* ~ListIt */
 2343              		.loc 1 402 0 discriminator 1
 2344 0046 0D2D     		cmp	r5, #13
 2345 0048 F6D8     		bhi	.L226
 2346              	.LVL299:
 2347              	.L224:
 393:TinyBasic.c   ****     frm = Peek2(here++);             /* get this line's # to print it */
 2348              		.loc 1 393 0
 2349 004a FFF7FEFF 		bl	StopIt
 2350              	.LVL300:
 2351 004e 0028     		cmp	r0, #0
 2352 0050 E6D0     		beq	.L227
 2353              	.LVL301:
 2354              	.L222:
 2355 0052 F8BD     		pop	{r3, r4, r5, r6, r7, pc}
 2356              	.LVL302:
 2357              	.L232:
 2358              		.align	2
 2359              	.L231:
 2360 0054 00000000 		.word	Core
ARM GAS  C:\Users\Doug\AppData\Local\Temp\cccAx5kS.s 			page 62


 2361              		.cfi_endproc
 2362              	.LFE31:
 2363              		.size	ListIt, .-ListIt
 2364              		.section	.text.ConvtIL,"ax",%progbits
 2365              		.align	2
 2366              		.global	ConvtIL
 2367              		.thumb
 2368              		.thumb_func
 2369              		.type	ConvtIL, %function
 2370              	ConvtIL:
 2371              	.LFB32:
 403:TinyBasic.c   **** 
 404:TinyBasic.c   **** void ConvtIL(char* txt) {                 /* convert & load TBIL code */
 2372              		.loc 1 404 0
 2373              		.cfi_startproc
 2374              		@ args = 0, pretend = 0, frame = 0
 2375              		@ frame_needed = 0, uses_anonymous_args = 0
 2376              	.LVL303:
 2377 0000 38B5     		push	{r3, r4, r5, lr}
 2378              		.cfi_def_cfa_offset 16
 2379              		.cfi_offset 3, -16
 2380              		.cfi_offset 4, -12
 2381              		.cfi_offset 5, -8
 2382              		.cfi_offset 14, -4
 2383 0002 0546     		mov	r5, r0
 405:TinyBasic.c   ****   int valu;
 406:TinyBasic.c   ****   ILend = ILfront+2;
 2384              		.loc 1 406 0
 2385 0004 1C4C     		ldr	r4, .L243
 2386 0006 4FF49071 		mov	r1, #288
 2387 000a 2160     		str	r1, [r4]
 407:TinyBasic.c   ****   Poke2(ILfront,ILend);    /* initialize pointers as promised in TBEK */
 2388              		.loc 1 407 0
 2389 000c 4FF48F70 		mov	r0, #286
 2390              	.LVL304:
 2391 0010 FFF7FEFF 		bl	Poke2
 2392              	.LVL305:
 408:TinyBasic.c   ****   Poke2(ColdGo+1,ILend);
 2393              		.loc 1 408 0
 2394 0014 2168     		ldr	r1, [r4]
 2395 0016 40F20110 		movw	r0, #257
 2396 001a FFF7FEFF 		bl	Poke2
 2397              	.LVL306:
 409:TinyBasic.c   ****   Core[ILend] = (aByte)BadOp;   /* illegal op, in case nothing loaded */
 2398              		.loc 1 409 0
 2399 001e 2368     		ldr	r3, [r4]
 2400 0020 0F21     		movs	r1, #15
 2401 0022 164A     		ldr	r2, .L243+4
 2402 0024 D154     		strb	r1, [r2, r3]
 410:TinyBasic.c   ****   if (txt == NULL) return;
 2403              		.loc 1 410 0
 2404 0026 E5B9     		cbnz	r5, .L235
 2405 0028 38BD     		pop	{r3, r4, r5, pc}
 2406              	.LVL307:
 2407              	.L236:
 411:TinyBasic.c   ****   while (*txt != '\0') {                            /* get the data.. */
 412:TinyBasic.c   ****     while (*txt > '\r') txt++;               /* (no code on 1st line) */
ARM GAS  C:\Users\Doug\AppData\Local\Temp\cccAx5kS.s 			page 63


 2408              		.loc 1 412 0 discriminator 2
 2409 002a 0135     		adds	r5, r5, #1
 2410              	.LVL308:
 2411              	.L241:
 2412              		.loc 1 412 0 is_stmt 0 discriminator 1
 2413 002c 2B78     		ldrb	r3, [r5]	@ zero_extendqisi2
 2414 002e 0D2B     		cmp	r3, #13
 2415 0030 FBD8     		bhi	.L236
 413:TinyBasic.c   ****     if (*txt++ == '\0') break;                      /* no code at all */
 2416              		.loc 1 413 0 is_stmt 1
 2417 0032 6C1C     		adds	r4, r5, #1
 2418              	.LVL309:
 2419 0034 0BB9     		cbnz	r3, .L238
 2420 0036 17E0     		b	.L237
 2421              	.L239:
 414:TinyBasic.c   ****     while (*txt > ' ') txt++;                    /* skip over address */
 2422              		.loc 1 414 0 discriminator 2
 2423 0038 0134     		adds	r4, r4, #1
 2424              	.LVL310:
 2425              	.L238:
 2426              		.loc 1 414 0 is_stmt 0 discriminator 1
 2427 003a 2378     		ldrb	r3, [r4]	@ zero_extendqisi2
 2428 003c 202B     		cmp	r3, #32
 2429 003e FBD8     		bhi	.L239
 415:TinyBasic.c   ****     if (*txt++ == '\0') break;
 2430              		.loc 1 415 0 is_stmt 1
 2431 0040 0134     		adds	r4, r4, #1
 2432              	.LVL311:
 2433 0042 8BB1     		cbz	r3, .L237
 2434              	.L240:
 416:TinyBasic.c   ****     while (true) {
 417:TinyBasic.c   ****       valu = DeHex(txt++, 2);                           /* get a byte */
 2435              		.loc 1 417 0
 2436 0044 651C     		adds	r5, r4, #1
 2437              	.LVL312:
 2438 0046 0221     		movs	r1, #2
 2439 0048 2046     		mov	r0, r4
 2440 004a FFF7FEFF 		bl	DeHex
 2441              	.LVL313:
 418:TinyBasic.c   ****       if (valu<0) break;                      /* no more on this line */
 2442              		.loc 1 418 0
 2443 004e 0028     		cmp	r0, #0
 2444 0050 07DB     		blt	.L235
 419:TinyBasic.c   ****       Core[ILend++] = (aByte)valu;      /* insert this byte into code */
 2445              		.loc 1 419 0
 2446 0052 094A     		ldr	r2, .L243
 2447 0054 1368     		ldr	r3, [r2]
 2448 0056 591C     		adds	r1, r3, #1
 2449 0058 1160     		str	r1, [r2]
 2450 005a 084A     		ldr	r2, .L243+4
 2451 005c D054     		strb	r0, [r2, r3]
 420:TinyBasic.c   ****       txt++;}}
 2452              		.loc 1 420 0
 2453 005e 0234     		adds	r4, r4, #2
 2454              	.LVL314:
 2455 0060 F0E7     		b	.L240
 2456              	.LVL315:
ARM GAS  C:\Users\Doug\AppData\Local\Temp\cccAx5kS.s 			page 64


 2457              	.L235:
 411:TinyBasic.c   ****     while (*txt > '\r') txt++;               /* (no code on 1st line) */
 2458              		.loc 1 411 0
 2459 0062 2B78     		ldrb	r3, [r5]	@ zero_extendqisi2
 2460 0064 002B     		cmp	r3, #0
 2461 0066 E1D1     		bne	.L241
 2462              	.LVL316:
 2463              	.L237:
 421:TinyBasic.c   ****   XQhere = 0;                        /* requires new XQ to initialize */
 2464              		.loc 1 421 0
 2465 0068 0023     		movs	r3, #0
 2466 006a 054A     		ldr	r2, .L243+8
 2467 006c 1360     		str	r3, [r2]
 422:TinyBasic.c   ****   Core[ILend] = 0;} /* ~ConvtIL */
 2468              		.loc 1 422 0
 2469 006e 024A     		ldr	r2, .L243
 2470 0070 1268     		ldr	r2, [r2]
 2471 0072 0249     		ldr	r1, .L243+4
 2472 0074 8B54     		strb	r3, [r1, r2]
 2473 0076 38BD     		pop	{r3, r4, r5, pc}
 2474              	.L244:
 2475              		.align	2
 2476              	.L243:
 2477 0078 00000000 		.word	ILend
 2478 007c 00000000 		.word	Core
 2479 0080 00000000 		.word	XQhere
 2480              		.cfi_endproc
 2481              	.LFE32:
 2482              		.size	ConvtIL, .-ConvtIL
 2483              		.section	.text.LineSwap,"ax",%progbits
 2484              		.align	2
 2485              		.global	LineSwap
 2486              		.thumb
 2487              		.thumb_func
 2488              		.type	LineSwap, %function
 2489              	LineSwap:
 2490              	.LFB33:
 423:TinyBasic.c   **** 
 424:TinyBasic.c   **** void LineSwap(int here) {   /* swap SvPt/BP if here is not in InLine  */
 2491              		.loc 1 424 0
 2492              		.cfi_startproc
 2493              		@ args = 0, pretend = 0, frame = 0
 2494              		@ frame_needed = 0, uses_anonymous_args = 0
 2495              		@ link register save eliminated.
 2496              	.LVL317:
 425:TinyBasic.c   ****   if (here<InLine || here>=InLend) {
 2497              		.loc 1 425 0
 2498 0000 2F28     		cmp	r0, #47
 2499 0002 03DD     		ble	.L246
 2500              		.loc 1 425 0 is_stmt 0 discriminator 1
 2501 0004 074B     		ldr	r3, .L249
 2502 0006 1B68     		ldr	r3, [r3]
 2503 0008 9842     		cmp	r0, r3
 2504 000a 06DB     		blt	.L247
 2505              	.L246:
 426:TinyBasic.c   ****     here = SvPt;
 2506              		.loc 1 426 0 is_stmt 1
ARM GAS  C:\Users\Doug\AppData\Local\Temp\cccAx5kS.s 			page 65


 2507 000c 064A     		ldr	r2, .L249+4
 2508 000e 1168     		ldr	r1, [r2]
 2509              	.LVL318:
 427:TinyBasic.c   ****     SvPt = BP;
 2510              		.loc 1 427 0
 2511 0010 064B     		ldr	r3, .L249+8
 2512 0012 1868     		ldr	r0, [r3]
 2513 0014 1060     		str	r0, [r2]
 428:TinyBasic.c   ****     BP = here;}
 2514              		.loc 1 428 0
 2515 0016 1960     		str	r1, [r3]
 2516 0018 7047     		bx	lr
 2517              	.LVL319:
 2518              	.L247:
 429:TinyBasic.c   ****   else SvPt = BP;} /* ~LineSwap */
 2519              		.loc 1 429 0
 2520 001a 044B     		ldr	r3, .L249+8
 2521 001c 1A68     		ldr	r2, [r3]
 2522 001e 024B     		ldr	r3, .L249+4
 2523 0020 1A60     		str	r2, [r3]
 2524 0022 7047     		bx	lr
 2525              	.L250:
 2526              		.align	2
 2527              	.L249:
 2528 0024 00000000 		.word	InLend
 2529 0028 00000000 		.word	SvPt
 2530 002c 00000000 		.word	BP
 2531              		.cfi_endproc
 2532              	.LFE33:
 2533              		.size	LineSwap, .-LineSwap
 2534              		.section	.text.Interp,"ax",%progbits
 2535              		.align	2
 2536              		.global	Interp
 2537              		.thumb
 2538              		.thumb_func
 2539              		.type	Interp, %function
 2540              	Interp:
 2541              	.LFB34:
 430:TinyBasic.c   **** 
 431:TinyBasic.c   **** /************************** Main Interpreter **************************/
 432:TinyBasic.c   **** 
 433:TinyBasic.c   **** void Interp(void) {
 2542              		.loc 1 433 0
 2543              		.cfi_startproc
 2544              		@ args = 0, pretend = 0, frame = 0
 2545              		@ frame_needed = 0, uses_anonymous_args = 0
 2546 0000 2DE9F041 		push	{r4, r5, r6, r7, r8, lr}
 2547              		.cfi_def_cfa_offset 24
 2548              		.cfi_offset 4, -24
 2549              		.cfi_offset 5, -20
 2550              		.cfi_offset 6, -16
 2551              		.cfi_offset 7, -12
 2552              		.cfi_offset 8, -8
 2553              		.cfi_offset 14, -4
 434:TinyBasic.c   ****   char ch;    /* comments from TinyBasic Experimenter's Kit, pp.15-21 */
 435:TinyBasic.c   ****   int op, ix, here, chpt;                                    /* temps */
 436:TinyBasic.c   ****   Broken = false;          /* initialize this for possible later test */
ARM GAS  C:\Users\Doug\AppData\Local\Temp\cccAx5kS.s 			page 66


 2554              		.loc 1 436 0
 2555 0004 0022     		movs	r2, #0
 2556 0006 B94B     		ldr	r3, .L392
 2557 0008 9A60     		str	r2, [r3, #8]
 2558              	.L252:
 437:TinyBasic.c   ****   while (true) {
 438:TinyBasic.c   ****     if (StopIt()) {
 2559              		.loc 1 438 0
 2560 000a FFF7FEFF 		bl	StopIt
 2561              	.LVL320:
 2562 000e 48B1     		cbz	r0, .L254
 439:TinyBasic.c   ****       Broken = false;
 2563              		.loc 1 439 0
 2564 0010 0022     		movs	r2, #0
 2565 0012 B64B     		ldr	r3, .L392
 2566 0014 9A60     		str	r2, [r3, #8]
 440:TinyBasic.c   ****       OutLn();
 2567              		.loc 1 440 0
 2568 0016 FFF7FEFF 		bl	OutLn
 2569              	.LVL321:
 441:TinyBasic.c   ****       OutStr("*** User Break ***");
 2570              		.loc 1 441 0
 2571 001a B548     		ldr	r0, .L392+4
 2572 001c FFF7FEFF 		bl	OutStr
 2573              	.LVL322:
 442:TinyBasic.c   ****       TBerror();}
 2574              		.loc 1 442 0
 2575 0020 FFF7FEFF 		bl	TBerror
 2576              	.LVL323:
 2577              	.L254:
 443:TinyBasic.c   ****     if (ILPC==0) {
 2578              		.loc 1 443 0
 2579 0024 B34B     		ldr	r3, .L392+8
 2580 0026 1B68     		ldr	r3, [r3]
 2581 0028 CBB9     		cbnz	r3, .L255
 444:TinyBasic.c   ****       ILPC = Peek2(ILfront);
 2582              		.loc 1 444 0
 2583 002a 4FF48F70 		mov	r0, #286
 2584 002e FFF7FEFF 		bl	Peek2
 2585              	.LVL324:
 2586 0032 B04B     		ldr	r3, .L392+8
 2587 0034 1860     		str	r0, [r3]
 445:TinyBasic.c   ****       if (DEBUGON>0) LogIt(-ILPC);
 2588              		.loc 1 445 0
 2589 0036 4042     		negs	r0, r0
 2590 0038 FFF7FEFF 		bl	LogIt
 2591              	.LVL325:
 446:TinyBasic.c   ****       if (Debugging>0) {
 2592              		.loc 1 446 0
 2593 003c AB4B     		ldr	r3, .L392
 2594 003e 1B69     		ldr	r3, [r3, #16]
 2595 0040 002B     		cmp	r3, #0
 2596 0042 0CDD     		ble	.L255
 447:TinyBasic.c   ****         OutLn(); OutStr("[IL="); OutHex(ILPC,4); OutStr("]");}}
 2597              		.loc 1 447 0
 2598 0044 FFF7FEFF 		bl	OutLn
 2599              	.LVL326:
ARM GAS  C:\Users\Doug\AppData\Local\Temp\cccAx5kS.s 			page 67


 2600 0048 AB48     		ldr	r0, .L392+12
 2601 004a FFF7FEFF 		bl	OutStr
 2602              	.LVL327:
 2603 004e 0421     		movs	r1, #4
 2604 0050 A84B     		ldr	r3, .L392+8
 2605 0052 1868     		ldr	r0, [r3]
 2606 0054 FFF7FEFF 		bl	OutHex
 2607              	.LVL328:
 2608 0058 A848     		ldr	r0, .L392+16
 2609 005a FFF7FEFF 		bl	OutStr
 2610              	.LVL329:
 2611              	.L255:
 448:TinyBasic.c   ****     if (DEBUGON>0) if (Watcher>0) {             /* check watchpoint.. */
 2612              		.loc 1 448 0 discriminator 1
 2613 005e A34B     		ldr	r3, .L392
 2614 0060 5A69     		ldr	r2, [r3, #20]
 2615 0062 002A     		cmp	r2, #0
 2616 0064 29DD     		ble	.L256
 449:TinyBasic.c   ****       if (((Watchee<0) && (Watchee+256+(int)Core[Watcher]) !=0)
 2617              		.loc 1 449 0
 2618 0066 A64B     		ldr	r3, .L392+20
 2619 0068 1B68     		ldr	r3, [r3]
 2620 006a 002B     		cmp	r3, #0
 2621 006c 05DA     		bge	.L257
 2622              		.loc 1 449 0 is_stmt 0 discriminator 1
 2623 006e 03F58071 		add	r1, r3, #256
 2624 0072 A448     		ldr	r0, .L392+24
 2625 0074 805C     		ldrb	r0, [r0, r2]	@ zero_extendqisi2
 2626 0076 C142     		cmn	r1, r0
 2627 0078 05D1     		bne	.L258
 2628              	.L257:
 450:TinyBasic.c   ****           || ((Watchee >= 0) && (Watchee==(int)Core[Watcher]))) {
 2629              		.loc 1 450 0 is_stmt 1
 2630 007a 002B     		cmp	r3, #0
 2631 007c 1DDB     		blt	.L256
 2632              		.loc 1 450 0 is_stmt 0 discriminator 1
 2633 007e A149     		ldr	r1, .L392+24
 2634 0080 8A5C     		ldrb	r2, [r1, r2]	@ zero_extendqisi2
 2635 0082 9342     		cmp	r3, r2
 2636 0084 19D1     		bne	.L256
 2637              	.L258:
 451:TinyBasic.c   ****         OutLn();
 2638              		.loc 1 451 0 is_stmt 1
 2639 0086 FFF7FEFF 		bl	OutLn
 2640              	.LVL330:
 452:TinyBasic.c   ****         OutStr("*** Watched ");
 2641              		.loc 1 452 0
 2642 008a 9F48     		ldr	r0, .L392+28
 2643 008c FFF7FEFF 		bl	OutStr
 2644              	.LVL331:
 453:TinyBasic.c   ****         OutHex(Watcher,4);
 2645              		.loc 1 453 0
 2646 0090 964C     		ldr	r4, .L392
 2647 0092 0421     		movs	r1, #4
 2648 0094 6069     		ldr	r0, [r4, #20]
 2649 0096 FFF7FEFF 		bl	OutHex
 2650              	.LVL332:
ARM GAS  C:\Users\Doug\AppData\Local\Temp\cccAx5kS.s 			page 68


 454:TinyBasic.c   ****         OutStr(" = ");
 2651              		.loc 1 454 0
 2652 009a 9C48     		ldr	r0, .L392+32
 2653 009c FFF7FEFF 		bl	OutStr
 2654              	.LVL333:
 455:TinyBasic.c   ****         OutInt((int)Core[Watcher]);
 2655              		.loc 1 455 0
 2656 00a0 6369     		ldr	r3, [r4, #20]
 2657 00a2 984A     		ldr	r2, .L392+24
 2658 00a4 D05C     		ldrb	r0, [r2, r3]	@ zero_extendqisi2
 2659 00a6 FFF7FEFF 		bl	OutInt
 2660              	.LVL334:
 456:TinyBasic.c   ****         OutStr(" *** ");
 2661              		.loc 1 456 0
 2662 00aa 9948     		ldr	r0, .L392+36
 2663 00ac FFF7FEFF 		bl	OutStr
 2664              	.LVL335:
 457:TinyBasic.c   ****         Watcher = 0;
 2665              		.loc 1 457 0
 2666 00b0 0023     		movs	r3, #0
 2667 00b2 6361     		str	r3, [r4, #20]
 458:TinyBasic.c   ****         TBerror();
 2668              		.loc 1 458 0
 2669 00b4 FFF7FEFF 		bl	TBerror
 2670              	.LVL336:
 459:TinyBasic.c   ****         continue;}}
 2671              		.loc 1 459 0
 2672 00b8 A7E7     		b	.L252
 2673              	.L256:
 460:TinyBasic.c   ****     op = (int)Core[ILPC++];
 2674              		.loc 1 460 0
 2675 00ba 8E4A     		ldr	r2, .L392+8
 2676 00bc 1368     		ldr	r3, [r2]
 2677 00be 591C     		adds	r1, r3, #1
 2678 00c0 1160     		str	r1, [r2]
 2679 00c2 904A     		ldr	r2, .L392+24
 2680 00c4 D45C     		ldrb	r4, [r2, r3]	@ zero_extendqisi2
 2681              	.LVL337:
 461:TinyBasic.c   ****       if (Debugging>0) {
 2682              		.loc 1 461 0
 2683 00c6 894B     		ldr	r3, .L392
 2684 00c8 1B69     		ldr	r3, [r3, #16]
 2685 00ca 002B     		cmp	r3, #0
 2686 00cc 19DD     		ble	.L259
 462:TinyBasic.c   ****         OutLn(); OutStr("[IL+"); OutHex(ILPC-Peek2(ILfront)-1,3);
 2687              		.loc 1 462 0
 2688 00ce FFF7FEFF 		bl	OutLn
 2689              	.LVL338:
 2690 00d2 9048     		ldr	r0, .L392+40
 2691 00d4 FFF7FEFF 		bl	OutStr
 2692              	.LVL339:
 2693 00d8 864B     		ldr	r3, .L392+8
 2694 00da 1D68     		ldr	r5, [r3]
 2695 00dc 4FF48F70 		mov	r0, #286
 2696 00e0 FFF7FEFF 		bl	Peek2
 2697              	.LVL340:
 2698 00e4 281A     		subs	r0, r5, r0
ARM GAS  C:\Users\Doug\AppData\Local\Temp\cccAx5kS.s 			page 69


 2699 00e6 0321     		movs	r1, #3
 2700 00e8 0138     		subs	r0, r0, #1
 2701 00ea FFF7FEFF 		bl	OutHex
 2702              	.LVL341:
 463:TinyBasic.c   ****         OutStr("="); OutHex(op,2); OutStr("]");}
 2703              		.loc 1 463 0
 2704 00ee 8A48     		ldr	r0, .L392+44
 2705 00f0 FFF7FEFF 		bl	OutStr
 2706              	.LVL342:
 2707 00f4 0221     		movs	r1, #2
 2708 00f6 2046     		mov	r0, r4
 2709 00f8 FFF7FEFF 		bl	OutHex
 2710              	.LVL343:
 2711 00fc 7F48     		ldr	r0, .L392+16
 2712 00fe FFF7FEFF 		bl	OutStr
 2713              	.LVL344:
 2714              	.L259:
 464:TinyBasic.c   ****     switch (op>>5) {
 2715              		.loc 1 464 0
 2716 0102 6311     		asrs	r3, r4, #5
 2717 0104 023B     		subs	r3, r3, #2
 2718 0106 052B     		cmp	r3, #5
 2719 0108 07D8     		bhi	.L260
 2720 010a DFE813F0 		tbh	[pc, r3, lsl #1]
 2721              	.L262:
 2722 010e AC04     		.2byte	(.L261-.L262)/2
 2723 0110 AC04     		.2byte	(.L261-.L262)/2
 2724 0112 B704     		.2byte	(.L263-.L262)/2
 2725 0114 F504     		.2byte	(.L264-.L262)/2
 2726 0116 2505     		.2byte	(.L265-.L262)/2
 2727 0118 7705     		.2byte	(.L266-.L262)/2
 2728              		.p2align 1
 2729              	.L260:
 465:TinyBasic.c   ****     default: switch (op) {
 2730              		.loc 1 465 0
 2731 011a 631E     		subs	r3, r4, #1
 2732 011c 3E2B     		cmp	r3, #62
 2733 011e 3FF674AF 		bhi	.L252
 2734 0122 01A2     		adr	r2, .L268
 2735 0124 52F823F0 		ldr	pc, [r2, r3, lsl #2]
 2736              		.p2align 2
 2737              	.L268:
 2738 0128 2D020000 		.word	.L267+1
 2739 012c 2D020000 		.word	.L267+1
 2740 0130 2D020000 		.word	.L267+1
 2741 0134 2D020000 		.word	.L267+1
 2742 0138 2D020000 		.word	.L267+1
 2743 013c 2D020000 		.word	.L267+1
 2744 0140 2D020000 		.word	.L267+1
 2745 0144 0B000000 		.word	.L252+1
 2746 0148 59020000 		.word	.L269+1
 2747 014c 6B020000 		.word	.L270+1
 2748 0150 83020000 		.word	.L271+1
 2749 0154 9F020000 		.word	.L272+1
 2750 0158 0B000000 		.word	.L252+1
 2751 015c 0B000000 		.word	.L252+1
 2752 0160 25020000 		.word	.L273+1
ARM GAS  C:\Users\Doug\AppData\Local\Temp\cccAx5kS.s 			page 70


 2753 0164 B3020000 		.word	.L274+1
 2754 0168 BD020000 		.word	.L275+1
 2755 016c C7020000 		.word	.L276+1
 2756 0170 29030000 		.word	.L277+1
 2757 0174 73030000 		.word	.L278+1
 2758 0178 7D030000 		.word	.L279+1
 2759 017c 95030000 		.word	.L280+1
 2760 0180 B9030000 		.word	.L281+1
 2761 0184 CF030000 		.word	.L282+1
 2762 0188 EB030000 		.word	.L283+1
 2763 018c 07040000 		.word	.L284+1
 2764 0190 25040000 		.word	.L285+1
 2765 0194 4B040000 		.word	.L286+1
 2766 0198 91040000 		.word	.L287+1
 2767 019c 0B000000 		.word	.L252+1
 2768 01a0 03050000 		.word	.L382+1
 2769 01a4 25050000 		.word	.L289+1
 2770 01a8 39050000 		.word	.L290+1
 2771 01ac 5B050000 		.word	.L291+1
 2772 01b0 6F050000 		.word	.L292+1
 2773 01b4 77050000 		.word	.L293+1
 2774 01b8 0B000000 		.word	.L252+1
 2775 01bc 0B000000 		.word	.L252+1
 2776 01c0 93050000 		.word	.L294+1
 2777 01c4 0B000000 		.word	.L252+1
 2778 01c8 0B000000 		.word	.L252+1
 2779 01cc 69060000 		.word	.L295+1
 2780 01d0 6D070000 		.word	.L296+1
 2781 01d4 8B070000 		.word	.L297+1
 2782 01d8 D3070000 		.word	.L298+1
 2783 01dc E7070000 		.word	.L299+1
 2784 01e0 D5090000 		.word	.L300+1
 2785 01e4 0F0A0000 		.word	.L301+1
 2786 01e8 0F0A0000 		.word	.L301+1
 2787 01ec 0F0A0000 		.word	.L301+1
 2788 01f0 0F0A0000 		.word	.L301+1
 2789 01f4 0F0A0000 		.word	.L301+1
 2790 01f8 0F0A0000 		.word	.L301+1
 2791 01fc 0F0A0000 		.word	.L301+1
 2792 0200 0F0A0000 		.word	.L301+1
 2793 0204 430A0000 		.word	.L302+1
 2794 0208 430A0000 		.word	.L302+1
 2795 020c 430A0000 		.word	.L302+1
 2796 0210 430A0000 		.word	.L302+1
 2797 0214 430A0000 		.word	.L302+1
 2798 0218 430A0000 		.word	.L302+1
 2799 021c 430A0000 		.word	.L302+1
 2800 0220 430A0000 		.word	.L302+1
 2801              		.p2align 1
 2802              	.L273:
 466:TinyBasic.c   ****       case 15:
 467:TinyBasic.c   ****         TBerror();
 2803              		.loc 1 467 0
 2804 0224 FFF7FEFF 		bl	TBerror
 2805              	.LVL345:
 468:TinyBasic.c   ****         return;
 2806              		.loc 1 468 0
ARM GAS  C:\Users\Doug\AppData\Local\Temp\cccAx5kS.s 			page 71


 2807 0228 BDE8F081 		pop	{r4, r5, r6, r7, r8, pc}
 2808              	.LVL346:
 2809              	.L267:
 469:TinyBasic.c   **** 
 470:TinyBasic.c   **** /* SX n    00-07   Stack Exchange. */
 471:TinyBasic.c   **** /*                 Exchange the top byte of computational stack with  */
 472:TinyBasic.c   **** /* that "n" bytes into the stack. The top/left byte of the stack is   */
 473:TinyBasic.c   **** /* considered to be byte 0, so SX 0 does nothing.                     */
 474:TinyBasic.c   ****       case 1: case 2: case 3: case 4: case 5: case 6: case 7:
 475:TinyBasic.c   ****         if (ExpnTop+op>=ExpnStk) {       /* swap is below stack depth */
 2810              		.loc 1 475 0
 2811 022c 3B4B     		ldr	r3, .L392+48
 2812 022e 1A68     		ldr	r2, [r3]
 2813 0230 1444     		add	r4, r4, r2
 2814              	.LVL347:
 2815 0232 7F2C     		cmp	r4, #127
 2816 0234 03DD     		ble	.L304
 476:TinyBasic.c   ****           TBerror();
 2817              		.loc 1 476 0
 2818 0236 FFF7FEFF 		bl	TBerror
 2819              	.LVL348:
 477:TinyBasic.c   ****           return;}
 2820              		.loc 1 477 0
 2821 023a BDE8F081 		pop	{r4, r5, r6, r7, r8, pc}
 2822              	.L304:
 478:TinyBasic.c   ****         ix = (int)Core[ExpnTop];
 2823              		.loc 1 478 0
 2824 023e 314B     		ldr	r3, .L392+24
 2825 0240 995C     		ldrb	r1, [r3, r2]	@ zero_extendqisi2
 2826              	.LVL349:
 479:TinyBasic.c   ****         Core[ExpnTop] = Core[ExpnTop+op];
 2827              		.loc 1 479 0
 2828 0242 185D     		ldrb	r0, [r3, r4]	@ zero_extendqisi2
 2829 0244 9854     		strb	r0, [r3, r2]
 480:TinyBasic.c   ****         Core[ExpnTop+op] = (aByte)ix;
 2830              		.loc 1 480 0
 2831 0246 1955     		strb	r1, [r3, r4]
 481:TinyBasic.c   ****         if (Debugging>0) ShowExSt();
 2832              		.loc 1 481 0
 2833 0248 284B     		ldr	r3, .L392
 2834 024a 1B69     		ldr	r3, [r3, #16]
 2835 024c 002B     		cmp	r3, #0
 2836 024e 7FF7DCAE 		ble	.L252
 2837              		.loc 1 481 0 is_stmt 0 discriminator 1
 2838 0252 FFF7FEFF 		bl	ShowExSt
 2839              	.LVL350:
 2840 0256 D8E6     		b	.L252
 2841              	.LVL351:
 2842              	.L269:
 482:TinyBasic.c   ****         break;
 483:TinyBasic.c   **** 
 484:TinyBasic.c   **** /* LB n    09nn    Push Literal Byte onto Stack.                      */
 485:TinyBasic.c   **** /*                 This adds one byte to the expression stack, which  */
 486:TinyBasic.c   **** /* is the second byte of the instruction. An error stop will occur if */
 487:TinyBasic.c   **** /* the stack overflows. */
 488:TinyBasic.c   ****       case 9:
 489:TinyBasic.c   ****         PushExBy((int)Core[ILPC++]);                  /* push IL byte */
ARM GAS  C:\Users\Doug\AppData\Local\Temp\cccAx5kS.s 			page 72


 2843              		.loc 1 489 0 is_stmt 1
 2844 0258 264A     		ldr	r2, .L392+8
