ARM GAS  C:\Users\doug_000\AppData\Local\Temp\cc3sq1iF.s 			page 1


   1              		.syntax unified
   2              		.cpu cortex-m3
   3              		.fpu softvfp
   4              		.eabi_attribute 20, 1
   5              		.eabi_attribute 21, 1
   6              		.eabi_attribute 23, 3
   7              		.eabi_attribute 24, 1
   8              		.eabi_attribute 25, 1
   9              		.eabi_attribute 26, 1
  10              		.eabi_attribute 30, 1
  11              		.eabi_attribute 34, 1
  12              		.eabi_attribute 18, 4
  13              		.thumb
  14              		.file	"main.c"
  15              		.text
  16              	.Ltext0:
  17              		.cfi_sections	.debug_frame
  18              		.section	.text.toggleLED,"ax",%progbits
  19              		.align	2
  20              		.global	toggleLED
  21              		.thumb
  22              		.thumb_func
  23              		.type	toggleLED, %function
  24              	toggleLED:
  25              	.LFB63:
  26              		.file 1 "main.c"
   1:main.c        **** /* ========================================
   2:main.c        ****  *
   3:main.c        ****  * Copyright YOUR COMPANY, THE YEAR
   4:main.c        ****  * All Rights Reserved
   5:main.c        ****  * UNPUBLISHED, LICENSED SOFTWARE.
   6:main.c        ****  *
   7:main.c        ****  * CONFIDENTIAL AND PROPRIETARY INFORMATION
   8:main.c        ****  * WHICH IS THE PROPERTY OF your company.
   9:main.c        ****  *
  10:main.c        ****  * ========================================
  11:main.c        **** */
  12:main.c        **** 
  13:main.c        **** #include "project.h"
  14:main.c        **** 
  15:main.c        **** #define FREQ        100
  16:main.c        **** #define STARTA      1
  17:main.c        **** #define PWM_WIDTH   1
  18:main.c        **** #define PWM_STEP    4
  19:main.c        **** 
  20:main.c        **** ////////////////////////////////////////////////////////////////
  21:main.c        **** // toggleLED()  Does not work in Rev X1
  22:main.c        **** ////////////////////////////////////////////////////////////////
  23:main.c        **** 
  24:main.c        **** void toggleLED(void)
  25:main.c        **** {
  27              		.loc 1 25 0
  28              		.cfi_startproc
  29              		@ args = 0, pretend = 0, frame = 0
  30              		@ frame_needed = 0, uses_anonymous_args = 0
  31 0000 08B5     		push	{r3, lr}
  32              		.cfi_def_cfa_offset 8
ARM GAS  C:\Users\doug_000\AppData\Local\Temp\cc3sq1iF.s 			page 2


  33              		.cfi_offset 3, -8
  34              		.cfi_offset 14, -4
  26:main.c        ****     Control_Reg_1_Write(Control_Reg_1_Read() | 0x02);
  35              		.loc 1 26 0
  36 0002 FFF7FEFF 		bl	Control_Reg_1_Read
  37              	.LVL0:
  38 0006 40F00200 		orr	r0, r0, #2
  39 000a C0B2     		uxtb	r0, r0
  40 000c FFF7FEFF 		bl	Control_Reg_1_Write
  41              	.LVL1:
  27:main.c        **** //    CyDelay(100);
  28:main.c        ****     Control_Reg_1_Write(Control_Reg_1_Read() & 0xfd);    
  42              		.loc 1 28 0
  43 0010 FFF7FEFF 		bl	Control_Reg_1_Read
  44              	.LVL2:
  45 0014 00F0FD00 		and	r0, r0, #253
  46 0018 FFF7FEFF 		bl	Control_Reg_1_Write
  47              	.LVL3:
  48 001c 08BD     		pop	{r3, pc}
  49              		.cfi_endproc
  50              	.LFE63:
  51              		.size	toggleLED, .-toggleLED
  52 001e 00BF     		.section	.text.main,"ax",%progbits
  53              		.align	2
  54              		.global	main
  55              		.thumb
  56              		.thumb_func
  57              		.type	main, %function
  58              	main:
  59              	.LFB64:
  29:main.c        **** }
  30:main.c        **** 
  31:main.c        **** uint8 pwmTable[] = {4,8,12,16,20,24,28,32,36,40,44,48,48,48,48,48,48,48,48,48,48,48,48,48,48,48,48,
  32:main.c        **** 
  33:main.c        **** ////////////////////////////////////////////////////////////////
  34:main.c        **** ////////////////////////////////////////////////////////////////
  35:main.c        **** 
  36:main.c        **** enum stateVals_t {STARTUP, BURSTIP, BURSTDONE, BURSTWAITFORRESET, BURSTGOTRESET} myState;
  37:main.c        **** 
  38:main.c        **** int main(void)
  39:main.c        **** {
  60              		.loc 1 39 0
  61              		.cfi_startproc
  62              		@ args = 0, pretend = 0, frame = 0
  63              		@ frame_needed = 0, uses_anonymous_args = 0
  64 0000 F8B5     		push	{r3, r4, r5, r6, r7, lr}
  65              		.cfi_def_cfa_offset 24
  66              		.cfi_offset 3, -24
  67              		.cfi_offset 4, -20
  68              		.cfi_offset 5, -16
  69              		.cfi_offset 6, -12
  70              		.cfi_offset 7, -8
  71              		.cfi_offset 14, -4
  40:main.c        **** 	CyGlobalIntEnable; /* Enable global interrupts. */
  72              		.loc 1 40 0
  73              	@ 40 "main.c" 1
  74 0002 62B6     		CPSIE   i
ARM GAS  C:\Users\doug_000\AppData\Local\Temp\cc3sq1iF.s 			page 3


  75              	@ 0 "" 2
  41:main.c        ****     
  42:main.c        ****     uint8 lastStatRegValue;
  43:main.c        ****     uint8 currentStatusRegValue;
  44:main.c        ****     uint8 diffBits;
  45:main.c        ****     uint8 burstNumber;
  46:main.c        ****     
  47:main.c        ****     Control_Reg_1_Write(1);
  76              		.loc 1 47 0
  77              		.thumb
  78 0004 0120     		movs	r0, #1
  79 0006 FFF7FEFF 		bl	Control_Reg_1_Write
  80              	.LVL4:
  48:main.c        **** 	Freq_Write(FREQ-1);
  81              		.loc 1 48 0
  82 000a 6320     		movs	r0, #99
  83 000c FFF7FEFF 		bl	Freq_Write
  84              	.LVL5:
  49:main.c        **** 	StartPWMA_Write(STARTA);
  85              		.loc 1 49 0
  86 0010 0120     		movs	r0, #1
  87 0012 FFF7FEFF 		bl	StartPWMA_Write
  88              	.LVL6:
  50:main.c        **** 	EndPWMA_Write(STARTA+1);
  89              		.loc 1 50 0
  90 0016 0220     		movs	r0, #2
  91 0018 FFF7FEFF 		bl	EndPWMA_Write
  92              	.LVL7:
  51:main.c        **** 	StartPWMB_Write(STARTA+((FREQ)/2));
  93              		.loc 1 51 0
  94 001c 3320     		movs	r0, #51
  95 001e FFF7FEFF 		bl	StartPWMB_Write
  96              	.LVL8:
  52:main.c        **** 	EndPWMB_Write(PWM_WIDTH+STARTA+((FREQ)/2));
  97              		.loc 1 52 0
  98 0022 3420     		movs	r0, #52
  99 0024 FFF7FEFF 		bl	EndPWMB_Write
 100              	.LVL9:
  53:main.c        ****     lastStatRegValue = Status_Reg_1_Read() & 0x03;
 101              		.loc 1 53 0
 102 0028 FFF7FEFF 		bl	Status_Reg_1_Read
 103              	.LVL10:
 104 002c 00F00304 		and	r4, r0, #3
 105              	.LVL11:
  54:main.c        **** 	
  55:main.c        ****     myState = STARTUP;
 106              		.loc 1 55 0
 107 0030 0022     		movs	r2, #0
 108 0032 374B     		ldr	r3, .L17
 109 0034 1A70     		strb	r2, [r3]
 110 0036 02E0     		b	.L5
 111              	.LVL12:
 112              	.L14:
  56:main.c        ****     
  57:main.c        **** while(1)
  58:main.c        **** 	{
  59:main.c        ****         switch (myState)
ARM GAS  C:\Users\doug_000\AppData\Local\Temp\cc3sq1iF.s 			page 4


  60:main.c        ****         {
  61:main.c        ****             case STARTUP:
  62:main.c        ****                 toggleLED();
  63:main.c        ****                 myState = BURSTIP;
  64:main.c        ****                 burstNumber = 0;
  65:main.c        ****             	EndPWMA_Write(STARTA+pwmTable[0]);
  66:main.c        ****                 EndPWMB_Write(pwmTable[0]+STARTA+(FREQ/2));
  67:main.c        ****                 Control_Reg_1_Write(0);       // Un-reset
  68:main.c        ****                 break;
  69:main.c        ****             case BURSTIP:
  70:main.c        ****                 currentStatusRegValue = Status_Reg_1_Read() & 0x03;
  71:main.c        ****                 if (currentStatusRegValue != lastStatRegValue)
  72:main.c        ****                     {
  73:main.c        ****                         diffBits = currentStatusRegValue ^ lastStatRegValue;
  74:main.c        ****                         if (((diffBits & 0x2) == 0x2) && ((currentStatusRegValue & 0x2) == 2))  // 
  75:main.c        ****                         {
  76:main.c        ****                            // toggleLED();
  77:main.c        ****             	            EndPWMA_Write(STARTA+pwmTable[burstNumber]-1);
  78:main.c        ****                             burstNumber += 1;
  79:main.c        ****                             if (burstNumber >= 40)
  80:main.c        ****                                 myState = BURSTDONE;
  81:main.c        ****                         }
  82:main.c        ****                         if (((diffBits & 0x1) == 0x1) && ((currentStatusRegValue & 0x1) == 1))  // 
  83:main.c        ****                         {
  84:main.c        ****                             EndPWMB_Write(pwmTable[burstNumber]+STARTA+(FREQ/2));
  85:main.c        ****                         }
  86:main.c        ****                         lastStatRegValue = currentStatusRegValue;
 113              		.loc 1 86 0
 114 0038 2C46     		mov	r4, r5
 115              	.LVL13:
 116 003a 00E0     		b	.L5
 117              	.LVL14:
 118              	.L15:
 119 003c 2C46     		mov	r4, r5
 120              	.LVL15:
 121              	.L5:
  59:main.c        ****         {
 122              		.loc 1 59 0
 123 003e 344B     		ldr	r3, .L17
 124 0040 1B78     		ldrb	r3, [r3]	@ zero_extendqisi2
 125 0042 042B     		cmp	r3, #4
 126 0044 FBD8     		bhi	.L5
 127 0046 DFE803F0 		tbb	[pc, r3]
 128              	.L7:
 129 004a 03       		.byte	(.L6-.L7)/2
 130 004b 18       		.byte	(.L8-.L7)/2
 131 004c 40       		.byte	(.L9-.L7)/2
 132 004d 4B       		.byte	(.L10-.L7)/2
 133 004e 5A       		.byte	(.L11-.L7)/2
 134 004f 00       		.p2align 1
 135              	.L6:
  62:main.c        ****                 myState = BURSTIP;
 136              		.loc 1 62 0
 137 0050 FFF7FEFF 		bl	toggleLED
 138              	.LVL16:
  63:main.c        ****                 burstNumber = 0;
 139              		.loc 1 63 0
ARM GAS  C:\Users\doug_000\AppData\Local\Temp\cc3sq1iF.s 			page 5


 140 0054 0122     		movs	r2, #1
 141 0056 2E4B     		ldr	r3, .L17
 142 0058 1A70     		strb	r2, [r3]
 143              	.LVL17:
  65:main.c        ****                 EndPWMB_Write(pwmTable[0]+STARTA+(FREQ/2));
 144              		.loc 1 65 0
 145 005a 2E4D     		ldr	r5, .L17+4
 146 005c 2878     		ldrb	r0, [r5]	@ zero_extendqisi2
 147 005e 1044     		add	r0, r0, r2
 148 0060 C0B2     		uxtb	r0, r0
 149 0062 FFF7FEFF 		bl	EndPWMA_Write
 150              	.LVL18:
  66:main.c        ****                 Control_Reg_1_Write(0);       // Un-reset
 151              		.loc 1 66 0
 152 0066 2878     		ldrb	r0, [r5]	@ zero_extendqisi2
 153 0068 3330     		adds	r0, r0, #51
 154 006a C0B2     		uxtb	r0, r0
 155 006c FFF7FEFF 		bl	EndPWMB_Write
 156              	.LVL19:
  67:main.c        ****                 break;
 157              		.loc 1 67 0
 158 0070 0020     		movs	r0, #0
 159 0072 FFF7FEFF 		bl	Control_Reg_1_Write
 160              	.LVL20:
  64:main.c        ****             	EndPWMA_Write(STARTA+pwmTable[0]);
 161              		.loc 1 64 0
 162 0076 0027     		movs	r7, #0
  68:main.c        ****             case BURSTIP:
 163              		.loc 1 68 0
 164 0078 E1E7     		b	.L5
 165              	.LVL21:
 166              	.L8:
  70:main.c        ****                 if (currentStatusRegValue != lastStatRegValue)
 167              		.loc 1 70 0
 168 007a FFF7FEFF 		bl	Status_Reg_1_Read
 169              	.LVL22:
 170 007e 0646     		mov	r6, r0
 171 0080 00F00305 		and	r5, r0, #3
 172              	.LVL23:
  71:main.c        ****                     {
 173              		.loc 1 71 0
 174 0084 A542     		cmp	r5, r4
 175 0086 DAD0     		beq	.L5
  73:main.c        ****                         if (((diffBits & 0x2) == 0x2) && ((currentStatusRegValue & 0x2) == 2))  // 
 176              		.loc 1 73 0
 177 0088 6C40     		eors	r4, r4, r5
 178              	.LVL24:
 179 008a E4B2     		uxtb	r4, r4
 180              	.LVL25:
  74:main.c        ****                         {
 181              		.loc 1 74 0
 182 008c 14F0020F 		tst	r4, #2
 183 0090 0DD0     		beq	.L13
  74:main.c        ****                         {
 184              		.loc 1 74 0 is_stmt 0 discriminator 1
 185 0092 10F0020F 		tst	r0, #2
 186 0096 0AD0     		beq	.L13
ARM GAS  C:\Users\doug_000\AppData\Local\Temp\cc3sq1iF.s 			page 6


  77:main.c        ****                             burstNumber += 1;
 187              		.loc 1 77 0 is_stmt 1
 188 0098 1E4B     		ldr	r3, .L17+4
 189 009a D85D     		ldrb	r0, [r3, r7]	@ zero_extendqisi2
 190 009c FFF7FEFF 		bl	EndPWMA_Write
 191              	.LVL26:
  78:main.c        ****                             if (burstNumber >= 40)
 192              		.loc 1 78 0
 193 00a0 0137     		adds	r7, r7, #1
 194              	.LVL27:
 195 00a2 FFB2     		uxtb	r7, r7
 196              	.LVL28:
  79:main.c        ****                                 myState = BURSTDONE;
 197              		.loc 1 79 0
 198 00a4 272F     		cmp	r7, #39
 199 00a6 02D9     		bls	.L13
  80:main.c        ****                         }
 200              		.loc 1 80 0
 201 00a8 0222     		movs	r2, #2
 202 00aa 194B     		ldr	r3, .L17
 203 00ac 1A70     		strb	r2, [r3]
 204              	.L13:
  82:main.c        ****                         {
 205              		.loc 1 82 0
 206 00ae 14F0010F 		tst	r4, #1
 207 00b2 C1D0     		beq	.L14
  82:main.c        ****                         {
 208              		.loc 1 82 0 is_stmt 0 discriminator 1
 209 00b4 16F0010F 		tst	r6, #1
 210 00b8 C0D0     		beq	.L15
  84:main.c        ****                         }
 211              		.loc 1 84 0 is_stmt 1
 212 00ba 164B     		ldr	r3, .L17+4
 213 00bc D85D     		ldrb	r0, [r3, r7]	@ zero_extendqisi2
 214 00be 3330     		adds	r0, r0, #51
 215 00c0 C0B2     		uxtb	r0, r0
 216 00c2 FFF7FEFF 		bl	EndPWMB_Write
 217              	.LVL29:
 218              		.loc 1 86 0
 219 00c6 2C46     		mov	r4, r5
 220              	.LVL30:
 221 00c8 B9E7     		b	.L5
 222              	.LVL31:
 223              	.L9:
  87:main.c        ****                     }
  88:main.c        ****                 break;
  89:main.c        ****             case BURSTDONE:
  90:main.c        ****                 Control_Reg_1_Write(Control_Reg_1_Read() | 0x01);   // Set reset line
 224              		.loc 1 90 0
 225 00ca FFF7FEFF 		bl	Control_Reg_1_Read
 226              	.LVL32:
 227 00ce 40F00100 		orr	r0, r0, #1
 228 00d2 C0B2     		uxtb	r0, r0
 229 00d4 FFF7FEFF 		bl	Control_Reg_1_Write
 230              	.LVL33:
  91:main.c        ****                 myState = BURSTWAITFORRESET;
 231              		.loc 1 91 0
ARM GAS  C:\Users\doug_000\AppData\Local\Temp\cc3sq1iF.s 			page 7


 232 00d8 0322     		movs	r2, #3
 233 00da 0D4B     		ldr	r3, .L17
 234 00dc 1A70     		strb	r2, [r3]
  92:main.c        ****                 break;
 235              		.loc 1 92 0
 236 00de AEE7     		b	.L5
 237              	.L10:
  93:main.c        ****             case BURSTWAITFORRESET:
  94:main.c        ****                 if ((Status_Reg_1_Read() & 0x4) == 0x0)
 238              		.loc 1 94 0
 239 00e0 FFF7FEFF 		bl	Status_Reg_1_Read
 240              	.LVL34:
 241 00e4 10F0040F 		tst	r0, #4
 242 00e8 A9D1     		bne	.L5
 243              	.LVL35:
  95:main.c        ****                 {
  96:main.c        ****                     burstNumber = 0;
  97:main.c        ****                     toggleLED();
 244              		.loc 1 97 0
 245 00ea FFF7FEFF 		bl	toggleLED
 246              	.LVL36:
  98:main.c        ****                     CyDelay(10);
 247              		.loc 1 98 0
 248 00ee 0A20     		movs	r0, #10
 249 00f0 FFF7FEFF 		bl	CyDelay
 250              	.LVL37:
  99:main.c        ****                     myState = BURSTGOTRESET;
 251              		.loc 1 99 0
 252 00f4 0422     		movs	r2, #4
 253 00f6 064B     		ldr	r3, .L17
 254 00f8 1A70     		strb	r2, [r3]
  96:main.c        ****                     toggleLED();
 255              		.loc 1 96 0
 256 00fa 0027     		movs	r7, #0
 257 00fc 9FE7     		b	.L5
 258              	.LVL38:
 259              	.L11:
 100:main.c        ****                 }
 101:main.c        ****                 break;
 102:main.c        ****             case BURSTGOTRESET:
 103:main.c        ****                 while ((Status_Reg_1_Read() & 0x4) == 0x0);
 260              		.loc 1 103 0 discriminator 1
 261 00fe FFF7FEFF 		bl	Status_Reg_1_Read
 262              	.LVL39:
 263 0102 10F0040F 		tst	r0, #4
 264 0106 FAD0     		beq	.L11
 104:main.c        ****                 myState = STARTUP;
 265              		.loc 1 104 0
 266 0108 0022     		movs	r2, #0
 267 010a 014B     		ldr	r3, .L17
 268 010c 1A70     		strb	r2, [r3]
 105:main.c        ****                 break;
 269              		.loc 1 105 0
 270 010e 96E7     		b	.L5
 271              	.L18:
 272              		.align	2
 273              	.L17:
ARM GAS  C:\Users\doug_000\AppData\Local\Temp\cc3sq1iF.s 			page 8


 274 0110 00000000 		.word	myState
 275 0114 00000000 		.word	.LANCHOR0
 276              		.cfi_endproc
 277              	.LFE64:
 278              		.size	main, .-main
 279              		.comm	myState,1,1
 280              		.global	pwmTable
 281              		.data
 282              		.align	2
 283              		.set	.LANCHOR0,. + 0
 284              		.type	pwmTable, %object
 285              		.size	pwmTable, 43
 286              	pwmTable:
 287 0000 04       		.byte	4
 288 0001 08       		.byte	8
 289 0002 0C       		.byte	12
 290 0003 10       		.byte	16
 291 0004 14       		.byte	20
 292 0005 18       		.byte	24
 293 0006 1C       		.byte	28
 294 0007 20       		.byte	32
 295 0008 24       		.byte	36
 296 0009 28       		.byte	40
 297 000a 2C       		.byte	44
 298 000b 30       		.byte	48
 299 000c 30       		.byte	48
 300 000d 30       		.byte	48
 301 000e 30       		.byte	48
 302 000f 30       		.byte	48
 303 0010 30       		.byte	48
 304 0011 30       		.byte	48
 305 0012 30       		.byte	48
 306 0013 30       		.byte	48
 307 0014 30       		.byte	48
 308 0015 30       		.byte	48
 309 0016 30       		.byte	48
 310 0017 30       		.byte	48
 311 0018 30       		.byte	48
 312 0019 30       		.byte	48
 313 001a 30       		.byte	48
 314 001b 30       		.byte	48
 315 001c 30       		.byte	48
 316 001d 30       		.byte	48
 317 001e 30       		.byte	48
 318 001f 30       		.byte	48
 319 0020 28       		.byte	40
 320 0021 24       		.byte	36
 321 0022 20       		.byte	32
 322 0023 1C       		.byte	28
 323 0024 18       		.byte	24
 324 0025 14       		.byte	20
 325 0026 10       		.byte	16
 326 0027 0C       		.byte	12
 327 0028 08       		.byte	8
 328 0029 04       		.byte	4
 329 002a 00       		.byte	0
 330 002b 00       		.text
ARM GAS  C:\Users\doug_000\AppData\Local\Temp\cc3sq1iF.s 			page 9


 331              	.Letext0:
 332              		.file 2 "c:\\program files (x86)\\cypress\\psoc creator\\4.0\\psoc creator\\import\\gnu\\arm\\4.9.
 333              		.file 3 "c:\\program files (x86)\\cypress\\psoc creator\\4.0\\psoc creator\\import\\gnu\\arm\\4.9.
 334              		.file 4 "Generated_Source\\PSoC5/cytypes.h"
 335              		.file 5 "Generated_Source\\PSoC5/core_cm3.h"
 336              		.file 6 "Generated_Source\\PSoC5/Control_Reg_1.h"
 337              		.file 7 "Generated_Source\\PSoC5/Freq.h"
 338              		.file 8 "Generated_Source\\PSoC5/StartPWMA.h"
 339              		.file 9 "Generated_Source\\PSoC5/EndPWMA.h"
 340              		.file 10 "Generated_Source\\PSoC5/StartPWMB.h"
 341              		.file 11 "Generated_Source\\PSoC5/EndPWMB.h"
 342              		.file 12 "Generated_Source\\PSoC5/Status_Reg_1.h"
 343              		.file 13 "Generated_Source\\PSoC5/CyLib.h"