ARM GAS  C:\Users\HPz420\AppData\Local\Temp\ccx7hcVF.s 			page 1


   1              		.syntax unified
   2              		.cpu cortex-m3
   3              		.fpu softvfp
   4              		.eabi_attribute 20, 1
   5              		.eabi_attribute 21, 1
   6              		.eabi_attribute 23, 3
   7              		.eabi_attribute 24, 1
   8              		.eabi_attribute 25, 1
   9              		.eabi_attribute 26, 1
  10              		.eabi_attribute 30, 1
  11              		.eabi_attribute 34, 1
  12              		.eabi_attribute 18, 4
  13              		.thumb
  14              		.syntax unified
  15              		.file	"dds.c"
  16              		.text
  17              	.Ltext0:
  18              		.cfi_sections	.debug_frame
  19              		.global	__aeabi_ddiv
  20              		.global	__aeabi_dmul
  21              		.global	__aeabi_dadd
  22              		.global	__aeabi_d2uiz
  23              		.section	.text.DDS_SetFrequency,"ax",%progbits
  24              		.align	2
  25              		.global	DDS_SetFrequency
  26              		.thumb
  27              		.thumb_func
  28              		.type	DDS_SetFrequency, %function
  29              	DDS_SetFrequency:
  30              	.LFB64:
  31              		.file 1 "dds.c"
   1:dds.c         **** /* ========================================
   2:dds.c         ****  *
   3:dds.c         ****  *
   4:dds.c         ****  * ========================================
   5:dds.c         **** */
   6:dds.c         **** 
   7:dds.c         **** #include <dds.h>
   8:dds.c         **** #include <project.h>
   9:dds.c         **** #include <WaveGen.h>
  10:dds.c         **** #include <WaveTable.h>
  11:dds.c         **** 
  12:dds.c         **** uint8 *WriteBufferIndex = &(VDAC_Buffer[0]);
  13:dds.c         **** 
  14:dds.c         **** /*
  15:dds.c         **** // RAM only->
  16:dds.c         **** //http://www.daycounter.com/Calculators/Sine-Generator-Calculator2.phtml
  17:dds.c         **** const // (+2 ticks)  
  18:dds.c         **** uint8_t sine8[256] = {
  19:dds.c         **** 128,131,134,137,140,143,146,149,    152,155,158,162,165,167,170,173,
  20:dds.c         **** 176,179,182,185,188,190,193,196,    198,201,203,206,208,211,213,215,
  21:dds.c         **** 218,220,222,224,226,228,230,232,    234,235,237,238,240,241,243,244,
  22:dds.c         **** 245,246,248,249,250,250,251,252,    253,253,254,254,254,255,255,255,
  23:dds.c         **** 255,255,255,255,254,254,254,253,    253,252,251,250,250,249,248,246,
  24:dds.c         **** 245,244,243,241,240,238,237,235,    234,232,230,228,226,224,222,220,
  25:dds.c         **** 218,215,213,211,208,206,203,201,    198,196,193,190,188,185,182,179,
  26:dds.c         **** 176,173,170,167,165,162,158,155,    152,149,146,143,140,137,134,131,
ARM GAS  C:\Users\HPz420\AppData\Local\Temp\ccx7hcVF.s 			page 2


  27:dds.c         ****     
  28:dds.c         **** 128,124,121,118,115,112,109,106,    103,100, 97, 93, 90, 88, 85, 82,
  29:dds.c         ****  79, 76, 73, 70, 67, 65, 62, 59,     57, 54, 52, 49, 47, 44, 42, 40,
  30:dds.c         ****  37, 35, 33, 31, 29, 27, 25, 23,     21, 20, 18, 17, 15, 14, 12, 11,
  31:dds.c         ****  10,  9,  7,  6,  5,  5,  4,  3,      2,  2,  1,  1,  1,  0,  0,  0,
  32:dds.c         ****   0,  0,  0,  0,  1,  1,  1,  2,      2,  3,  4,  5,  5,  6,  7,  9,
  33:dds.c         ****  10, 11, 12, 14, 15, 17, 18, 20,     21, 23, 25, 27, 29, 31, 33, 35,
  34:dds.c         ****  37, 40, 42, 44, 47, 49, 52, 54,     57, 59, 62, 65, 67, 70, 73, 76,
  35:dds.c         ****  79, 82, 85, 88, 90, 93, 97,100,    103,106,109,112,115,118,121,124,
  36:dds.c         **** };
  37:dds.c         **** */
  38:dds.c         **** 
  39:dds.c         **** //==============================================================================
  40:dds.c         **** // Initialize component
  41:dds.c         **** // Set input clock frequency and default values for output frequency and phase 
  42:dds.c         **** //==============================================================================
  43:dds.c         **** 
  44:dds.c         **** void DDS_Start()
  45:dds.c         **** {   
  46:dds.c         ****     // make record of the input clock frequency into period   
  47:dds.c         ****     //Tdiv = (double) (DDS_RESOLUTION / `$INSTANCE_NAME`_CLOCK_FREQ);	
  48:dds.c         ****     
  49:dds.c         ****     //Initialized = true;
  50:dds.c         ****     
  51:dds.c         ****     dds_acc = 0;
  52:dds.c         **** 
  53:dds.c         ****     DDS_SetFrequency( 1000 );
  54:dds.c         **** }
  55:dds.c         **** 
  56:dds.c         **** //==============================================================================
  57:dds.c         **** // Set output frequency
  58:dds.c         **** //==============================================================================
  59:dds.c         **** 
  60:dds.c         **** uint8 DDS_SetFrequency( double freq )
  61:dds.c         **** {     
  32              		.loc 1 61 0
  33              		.cfi_startproc
  34              		@ args = 0, pretend = 0, frame = 0
  35              		@ frame_needed = 0, uses_anonymous_args = 0
  36              	.LVL0:
  37 0000 38B5     		push	{r3, r4, r5, lr}
  38              		.cfi_def_cfa_offset 16
  39              		.cfi_offset 3, -16
  40              		.cfi_offset 4, -12
  41              		.cfi_offset 5, -8
  42              		.cfi_offset 14, -4
  43 0002 0446     		mov	r4, r0
  44 0004 0D46     		mov	r5, r1
  62:dds.c         ****     const double Tdiv = (double) (DDS_RESOLUTION / DDS_Clock_Freq); // time period per bit incremen
  45              		.loc 1 62 0
  46 0006 0C4B     		ldr	r3, .L5
  47 0008 D3E90023 		ldrd	r2, [r3]
  48 000c 0020     		movs	r0, #0
  49              	.LVL1:
  50 000e 0B49     		ldr	r1, .L5+4
  51 0010 FFF7FEFF 		bl	__aeabi_ddiv
  52              	.LVL2:
ARM GAS  C:\Users\HPz420\AppData\Local\Temp\ccx7hcVF.s 			page 3


  63:dds.c         **** 
  64:dds.c         ****     uint8 result = 0; // success = 1, fail = 0 
  65:dds.c         **** 
  66:dds.c         ****  
  67:dds.c         ****         
  68:dds.c         ****     uint32 tmp = (uint32) (freq * Tdiv + 0.5);           // calculate tune word
  53              		.loc 1 68 0
  54 0014 2246     		mov	r2, r4
  55 0016 2B46     		mov	r3, r5
  56 0018 FFF7FEFF 		bl	__aeabi_dmul
  57              	.LVL3:
  58 001c 0022     		movs	r2, #0
  59 001e 084B     		ldr	r3, .L5+8
  60 0020 FFF7FEFF 		bl	__aeabi_dadd
  61              	.LVL4:
  62 0024 FFF7FEFF 		bl	__aeabi_d2uiz
  63              	.LVL5:
  69:dds.c         ****     if ( (tmp < 1) || (tmp > TUNE_WORD_MAX) )  return 0; // fail -> exit if outside of the valid ra
  64              		.loc 1 69 0
  65 0028 0028     		cmp	r0, #0
  66 002a 03DD     		ble	.L3
  70:dds.c         ****           
  71:dds.c         ****     //tune_word = tmp;
  72:dds.c         ****     dds_inc = tmp; // set tune word
  67              		.loc 1 72 0
  68 002c 054B     		ldr	r3, .L5+12
  69 002e 1860     		str	r0, [r3]
  70              	.LVL6:
  73:dds.c         ****         
  74:dds.c         ****        
  75:dds.c         ****     //SetFreq = freq; // backup value
  76:dds.c         ****     result = 1;     // success
  77:dds.c         ****         
  78:dds.c         ****     
  79:dds.c         ****     return result;
  71              		.loc 1 79 0
  72 0030 0120     		movs	r0, #1
  73              	.LVL7:
  74 0032 38BD     		pop	{r3, r4, r5, pc}
  75              	.LVL8:
  76              	.L3:
  69:dds.c         ****           
  77              		.loc 1 69 0
  78 0034 0020     		movs	r0, #0
  79              	.LVL9:
  80:dds.c         **** }
  80              		.loc 1 80 0
  81 0036 38BD     		pop	{r3, r4, r5, pc}
  82              	.L6:
  83              		.align	2
  84              	.L5:
  85 0038 00000000 		.word	DDS_Clock_Freq
  86 003c 0000F041 		.word	1106247680
  87 0040 0000E03F 		.word	1071644672
  88 0044 00000000 		.word	dds_inc
  89              		.cfi_endproc
  90              	.LFE64:
ARM GAS  C:\Users\HPz420\AppData\Local\Temp\ccx7hcVF.s 			page 4


  91              		.size	DDS_SetFrequency, .-DDS_SetFrequency
  92              		.section	.text.DDS_Start,"ax",%progbits
  93              		.align	2
  94              		.global	DDS_Start
  95              		.thumb
  96              		.thumb_func
  97              		.type	DDS_Start, %function
  98              	DDS_Start:
  99              	.LFB63:
  45:dds.c         ****     // make record of the input clock frequency into period   
 100              		.loc 1 45 0
 101              		.cfi_startproc
 102              		@ args = 0, pretend = 0, frame = 0
 103              		@ frame_needed = 0, uses_anonymous_args = 0
 104 0000 08B5     		push	{r3, lr}
 105              		.cfi_def_cfa_offset 8
 106              		.cfi_offset 3, -8
 107              		.cfi_offset 14, -4
  51:dds.c         **** 
 108              		.loc 1 51 0
 109 0002 0022     		movs	r2, #0
 110 0004 034B     		ldr	r3, .L9
 111 0006 1A60     		str	r2, [r3]
  53:dds.c         **** }
 112              		.loc 1 53 0
 113 0008 0020     		movs	r0, #0
 114 000a 0349     		ldr	r1, .L9+4
 115 000c FFF7FEFF 		bl	DDS_SetFrequency
 116              	.LVL10:
 117 0010 08BD     		pop	{r3, pc}
 118              	.L10:
 119 0012 00BF     		.align	2
 120              	.L9:
 121 0014 00000000 		.word	dds_acc
 122 0018 00408F40 		.word	1083129856
 123              		.cfi_endproc
 124              	.LFE63:
 125              		.size	DDS_Start, .-DDS_Start
 126              		.section	.text.DDS_FillBuffer,"ax",%progbits
 127              		.align	2
 128              		.global	DDS_FillBuffer
 129              		.thumb
 130              		.thumb_func
 131              		.type	DDS_FillBuffer, %function
 132              	DDS_FillBuffer:
 133              	.LFB65:
  81:dds.c         **** 
  82:dds.c         **** 
  83:dds.c         **** //==============================================================================
  84:dds.c         **** // Fill buffer with output data
  85:dds.c         **** //==============================================================================
  86:dds.c         **** 
  87:dds.c         **** void DDS_FillBuffer(uint16 start, uint16 length )
  88:dds.c         **** {     
 134              		.loc 1 88 0
 135              		.cfi_startproc
 136              		@ args = 0, pretend = 0, frame = 0
ARM GAS  C:\Users\HPz420\AppData\Local\Temp\ccx7hcVF.s 			page 5


 137              		@ frame_needed = 0, uses_anonymous_args = 0
 138              		@ link register save eliminated.
 139              	.LVL11:
 140 0000 30B4     		push	{r4, r5}
 141              		.cfi_def_cfa_offset 8
 142              		.cfi_offset 4, -8
 143              		.cfi_offset 5, -4
 144              	.LVL12:
  89:dds.c         ****     uint8  adr = 0;     // sine table address
  90:dds.c         ****     uint8  val = 0;     // sine value
  91:dds.c         ****     
  92:dds.c         ****     uint16 i;
  93:dds.c         ****     for (i=0; i<length; i++)
 145              		.loc 1 93 0
 146 0002 0022     		movs	r2, #0
 147 0004 0DE0     		b	.L12
 148              	.LVL13:
 149              	.L13:
  94:dds.c         ****     {
  95:dds.c         ****         dds_acc += dds_inc;
 150              		.loc 1 95 0 discriminator 3
 151 0006 094C     		ldr	r4, .L15
 152 0008 2568     		ldr	r5, [r4]
 153 000a 094B     		ldr	r3, .L15+4
 154 000c 1B68     		ldr	r3, [r3]
 155 000e 2B44     		add	r3, r3, r5
 156 0010 2360     		str	r3, [r4]
  96:dds.c         ****         adr = (dds_acc >> 24);
 157              		.loc 1 96 0 discriminator 3
 158 0012 1B0E     		lsrs	r3, r3, #24
 159              	.LVL14:
  97:dds.c         ****         val = sine8[adr];
 160              		.loc 1 97 0 discriminator 3
 161 0014 074C     		ldr	r4, .L15+8
 162 0016 E55C     		ldrb	r5, [r4, r3]	@ zero_extendqisi2
 163              	.LVL15:
  98:dds.c         ****         //WaveGen_1_Buffer[start+i] = val;   
  99:dds.c         ****         VDAC_Buffer[start+i] = val;
 164              		.loc 1 99 0 discriminator 3
 165 0018 8318     		adds	r3, r0, r2
 166              	.LVL16:
 167 001a 074C     		ldr	r4, .L15+12
 168 001c E554     		strb	r5, [r4, r3]
  93:dds.c         ****     {
 169              		.loc 1 93 0 discriminator 3
 170 001e 0132     		adds	r2, r2, #1
 171              	.LVL17:
 172 0020 92B2     		uxth	r2, r2
 173              	.LVL18:
 174              	.L12:
  93:dds.c         ****     {
 175              		.loc 1 93 0 is_stmt 0 discriminator 1
 176 0022 8A42     		cmp	r2, r1
 177 0024 EFD3     		bcc	.L13
 100:dds.c         ****     }    
 101:dds.c         ****         
 102:dds.c         **** }
ARM GAS  C:\Users\HPz420\AppData\Local\Temp\ccx7hcVF.s 			page 6


 178              		.loc 1 102 0 is_stmt 1
 179 0026 30BC     		pop	{r4, r5}
 180              		.cfi_restore 5
 181              		.cfi_restore 4
 182              		.cfi_def_cfa_offset 0
 183 0028 7047     		bx	lr
 184              	.L16:
 185 002a 00BF     		.align	2
 186              	.L15:
 187 002c 00000000 		.word	dds_acc
 188 0030 00000000 		.word	dds_inc
 189 0034 00000000 		.word	.LANCHOR0
 190 0038 00000000 		.word	VDAC_Buffer
 191              		.cfi_endproc
 192              	.LFE65:
 193              		.size	DDS_FillBuffer, .-DDS_FillBuffer
 194              		.section	.text.DDS_FillHalfBuffer,"ax",%progbits
 195              		.align	2
 196              		.global	DDS_FillHalfBuffer
 197              		.thumb
 198              		.thumb_func
 199              		.type	DDS_FillHalfBuffer, %function
 200              	DDS_FillHalfBuffer:
 201              	.LFB66:
 103:dds.c         **** 
 104:dds.c         **** //==============================================================================
 105:dds.c         **** // Fill buffer with output data
 106:dds.c         **** //==============================================================================
 107:dds.c         **** 
 108:dds.c         **** void DDS_FillHalfBuffer()
 109:dds.c         **** {     
 202              		.loc 1 109 0
 203              		.cfi_startproc
 204              		@ args = 0, pretend = 0, frame = 0
 205              		@ frame_needed = 0, uses_anonymous_args = 0
 206              		@ link register save eliminated.
 207 0000 10B4     		push	{r4}
 208              		.cfi_def_cfa_offset 4
 209              		.cfi_offset 4, -4
 210              	.LVL19:
 110:dds.c         ****     uint8  adr = 0;     // sine table address
 111:dds.c         ****     uint8  val = 0;     // sine value
 112:dds.c         ****     
 113:dds.c         ****     uint16 i;
 114:dds.c         ****     for (i=0; i<BUF_NumRefHigh; i++)
 211              		.loc 1 114 0
 212 0002 0022     		movs	r2, #0
 213 0004 18E0     		b	.L18
 214              	.LVL20:
 215              	.L20:
 115:dds.c         ****     {
 116:dds.c         ****         dds_acc += dds_inc;
 216              		.loc 1 116 0
 217 0006 0E49     		ldr	r1, .L22
 218 0008 0868     		ldr	r0, [r1]
 219 000a 0E4B     		ldr	r3, .L22+4
 220 000c 1B68     		ldr	r3, [r3]
ARM GAS  C:\Users\HPz420\AppData\Local\Temp\ccx7hcVF.s 			page 7


 221 000e 0344     		add	r3, r3, r0
 222 0010 0B60     		str	r3, [r1]
 117:dds.c         ****         adr = (dds_acc >> 24);
 223              		.loc 1 117 0
 224 0012 1B0E     		lsrs	r3, r3, #24
 225              	.LVL21:
 118:dds.c         ****         val = sine8[adr];
 226              		.loc 1 118 0
 227 0014 0C49     		ldr	r1, .L22+8
 228 0016 C85C     		ldrb	r0, [r1, r3]	@ zero_extendqisi2
 229              	.LVL22:
 119:dds.c         ****         //val = wave8[adr];
 120:dds.c         ****         * WriteBufferIndex++  = val; // populate buffer and advance position
 230              		.loc 1 120 0
 231 0018 0C4B     		ldr	r3, .L22+12
 232              	.LVL23:
 233 001a 1968     		ldr	r1, [r3]
 234 001c 4C1C     		adds	r4, r1, #1
 235 001e 1C60     		str	r4, [r3]
 236 0020 0870     		strb	r0, [r1]
 237              	.LVL24:
 121:dds.c         ****         if (WriteBufferIndex >= pBuffer + BUF_NumSamples) WriteBufferIndex = pBuffer;  // reset poi
 238              		.loc 1 121 0
 239 0022 0B49     		ldr	r1, .L22+16
 240 0024 0968     		ldr	r1, [r1]
 241 0026 01F58070 		add	r0, r1, #256
 242              	.LVL25:
 243 002a 1B68     		ldr	r3, [r3]
 244 002c 9842     		cmp	r0, r3
 245 002e 01D8     		bhi	.L19
 246              		.loc 1 121 0 is_stmt 0 discriminator 1
 247 0030 064B     		ldr	r3, .L22+12
 248 0032 1960     		str	r1, [r3]
 249              	.LVL26:
 250              	.L19:
 114:dds.c         ****     {
 251              		.loc 1 114 0 is_stmt 1 discriminator 2
 252 0034 0132     		adds	r2, r2, #1
 253              	.LVL27:
 254 0036 92B2     		uxth	r2, r2
 255              	.LVL28:
 256              	.L18:
 114:dds.c         ****     {
 257              		.loc 1 114 0 is_stmt 0 discriminator 1
 258 0038 7F2A     		cmp	r2, #127
 259 003a E4D9     		bls	.L20
 122:dds.c         ****     }    
 123:dds.c         ****         
 124:dds.c         **** }
 260              		.loc 1 124 0 is_stmt 1
 261 003c 10BC     		pop	{r4}
 262              		.cfi_restore 4
 263              		.cfi_def_cfa_offset 0
 264 003e 7047     		bx	lr
 265              	.L23:
 266              		.align	2
 267              	.L22:
ARM GAS  C:\Users\HPz420\AppData\Local\Temp\ccx7hcVF.s 			page 8


 268 0040 00000000 		.word	dds_acc
 269 0044 00000000 		.word	dds_inc
 270 0048 00000000 		.word	.LANCHOR0
 271 004c 00000000 		.word	.LANCHOR1
 272 0050 00000000 		.word	pBuffer
 273              		.cfi_endproc
 274              	.LFE66:
 275              		.size	DDS_FillHalfBuffer, .-DDS_FillHalfBuffer
 276              		.global	WriteBufferIndex
 277              		.comm	pBuffer,4,4
 278              		.comm	VDAC_Buffer,256,4
 279              		.comm	DDS_Clock_Freq,8,8
 280              		.comm	dds_inc,4,4
 281              		.comm	dds_acc,4,4
 282              		.section	.rodata
 283              		.align	2
 284              		.set	.LANCHOR0,. + 0
 285              		.type	sine8, %object
 286              		.size	sine8, 256
 287              	sine8:
 288 0000 80       		.byte	-128
 289 0001 83       		.byte	-125
 290 0002 86       		.byte	-122
 291 0003 89       		.byte	-119
 292 0004 8C       		.byte	-116
 293 0005 8F       		.byte	-113
 294 0006 92       		.byte	-110
 295 0007 95       		.byte	-107
 296 0008 98       		.byte	-104
 297 0009 9B       		.byte	-101
 298 000a 9E       		.byte	-98
 299 000b A2       		.byte	-94
 300 000c A5       		.byte	-91
 301 000d A7       		.byte	-89
 302 000e AA       		.byte	-86
 303 000f AD       		.byte	-83
 304 0010 B0       		.byte	-80
 305 0011 B3       		.byte	-77
 306 0012 B6       		.byte	-74
 307 0013 B9       		.byte	-71
 308 0014 BC       		.byte	-68
 309 0015 BE       		.byte	-66
 310 0016 C1       		.byte	-63
 311 0017 C4       		.byte	-60
 312 0018 C6       		.byte	-58
 313 0019 C9       		.byte	-55
 314 001a CB       		.byte	-53
 315 001b CE       		.byte	-50
 316 001c D0       		.byte	-48
 317 001d D3       		.byte	-45
 318 001e D5       		.byte	-43
 319 001f D7       		.byte	-41
 320 0020 DA       		.byte	-38
 321 0021 DC       		.byte	-36
 322 0022 DE       		.byte	-34
 323 0023 E0       		.byte	-32
 324 0024 E2       		.byte	-30
ARM GAS  C:\Users\HPz420\AppData\Local\Temp\ccx7hcVF.s 			page 9


 325 0025 E4       		.byte	-28
 326 0026 E6       		.byte	-26
 327 0027 E8       		.byte	-24
 328 0028 EA       		.byte	-22
 329 0029 EB       		.byte	-21
 330 002a ED       		.byte	-19
 331 002b EE       		.byte	-18
 332 002c F0       		.byte	-16
 333 002d F1       		.byte	-15
 334 002e F3       		.byte	-13
 335 002f F4       		.byte	-12
 336 0030 F5       		.byte	-11
 337 0031 F6       		.byte	-10
 338 0032 F8       		.byte	-8
 339 0033 F9       		.byte	-7
 340 0034 FA       		.byte	-6
 341 0035 FA       		.byte	-6
 342 0036 FB       		.byte	-5
 343 0037 FC       		.byte	-4
 344 0038 FD       		.byte	-3
 345 0039 FD       		.byte	-3
 346 003a FE       		.byte	-2
 347 003b FE       		.byte	-2
 348 003c FE       		.byte	-2
 349 003d FF       		.byte	-1
 350 003e FF       		.byte	-1
 351 003f FF       		.byte	-1
 352 0040 FF       		.byte	-1
 353 0041 FF       		.byte	-1
 354 0042 FF       		.byte	-1
 355 0043 FF       		.byte	-1
 356 0044 FE       		.byte	-2
 357 0045 FE       		.byte	-2
 358 0046 FE       		.byte	-2
 359 0047 FD       		.byte	-3
 360 0048 FD       		.byte	-3
 361 0049 FC       		.byte	-4
 362 004a FB       		.byte	-5
 363 004b FA       		.byte	-6
 364 004c FA       		.byte	-6
 365 004d F9       		.byte	-7
 366 004e F8       		.byte	-8
 367 004f F6       		.byte	-10
 368 0050 F5       		.byte	-11
 369 0051 F4       		.byte	-12
 370 0052 F3       		.byte	-13
 371 0053 F1       		.byte	-15
 372 0054 F0       		.byte	-16
 373 0055 EE       		.byte	-18
 374 0056 ED       		.byte	-19
 375 0057 EB       		.byte	-21
 376 0058 EA       		.byte	-22
 377 0059 E8       		.byte	-24
 378 005a E6       		.byte	-26
 379 005b E4       		.byte	-28
 380 005c E2       		.byte	-30
 381 005d E0       		.byte	-32
ARM GAS  C:\Users\HPz420\AppData\Local\Temp\ccx7hcVF.s 			page 10


 382 005e DE       		.byte	-34
 383 005f DC       		.byte	-36
 384 0060 DA       		.byte	-38
 385 0061 D7       		.byte	-41
 386 0062 D5       		.byte	-43
 387 0063 D3       		.byte	-45
 388 0064 D0       		.byte	-48
 389 0065 CE       		.byte	-50
 390 0066 CB       		.byte	-53
 391 0067 C9       		.byte	-55
 392 0068 C6       		.byte	-58
 393 0069 C4       		.byte	-60
 394 006a C1       		.byte	-63
 395 006b BE       		.byte	-66
 396 006c BC       		.byte	-68
 397 006d B9       		.byte	-71
 398 006e B6       		.byte	-74
 399 006f B3       		.byte	-77
 400 0070 B0       		.byte	-80
 401 0071 AD       		.byte	-83
 402 0072 AA       		.byte	-86
 403 0073 A7       		.byte	-89
 404 0074 A5       		.byte	-91
 405 0075 A2       		.byte	-94
 406 0076 9E       		.byte	-98
 407 0077 9B       		.byte	-101
 408 0078 98       		.byte	-104
 409 0079 95       		.byte	-107
 410 007a 92       		.byte	-110
 411 007b 8F       		.byte	-113
 412 007c 8C       		.byte	-116
 413 007d 89       		.byte	-119
 414 007e 86       		.byte	-122
 415 007f 83       		.byte	-125
 416 0080 80       		.byte	-128
 417 0081 7C       		.byte	124
 418 0082 79       		.byte	121
 419 0083 76       		.byte	118
 420 0084 73       		.byte	115
 421 0085 70       		.byte	112
 422 0086 6D       		.byte	109
 423 0087 6A       		.byte	106
 424 0088 67       		.byte	103
 425 0089 64       		.byte	100
 426 008a 61       		.byte	97
 427 008b 5D       		.byte	93
 428 008c 5A       		.byte	90
 429 008d 58       		.byte	88
 430 008e 55       		.byte	85
 431 008f 52       		.byte	82
 432 0090 4F       		.byte	79
 433 0091 4C       		.byte	76
 434 0092 49       		.byte	73
 435 0093 46       		.byte	70
 436 0094 43       		.byte	67
 437 0095 41       		.byte	65
 438 0096 3E       		.byte	62
ARM GAS  C:\Users\HPz420\AppData\Local\Temp\ccx7hcVF.s 			page 11


 439 0097 3B       		.byte	59
 440 0098 39       		.byte	57
 441 0099 36       		.byte	54
 442 009a 34       		.byte	52
 443 009b 31       		.byte	49
 444 009c 2F       		.byte	47
 445 009d 2C       		.byte	44
 446 009e 2A       		.byte	42
 447 009f 28       		.byte	40
 448 00a0 25       		.byte	37
 449 00a1 23       		.byte	35
 450 00a2 21       		.byte	33
 451 00a3 1F       		.byte	31
 452 00a4 1D       		.byte	29
 453 00a5 1B       		.byte	27
 454 00a6 19       		.byte	25
 455 00a7 17       		.byte	23
 456 00a8 15       		.byte	21
 457 00a9 14       		.byte	20
 458 00aa 12       		.byte	18
 459 00ab 11       		.byte	17
 460 00ac 0F       		.byte	15
 461 00ad 0E       		.byte	14
 462 00ae 0C       		.byte	12
 463 00af 0B       		.byte	11
 464 00b0 0A       		.byte	10
 465 00b1 09       		.byte	9
 466 00b2 07       		.byte	7
 467 00b3 06       		.byte	6
 468 00b4 05       		.byte	5
 469 00b5 05       		.byte	5
 470 00b6 04       		.byte	4
 471 00b7 03       		.byte	3
 472 00b8 02       		.byte	2
 473 00b9 02       		.byte	2
 474 00ba 01       		.byte	1
 475 00bb 01       		.byte	1
 476 00bc 01       		.byte	1
 477 00bd 00       		.byte	0
 478 00be 00       		.byte	0
 479 00bf 00       		.byte	0
 480 00c0 00       		.byte	0
 481 00c1 00       		.byte	0
 482 00c2 00       		.byte	0
 483 00c3 00       		.byte	0
 484 00c4 01       		.byte	1
 485 00c5 01       		.byte	1
 486 00c6 01       		.byte	1
 487 00c7 02       		.byte	2
 488 00c8 02       		.byte	2
 489 00c9 03       		.byte	3
 490 00ca 04       		.byte	4
 491 00cb 05       		.byte	5
 492 00cc 05       		.byte	5
 493 00cd 06       		.byte	6
 494 00ce 07       		.byte	7
 495 00cf 09       		.byte	9
ARM GAS  C:\Users\HPz420\AppData\Local\Temp\ccx7hcVF.s 			page 12


 496 00d0 0A       		.byte	10
 497 00d1 0B       		.byte	11
 498 00d2 0C       		.byte	12
 499 00d3 0E       		.byte	14
 500 00d4 0F       		.byte	15
 501 00d5 11       		.byte	17
 502 00d6 12       		.byte	18
 503 00d7 14       		.byte	20
 504 00d8 15       		.byte	21
 505 00d9 17       		.byte	23
 506 00da 19       		.byte	25
 507 00db 1B       		.byte	27
 508 00dc 1D       		.byte	29
 509 00dd 1F       		.byte	31
 510 00de 21       		.byte	33
 511 00df 23       		.byte	35
 512 00e0 25       		.byte	37
 513 00e1 28       		.byte	40
 514 00e2 2A       		.byte	42
 515 00e3 2C       		.byte	44
 516 00e4 2F       		.byte	47
 517 00e5 31       		.byte	49
 518 00e6 34       		.byte	52
 519 00e7 36       		.byte	54
 520 00e8 39       		.byte	57
 521 00e9 3B       		.byte	59
 522 00ea 3E       		.byte	62
 523 00eb 41       		.byte	65
 524 00ec 43       		.byte	67
 525 00ed 46       		.byte	70
 526 00ee 49       		.byte	73
 527 00ef 4C       		.byte	76
 528 00f0 4F       		.byte	79
 529 00f1 52       		.byte	82
 530 00f2 55       		.byte	85
 531 00f3 58       		.byte	88
 532 00f4 5A       		.byte	90
 533 00f5 5D       		.byte	93
 534 00f6 61       		.byte	97
 535 00f7 64       		.byte	100
 536 00f8 67       		.byte	103
 537 00f9 6A       		.byte	106
 538 00fa 6D       		.byte	109
 539 00fb 70       		.byte	112
 540 00fc 73       		.byte	115
 541 00fd 76       		.byte	118
 542 00fe 79       		.byte	121
 543 00ff 7C       		.byte	124
 544              		.data
 545              		.align	2
 546              		.set	.LANCHOR1,. + 0
 547              		.type	WriteBufferIndex, %object
 548              		.size	WriteBufferIndex, 4
 549              	WriteBufferIndex:
 550 0000 00000000 		.word	VDAC_Buffer
 551              		.text
 552              	.Letext0:
ARM GAS  C:\Users\HPz420\AppData\Local\Temp\ccx7hcVF.s 			page 13


 553              		.file 2 "c:\\program files (x86)\\cypress\\psoc creator\\4.4\\psoc creator\\import\\gnu\\arm\\5.4.
 554              		.file 3 "c:\\program files (x86)\\cypress\\psoc creator\\4.4\\psoc creator\\import\\gnu\\arm\\5.4.
 555              		.file 4 "Generated_Source\\PSoC5/cytypes.h"
 556              		.file 5 "./dds.h"
 557              		.file 6 "./WaveTable.h"
 558              		.file 7 "Generated_Source\\PSoC5/core_cm3.h"
 559              		.file 8 "./WaveGen.h"