ARM GAS  C:\Users\HPz420\AppData\Local\Temp\ccCwfo6L.s 			page 1


   1              		.syntax unified
   2              		.cpu cortex-m3
   3              		.fpu softvfp
   4              		.eabi_attribute 20, 1
   5              		.eabi_attribute 21, 1
   6              		.eabi_attribute 23, 3
   7              		.eabi_attribute 24, 1
   8              		.eabi_attribute 25, 1
   9              		.eabi_attribute 26, 1
  10              		.eabi_attribute 30, 1
  11              		.eabi_attribute 34, 1
  12              		.eabi_attribute 18, 4
  13              		.thumb
  14              		.syntax unified
  15              		.file	"main.c"
  16              		.text
  17              	.Ltext0:
  18              		.cfi_sections	.debug_frame
  19              		.section	.text.myDrqInt,"ax",%progbits
  20              		.align	2
  21              		.global	myDrqInt
  22              		.thumb
  23              		.thumb_func
  24              		.type	myDrqInt, %function
  25              	myDrqInt:
  26              	.LFB63:
  27              		.file 1 "main.c"
   1:main.c        **** /* ========================================
   2:main.c        ****  *
   3:main.c        ****  * 
   4:main.c        ****  *
   5:main.c        ****  * ========================================
   6:main.c        **** */
   7:main.c        **** 
   8:main.c        **** #include "project.h"
   9:main.c        **** #include <dds.h>
  10:main.c        **** #include <WaveGen.h>
  11:main.c        **** 
  12:main.c        **** //===========================================
  13:main.c        **** // Global variables
  14:main.c        **** //===========================================
  15:main.c        **** 
  16:main.c        **** //==============================================================================
  17:main.c        **** // 1/2 Buffer passed, data request issued
  18:main.c        **** //==============================================================================
  19:main.c        **** volatile CYBIT flag_DrqReady = 0; 
  20:main.c        **** CY_ISR(myDrqInt)                
  21:main.c        **** {
  28              		.loc 1 21 0
  29              		.cfi_startproc
  30              		@ args = 0, pretend = 0, frame = 0
  31              		@ frame_needed = 0, uses_anonymous_args = 0
  32              		@ link register save eliminated.
  22:main.c        ****     flag_DrqReady = 1;
  33              		.loc 1 22 0
  34 0000 0122     		movs	r2, #1
  35 0002 014B     		ldr	r3, .L2
ARM GAS  C:\Users\HPz420\AppData\Local\Temp\ccCwfo6L.s 			page 2


  36 0004 1A70     		strb	r2, [r3]
  37 0006 7047     		bx	lr
  38              	.L3:
  39              		.align	2
  40              	.L2:
  41 0008 00000000 		.word	.LANCHOR0
  42              		.cfi_endproc
  43              	.LFE63:
  44              		.size	myDrqInt, .-myDrqInt
  45              		.section	.text.Init,"ax",%progbits
  46              		.align	2
  47              		.global	Init
  48              		.thumb
  49              		.thumb_func
  50              		.type	Init, %function
  51              	Init:
  52              	.LFB64:
  23:main.c        **** }
  24:main.c        **** 
  25:main.c        **** //===========================================
  26:main.c        **** // Function prototypes
  27:main.c        **** //===========================================
  28:main.c        **** //uint8 SetFrequency( double freq );
  29:main.c        **** 
  30:main.c        **** void Init()
  31:main.c        **** {
  53              		.loc 1 31 0
  54              		.cfi_startproc
  55              		@ args = 0, pretend = 0, frame = 0
  56              		@ frame_needed = 0, uses_anonymous_args = 0
  57 0000 08B5     		push	{r3, lr}
  58              		.cfi_def_cfa_offset 8
  59              		.cfi_offset 3, -8
  60              		.cfi_offset 14, -4
  32:main.c        ****     CyGlobalIntEnable;
  61              		.loc 1 32 0
  62              		.syntax unified
  63              	@ 32 "main.c" 1
  64 0002 62B6     		CPSIE   i
  65              	@ 0 "" 2
  33:main.c        **** 
  34:main.c        ****     BUF_Start();                // initialie DMA and VDAC
  66              		.loc 1 34 0
  67              		.thumb
  68              		.syntax unified
  69 0004 FFF7FEFF 		bl	BUF_Start
  70              	.LVL0:
  35:main.c        ****     
  36:main.c        ****     DDS_Clock_Freq = 32.0E+3; // set actual DDS sampling clock frequency
  71              		.loc 1 36 0
  72 0008 0020     		movs	r0, #0
  73 000a 0749     		ldr	r1, .L6
  74 000c 074B     		ldr	r3, .L6+4
  75 000e C3E90001 		strd	r0, [r3]
  37:main.c        ****     
  38:main.c        ****     DDS_Start();
  76              		.loc 1 38 0
ARM GAS  C:\Users\HPz420\AppData\Local\Temp\ccCwfo6L.s 			page 3


  77 0012 FFF7FEFF 		bl	DDS_Start
  78              	.LVL1:
  39:main.c        ****     DDS_SetFrequency( 500 );   // set output frequency
  79              		.loc 1 39 0
  80 0016 0020     		movs	r0, #0
  81 0018 0549     		ldr	r1, .L6+8
  82 001a FFF7FEFF 		bl	DDS_SetFrequency
  83              	.LVL2:
  40:main.c        ****     
  41:main.c        ****     isrDrq_StartEx(myDrqInt);   // start isrDrq interrupt
  84              		.loc 1 41 0
  85 001e 0548     		ldr	r0, .L6+12
  86 0020 FFF7FEFF 		bl	isrDrq_StartEx
  87              	.LVL3:
  88 0024 08BD     		pop	{r3, pc}
  89              	.L7:
  90 0026 00BF     		.align	2
  91              	.L6:
  92 0028 0040DF40 		.word	1088372736
  93 002c 00000000 		.word	DDS_Clock_Freq
  94 0030 00407F40 		.word	1082081280
  95 0034 00000000 		.word	myDrqInt
  96              		.cfi_endproc
  97              	.LFE64:
  98              		.size	Init, .-Init
  99              		.section	.text.main,"ax",%progbits
 100              		.align	2
 101              		.global	main
 102              		.thumb
 103              		.thumb_func
 104              		.type	main, %function
 105              	main:
 106              	.LFB65:
  42:main.c        **** }
  43:main.c        **** 
  44:main.c        **** //===========================================
  45:main.c        **** // main()
  46:main.c        **** //===========================================
  47:main.c        **** int main(void)
  48:main.c        **** {
 107              		.loc 1 48 0
 108              		.cfi_startproc
 109              		@ Volatile: function does not return.
 110              		@ args = 0, pretend = 0, frame = 0
 111              		@ frame_needed = 0, uses_anonymous_args = 0
 112 0000 08B5     		push	{r3, lr}
 113              		.cfi_def_cfa_offset 8
 114              		.cfi_offset 3, -8
 115              		.cfi_offset 14, -4
  49:main.c        ****     
  50:main.c        ****     Init();
 116              		.loc 1 50 0
 117 0002 FFF7FEFF 		bl	Init
 118              	.LVL4:
 119              	.L9:
  51:main.c        **** 
  52:main.c        ****     for(;;)
ARM GAS  C:\Users\HPz420\AppData\Local\Temp\ccCwfo6L.s 			page 4


  53:main.c        ****     {
  54:main.c        ****        if (flag_DrqReady)
 120              		.loc 1 54 0
 121 0006 054B     		ldr	r3, .L12
 122 0008 1B78     		ldrb	r3, [r3]	@ zero_extendqisi2
 123 000a 13F0FF0F 		tst	r3, #255
 124 000e FAD0     		beq	.L9
  55:main.c        ****         {
  56:main.c        ****             flag_DrqReady=0;
 125              		.loc 1 56 0
 126 0010 0022     		movs	r2, #0
 127 0012 024B     		ldr	r3, .L12
 128 0014 1A70     		strb	r2, [r3]
  57:main.c        ****             
  58:main.c        ****             //uint16 offset = (Count7_1_ReadCounter() == 0)? 0 : BUF_NumRefHigh;
  59:main.c        ****             //DDS_FillBuffer(offset, BUF_NumRefHigh ); // fill 1/2 buffer (first or second half)   
  60:main.c        ****             
  61:main.c        ****             DDS_FillHalfBuffer();   // fill just completed half-buffer with data
 129              		.loc 1 61 0
 130 0016 FFF7FEFF 		bl	DDS_FillHalfBuffer
 131              	.LVL5:
 132 001a F4E7     		b	.L9
 133              	.L13:
 134              		.align	2
 135              	.L12:
 136 001c 00000000 		.word	.LANCHOR0
 137              		.cfi_endproc
 138              	.LFE65:
 139              		.size	main, .-main
 140              		.global	flag_DrqReady
 141              		.comm	pBuffer,4,4
 142              		.comm	VDAC_Buffer,256,4
 143              		.comm	DDS_Clock_Freq,8,8
 144              		.comm	dds_inc,4,4
 145              		.comm	dds_acc,4,4
 146              		.bss
 147              		.set	.LANCHOR0,. + 0
 148              		.type	flag_DrqReady, %object
 149              		.size	flag_DrqReady, 1
 150              	flag_DrqReady:
 151 0000 00       		.space	1
 152              		.text
 153              	.Letext0:
 154              		.file 2 "c:\\program files (x86)\\cypress\\psoc creator\\4.4\\psoc creator\\import\\gnu\\arm\\5.4.
 155              		.file 3 "c:\\program files (x86)\\cypress\\psoc creator\\4.4\\psoc creator\\import\\gnu\\arm\\5.4.
 156              		.file 4 "Generated_Source\\PSoC5/cytypes.h"
 157              		.file 5 "Generated_Source\\PSoC5/core_cm3.h"
 158              		.file 6 "./dds.h"
 159              		.file 7 "./WaveGen.h"
 160              		.file 8 "Generated_Source\\PSoC5/isrDrq.h"