ARM GAS  C:\Users\DGILLI~1\AppData\Local\Temp\cchFNnVe.s 			page 1


   1              		.syntax unified
   2              		.cpu cortex-m3
   3              		.fpu softvfp
   4              		.eabi_attribute 20, 1
   5              		.eabi_attribute 21, 1
   6              		.eabi_attribute 23, 3
   7              		.eabi_attribute 24, 1
   8              		.eabi_attribute 25, 1
   9              		.eabi_attribute 26, 1
  10              		.eabi_attribute 30, 1
  11              		.eabi_attribute 34, 1
  12              		.eabi_attribute 18, 4
  13              		.thumb
  14              		.file	"DIGIO8Driver.c"
  15              		.text
  16              	.Ltext0:
  17              		.cfi_sections	.debug_frame
  18              		.section	.text.initDIGIO8Card,"ax",%progbits
  19              		.align	2
  20              		.global	initDIGIO8Card
  21              		.thumb
  22              		.thumb_func
  23              		.type	initDIGIO8Card, %function
  24              	initDIGIO8Card:
  25              	.LFB63:
  26              		.file 1 "DIGIO8Driver.c"
   1:DIGIO8Driver.c **** /* ========================================
   2:DIGIO8Driver.c ****  * DIGIO8Driver.c
   3:DIGIO8Driver.c ****  * Copyright Land Boards LLC, 2017
   4:DIGIO8Driver.c ****  * All Rights Reserved
   5:DIGIO8Driver.c ****  * UNPUBLISHED, LICENSED SOFTWARE.
   6:DIGIO8Driver.c ****  *
   7:DIGIO8Driver.c ****  * CONFIDENTIAL AND PROPRIETARY INFORMATION
   8:DIGIO8Driver.c ****  * WHICH IS THE PROPERTY OF Land Boards, LLC.
   9:DIGIO8Driver.c ****  *
  10:DIGIO8Driver.c ****  * ========================================
  11:DIGIO8Driver.c **** */
  12:DIGIO8Driver.c **** 
  13:DIGIO8Driver.c **** #include <project.h>
  14:DIGIO8Driver.c **** 
  15:DIGIO8Driver.c **** uint8 myWrBuffer[2];
  16:DIGIO8Driver.c ****  
  17:DIGIO8Driver.c **** #define MCP23008_IODIR_REGADR    0x00
  18:DIGIO8Driver.c **** #define MCP23008_IPOL_REGADR     0x01
  19:DIGIO8Driver.c **** #define MCP23008_GPINTEN_REGADR  0x02
  20:DIGIO8Driver.c **** #define MCP23008_DEFVAL_REGADR   0x03
  21:DIGIO8Driver.c **** #define MCP23008_INTCON_REGADR   0x04
  22:DIGIO8Driver.c **** #define MCP23008_IOCON_REGADR    0x05
  23:DIGIO8Driver.c **** #define MCP23008_GPPU_REGADR     0x06
  24:DIGIO8Driver.c **** #define MCP23008_INTF_REGADR     0x07
  25:DIGIO8Driver.c **** #define MCP23008_INTCAP_REGADR   0x08
  26:DIGIO8Driver.c **** #define MCP23008_GPIO_REGADR     0x09
  27:DIGIO8Driver.c **** #define MCP23008_OLAT_REGADR     0x0a
  28:DIGIO8Driver.c **** 
  29:DIGIO8Driver.c **** #define MCP23008_IODIR_DEFVAL    0xf0
  30:DIGIO8Driver.c **** #define MCP23008_IOCON_DEFVAL    0x00
  31:DIGIO8Driver.c **** 
ARM GAS  C:\Users\DGILLI~1\AppData\Local\Temp\cchFNnVe.s 			page 2


  32:DIGIO8Driver.c **** //////////////////////////////////////////////////////////////////////////////
  33:DIGIO8Driver.c **** // initDIGIO8Card(void) - 
  34:DIGIO8Driver.c **** //////////////////////////////////////////////////////////////////////////////
  35:DIGIO8Driver.c **** 
  36:DIGIO8Driver.c **** void initDIGIO8Card(void)
  37:DIGIO8Driver.c **** {
  27              		.loc 1 37 0
  28              		.cfi_startproc
  29              		@ args = 0, pretend = 0, frame = 0
  30              		@ frame_needed = 0, uses_anonymous_args = 0
  31 0000 38B5     		push	{r3, r4, r5, lr}
  32              		.cfi_def_cfa_offset 16
  33              		.cfi_offset 3, -16
  34              		.cfi_offset 4, -12
  35              		.cfi_offset 5, -8
  36              		.cfi_offset 14, -4
  38:DIGIO8Driver.c ****     myWrBuffer[0] = MCP23008_IOCON_REGADR;
  37              		.loc 1 38 0
  38 0002 0A4C     		ldr	r4, .L3
  39 0004 0523     		movs	r3, #5
  40 0006 2370     		strb	r3, [r4]
  39:DIGIO8Driver.c ****     myWrBuffer[1] = MCP23008_IOCON_DEFVAL;
  41              		.loc 1 39 0
  42 0008 0025     		movs	r5, #0
  43 000a 6570     		strb	r5, [r4, #1]
  40:DIGIO8Driver.c ****     I2C_MasterWriteBuf(0x20, myWrBuffer, 2, I2C_MODE_COMPLETE_XFER);
  44              		.loc 1 40 0
  45 000c 2020     		movs	r0, #32
  46 000e 2146     		mov	r1, r4
  47 0010 0222     		movs	r2, #2
  48 0012 2B46     		mov	r3, r5
  49 0014 FFF7FEFF 		bl	I2C_MasterWriteBuf
  50              	.LVL0:
  41:DIGIO8Driver.c ****     // LEDs are outputs, jumpers are inputs
  42:DIGIO8Driver.c ****     myWrBuffer[0] = MCP23008_IODIR_REGADR;
  51              		.loc 1 42 0
  52 0018 2570     		strb	r5, [r4]
  43:DIGIO8Driver.c ****     myWrBuffer[1] = MCP23008_IODIR_DEFVAL;
  53              		.loc 1 43 0
  54 001a F023     		movs	r3, #240
  55 001c 6370     		strb	r3, [r4, #1]
  44:DIGIO8Driver.c ****     I2C_MasterWriteBuf(0x20, myWrBuffer, 2, I2C_MODE_COMPLETE_XFER);
  56              		.loc 1 44 0
  57 001e 2020     		movs	r0, #32
  58 0020 2146     		mov	r1, r4
  59 0022 0222     		movs	r2, #2
  60 0024 2B46     		mov	r3, r5
  61 0026 FFF7FEFF 		bl	I2C_MasterWriteBuf
  62              	.LVL1:
  63 002a 38BD     		pop	{r3, r4, r5, pc}
  64              	.L4:
  65              		.align	2
  66              	.L3:
  67 002c 00000000 		.word	myWrBuffer
  68              		.cfi_endproc
  69              	.LFE63:
  70              		.size	initDIGIO8Card, .-initDIGIO8Card
ARM GAS  C:\Users\DGILLI~1\AppData\Local\Temp\cchFNnVe.s 			page 3


  71              		.section	.text.writeDIGIO8Card,"ax",%progbits
  72              		.align	2
  73              		.global	writeDIGIO8Card
  74              		.thumb
  75              		.thumb_func
  76              		.type	writeDIGIO8Card, %function
  77              	writeDIGIO8Card:
  78              	.LFB64:
  45:DIGIO8Driver.c **** }
  46:DIGIO8Driver.c **** 
  47:DIGIO8Driver.c **** //////////////////////////////////////////////////////////////////////////////
  48:DIGIO8Driver.c **** // writeDIGIO8Card(uint8_t outData) - 
  49:DIGIO8Driver.c **** //////////////////////////////////////////////////////////////////////////////
  50:DIGIO8Driver.c **** 
  51:DIGIO8Driver.c **** void writeDIGIO8Card(uint8 outData)
  52:DIGIO8Driver.c **** {
  79              		.loc 1 52 0
  80              		.cfi_startproc
  81              		@ args = 0, pretend = 0, frame = 0
  82              		@ frame_needed = 0, uses_anonymous_args = 0
  83              	.LVL2:
  84 0000 08B5     		push	{r3, lr}
  85              		.cfi_def_cfa_offset 8
  86              		.cfi_offset 3, -8
  87              		.cfi_offset 14, -4
  53:DIGIO8Driver.c ****     myWrBuffer[0]= MCP23008_OLAT_REGADR;
  88              		.loc 1 53 0
  89 0002 0549     		ldr	r1, .L7
  90 0004 0A23     		movs	r3, #10
  91 0006 0B70     		strb	r3, [r1]
  54:DIGIO8Driver.c ****     myWrBuffer[1] = outData;
  92              		.loc 1 54 0
  93 0008 4870     		strb	r0, [r1, #1]
  55:DIGIO8Driver.c ****     I2C_MasterWriteBuf(0x20, myWrBuffer, 2, I2C_MODE_COMPLETE_XFER);
  94              		.loc 1 55 0
  95 000a 2020     		movs	r0, #32
  96              	.LVL3:
  97 000c 0222     		movs	r2, #2
  98 000e 0023     		movs	r3, #0
  99 0010 FFF7FEFF 		bl	I2C_MasterWriteBuf
 100              	.LVL4:
 101 0014 08BD     		pop	{r3, pc}
 102              	.L8:
 103 0016 00BF     		.align	2
 104              	.L7:
 105 0018 00000000 		.word	myWrBuffer
 106              		.cfi_endproc
 107              	.LFE64:
 108              		.size	writeDIGIO8Card, .-writeDIGIO8Card
 109              		.section	.text.readDIGIO8Card,"ax",%progbits
 110              		.align	2
 111              		.global	readDIGIO8Card
 112              		.thumb
 113              		.thumb_func
 114              		.type	readDIGIO8Card, %function
 115              	readDIGIO8Card:
 116              	.LFB65:
ARM GAS  C:\Users\DGILLI~1\AppData\Local\Temp\cchFNnVe.s 			page 4


  56:DIGIO8Driver.c **** }
  57:DIGIO8Driver.c **** 
  58:DIGIO8Driver.c **** //////////////////////////////////////////////////////////////////////////////
  59:DIGIO8Driver.c **** // readDIGIO8Card(void)
  60:DIGIO8Driver.c **** //////////////////////////////////////////////////////////////////////////////
  61:DIGIO8Driver.c **** 
  62:DIGIO8Driver.c **** uint8 rdBuff[4];
  63:DIGIO8Driver.c **** 
  64:DIGIO8Driver.c **** uint8 readDIGIO8Card(void)
  65:DIGIO8Driver.c **** {
 117              		.loc 1 65 0
 118              		.cfi_startproc
 119              		@ args = 0, pretend = 0, frame = 8
 120              		@ frame_needed = 0, uses_anonymous_args = 0
 121 0000 00B5     		push	{lr}
 122              		.cfi_def_cfa_offset 4
 123              		.cfi_offset 14, -4
 124 0002 83B0     		sub	sp, sp, #12
 125              		.cfi_def_cfa_offset 16
  66:DIGIO8Driver.c ****     uint8 myWrBuffer[2];
  67:DIGIO8Driver.c ****     myWrBuffer[0] = MCP23008_GPIO_REGADR;
 126              		.loc 1 67 0
 127 0004 02A9     		add	r1, sp, #8
 128 0006 0923     		movs	r3, #9
 129 0008 01F8043D 		strb	r3, [r1, #-4]!
  68:DIGIO8Driver.c ****     I2C_MasterWriteBuf(0x20, myWrBuffer, 1, I2C_MODE_COMPLETE_XFER);
 130              		.loc 1 68 0
 131 000c 2020     		movs	r0, #32
 132 000e 0122     		movs	r2, #1
 133 0010 0023     		movs	r3, #0
 134 0012 FFF7FEFF 		bl	I2C_MasterWriteBuf
 135              	.LVL5:
  69:DIGIO8Driver.c ****     rdBuff[0] = I2C_MasterReadByte(I2C_ACK_DATA);
 136              		.loc 1 69 0
 137 0016 0120     		movs	r0, #1
 138 0018 FFF7FEFF 		bl	I2C_MasterReadByte
 139              	.LVL6:
 140 001c 024B     		ldr	r3, .L11
 141 001e 1870     		strb	r0, [r3]
  70:DIGIO8Driver.c ****     return rdBuff[0]>>4;
  71:DIGIO8Driver.c **** }
 142              		.loc 1 71 0
 143 0020 0009     		lsrs	r0, r0, #4
 144 0022 03B0     		add	sp, sp, #12
 145              		.cfi_def_cfa_offset 4
 146              		@ sp needed
 147 0024 5DF804FB 		ldr	pc, [sp], #4
 148              	.L12:
 149              		.align	2
 150              	.L11:
 151 0028 00000000 		.word	rdBuff
 152              		.cfi_endproc
 153              	.LFE65:
 154              		.size	readDIGIO8Card, .-readDIGIO8Card
 155              		.comm	rdBuff,4,4
 156              		.comm	myWrBuffer,2,4
 157              		.text
ARM GAS  C:\Users\DGILLI~1\AppData\Local\Temp\cchFNnVe.s 			page 5


 158              	.Letext0:
 159              		.file 2 "c:\\program files (x86)\\cypress\\psoc creator\\4.0\\psoc creator\\import\\gnu\\arm\\4.9.
 160              		.file 3 "c:\\program files (x86)\\cypress\\psoc creator\\4.0\\psoc creator\\import\\gnu\\arm\\4.9.
 161              		.file 4 "Generated_Source\\PSoC5/cytypes.h"
 162              		.file 5 "Generated_Source\\PSoC5/core_cm3.h"
 163              		.file 6 "Generated_Source\\PSoC5/I2C.h"