ARM GAS  C:\Users\DGILLI~1\AppData\Local\Temp\ccq4vHxi.s 			page 1


   1              		.syntax unified
   2              		.cpu cortex-m3
   3              		.fpu softvfp
   4              		.eabi_attribute 20, 1
   5              		.eabi_attribute 21, 1
   6              		.eabi_attribute 23, 3
   7              		.eabi_attribute 24, 1
   8              		.eabi_attribute 25, 1
   9              		.eabi_attribute 26, 1
  10              		.eabi_attribute 30, 1
  11              		.eabi_attribute 34, 1
  12              		.eabi_attribute 18, 4
  13              		.thumb
  14              		.file	"DIGIO8Driver.c"
  15              		.text
  16              	.Ltext0:
  17              		.cfi_sections	.debug_frame
  18              		.section	.text.readRegisterDIGIO8Card,"ax",%progbits
  19              		.align	2
  20              		.global	readRegisterDIGIO8Card
  21              		.thumb
  22              		.thumb_func
  23              		.type	readRegisterDIGIO8Card, %function
  24              	readRegisterDIGIO8Card:
  25              	.LFB63:
  26              		.file 1 "DIGIO8Driver.c"
   1:DIGIO8Driver.c **** /* ========================================
   2:DIGIO8Driver.c ****  * DIGIO8Driver.c
   3:DIGIO8Driver.c ****  * Copyright Land Boards LLC, 2017
   4:DIGIO8Driver.c ****  * All Rights Reserved
   5:DIGIO8Driver.c ****  * UNPUBLISHED, LICENSED SOFTWARE.
   6:DIGIO8Driver.c ****  *
   7:DIGIO8Driver.c ****  * CONFIDENTIAL AND PROPRIETARY INFORMATION
   8:DIGIO8Driver.c ****  * WHICH IS THE PROPERTY OF Land Boards, LLC.
   9:DIGIO8Driver.c ****  *
  10:DIGIO8Driver.c ****  * ========================================
  11:DIGIO8Driver.c **** */
  12:DIGIO8Driver.c **** 
  13:DIGIO8Driver.c **** #include <project.h>
  14:DIGIO8Driver.c **** 
  15:DIGIO8Driver.c **** uint8 myWrBuffer[2];
  16:DIGIO8Driver.c ****  
  17:DIGIO8Driver.c **** #define MCP23008_IODIR_REGADR    0x00
  18:DIGIO8Driver.c **** #define MCP23008_IPOL_REGADR     0x01
  19:DIGIO8Driver.c **** #define MCP23008_GPINTEN_REGADR  0x02
  20:DIGIO8Driver.c **** #define MCP23008_DEFVAL_REGADR   0x03
  21:DIGIO8Driver.c **** #define MCP23008_INTCON_REGADR   0x04
  22:DIGIO8Driver.c **** #define MCP23008_IOCON_REGADR    0x05
  23:DIGIO8Driver.c **** #define MCP23008_GPPU_REGADR     0x06
  24:DIGIO8Driver.c **** #define MCP23008_INTF_REGADR     0x07
  25:DIGIO8Driver.c **** #define MCP23008_INTCAP_REGADR   0x08
  26:DIGIO8Driver.c **** #define MCP23008_GPIO_REGADR     0x09
  27:DIGIO8Driver.c **** #define MCP23008_OLAT_REGADR     0x0a
  28:DIGIO8Driver.c **** 
  29:DIGIO8Driver.c **** #define MCP23008_IODIR_DEFVAL    0xf0       // Upper 4 bits=JumperIns, lower=LEDS
  30:DIGIO8Driver.c **** #define MCP23008_IPOL_DEFVAL     0xf0       // Input polarity = invert jumpers
  31:DIGIO8Driver.c **** #define MCP23008_GPINTEN_DEFVAL  0x00       // Disable GPIO for interrupt on change
ARM GAS  C:\Users\DGILLI~1\AppData\Local\Temp\ccq4vHxi.s 			page 2


  32:DIGIO8Driver.c **** #define MCP23008_INTCON_DEFVAL   0x00       // Int for change from previous pin
  33:DIGIO8Driver.c **** #define MCP23008_IOCON_DEFVAL    0x00       // Disable sequential,  active-low
  34:DIGIO8Driver.c **** #define MCP23008_GPPU_DEFVAL     0xf0
  35:DIGIO8Driver.c **** 
  36:DIGIO8Driver.c **** //////////////////////////////////////////////////////////////////////////////
  37:DIGIO8Driver.c **** // uint8 readRegisterDIGIO8Card(ctrlAdr) - 
  38:DIGIO8Driver.c **** //////////////////////////////////////////////////////////////////////////////
  39:DIGIO8Driver.c **** 
  40:DIGIO8Driver.c **** uint8 readRegisterDIGIO8Card(uint8 ctrlAdr)
  41:DIGIO8Driver.c **** {
  27              		.loc 1 41 0
  28              		.cfi_startproc
  29              		@ args = 0, pretend = 0, frame = 0
  30              		@ frame_needed = 0, uses_anonymous_args = 0
  31              	.LVL0:
  32 0000 10B5     		push	{r4, lr}
  33              		.cfi_def_cfa_offset 8
  34              		.cfi_offset 4, -8
  35              		.cfi_offset 14, -4
  36 0002 0446     		mov	r4, r0
  42:DIGIO8Driver.c ****     uint8 rdBuff;
  43:DIGIO8Driver.c ****     I2C_MasterClearStatus();
  37              		.loc 1 43 0
  38 0004 FFF7FEFF 		bl	I2C_MasterClearStatus
  39              	.LVL1:
  44:DIGIO8Driver.c ****     I2C_MasterSendStart(0x20,I2C_WRITE_XFER_MODE);
  40              		.loc 1 44 0
  41 0008 2020     		movs	r0, #32
  42 000a 0021     		movs	r1, #0
  43 000c FFF7FEFF 		bl	I2C_MasterSendStart
  44              	.LVL2:
  45:DIGIO8Driver.c ****     I2C_MasterWriteByte(ctrlAdr);
  45              		.loc 1 45 0
  46 0010 2046     		mov	r0, r4
  47 0012 FFF7FEFF 		bl	I2C_MasterWriteByte
  48              	.LVL3:
  46:DIGIO8Driver.c ****     I2C_MasterSendStop();
  49              		.loc 1 46 0
  50 0016 FFF7FEFF 		bl	I2C_MasterSendStop
  51              	.LVL4:
  47:DIGIO8Driver.c **** //    while ((I2C_MasterStatus() & I2C_MSTAT_WR_CMPLT) == 0);
  48:DIGIO8Driver.c ****     I2C_MasterSendStart(0x20,I2C_READ_XFER_MODE);
  52              		.loc 1 48 0
  53 001a 2020     		movs	r0, #32
  54 001c 0121     		movs	r1, #1
  55 001e FFF7FEFF 		bl	I2C_MasterSendStart
  56              	.LVL5:
  49:DIGIO8Driver.c ****     rdBuff = I2C_MasterReadByte(I2C_NAK_DATA);
  57              		.loc 1 49 0
  58 0022 0020     		movs	r0, #0
  59 0024 FFF7FEFF 		bl	I2C_MasterReadByte
  60              	.LVL6:
  61 0028 0446     		mov	r4, r0
  62              	.LVL7:
  50:DIGIO8Driver.c ****     I2C_MasterSendStop();
  63              		.loc 1 50 0
  64 002a FFF7FEFF 		bl	I2C_MasterSendStop
ARM GAS  C:\Users\DGILLI~1\AppData\Local\Temp\ccq4vHxi.s 			page 3


  65              	.LVL8:
  51:DIGIO8Driver.c **** //    while ((I2C_MasterStatus() & I2C_MSTAT_RD_CMPLT) == 0);
  52:DIGIO8Driver.c ****     I2C_MasterClearStatus();
  66              		.loc 1 52 0
  67 002e FFF7FEFF 		bl	I2C_MasterClearStatus
  68              	.LVL9:
  53:DIGIO8Driver.c ****     return rdBuff;
  54:DIGIO8Driver.c **** }
  69              		.loc 1 54 0
  70 0032 2046     		mov	r0, r4
  71 0034 10BD     		pop	{r4, pc}
  72              		.cfi_endproc
  73              	.LFE63:
  74              		.size	readRegisterDIGIO8Card, .-readRegisterDIGIO8Card
  75 0036 00BF     		.section	.text.writeRegisterDIGIO8Card,"ax",%progbits
  76              		.align	2
  77              		.global	writeRegisterDIGIO8Card
  78              		.thumb
  79              		.thumb_func
  80              		.type	writeRegisterDIGIO8Card, %function
  81              	writeRegisterDIGIO8Card:
  82              	.LFB64:
  55:DIGIO8Driver.c **** 
  56:DIGIO8Driver.c **** //////////////////////////////////////////////////////////////////////////////
  57:DIGIO8Driver.c **** // writeRegisterDIGIO8Card(ctrlAdr, ctrlVal) - 
  58:DIGIO8Driver.c **** //////////////////////////////////////////////////////////////////////////////
  59:DIGIO8Driver.c **** 
  60:DIGIO8Driver.c **** void writeRegisterDIGIO8Card(uint8 ctrlAdr, uint8 ctrlVal)
  61:DIGIO8Driver.c **** {
  83              		.loc 1 61 0
  84              		.cfi_startproc
  85              		@ args = 0, pretend = 0, frame = 0
  86              		@ frame_needed = 0, uses_anonymous_args = 0
  87              	.LVL10:
  88 0000 38B5     		push	{r3, r4, r5, lr}
  89              		.cfi_def_cfa_offset 16
  90              		.cfi_offset 3, -16
  91              		.cfi_offset 4, -12
  92              		.cfi_offset 5, -8
  93              		.cfi_offset 14, -4
  94 0002 0546     		mov	r5, r0
  95 0004 0C46     		mov	r4, r1
  62:DIGIO8Driver.c ****     I2C_MasterClearStatus();
  96              		.loc 1 62 0
  97 0006 FFF7FEFF 		bl	I2C_MasterClearStatus
  98              	.LVL11:
  63:DIGIO8Driver.c ****     myWrBuffer[0] = ctrlAdr;
  99              		.loc 1 63 0
 100 000a 0849     		ldr	r1, .L6
 101 000c 0D70     		strb	r5, [r1]
  64:DIGIO8Driver.c ****     myWrBuffer[1] = ctrlVal;
 102              		.loc 1 64 0
 103 000e 4C70     		strb	r4, [r1, #1]
  65:DIGIO8Driver.c ****     I2C_MasterWriteBuf(0x20, myWrBuffer, 2, I2C_MODE_COMPLETE_XFER);
 104              		.loc 1 65 0
 105 0010 2020     		movs	r0, #32
 106 0012 0222     		movs	r2, #2
ARM GAS  C:\Users\DGILLI~1\AppData\Local\Temp\ccq4vHxi.s 			page 4


 107 0014 0023     		movs	r3, #0
 108 0016 FFF7FEFF 		bl	I2C_MasterWriteBuf
 109              	.LVL12:
 110              	.L4:
  66:DIGIO8Driver.c ****     while (0u == (I2C_MasterStatus() & I2C_MSTAT_WR_CMPLT));
 111              		.loc 1 66 0 discriminator 1
 112 001a FFF7FEFF 		bl	I2C_MasterStatus
 113              	.LVL13:
 114 001e 10F0020F 		tst	r0, #2
 115 0022 FAD0     		beq	.L4
  67:DIGIO8Driver.c ****     I2C_MasterClearStatus();
 116              		.loc 1 67 0
 117 0024 FFF7FEFF 		bl	I2C_MasterClearStatus
 118              	.LVL14:
 119 0028 38BD     		pop	{r3, r4, r5, pc}
 120              	.L7:
 121 002a 00BF     		.align	2
 122              	.L6:
 123 002c 00000000 		.word	myWrBuffer
 124              		.cfi_endproc
 125              	.LFE64:
 126              		.size	writeRegisterDIGIO8Card, .-writeRegisterDIGIO8Card
 127              		.section	.text.initDIGIO8Card,"ax",%progbits
 128              		.align	2
 129              		.global	initDIGIO8Card
 130              		.thumb
 131              		.thumb_func
 132              		.type	initDIGIO8Card, %function
 133              	initDIGIO8Card:
 134              	.LFB65:
  68:DIGIO8Driver.c **** }
  69:DIGIO8Driver.c **** 
  70:DIGIO8Driver.c **** //////////////////////////////////////////////////////////////////////////////
  71:DIGIO8Driver.c **** // initDIGIO8Card(void) - 
  72:DIGIO8Driver.c **** //////////////////////////////////////////////////////////////////////////////
  73:DIGIO8Driver.c **** 
  74:DIGIO8Driver.c **** void initDIGIO8Card(void)
  75:DIGIO8Driver.c **** {
 135              		.loc 1 75 0
 136              		.cfi_startproc
 137              		@ args = 0, pretend = 0, frame = 0
 138              		@ frame_needed = 0, uses_anonymous_args = 0
 139 0000 08B5     		push	{r3, lr}
 140              		.cfi_def_cfa_offset 8
 141              		.cfi_offset 3, -8
 142              		.cfi_offset 14, -4
  76:DIGIO8Driver.c ****     I2C_Start();    // Kick off the I2C interface
 143              		.loc 1 76 0
 144 0002 FFF7FEFF 		bl	I2C_Start
 145              	.LVL15:
  77:DIGIO8Driver.c ****     writeRegisterDIGIO8Card(MCP23008_IOCON_REGADR,MCP23008_IOCON_DEFVAL);
 146              		.loc 1 77 0
 147 0006 0520     		movs	r0, #5
 148 0008 0021     		movs	r1, #0
 149 000a FFF7FEFF 		bl	writeRegisterDIGIO8Card
 150              	.LVL16:
  78:DIGIO8Driver.c ****     writeRegisterDIGIO8Card(MCP23008_IODIR_REGADR,MCP23008_IODIR_DEFVAL);
ARM GAS  C:\Users\DGILLI~1\AppData\Local\Temp\ccq4vHxi.s 			page 5


 151              		.loc 1 78 0
 152 000e 0020     		movs	r0, #0
 153 0010 F021     		movs	r1, #240
 154 0012 FFF7FEFF 		bl	writeRegisterDIGIO8Card
 155              	.LVL17:
  79:DIGIO8Driver.c ****     writeRegisterDIGIO8Card(MCP23008_GPINTEN_REGADR,MCP23008_GPINTEN_DEFVAL);
 156              		.loc 1 79 0
 157 0016 0220     		movs	r0, #2
 158 0018 0021     		movs	r1, #0
 159 001a FFF7FEFF 		bl	writeRegisterDIGIO8Card
 160              	.LVL18:
  80:DIGIO8Driver.c ****     writeRegisterDIGIO8Card(MCP23008_INTCON_REGADR,MCP23008_INTCON_DEFVAL);
 161              		.loc 1 80 0
 162 001e 0420     		movs	r0, #4
 163 0020 0021     		movs	r1, #0
 164 0022 FFF7FEFF 		bl	writeRegisterDIGIO8Card
 165              	.LVL19:
  81:DIGIO8Driver.c ****     writeRegisterDIGIO8Card(MCP23008_GPPU_REGADR,MCP23008_GPPU_DEFVAL);
 166              		.loc 1 81 0
 167 0026 0620     		movs	r0, #6
 168 0028 F021     		movs	r1, #240
 169 002a FFF7FEFF 		bl	writeRegisterDIGIO8Card
 170              	.LVL20:
  82:DIGIO8Driver.c ****     readRegisterDIGIO8Card(MCP23008_INTCAP_REGADR); // Clear interrupt LED
 171              		.loc 1 82 0
 172 002e 0820     		movs	r0, #8
 173 0030 FFF7FEFF 		bl	readRegisterDIGIO8Card
 174              	.LVL21:
 175 0034 08BD     		pop	{r3, pc}
 176              		.cfi_endproc
 177              	.LFE65:
 178              		.size	initDIGIO8Card, .-initDIGIO8Card
 179 0036 00BF     		.section	.text.writeDIGIO8Card,"ax",%progbits
 180              		.align	2
 181              		.global	writeDIGIO8Card
 182              		.thumb
 183              		.thumb_func
 184              		.type	writeDIGIO8Card, %function
 185              	writeDIGIO8Card:
 186              	.LFB66:
  83:DIGIO8Driver.c **** }
  84:DIGIO8Driver.c **** 
  85:DIGIO8Driver.c **** //////////////////////////////////////////////////////////////////////////////
  86:DIGIO8Driver.c **** // writeDIGIO8Card(uint8_t outData) - 
  87:DIGIO8Driver.c **** //////////////////////////////////////////////////////////////////////////////
  88:DIGIO8Driver.c **** 
  89:DIGIO8Driver.c **** void writeDIGIO8Card(uint8 outData)
  90:DIGIO8Driver.c **** {
 187              		.loc 1 90 0
 188              		.cfi_startproc
 189              		@ args = 0, pretend = 0, frame = 0
 190              		@ frame_needed = 0, uses_anonymous_args = 0
 191              	.LVL22:
 192 0000 08B5     		push	{r3, lr}
 193              		.cfi_def_cfa_offset 8
 194              		.cfi_offset 3, -8
 195              		.cfi_offset 14, -4
ARM GAS  C:\Users\DGILLI~1\AppData\Local\Temp\ccq4vHxi.s 			page 6


 196 0002 0146     		mov	r1, r0
  91:DIGIO8Driver.c ****      writeRegisterDIGIO8Card(MCP23008_OLAT_REGADR,outData);
 197              		.loc 1 91 0
 198 0004 0A20     		movs	r0, #10
 199              	.LVL23:
 200 0006 FFF7FEFF 		bl	writeRegisterDIGIO8Card
 201              	.LVL24:
 202 000a 08BD     		pop	{r3, pc}
 203              		.cfi_endproc
 204              	.LFE66:
 205              		.size	writeDIGIO8Card, .-writeDIGIO8Card
 206              		.section	.text.readDIGIO8Card,"ax",%progbits
 207              		.align	2
 208              		.global	readDIGIO8Card
 209              		.thumb
 210              		.thumb_func
 211              		.type	readDIGIO8Card, %function
 212              	readDIGIO8Card:
 213              	.LFB67:
  92:DIGIO8Driver.c **** }
  93:DIGIO8Driver.c **** 
  94:DIGIO8Driver.c **** //////////////////////////////////////////////////////////////////////////////
  95:DIGIO8Driver.c **** // readDIGIO8Card(void)
  96:DIGIO8Driver.c **** //////////////////////////////////////////////////////////////////////////////
  97:DIGIO8Driver.c **** 
  98:DIGIO8Driver.c **** uint8 readDIGIO8Card(void)
  99:DIGIO8Driver.c **** {
 214              		.loc 1 99 0
 215              		.cfi_startproc
 216              		@ args = 0, pretend = 0, frame = 0
 217              		@ frame_needed = 0, uses_anonymous_args = 0
 218 0000 08B5     		push	{r3, lr}
 219              		.cfi_def_cfa_offset 8
 220              		.cfi_offset 3, -8
 221              		.cfi_offset 14, -4
 100:DIGIO8Driver.c ****     uint8 rdBuff;
 101:DIGIO8Driver.c ****     rdBuff = readRegisterDIGIO8Card(MCP23008_GPIO_REGADR);
 222              		.loc 1 101 0
 223 0002 0920     		movs	r0, #9
 224 0004 FFF7FEFF 		bl	readRegisterDIGIO8Card
 225              	.LVL25:
 102:DIGIO8Driver.c ****     return rdBuff>>4;
 103:DIGIO8Driver.c **** }
 226              		.loc 1 103 0
 227 0008 C0F30710 		ubfx	r0, r0, #4, #8
 228              	.LVL26:
 229 000c 08BD     		pop	{r3, pc}
 230              		.cfi_endproc
 231              	.LFE67:
 232              		.size	readDIGIO8Card, .-readDIGIO8Card
 233              		.comm	myWrBuffer,2,4
 234 000e 00BF     		.text
 235              	.Letext0:
 236              		.file 2 "c:\\program files (x86)\\cypress\\psoc creator\\4.0\\psoc creator\\import\\gnu\\arm\\4.9.
 237              		.file 3 "c:\\program files (x86)\\cypress\\psoc creator\\4.0\\psoc creator\\import\\gnu\\arm\\4.9.
 238              		.file 4 "Generated_Source\\PSoC5/cytypes.h"
 239              		.file 5 "Generated_Source\\PSoC5/core_cm3.h"
ARM GAS  C:\Users\DGILLI~1\AppData\Local\Temp\ccq4vHxi.s 			page 7


 240              		.file 6 "Generated_Source\\PSoC5/I2C.h"