ARM GAS  C:\Users\doug_000\AppData\Local\Temp\ccauuwMn.s 			page 1


   1              		.syntax unified
   2              		.cpu cortex-m3
   3              		.fpu softvfp
   4              		.eabi_attribute 20, 1
   5              		.eabi_attribute 21, 1
   6              		.eabi_attribute 23, 3
   7              		.eabi_attribute 24, 1
   8              		.eabi_attribute 25, 1
   9              		.eabi_attribute 26, 1
  10              		.eabi_attribute 30, 1
  11              		.eabi_attribute 34, 1
  12              		.eabi_attribute 18, 4
  13              		.thumb
  14              		.file	"main.c"
  15              		.text
  16              	.Ltext0:
  17              		.cfi_sections	.debug_frame
  18              		.section	.text.loadNewPWM,"ax",%progbits
  19              		.align	2
  20              		.global	loadNewPWM
  21              		.thumb
  22              		.thumb_func
  23              		.type	loadNewPWM, %function
  24              	loadNewPWM:
  25              	.LFB63:
  26              		.file 1 "main.c"
   1:main.c        **** /* ========================================
   2:main.c        ****  *
   3:main.c        ****  * Copyright YOUR COMPANY, THE YEAR
   4:main.c        ****  * All Rights Reserved
   5:main.c        ****  * UNPUBLISHED, LICENSED SOFTWARE.
   6:main.c        ****  *
   7:main.c        ****  * CONFIDENTIAL AND PROPRIETARY INFORMATION
   8:main.c        ****  * WHICH IS THE PROPERTY OF your company.
   9:main.c        ****  *
  10:main.c        ****  * ========================================
  11:main.c        **** */
  12:main.c        **** 
  13:main.c        **** #include "project.h"
  14:main.c        **** 
  15:main.c        **** #define FREQ        99
  16:main.c        **** #define STARTA      1
  17:main.c        **** #define PWM_WIDTH   48
  18:main.c        **** #define PWM_STEP    4
  19:main.c        **** 
  20:main.c        **** ////////////////////////////////////////////////////////////////
  21:main.c        **** ////////////////////////////////////////////////////////////////
  22:main.c        **** 
  23:main.c        **** void loadNewPWM(unsigned char pwmPct)
  24:main.c        **** {
  27              		.loc 1 24 0
  28              		.cfi_startproc
  29              		@ args = 0, pretend = 0, frame = 0
  30              		@ frame_needed = 0, uses_anonymous_args = 0
  31              	.LVL0:
  32 0000 10B5     		push	{r4, lr}
  33              		.cfi_def_cfa_offset 8
ARM GAS  C:\Users\doug_000\AppData\Local\Temp\ccauuwMn.s 			page 2


  34              		.cfi_offset 4, -8
  35              		.cfi_offset 14, -4
  36 0002 0446     		mov	r4, r0
  37              	.LVL1:
  38              	.L2:
  25:main.c        ****     while ((Status_Reg_1_Read() & 0x1) == 0x1);
  39              		.loc 1 25 0 discriminator 1
  40 0004 FFF7FEFF 		bl	Status_Reg_1_Read
  41              	.LVL2:
  42 0008 10F0010F 		tst	r0, #1
  43 000c FAD1     		bne	.L2
  26:main.c        ****     EndPWMA_Write(STARTA+pwmPct-1);
  44              		.loc 1 26 0
  45 000e 2046     		mov	r0, r4
  46 0010 FFF7FEFF 		bl	EndPWMA_Write
  47              	.LVL3:
  48              	.L3:
  27:main.c        ****     while ((Status_Reg_1_Read() & 0x2) == 0x0);
  49              		.loc 1 27 0 discriminator 1
  50 0014 FFF7FEFF 		bl	Status_Reg_1_Read
  51              	.LVL4:
  52 0018 10F0020F 		tst	r0, #2
  53 001c FAD0     		beq	.L3
  54              	.L4:
  28:main.c        ****     while ((Status_Reg_1_Read() & 0x2) == 0x2);
  55              		.loc 1 28 0 discriminator 1
  56 001e FFF7FEFF 		bl	Status_Reg_1_Read
  57              	.LVL5:
  58 0022 10F0020F 		tst	r0, #2
  59 0026 FAD1     		bne	.L4
  29:main.c        ****     EndPWMB_Write(pwmPct+STARTA+(FREQ/2));    
  60              		.loc 1 29 0
  61 0028 04F13200 		add	r0, r4, #50
  62 002c C0B2     		uxtb	r0, r0
  63 002e FFF7FEFF 		bl	EndPWMB_Write
  64              	.LVL6:
  65              	.L5:
  30:main.c        ****     while ((Status_Reg_1_Read() & 0x1) == 0x0);
  66              		.loc 1 30 0 discriminator 1
  67 0032 FFF7FEFF 		bl	Status_Reg_1_Read
  68              	.LVL7:
  69 0036 10F0010F 		tst	r0, #1
  70 003a FAD0     		beq	.L5
  31:main.c        **** }
  71              		.loc 1 31 0
  72 003c 10BD     		pop	{r4, pc}
  73              		.cfi_endproc
  74              	.LFE63:
  75              		.size	loadNewPWM, .-loadNewPWM
  76 003e 00BF     		.section	.text.toggleLED,"ax",%progbits
  77              		.align	2
  78              		.global	toggleLED
  79              		.thumb
  80              		.thumb_func
  81              		.type	toggleLED, %function
  82              	toggleLED:
  83              	.LFB64:
ARM GAS  C:\Users\doug_000\AppData\Local\Temp\ccauuwMn.s 			page 3


  32:main.c        **** 
  33:main.c        **** ////////////////////////////////////////////////////////////////
  34:main.c        **** // toggleLED()  Does not work in Rev X1
  35:main.c        **** ////////////////////////////////////////////////////////////////
  36:main.c        **** 
  37:main.c        **** void toggleLED(void)
  38:main.c        **** {
  84              		.loc 1 38 0
  85              		.cfi_startproc
  86              		@ args = 0, pretend = 0, frame = 0
  87              		@ frame_needed = 0, uses_anonymous_args = 0
  88 0000 08B5     		push	{r3, lr}
  89              		.cfi_def_cfa_offset 8
  90              		.cfi_offset 3, -8
  91              		.cfi_offset 14, -4
  39:main.c        ****     Control_Reg_1_Write(Control_Reg_1_Read() | 0x02);
  92              		.loc 1 39 0
  93 0002 FFF7FEFF 		bl	Control_Reg_1_Read
  94              	.LVL8:
  95 0006 40F00200 		orr	r0, r0, #2
  96 000a C0B2     		uxtb	r0, r0
  97 000c FFF7FEFF 		bl	Control_Reg_1_Write
  98              	.LVL9:
  40:main.c        ****     CyDelay(250);
  99              		.loc 1 40 0
 100 0010 FA20     		movs	r0, #250
 101 0012 FFF7FEFF 		bl	CyDelay
 102              	.LVL10:
  41:main.c        ****     Control_Reg_1_Write(Control_Reg_1_Read() & 0xfd);    
 103              		.loc 1 41 0
 104 0016 FFF7FEFF 		bl	Control_Reg_1_Read
 105              	.LVL11:
 106 001a 00F0FD00 		and	r0, r0, #253
 107 001e FFF7FEFF 		bl	Control_Reg_1_Write
 108              	.LVL12:
 109 0022 08BD     		pop	{r3, pc}
 110              		.cfi_endproc
 111              	.LFE64:
 112              		.size	toggleLED, .-toggleLED
 113              		.section	.text.main,"ax",%progbits
 114              		.align	2
 115              		.global	main
 116              		.thumb
 117              		.thumb_func
 118              		.type	main, %function
 119              	main:
 120              	.LFB65:
  42:main.c        **** }
  43:main.c        **** 
  44:main.c        **** ////////////////////////////////////////////////////////////////
  45:main.c        **** ////////////////////////////////////////////////////////////////
  46:main.c        **** 
  47:main.c        **** int main(void)
  48:main.c        **** {
 121              		.loc 1 48 0
 122              		.cfi_startproc
 123              		@ args = 0, pretend = 0, frame = 0
ARM GAS  C:\Users\doug_000\AppData\Local\Temp\ccauuwMn.s 			page 4


 124              		@ frame_needed = 0, uses_anonymous_args = 0
 125 0000 10B5     		push	{r4, lr}
 126              		.cfi_def_cfa_offset 8
 127              		.cfi_offset 4, -8
 128              		.cfi_offset 14, -4
  49:main.c        **** 	CyGlobalIntEnable; /* Enable global interrupts. */
 129              		.loc 1 49 0
 130              	@ 49 "main.c" 1
 131 0002 62B6     		CPSIE   i
 132              	@ 0 "" 2
  50:main.c        ****     toggleLED();
 133              		.loc 1 50 0
 134              		.thumb
 135 0004 FFF7FEFF 		bl	toggleLED
 136              	.LVL13:
  51:main.c        **** 	Freq_Write(FREQ);
 137              		.loc 1 51 0
 138 0008 6320     		movs	r0, #99
 139 000a FFF7FEFF 		bl	Freq_Write
 140              	.LVL14:
  52:main.c        **** 	StartPWMA_Write(STARTA);
 141              		.loc 1 52 0
 142 000e 0120     		movs	r0, #1
 143 0010 FFF7FEFF 		bl	StartPWMA_Write
 144              	.LVL15:
  53:main.c        **** 	StartPWMB_Write(STARTA+(FREQ/2));
 145              		.loc 1 53 0
 146 0014 3220     		movs	r0, #50
 147 0016 FFF7FEFF 		bl	StartPWMB_Write
 148              	.LVL16:
  54:main.c        **** 	EndPWMA_Write(STARTA+PWM_WIDTH-1);
 149              		.loc 1 54 0
 150 001a 3020     		movs	r0, #48
 151 001c FFF7FEFF 		bl	EndPWMA_Write
 152              	.LVL17:
  55:main.c        **** 	EndPWMB_Write(PWM_WIDTH+STARTA+(FREQ/2));
 153              		.loc 1 55 0
 154 0020 6220     		movs	r0, #98
 155 0022 FFF7FEFF 		bl	EndPWMB_Write
 156              	.LVL18:
  56:main.c        **** 	
  57:main.c        ****     unsigned char srInit = Status_Reg_1_Read() & 0x4;
 157              		.loc 1 57 0
 158 0026 FFF7FEFF 		bl	Status_Reg_1_Read
 159              	.LVL19:
 160 002a 00F00400 		and	r0, r0, #4
 161 002e C4B2     		uxtb	r4, r0
 162              	.LVL20:
 163              	.L11:
  58:main.c        **** 	for(;;)
  59:main.c        **** 	{
  60:main.c        ****         if ((Status_Reg_1_Read()& 0x4) != srInit)
 164              		.loc 1 60 0
 165 0030 FFF7FEFF 		bl	Status_Reg_1_Read
 166              	.LVL21:
 167 0034 00F00400 		and	r0, r0, #4
 168 0038 C0B2     		uxtb	r0, r0
ARM GAS  C:\Users\doug_000\AppData\Local\Temp\ccauuwMn.s 			page 5


 169 003a 8442     		cmp	r4, r0
 170 003c F8D0     		beq	.L11
  61:main.c        ****         {
  62:main.c        ****             toggleLED();
 171              		.loc 1 62 0
 172 003e FFF7FEFF 		bl	toggleLED
 173              	.LVL22:
  63:main.c        ****             if ((Status_Reg_1_Read()&4) == 4)
 174              		.loc 1 63 0
 175 0042 FFF7FEFF 		bl	Status_Reg_1_Read
 176              	.LVL23:
 177 0046 10F0040F 		tst	r0, #4
 178 004a 04D0     		beq	.L12
  64:main.c        ****             {
  65:main.c        ****                 Control_Reg_1_Write(0);
 179              		.loc 1 65 0
 180 004c 0020     		movs	r0, #0
 181 004e FFF7FEFF 		bl	Control_Reg_1_Write
 182              	.LVL24:
  66:main.c        ****                 //Clock_2_StopBlock();
  67:main.c        ****                 srInit = 4;
 183              		.loc 1 67 0
 184 0052 0424     		movs	r4, #4
 185 0054 ECE7     		b	.L11
 186              	.LVL25:
 187              	.L12:
  68:main.c        ****             }
  69:main.c        ****             else
  70:main.c        ****             {
  71:main.c        ****                 Control_Reg_1_Write(1);  
 188              		.loc 1 71 0
 189 0056 0120     		movs	r0, #1
 190 0058 FFF7FEFF 		bl	Control_Reg_1_Write
 191              	.LVL26:
  72:main.c        ****                 //Clock_2_Start();
  73:main.c        ****                 srInit = 0;
 192              		.loc 1 73 0
 193 005c 0024     		movs	r4, #0
 194 005e E7E7     		b	.L11
 195              		.cfi_endproc
 196              	.LFE65:
 197              		.size	main, .-main
 198              		.text
 199              	.Letext0:
 200              		.file 2 "c:\\program files (x86)\\cypress\\psoc creator\\4.0\\psoc creator\\import\\gnu\\arm\\4.9.
 201              		.file 3 "c:\\program files (x86)\\cypress\\psoc creator\\4.0\\psoc creator\\import\\gnu\\arm\\4.9.
 202              		.file 4 "Generated_Source\\PSoC5/cytypes.h"
 203              		.file 5 "Generated_Source\\PSoC5/EndPWMA.h"
 204              		.file 6 "Generated_Source\\PSoC5/EndPWMB.h"
 205              		.file 7 "Generated_Source\\PSoC5/Status_Reg_1.h"
 206              		.file 8 "Generated_Source\\PSoC5/Control_Reg_1.h"
 207              		.file 9 "Generated_Source\\PSoC5/CyLib.h"
 208              		.file 10 "Generated_Source\\PSoC5/Freq.h"
 209              		.file 11 "Generated_Source\\PSoC5/StartPWMA.h"
 210              		.file 12 "Generated_Source\\PSoC5/core_cm3.h"
 211              		.file 13 "Generated_Source\\PSoC5/StartPWMB.h"