ARM GAS  C:\Users\doug_000\AppData\Local\Temp\ccigWOLe.s 			page 1


   1              		.syntax unified
   2              		.cpu cortex-m3
   3              		.fpu softvfp
   4              		.eabi_attribute 20, 1
   5              		.eabi_attribute 21, 1
   6              		.eabi_attribute 23, 3
   7              		.eabi_attribute 24, 1
   8              		.eabi_attribute 25, 1
   9              		.eabi_attribute 26, 1
  10              		.eabi_attribute 30, 1
  11              		.eabi_attribute 34, 1
  12              		.eabi_attribute 18, 4
  13              		.thumb
  14              		.file	"ARM_Monitor.c"
  15              		.text
  16              	.Ltext0:
  17              		.cfi_sections	.debug_frame
  18              		.section	.text.countParms,"ax",%progbits
  19              		.align	2
  20              		.global	countParms
  21              		.thumb
  22              		.thumb_func
  23              		.type	countParms, %function
  24              	countParms:
  25              	.LFB63:
  26              		.file 1 "ARM_Monitor.c"
   1:ARM_Monitor.c **** /* ========================================
   2:ARM_Monitor.c ****  *
   3:ARM_Monitor.c ****  * Copyright Land Boards, LLC, 2016
   4:ARM_Monitor.c ****  * All Rights Reserved
   5:ARM_Monitor.c ****  * UNPUBLISHED, LICENSED SOFTWARE.
   6:ARM_Monitor.c ****  *
   7:ARM_Monitor.c ****  * CONFIDENTIAL AND PROPRIETARY INFORMATION
   8:ARM_Monitor.c ****  * WHICH IS THE PROPERTY OF your company.
   9:ARM_Monitor.c ****  *
  10:ARM_Monitor.c ****  * ========================================
  11:ARM_Monitor.c **** */
  12:ARM_Monitor.c **** 
  13:ARM_Monitor.c **** #include "project.h"
  14:ARM_Monitor.c **** #include "proEnv.h"
  15:ARM_Monitor.c **** #include "ARM_Monitor.h"
  16:ARM_Monitor.c **** #include "stringConvs.h"
  17:ARM_Monitor.c **** #include "accessMemory.h"
  18:ARM_Monitor.c **** #include <strings.h>
  19:ARM_Monitor.c **** #undef DEBUG_ON_PC
  20:ARM_Monitor.c **** #ifdef DEBUG_ON_PC
  21:ARM_Monitor.c **** #include "pcSerialIO.h"
  22:ARM_Monitor.c **** #include "mytypes.h"
  23:ARM_Monitor.c **** #else
  24:ARM_Monitor.c **** #include "serialIO.h"
  25:ARM_Monitor.c **** #endif
  26:ARM_Monitor.c **** char myStringInMemory[0x100];
  27:ARM_Monitor.c **** 
  28:ARM_Monitor.c **** ////////////////////////////////////////////////////////////////
  29:ARM_Monitor.c **** // countParms()
  30:ARM_Monitor.c **** // Syntax of a line is
  31:ARM_Monitor.c **** // X[aaaa][,dddd]]
ARM GAS  C:\Users\doug_000\AppData\Local\Temp\ccigWOLe.s 			page 2


  32:ARM_Monitor.c **** // X = command
  33:ARM_Monitor.c **** // aaaa is a hex value
  34:ARM_Monitor.c **** // Returns the count of parameters on a line
  35:ARM_Monitor.c **** ////////////////////////////////////////////////////////////////
  36:ARM_Monitor.c **** 
  37:ARM_Monitor.c **** uint8 countParms(char * stringToParse)
  38:ARM_Monitor.c **** {
  27              		.loc 1 38 0
  28              		.cfi_startproc
  29              		@ args = 0, pretend = 0, frame = 0
  30              		@ frame_needed = 0, uses_anonymous_args = 0
  31              	.LVL0:
  32 0000 08B5     		push	{r3, lr}
  33              		.cfi_def_cfa_offset 8
  34              		.cfi_offset 3, -8
  35              		.cfi_offset 14, -4
  39:ARM_Monitor.c ****     if (findInString(stringToParse,',') == -1)
  36              		.loc 1 39 0
  37 0002 2C21     		movs	r1, #44
  38 0004 FFF7FEFF 		bl	findInString
  39              	.LVL1:
  40 0008 B0F1FF3F 		cmp	r0, #-1
  41 000c 01D1     		bne	.L3
  40:ARM_Monitor.c ****         return(1);
  42              		.loc 1 40 0
  43 000e 0120     		movs	r0, #1
  44 0010 08BD     		pop	{r3, pc}
  45              	.L3:
  41:ARM_Monitor.c ****     else
  42:ARM_Monitor.c ****         return(2);
  46              		.loc 1 42 0
  47 0012 0220     		movs	r0, #2
  43:ARM_Monitor.c **** }
  48              		.loc 1 43 0
  49 0014 08BD     		pop	{r3, pc}
  50              		.cfi_endproc
  51              	.LFE63:
  52              		.size	countParms, .-countParms
  53 0016 00BF     		.section	.text.extractParm,"ax",%progbits
  54              		.align	2
  55              		.global	extractParm
  56              		.thumb
  57              		.thumb_func
  58              		.type	extractParm, %function
  59              	extractParm:
  60              	.LFB64:
  44:ARM_Monitor.c **** 
  45:ARM_Monitor.c **** ////////////////////////////////////////////////////////////////
  46:ARM_Monitor.c **** // uint32 extractParm(char * stringToParse, uint8 parmNumber)
  47:ARM_Monitor.c **** ////////////////////////////////////////////////////////////////
  48:ARM_Monitor.c **** 
  49:ARM_Monitor.c **** uint32 extractParm(char * stringToParse, uint8 parmNumber)
  50:ARM_Monitor.c **** {
  61              		.loc 1 50 0
  62              		.cfi_startproc
  63              		@ args = 0, pretend = 0, frame = 8
  64              		@ frame_needed = 0, uses_anonymous_args = 0
ARM GAS  C:\Users\doug_000\AppData\Local\Temp\ccigWOLe.s 			page 3


  65              	.LVL2:
  66 0000 10B5     		push	{r4, lr}
  67              		.cfi_def_cfa_offset 8
  68              		.cfi_offset 4, -8
  69              		.cfi_offset 14, -4
  70 0002 82B0     		sub	sp, sp, #8
  71              		.cfi_def_cfa_offset 16
  72 0004 0446     		mov	r4, r0
  51:ARM_Monitor.c ****     //writeLine("extractParm: got here");
  52:ARM_Monitor.c ****     char numberString[5];
  53:ARM_Monitor.c ****     //writeLine("extractParm: copy string");
  54:ARM_Monitor.c ****     //writeLine(stringToParse);
  55:ARM_Monitor.c ****     if (parmNumber == 0)
  73              		.loc 1 55 0
  74 0006 B1B9     		cbnz	r1, .L6
  75              	.LBB2:
  56:ARM_Monitor.c ****     {
  57:ARM_Monitor.c ****         strcpy(numberString,stringToParse);
  76              		.loc 1 57 0
  77 0008 6846     		mov	r0, sp
  78              	.LVL3:
  79 000a 2146     		mov	r1, r4
  80              	.LVL4:
  81 000c FFF7FEFF 		bl	strcpy
  82              	.LVL5:
  58:ARM_Monitor.c ****         uint8 lineoff=0;
  83              		.loc 1 58 0
  84 0010 0023     		movs	r3, #0
  59:ARM_Monitor.c ****         while ((numberString[lineoff] != ',') && (numberString[lineoff] != 0))
  85              		.loc 1 59 0
  86 0012 01E0     		b	.L7
  87              	.LVL6:
  88              	.L9:
  60:ARM_Monitor.c ****             lineoff++;
  89              		.loc 1 60 0
  90 0014 0133     		adds	r3, r3, #1
  91              	.LVL7:
  92 0016 DBB2     		uxtb	r3, r3
  93              	.LVL8:
  94              	.L7:
  59:ARM_Monitor.c ****         while ((numberString[lineoff] != ',') && (numberString[lineoff] != 0))
  95              		.loc 1 59 0
  96 0018 1946     		mov	r1, r3
  97 001a 02AA     		add	r2, sp, #8
  98 001c 1A44     		add	r2, r2, r3
  99 001e 12F8082C 		ldrb	r2, [r2, #-8]	@ zero_extendqisi2
 100 0022 2C2A     		cmp	r2, #44
 101 0024 01D0     		beq	.L8
  59:ARM_Monitor.c ****         while ((numberString[lineoff] != ',') && (numberString[lineoff] != 0))
 102              		.loc 1 59 0 is_stmt 0 discriminator 1
 103 0026 002A     		cmp	r2, #0
 104 0028 F4D1     		bne	.L9
 105              	.L8:
  61:ARM_Monitor.c ****         numberString[lineoff] = 0;
 106              		.loc 1 61 0 is_stmt 1
 107 002a 02AB     		add	r3, sp, #8
 108              	.LVL9:
ARM GAS  C:\Users\doug_000\AppData\Local\Temp\ccigWOLe.s 			page 4


 109 002c 1944     		add	r1, r1, r3
 110 002e 0023     		movs	r3, #0
 111 0030 01F8083C 		strb	r3, [r1, #-8]
 112              	.LBE2:
 113 0034 0BE0     		b	.L10
 114              	.LVL10:
 115              	.L6:
  62:ARM_Monitor.c ****     }
  63:ARM_Monitor.c ****     else if (parmNumber == 1)
 116              		.loc 1 63 0
 117 0036 0129     		cmp	r1, #1
 118 0038 09D1     		bne	.L10
 119              	.LBB3:
  64:ARM_Monitor.c ****     {
  65:ARM_Monitor.c ****         uint8 parmOffset;
  66:ARM_Monitor.c ****         parmOffset = findInString(stringToParse,',');
 120              		.loc 1 66 0
 121 003a 2C21     		movs	r1, #44
 122              	.LVL11:
 123 003c FFF7FEFF 		bl	findInString
 124              	.LVL12:
  67:ARM_Monitor.c ****         parmOffset += 1;
 125              		.loc 1 67 0
 126 0040 0130     		adds	r0, r0, #1
 127              	.LVL13:
 128 0042 00F0FF01 		and	r1, r0, #255
 129              	.LVL14:
  68:ARM_Monitor.c ****         strcpy(numberString,&stringToParse[parmOffset]);
 130              		.loc 1 68 0
 131 0046 6846     		mov	r0, sp
 132 0048 2144     		add	r1, r1, r4
 133              	.LVL15:
 134 004a FFF7FEFF 		bl	strcpy
 135              	.LVL16:
 136              	.L10:
 137              	.LBE3:
  69:ARM_Monitor.c ****     }
  70:ARM_Monitor.c ****     //writeLineNoLF("extractParm: done returning value:");
  71:ARM_Monitor.c ****     //writeLine(numberString);
  72:ARM_Monitor.c ****     return(stringToLong(numberString));
 138              		.loc 1 72 0
 139 004e 6846     		mov	r0, sp
 140 0050 FFF7FEFF 		bl	stringToLong
 141              	.LVL17:
  73:ARM_Monitor.c **** }
 142              		.loc 1 73 0
 143 0054 02B0     		add	sp, sp, #8
 144              		.cfi_def_cfa_offset 8
 145              		@ sp needed
 146 0056 10BD     		pop	{r4, pc}
 147              		.cfi_endproc
 148              	.LFE64:
 149              		.size	extractParm, .-extractParm
 150              		.section	.text.checkParmCount,"ax",%progbits
 151              		.align	2
 152              		.global	checkParmCount
 153              		.thumb
ARM GAS  C:\Users\doug_000\AppData\Local\Temp\ccigWOLe.s 			page 5


 154              		.thumb_func
 155              		.type	checkParmCount, %function
 156              	checkParmCount:
 157              	.LFB65:
  74:ARM_Monitor.c **** 
  75:ARM_Monitor.c **** ////////////////////////////////////////////////////////////////
  76:ARM_Monitor.c **** // int8 checkParmCount(char * rxBuff, uint8 expectedParmCount)
  77:ARM_Monitor.c **** ////////////////////////////////////////////////////////////////
  78:ARM_Monitor.c **** 
  79:ARM_Monitor.c **** int8 checkParmCount(char * rxBuff, uint8 expectedParmCount)
  80:ARM_Monitor.c **** {
 158              		.loc 1 80 0
 159              		.cfi_startproc
 160              		@ args = 0, pretend = 0, frame = 0
 161              		@ frame_needed = 0, uses_anonymous_args = 0
 162              	.LVL18:
 163 0000 38B5     		push	{r3, r4, r5, lr}
 164              		.cfi_def_cfa_offset 16
 165              		.cfi_offset 3, -16
 166              		.cfi_offset 4, -12
 167              		.cfi_offset 5, -8
 168              		.cfi_offset 14, -4
 169 0002 0546     		mov	r5, r0
 170 0004 0C46     		mov	r4, r1
  81:ARM_Monitor.c ****     //writeLine("checkParmCount: got here");
  82:ARM_Monitor.c ****     if (countParms(rxBuff) != expectedParmCount)
 171              		.loc 1 82 0
 172 0006 FFF7FEFF 		bl	countParms
 173              	.LVL19:
 174 000a A042     		cmp	r0, r4
 175 000c 07D0     		beq	.L14
  83:ARM_Monitor.c ****     {
  84:ARM_Monitor.c ****         writeLineNoLF("checkParmCount: Parameter error: ");
 176              		.loc 1 84 0
 177 000e 0548     		ldr	r0, .L16
 178 0010 FFF7FEFF 		bl	writeLineNoLF
 179              	.LVL20:
  85:ARM_Monitor.c ****         writeLine(rxBuff);
 180              		.loc 1 85 0
 181 0014 2846     		mov	r0, r5
 182 0016 FFF7FEFF 		bl	writeLine
 183              	.LVL21:
  86:ARM_Monitor.c ****         return -1;
 184              		.loc 1 86 0
 185 001a FF20     		movs	r0, #255
 186 001c 00E0     		b	.L13
 187              	.L14:
  87:ARM_Monitor.c ****     }
  88:ARM_Monitor.c ****     return 0;
 188              		.loc 1 88 0
 189 001e 0020     		movs	r0, #0
 190              	.L13:
  89:ARM_Monitor.c **** }
 191              		.loc 1 89 0
 192 0020 40B2     		sxtb	r0, r0
 193 0022 38BD     		pop	{r3, r4, r5, pc}
 194              	.LVL22:
ARM GAS  C:\Users\doug_000\AppData\Local\Temp\ccigWOLe.s 			page 6


 195              	.L17:
 196              		.align	2
 197              	.L16:
 198 0024 00000000 		.word	.LC0
 199              		.cfi_endproc
 200              	.LFE65:
 201              		.size	checkParmCount, .-checkParmCount
 202              		.section	.text.dumpMem,"ax",%progbits
 203              		.align	2
 204              		.global	dumpMem
 205              		.thumb
 206              		.thumb_func
 207              		.type	dumpMem, %function
 208              	dumpMem:
 209              	.LFB66:
  90:ARM_Monitor.c **** 
  91:ARM_Monitor.c **** ////////////////////////////////////////////////////////////////
  92:ARM_Monitor.c **** // void dumpMem(uint32)
  93:ARM_Monitor.c **** ////////////////////////////////////////////////////////////////
  94:ARM_Monitor.c **** 
  95:ARM_Monitor.c **** void dumpMem(uint32 dumpStart)
  96:ARM_Monitor.c **** {
 210              		.loc 1 96 0
 211              		.cfi_startproc
 212              		@ args = 0, pretend = 0, frame = 16
 213              		@ frame_needed = 0, uses_anonymous_args = 0
 214              	.LVL23:
 215 0000 F0B5     		push	{r4, r5, r6, r7, lr}
 216              		.cfi_def_cfa_offset 20
 217              		.cfi_offset 4, -20
 218              		.cfi_offset 5, -16
 219              		.cfi_offset 6, -12
 220              		.cfi_offset 7, -8
 221              		.cfi_offset 14, -4
 222 0002 85B0     		sub	sp, sp, #20
 223              		.cfi_def_cfa_offset 40
 224 0004 0646     		mov	r6, r0
 225              	.LVL24:
  97:ARM_Monitor.c ****     char numberString[9];
  98:ARM_Monitor.c ****     uint32 dumpLongAddress;
  99:ARM_Monitor.c ****     uint32 dumpByteAddress;
 100:ARM_Monitor.c ****     uint32 lineOffRow;
 101:ARM_Monitor.c ****     uint32 lineOff;
 102:ARM_Monitor.c ****     //writeLine("dumpMem: got here");
 103:ARM_Monitor.c ****     dumpLongAddress = dumpStart;
 104:ARM_Monitor.c ****     dumpByteAddress = dumpStart;
 105:ARM_Monitor.c ****     //writeLine("dumpMem: looping");
 106:ARM_Monitor.c ****    writeLine("Enter to continue, any other key to stop");
 226              		.loc 1 106 0
 227 0006 2048     		ldr	r0, .L29
 228              	.LVL25:
 229 0008 FFF7FEFF 		bl	writeLine
 230              	.LVL26:
 104:ARM_Monitor.c ****     //writeLine("dumpMem: looping");
 231              		.loc 1 104 0
 232 000c 3546     		mov	r5, r6
 233              	.LVL27:
ARM GAS  C:\Users\doug_000\AppData\Local\Temp\ccigWOLe.s 			page 7


 234              	.L26:
 107:ARM_Monitor.c ****    while(1)
 108:ARM_Monitor.c ****     {
 109:ARM_Monitor.c ****         for (lineOffRow = 0; lineOffRow < 16;  lineOffRow++) 
 235              		.loc 1 109 0
 236 000e 0027     		movs	r7, #0
 237 0010 31E0     		b	.L19
 238              	.LVL28:
 239              	.L25:
 110:ARM_Monitor.c ****         {
 111:ARM_Monitor.c ****             longToString(dumpLongAddress,&numberString[0]);
 240              		.loc 1 111 0
 241 0012 3046     		mov	r0, r6
 242 0014 01A9     		add	r1, sp, #4
 243 0016 FFF7FEFF 		bl	longToString
 244              	.LVL29:
 112:ARM_Monitor.c ****             writeLineNoLF(numberString);
 245              		.loc 1 112 0
 246 001a 01A8     		add	r0, sp, #4
 247 001c FFF7FEFF 		bl	writeLineNoLF
 248              	.LVL30:
 113:ARM_Monitor.c ****             writeLineNoLF(" ");
 249              		.loc 1 113 0
 250 0020 1A48     		ldr	r0, .L29+4
 251 0022 FFF7FEFF 		bl	writeLineNoLF
 252              	.LVL31:
 114:ARM_Monitor.c ****             for (lineOff = 0; lineOff < 4; lineOff++)
 253              		.loc 1 114 0
 254 0026 0024     		movs	r4, #0
 255 0028 0DE0     		b	.L20
 256              	.LVL32:
 257              	.L21:
 115:ARM_Monitor.c ****             {
 116:ARM_Monitor.c ****                 longToString(readLong(dumpLongAddress+(4*lineOff)),&numberString[0]);
 258              		.loc 1 116 0 discriminator 3
 259 002a 06EB8400 		add	r0, r6, r4, lsl #2
 260 002e FFF7FEFF 		bl	readLong
 261              	.LVL33:
 262 0032 01A9     		add	r1, sp, #4
 263 0034 FFF7FEFF 		bl	longToString
 264              	.LVL34:
 117:ARM_Monitor.c ****                 writeLineNoLF(numberString);
 265              		.loc 1 117 0 discriminator 3
 266 0038 01A8     		add	r0, sp, #4
 267 003a FFF7FEFF 		bl	writeLineNoLF
 268              	.LVL35:
 118:ARM_Monitor.c ****                 writeLineNoLF(" ");
 269              		.loc 1 118 0 discriminator 3
 270 003e 1348     		ldr	r0, .L29+4
 271 0040 FFF7FEFF 		bl	writeLineNoLF
 272              	.LVL36:
 114:ARM_Monitor.c ****             {
 273              		.loc 1 114 0 discriminator 3
 274 0044 0134     		adds	r4, r4, #1
 275              	.LVL37:
 276              	.L20:
 114:ARM_Monitor.c ****             {
ARM GAS  C:\Users\doug_000\AppData\Local\Temp\ccigWOLe.s 			page 8


 277              		.loc 1 114 0 is_stmt 0 discriminator 1
 278 0046 032C     		cmp	r4, #3
 279 0048 EFD9     		bls	.L21
 119:ARM_Monitor.c ****             }
 120:ARM_Monitor.c ****             dumpLongAddress += 16;
 280              		.loc 1 120 0 is_stmt 1
 281 004a 1036     		adds	r6, r6, #16
 282              	.LVL38:
 121:ARM_Monitor.c ****             for (lineOff = 0; lineOff < 16; lineOff++)
 283              		.loc 1 121 0
 284 004c 0024     		movs	r4, #0
 285 004e 0BE0     		b	.L22
 286              	.LVL39:
 287              	.L24:
 288              	.LBB4:
 122:ARM_Monitor.c ****             {
 123:ARM_Monitor.c ****                 char rdChar = readByte(dumpByteAddress+lineOff);
 289              		.loc 1 123 0
 290 0050 2819     		adds	r0, r5, r4
 291 0052 FFF7FEFF 		bl	readByte
 292              	.LVL40:
 124:ARM_Monitor.c ****                 if ((rdChar < 0x20) || (rdChar >= 0x7e))
 293              		.loc 1 124 0
 294 0056 A0F12003 		sub	r3, r0, #32
 295 005a DBB2     		uxtb	r3, r3
 296 005c 5D2B     		cmp	r3, #93
 297 005e 00D9     		bls	.L23
 125:ARM_Monitor.c ****                     rdChar = '.';
 298              		.loc 1 125 0
 299 0060 2E20     		movs	r0, #46
 300              	.LVL41:
 301              	.L23:
 126:ARM_Monitor.c ****                 outSingleChar(rdChar);
 302              		.loc 1 126 0 discriminator 2
 303 0062 FFF7FEFF 		bl	outSingleChar
 304              	.LVL42:
 305              	.LBE4:
 121:ARM_Monitor.c ****             {
 306              		.loc 1 121 0 discriminator 2
 307 0066 0134     		adds	r4, r4, #1
 308              	.LVL43:
 309              	.L22:
 121:ARM_Monitor.c ****             {
 310              		.loc 1 121 0 is_stmt 0 discriminator 1
 311 0068 0F2C     		cmp	r4, #15
 312 006a F1D9     		bls	.L24
 127:ARM_Monitor.c ****             }
 128:ARM_Monitor.c ****             dumpByteAddress += 16;
 313              		.loc 1 128 0 is_stmt 1 discriminator 2
 314 006c 1035     		adds	r5, r5, #16
 315              	.LVL44:
 129:ARM_Monitor.c ****             writeLine(" ");
 316              		.loc 1 129 0 discriminator 2
 317 006e 0748     		ldr	r0, .L29+4
 318 0070 FFF7FEFF 		bl	writeLine
 319              	.LVL45:
 109:ARM_Monitor.c ****         {
ARM GAS  C:\Users\doug_000\AppData\Local\Temp\ccigWOLe.s 			page 9


 320              		.loc 1 109 0 discriminator 2
 321 0074 0137     		adds	r7, r7, #1
 322              	.LVL46:
 323              	.L19:
 109:ARM_Monitor.c ****         {
 324              		.loc 1 109 0 is_stmt 0 discriminator 1
 325 0076 0F2F     		cmp	r7, #15
 326 0078 CBD9     		bls	.L25
 130:ARM_Monitor.c ****         }
 131:ARM_Monitor.c ****         if (getSingleChar() != 0x0d)
 327              		.loc 1 131 0 is_stmt 1
 328 007a FFF7FEFF 		bl	getSingleChar
 329              	.LVL47:
 330 007e 0D28     		cmp	r0, #13
 331 0080 C5D0     		beq	.L26
 132:ARM_Monitor.c ****             return;
 133:ARM_Monitor.c ****     }
 134:ARM_Monitor.c **** }
 332              		.loc 1 134 0
 333 0082 05B0     		add	sp, sp, #20
 334              		.cfi_def_cfa_offset 20
 335              		@ sp needed
 336 0084 F0BD     		pop	{r4, r5, r6, r7, pc}
 337              	.LVL48:
 338              	.L30:
 339 0086 00BF     		.align	2
 340              	.L29:
 341 0088 24000000 		.word	.LC1
 342 008c 50000000 		.word	.LC2
 343              		.cfi_endproc
 344              	.LFE66:
 345              		.size	dumpMem, .-dumpMem
 346              		.section	.text.readMemByte,"ax",%progbits
 347              		.align	2
 348              		.global	readMemByte
 349              		.thumb
 350              		.thumb_func
 351              		.type	readMemByte, %function
 352              	readMemByte:
 353              	.LFB67:
 135:ARM_Monitor.c **** 
 136:ARM_Monitor.c **** ////////////////////////////////////////////////////////////////
 137:ARM_Monitor.c **** // void readMemByte(uint32 readAddress)
 138:ARM_Monitor.c **** ////////////////////////////////////////////////////////////////
 139:ARM_Monitor.c **** 
 140:ARM_Monitor.c **** void readMemByte(uint32 readAddress)
 141:ARM_Monitor.c **** {
 354              		.loc 1 141 0
 355              		.cfi_startproc
 356              		@ args = 0, pretend = 0, frame = 16
 357              		@ frame_needed = 0, uses_anonymous_args = 0
 358              	.LVL49:
 359 0000 30B5     		push	{r4, r5, lr}
 360              		.cfi_def_cfa_offset 12
 361              		.cfi_offset 4, -12
 362              		.cfi_offset 5, -8
 363              		.cfi_offset 14, -4
ARM GAS  C:\Users\doug_000\AppData\Local\Temp\ccigWOLe.s 			page 10


 364 0002 85B0     		sub	sp, sp, #20
 365              		.cfi_def_cfa_offset 32
 366 0004 0446     		mov	r4, r0
 142:ARM_Monitor.c ****     char numberString[9];
 143:ARM_Monitor.c ****     writeLine("");
 367              		.loc 1 143 0
 368 0006 1048     		ldr	r0, .L35
 369              	.LVL50:
 370 0008 FFF7FEFF 		bl	writeLine
 371              	.LVL51:
 372              	.L33:
 373              	.LBB5:
 144:ARM_Monitor.c ****     while(1)
 145:ARM_Monitor.c ****     {
 146:ARM_Monitor.c ****         uint8 valRead = readByte(readAddress);
 374              		.loc 1 146 0
 375 000c 2046     		mov	r0, r4
 376 000e FFF7FEFF 		bl	readByte
 377              	.LVL52:
 378 0012 0546     		mov	r5, r0
 379              	.LVL53:
 147:ARM_Monitor.c ****         longToString(readAddress,&numberString[0]);
 380              		.loc 1 147 0
 381 0014 2046     		mov	r0, r4
 382 0016 01A9     		add	r1, sp, #4
 383 0018 FFF7FEFF 		bl	longToString
 384              	.LVL54:
 148:ARM_Monitor.c ****         writeLineNoLF(numberString);
 385              		.loc 1 148 0
 386 001c 01A8     		add	r0, sp, #4
 387 001e FFF7FEFF 		bl	writeLineNoLF
 388              	.LVL55:
 149:ARM_Monitor.c ****         writeLineNoLF(" ");
 389              		.loc 1 149 0
 390 0022 0A48     		ldr	r0, .L35+4
 391 0024 FFF7FEFF 		bl	writeLineNoLF
 392              	.LVL56:
 150:ARM_Monitor.c ****         //writeLine("readMem: got here");
 151:ARM_Monitor.c ****         byteToString(valRead,&numberString[0]);
 393              		.loc 1 151 0
 394 0028 2846     		mov	r0, r5
 395 002a 01A9     		add	r1, sp, #4
 396 002c FFF7FEFF 		bl	byteToString
 397              	.LVL57:
 152:ARM_Monitor.c ****         writeLine(numberString);
 398              		.loc 1 152 0
 399 0030 01A8     		add	r0, sp, #4
 400 0032 FFF7FEFF 		bl	writeLine
 401              	.LVL58:
 153:ARM_Monitor.c ****         if (getSingleChar() != 0x0d)
 402              		.loc 1 153 0
 403 0036 FFF7FEFF 		bl	getSingleChar
 404              	.LVL59:
 405 003a 0D28     		cmp	r0, #13
 406 003c 01D1     		bne	.L31
 154:ARM_Monitor.c ****             return;
 155:ARM_Monitor.c ****         readAddress += 1;
ARM GAS  C:\Users\doug_000\AppData\Local\Temp\ccigWOLe.s 			page 11


 407              		.loc 1 155 0
 408 003e 0134     		adds	r4, r4, #1
 409              	.LVL60:
 410              	.LBE5:
 156:ARM_Monitor.c ****     }
 411              		.loc 1 156 0
 412 0040 E4E7     		b	.L33
 413              	.L31:
 157:ARM_Monitor.c **** }
 414              		.loc 1 157 0
 415 0042 05B0     		add	sp, sp, #20
 416              		.cfi_def_cfa_offset 12
 417              		@ sp needed
 418 0044 30BD     		pop	{r4, r5, pc}
 419              	.LVL61:
 420              	.L36:
 421 0046 00BF     		.align	2
 422              	.L35:
 423 0048 54000000 		.word	.LC3
 424 004c 50000000 		.word	.LC2
 425              		.cfi_endproc
 426              	.LFE67:
 427              		.size	readMemByte, .-readMemByte
 428              		.section	.text.readMemShort,"ax",%progbits
 429              		.align	2
 430              		.global	readMemShort
 431              		.thumb
 432              		.thumb_func
 433              		.type	readMemShort, %function
 434              	readMemShort:
 435              	.LFB68:
 158:ARM_Monitor.c **** 
 159:ARM_Monitor.c **** ////////////////////////////////////////////////////////////////
 160:ARM_Monitor.c **** // void readMemShort(uint32 readAddress)
 161:ARM_Monitor.c **** ////////////////////////////////////////////////////////////////
 162:ARM_Monitor.c **** 
 163:ARM_Monitor.c **** void readMemShort(uint32 readAddress)
 164:ARM_Monitor.c **** {
 436              		.loc 1 164 0
 437              		.cfi_startproc
 438              		@ args = 0, pretend = 0, frame = 16
 439              		@ frame_needed = 0, uses_anonymous_args = 0
 440              	.LVL62:
 441 0000 10B5     		push	{r4, lr}
 442              		.cfi_def_cfa_offset 8
 443              		.cfi_offset 4, -8
 444              		.cfi_offset 14, -4
 445 0002 84B0     		sub	sp, sp, #16
 446              		.cfi_def_cfa_offset 24
 447 0004 0446     		mov	r4, r0
 165:ARM_Monitor.c ****     char numberString[9];
 166:ARM_Monitor.c ****     writeLine("");
 448              		.loc 1 166 0
 449 0006 0F48     		ldr	r0, .L41
 450              	.LVL63:
 451 0008 FFF7FEFF 		bl	writeLine
 452              	.LVL64:
ARM GAS  C:\Users\doug_000\AppData\Local\Temp\ccigWOLe.s 			page 12


 453              	.L39:
 454              	.LBB6:
 167:ARM_Monitor.c ****     while(1)
 168:ARM_Monitor.c ****     {
 169:ARM_Monitor.c ****         longToString(readAddress,&numberString[0]);
 455              		.loc 1 169 0
 456 000c 2046     		mov	r0, r4
 457 000e 01A9     		add	r1, sp, #4
 458 0010 FFF7FEFF 		bl	longToString
 459              	.LVL65:
 170:ARM_Monitor.c ****         writeLineNoLF(numberString);
 460              		.loc 1 170 0
 461 0014 01A8     		add	r0, sp, #4
 462 0016 FFF7FEFF 		bl	writeLineNoLF
 463              	.LVL66:
 171:ARM_Monitor.c ****         writeLineNoLF(" ");
 464              		.loc 1 171 0
 465 001a 0B48     		ldr	r0, .L41+4
 466 001c FFF7FEFF 		bl	writeLineNoLF
 467              	.LVL67:
 172:ARM_Monitor.c ****         uint16 valRead = readShort(readAddress);
 468              		.loc 1 172 0
 469 0020 2046     		mov	r0, r4
 470 0022 FFF7FEFF 		bl	readShort
 471              	.LVL68:
 173:ARM_Monitor.c ****         //writeLine("readMem: got here");
 174:ARM_Monitor.c ****         shortToString(valRead,&numberString[0]);
 472              		.loc 1 174 0
 473 0026 01A9     		add	r1, sp, #4
 474 0028 FFF7FEFF 		bl	shortToString
 475              	.LVL69:
 175:ARM_Monitor.c ****         writeLine(numberString);
 476              		.loc 1 175 0
 477 002c 01A8     		add	r0, sp, #4
 478 002e FFF7FEFF 		bl	writeLine
 479              	.LVL70:
 176:ARM_Monitor.c ****         if (getSingleChar() != 0x0d)
 480              		.loc 1 176 0
 481 0032 FFF7FEFF 		bl	getSingleChar
 482              	.LVL71:
 483 0036 0D28     		cmp	r0, #13
 484 0038 01D1     		bne	.L37
 177:ARM_Monitor.c ****             return;
 178:ARM_Monitor.c ****         readAddress += 2;
 485              		.loc 1 178 0
 486 003a 0234     		adds	r4, r4, #2
 487              	.LVL72:
 488              	.LBE6:
 179:ARM_Monitor.c ****     }
 489              		.loc 1 179 0
 490 003c E6E7     		b	.L39
 491              	.L37:
 180:ARM_Monitor.c **** }
 492              		.loc 1 180 0
 493 003e 04B0     		add	sp, sp, #16
 494              		.cfi_def_cfa_offset 8
 495              		@ sp needed
ARM GAS  C:\Users\doug_000\AppData\Local\Temp\ccigWOLe.s 			page 13


 496 0040 10BD     		pop	{r4, pc}
 497              	.LVL73:
 498              	.L42:
 499 0042 00BF     		.align	2
 500              	.L41:
 501 0044 54000000 		.word	.LC3
 502 0048 50000000 		.word	.LC2
 503              		.cfi_endproc
 504              	.LFE68:
 505              		.size	readMemShort, .-readMemShort
 506              		.section	.text.readMemLong,"ax",%progbits
 507              		.align	2
 508              		.global	readMemLong
 509              		.thumb
 510              		.thumb_func
 511              		.type	readMemLong, %function
 512              	readMemLong:
 513              	.LFB69:
 181:ARM_Monitor.c **** 
 182:ARM_Monitor.c **** ////////////////////////////////////////////////////////////////
 183:ARM_Monitor.c **** // void readMemLong(uint32 readAddress)
 184:ARM_Monitor.c **** ////////////////////////////////////////////////////////////////
 185:ARM_Monitor.c **** 
 186:ARM_Monitor.c **** void readMemLong(uint32 readAddress)
 187:ARM_Monitor.c **** {
 514              		.loc 1 187 0
 515              		.cfi_startproc
 516              		@ args = 0, pretend = 0, frame = 16
 517              		@ frame_needed = 0, uses_anonymous_args = 0
 518              	.LVL74:
 519 0000 10B5     		push	{r4, lr}
 520              		.cfi_def_cfa_offset 8
 521              		.cfi_offset 4, -8
 522              		.cfi_offset 14, -4
 523 0002 84B0     		sub	sp, sp, #16
 524              		.cfi_def_cfa_offset 24
 525 0004 0446     		mov	r4, r0
 188:ARM_Monitor.c ****     char numberString[9];
 189:ARM_Monitor.c ****     writeLine("");
 526              		.loc 1 189 0
 527 0006 0F48     		ldr	r0, .L47
 528              	.LVL75:
 529 0008 FFF7FEFF 		bl	writeLine
 530              	.LVL76:
 531              	.L45:
 532              	.LBB7:
 190:ARM_Monitor.c ****     while(1)
 191:ARM_Monitor.c ****     {
 192:ARM_Monitor.c ****         longToString(readAddress,&numberString[0]);
 533              		.loc 1 192 0
 534 000c 2046     		mov	r0, r4
 535 000e 01A9     		add	r1, sp, #4
 536 0010 FFF7FEFF 		bl	longToString
 537              	.LVL77:
 193:ARM_Monitor.c ****         writeLineNoLF(numberString);
 538              		.loc 1 193 0
 539 0014 01A8     		add	r0, sp, #4
ARM GAS  C:\Users\doug_000\AppData\Local\Temp\ccigWOLe.s 			page 14


 540 0016 FFF7FEFF 		bl	writeLineNoLF
 541              	.LVL78:
 194:ARM_Monitor.c ****         writeLineNoLF(" ");
 542              		.loc 1 194 0
 543 001a 0B48     		ldr	r0, .L47+4
 544 001c FFF7FEFF 		bl	writeLineNoLF
 545              	.LVL79:
 195:ARM_Monitor.c ****         uint32 valRead = readLong(readAddress);
 546              		.loc 1 195 0
 547 0020 2046     		mov	r0, r4
 548 0022 FFF7FEFF 		bl	readLong
 549              	.LVL80:
 196:ARM_Monitor.c ****         //writeLine("readMem: got here");
 197:ARM_Monitor.c ****         longToString(valRead,&numberString[0]);
 550              		.loc 1 197 0
 551 0026 01A9     		add	r1, sp, #4
 552 0028 FFF7FEFF 		bl	longToString
 553              	.LVL81:
 198:ARM_Monitor.c ****         writeLine(numberString);
 554              		.loc 1 198 0
 555 002c 01A8     		add	r0, sp, #4
 556 002e FFF7FEFF 		bl	writeLine
 557              	.LVL82:
 199:ARM_Monitor.c ****         if (getSingleChar() != 0x0d)
 558              		.loc 1 199 0
 559 0032 FFF7FEFF 		bl	getSingleChar
 560              	.LVL83:
 561 0036 0D28     		cmp	r0, #13
 562 0038 01D1     		bne	.L43
 200:ARM_Monitor.c ****             return;
 201:ARM_Monitor.c ****         readAddress += 4;
 563              		.loc 1 201 0
 564 003a 0434     		adds	r4, r4, #4
 565              	.LVL84:
 566              	.LBE7:
 202:ARM_Monitor.c ****     }
 567              		.loc 1 202 0
 568 003c E6E7     		b	.L45
 569              	.L43:
 203:ARM_Monitor.c **** }
 570              		.loc 1 203 0
 571 003e 04B0     		add	sp, sp, #16
 572              		.cfi_def_cfa_offset 8
 573              		@ sp needed
 574 0040 10BD     		pop	{r4, pc}
 575              	.LVL85:
 576              	.L48:
 577 0042 00BF     		.align	2
 578              	.L47:
 579 0044 54000000 		.word	.LC3
 580 0048 50000000 		.word	.LC2
 581              		.cfi_endproc
 582              	.LFE69:
 583              		.size	readMemLong, .-readMemLong
 584              		.section	.text.writeMemLong,"ax",%progbits
 585              		.align	2
 586              		.global	writeMemLong
ARM GAS  C:\Users\doug_000\AppData\Local\Temp\ccigWOLe.s 			page 15


 587              		.thumb
 588              		.thumb_func
 589              		.type	writeMemLong, %function
 590              	writeMemLong:
 591              	.LFB70:
 204:ARM_Monitor.c **** 
 205:ARM_Monitor.c **** ////////////////////////////////////////////////////////////////
 206:ARM_Monitor.c **** // void writeMemLong(uint32 writeAddress, uint32 writeData)
 207:ARM_Monitor.c **** ////////////////////////////////////////////////////////////////
 208:ARM_Monitor.c **** 
 209:ARM_Monitor.c **** void writeMemLong(uint32 writeAddress, uint32 writeData)
 210:ARM_Monitor.c **** {
 592              		.loc 1 210 0
 593              		.cfi_startproc
 594              		@ args = 0, pretend = 0, frame = 16
 595              		@ frame_needed = 0, uses_anonymous_args = 0
 596              	.LVL86:
 597 0000 30B5     		push	{r4, r5, lr}
 598              		.cfi_def_cfa_offset 12
 599              		.cfi_offset 4, -12
 600              		.cfi_offset 5, -8
 601              		.cfi_offset 14, -4
 602 0002 85B0     		sub	sp, sp, #20
 603              		.cfi_def_cfa_offset 32
 604 0004 0546     		mov	r5, r0
 605 0006 0C46     		mov	r4, r1
 211:ARM_Monitor.c ****     char numberString[9];
 212:ARM_Monitor.c ****     writeLineNoLF("writeMem: writing - address=");
 606              		.loc 1 212 0
 607 0008 0C48     		ldr	r0, .L51
 608              	.LVL87:
 609 000a FFF7FEFF 		bl	writeLineNoLF
 610              	.LVL88:
 213:ARM_Monitor.c ****     longToString(writeAddress,&numberString[0]);
 611              		.loc 1 213 0
 612 000e 2846     		mov	r0, r5
 613 0010 01A9     		add	r1, sp, #4
 614 0012 FFF7FEFF 		bl	longToString
 615              	.LVL89:
 214:ARM_Monitor.c ****     writeLineNoLF(numberString);
 616              		.loc 1 214 0
 617 0016 01A8     		add	r0, sp, #4
 618 0018 FFF7FEFF 		bl	writeLineNoLF
 619              	.LVL90:
 215:ARM_Monitor.c ****     writeLineNoLF(", data=");
 620              		.loc 1 215 0
 621 001c 0848     		ldr	r0, .L51+4
 622 001e FFF7FEFF 		bl	writeLineNoLF
 623              	.LVL91:
 216:ARM_Monitor.c ****     longToString(writeData,&numberString[0]);
 624              		.loc 1 216 0
 625 0022 2046     		mov	r0, r4
 626 0024 01A9     		add	r1, sp, #4
 627 0026 FFF7FEFF 		bl	longToString
 628              	.LVL92:
 217:ARM_Monitor.c ****     writeLine(numberString);
 629              		.loc 1 217 0
ARM GAS  C:\Users\doug_000\AppData\Local\Temp\ccigWOLe.s 			page 16


 630 002a 01A8     		add	r0, sp, #4
 631 002c FFF7FEFF 		bl	writeLine
 632              	.LVL93:
 218:ARM_Monitor.c ****     writeLong(writeAddress,writeData);
 633              		.loc 1 218 0
 634 0030 2846     		mov	r0, r5
 635 0032 2146     		mov	r1, r4
 636 0034 FFF7FEFF 		bl	writeLong
 637              	.LVL94:
 219:ARM_Monitor.c **** }
 638              		.loc 1 219 0
 639 0038 05B0     		add	sp, sp, #20
 640              		.cfi_def_cfa_offset 12
 641              		@ sp needed
 642 003a 30BD     		pop	{r4, r5, pc}
 643              	.LVL95:
 644              	.L52:
 645              		.align	2
 646              	.L51:
 647 003c 58000000 		.word	.LC4
 648 0040 78000000 		.word	.LC5
 649              		.cfi_endproc
 650              	.LFE70:
 651              		.size	writeMemLong, .-writeMemLong
 652              		.section	.text.writeMemShort,"ax",%progbits
 653              		.align	2
 654              		.global	writeMemShort
 655              		.thumb
 656              		.thumb_func
 657              		.type	writeMemShort, %function
 658              	writeMemShort:
 659              	.LFB71:
 220:ARM_Monitor.c **** 
 221:ARM_Monitor.c **** ////////////////////////////////////////////////////////////////
 222:ARM_Monitor.c **** // void writeMemShort(uint32 writeAddress, uint32 writeData)
 223:ARM_Monitor.c **** ////////////////////////////////////////////////////////////////
 224:ARM_Monitor.c **** 
 225:ARM_Monitor.c **** void writeMemShort(uint32 writeAddress, uint16 writeData)
 226:ARM_Monitor.c **** {
 660              		.loc 1 226 0
 661              		.cfi_startproc
 662              		@ args = 0, pretend = 0, frame = 16
 663              		@ frame_needed = 0, uses_anonymous_args = 0
 664              	.LVL96:
 665 0000 30B5     		push	{r4, r5, lr}
 666              		.cfi_def_cfa_offset 12
 667              		.cfi_offset 4, -12
 668              		.cfi_offset 5, -8
 669              		.cfi_offset 14, -4
 670 0002 85B0     		sub	sp, sp, #20
 671              		.cfi_def_cfa_offset 32
 672 0004 0546     		mov	r5, r0
 673 0006 0C46     		mov	r4, r1
 227:ARM_Monitor.c ****     char numberString[9];
 228:ARM_Monitor.c ****     writeLineNoLF("writeMem: writing - address=");
 674              		.loc 1 228 0
 675 0008 0C48     		ldr	r0, .L55
ARM GAS  C:\Users\doug_000\AppData\Local\Temp\ccigWOLe.s 			page 17


 676              	.LVL97:
 677 000a FFF7FEFF 		bl	writeLineNoLF
 678              	.LVL98:
 229:ARM_Monitor.c ****     longToString(writeAddress,&numberString[0]);
 679              		.loc 1 229 0
 680 000e 2846     		mov	r0, r5
 681 0010 01A9     		add	r1, sp, #4
 682 0012 FFF7FEFF 		bl	longToString
 683              	.LVL99:
 230:ARM_Monitor.c ****     writeLineNoLF(numberString);
 684              		.loc 1 230 0
 685 0016 01A8     		add	r0, sp, #4
 686 0018 FFF7FEFF 		bl	writeLineNoLF
 687              	.LVL100:
 231:ARM_Monitor.c ****     writeLineNoLF(", data=");
 688              		.loc 1 231 0
 689 001c 0848     		ldr	r0, .L55+4
 690 001e FFF7FEFF 		bl	writeLineNoLF
 691              	.LVL101:
 232:ARM_Monitor.c ****     longToString(writeData,&numberString[0]);
 692              		.loc 1 232 0
 693 0022 2046     		mov	r0, r4
 694 0024 01A9     		add	r1, sp, #4
 695 0026 FFF7FEFF 		bl	longToString
 696              	.LVL102:
 233:ARM_Monitor.c ****     writeLine(numberString);
 697              		.loc 1 233 0
 698 002a 01A8     		add	r0, sp, #4
 699 002c FFF7FEFF 		bl	writeLine
 700              	.LVL103:
 234:ARM_Monitor.c ****     writeLong(writeAddress,writeData);
 701              		.loc 1 234 0
 702 0030 2846     		mov	r0, r5
 703 0032 2146     		mov	r1, r4
 704 0034 FFF7FEFF 		bl	writeLong
 705              	.LVL104:
 235:ARM_Monitor.c **** }
 706              		.loc 1 235 0
 707 0038 05B0     		add	sp, sp, #20
 708              		.cfi_def_cfa_offset 12
 709              		@ sp needed
 710 003a 30BD     		pop	{r4, r5, pc}
 711              	.LVL105:
 712              	.L56:
 713              		.align	2
 714              	.L55:
 715 003c 58000000 		.word	.LC4
 716 0040 78000000 		.word	.LC5
 717              		.cfi_endproc
 718              	.LFE71:
 719              		.size	writeMemShort, .-writeMemShort
 720              		.section	.text.writeMemByte,"ax",%progbits
 721              		.align	2
 722              		.global	writeMemByte
 723              		.thumb
 724              		.thumb_func
 725              		.type	writeMemByte, %function
ARM GAS  C:\Users\doug_000\AppData\Local\Temp\ccigWOLe.s 			page 18


 726              	writeMemByte:
 727              	.LFB72:
 236:ARM_Monitor.c **** 
 237:ARM_Monitor.c **** ////////////////////////////////////////////////////////////////
 238:ARM_Monitor.c **** // void writeMemByte(uint32 writeAddress, uint32 writeData)
 239:ARM_Monitor.c **** ////////////////////////////////////////////////////////////////
 240:ARM_Monitor.c **** 
 241:ARM_Monitor.c **** void writeMemByte(uint32 writeAddress, uint8 writeData)
 242:ARM_Monitor.c **** {
 728              		.loc 1 242 0
 729              		.cfi_startproc
 730              		@ args = 0, pretend = 0, frame = 16
 731              		@ frame_needed = 0, uses_anonymous_args = 0
 732              	.LVL106:
 733 0000 30B5     		push	{r4, r5, lr}
 734              		.cfi_def_cfa_offset 12
 735              		.cfi_offset 4, -12
 736              		.cfi_offset 5, -8
 737              		.cfi_offset 14, -4
 738 0002 85B0     		sub	sp, sp, #20
 739              		.cfi_def_cfa_offset 32
 740 0004 0546     		mov	r5, r0
 741 0006 0C46     		mov	r4, r1
 243:ARM_Monitor.c ****     char numberString[9];
 244:ARM_Monitor.c ****     writeLineNoLF("writeMem: writing - address=");
 742              		.loc 1 244 0
 743 0008 0C48     		ldr	r0, .L59
 744              	.LVL107:
 745 000a FFF7FEFF 		bl	writeLineNoLF
 746              	.LVL108:
 245:ARM_Monitor.c ****     longToString(writeAddress,&numberString[0]);
 747              		.loc 1 245 0
 748 000e 2846     		mov	r0, r5
 749 0010 01A9     		add	r1, sp, #4
 750 0012 FFF7FEFF 		bl	longToString
 751              	.LVL109:
 246:ARM_Monitor.c ****     writeLineNoLF(numberString);
 752              		.loc 1 246 0
 753 0016 01A8     		add	r0, sp, #4
 754 0018 FFF7FEFF 		bl	writeLineNoLF
 755              	.LVL110:
 247:ARM_Monitor.c ****     writeLineNoLF(", data=");
 756              		.loc 1 247 0
 757 001c 0848     		ldr	r0, .L59+4
 758 001e FFF7FEFF 		bl	writeLineNoLF
 759              	.LVL111:
 248:ARM_Monitor.c ****     longToString(writeData,&numberString[0]);
 760              		.loc 1 248 0
 761 0022 2046     		mov	r0, r4
 762 0024 01A9     		add	r1, sp, #4
 763 0026 FFF7FEFF 		bl	longToString
 764              	.LVL112:
 249:ARM_Monitor.c ****     writeLine(numberString);
 765              		.loc 1 249 0
 766 002a 01A8     		add	r0, sp, #4
 767 002c FFF7FEFF 		bl	writeLine
 768              	.LVL113:
ARM GAS  C:\Users\doug_000\AppData\Local\Temp\ccigWOLe.s 			page 19


 250:ARM_Monitor.c ****     writeLong(writeAddress,writeData);
 769              		.loc 1 250 0
 770 0030 2846     		mov	r0, r5
 771 0032 2146     		mov	r1, r4
 772 0034 FFF7FEFF 		bl	writeLong
 773              	.LVL114:
 251:ARM_Monitor.c **** }
 774              		.loc 1 251 0
 775 0038 05B0     		add	sp, sp, #20
 776              		.cfi_def_cfa_offset 12
 777              		@ sp needed
 778 003a 30BD     		pop	{r4, r5, pc}
 779              	.LVL115:
 780              	.L60:
 781              		.align	2
 782              	.L59:
 783 003c 58000000 		.word	.LC4
 784 0040 78000000 		.word	.LC5
 785              		.cfi_endproc
 786              	.LFE72:
 787              		.size	writeMemByte, .-writeMemByte
 788              		.section	.text.goCommand,"ax",%progbits
 789              		.align	2
 790              		.global	goCommand
 791              		.thumb
 792              		.thumb_func
 793              		.type	goCommand, %function
 794              	goCommand:
 795              	.LFB73:
 252:ARM_Monitor.c **** 
 253:ARM_Monitor.c **** 
 254:ARM_Monitor.c **** 
 255:ARM_Monitor.c **** void goCommand(uint32 goAddress)
 256:ARM_Monitor.c **** {
 796              		.loc 1 256 0
 797              		.cfi_startproc
 798              		@ args = 0, pretend = 0, frame = 0
 799              		@ frame_needed = 0, uses_anonymous_args = 0
 800              	.LVL116:
 801 0000 08B5     		push	{r3, lr}
 802              		.cfi_def_cfa_offset 8
 803              		.cfi_offset 3, -8
 804              		.cfi_offset 14, -4
 257:ARM_Monitor.c ****     writeLine(&myStringInMemory[0]);
 805              		.loc 1 257 0
 806 0002 0248     		ldr	r0, .L63
 807              	.LVL117:
 808 0004 FFF7FEFF 		bl	writeLine
 809              	.LVL118:
 810 0008 08BD     		pop	{r3, pc}
 811              	.L64:
 812 000a 00BF     		.align	2
 813              	.L63:
 814 000c 00000000 		.word	myStringInMemory
 815              		.cfi_endproc
 816              	.LFE73:
 817              		.size	goCommand, .-goCommand
ARM GAS  C:\Users\doug_000\AppData\Local\Temp\ccigWOLe.s 			page 20


 818              		.section	.text.disassemble,"ax",%progbits
 819              		.align	2
 820              		.global	disassemble
 821              		.thumb
 822              		.thumb_func
 823              		.type	disassemble, %function
 824              	disassemble:
 825              	.LFB74:
 258:ARM_Monitor.c **** }
 259:ARM_Monitor.c **** 
 260:ARM_Monitor.c **** void disassemble(uint32 disassembleAddress)
 261:ARM_Monitor.c **** {
 826              		.loc 1 261 0
 827              		.cfi_startproc
 828              		@ args = 0, pretend = 0, frame = 0
 829              		@ frame_needed = 0, uses_anonymous_args = 0
 830              		@ link register save eliminated.
 831              	.LVL119:
 262:ARM_Monitor.c ****     myStringInMemory[0] = 0x34;
 832              		.loc 1 262 0
 833 0000 3422     		movs	r2, #52
 834 0002 014B     		ldr	r3, .L66
 835 0004 1A70     		strb	r2, [r3]
 836 0006 7047     		bx	lr
 837              	.L67:
 838              		.align	2
 839              	.L66:
 840 0008 00000000 		.word	myStringInMemory
 841              		.cfi_endproc
 842              	.LFE74:
 843              		.size	disassemble, .-disassemble
 844              		.section	.text.ARM_Monitor,"ax",%progbits
 845              		.align	2
 846              		.global	ARM_Monitor
 847              		.thumb
 848              		.thumb_func
 849              		.type	ARM_Monitor, %function
 850              	ARM_Monitor:
 851              	.LFB75:
 263:ARM_Monitor.c **** }
 264:ARM_Monitor.c **** 
 265:ARM_Monitor.c ****     
 266:ARM_Monitor.c **** ////////////////////////////////////////////////////////////////
 267:ARM_Monitor.c **** // void ARM_Monitor(void)
 268:ARM_Monitor.c **** ////////////////////////////////////////////////////////////////
 269:ARM_Monitor.c **** 
 270:ARM_Monitor.c **** void ARM_Monitor(void)
 271:ARM_Monitor.c **** {
 852              		.loc 1 271 0
 853              		.cfi_startproc
 854              		@ args = 0, pretend = 0, frame = 80
 855              		@ frame_needed = 0, uses_anonymous_args = 0
 856 0000 10B5     		push	{r4, lr}
 857              		.cfi_def_cfa_offset 8
 858              		.cfi_offset 4, -8
 859              		.cfi_offset 14, -4
 860 0002 94B0     		sub	sp, sp, #80
ARM GAS  C:\Users\doug_000\AppData\Local\Temp\ccigWOLe.s 			page 21


 861              		.cfi_def_cfa_offset 88
 272:ARM_Monitor.c ****     char8 rxBufferPtr[MAXLINELENGTH];
 273:ARM_Monitor.c ****     writeLine("ARM PsOC Monitor v0.0.2 (? for a list of commands)");
 862              		.loc 1 273 0
 863 0004 7548     		ldr	r0, .L91
 864 0006 FFF7FEFF 		bl	writeLine
 865              	.LVL120:
 274:ARM_Monitor.c ****     readLine(rxBufferPtr);
 866              		.loc 1 274 0
 867 000a 6846     		mov	r0, sp
 868 000c FFF7FEFF 		bl	readLine
 869              	.LVL121:
 275:ARM_Monitor.c ****     writeLine("");
 870              		.loc 1 275 0
 871 0010 7348     		ldr	r0, .L91+4
 872 0012 FFF7FEFF 		bl	writeLine
 873              	.LVL122:
 276:ARM_Monitor.c ****     switch (rxBufferPtr[0])
 874              		.loc 1 276 0
 875 0016 9DF80030 		ldrb	r3, [sp]	@ zero_extendqisi2
 876 001a 3F3B     		subs	r3, r3, #63
 877 001c 382B     		cmp	r3, #56
 878 001e 00F2D780 		bhi	.L69
 879 0022 DFE803F0 		tbb	[pc, r3]
 880              	.L71:
 881 0026 1D       		.byte	(.L70-.L71)/2
 882 0027 D5       		.byte	(.L69-.L71)/2
 883 0028 C7       		.byte	(.L72-.L71)/2
 884 0029 D5       		.byte	(.L69-.L71)/2
 885 002a D5       		.byte	(.L69-.L71)/2
 886 002b 2D       		.byte	(.L73-.L71)/2
 887 002c D5       		.byte	(.L69-.L71)/2
 888 002d D5       		.byte	(.L69-.L71)/2
 889 002e B9       		.byte	(.L74-.L71)/2
 890 002f 1D       		.byte	(.L70-.L71)/2
 891 0030 D5       		.byte	(.L69-.L71)/2
 892 0031 D5       		.byte	(.L69-.L71)/2
 893 0032 D5       		.byte	(.L69-.L71)/2
 894 0033 D5       		.byte	(.L69-.L71)/2
 895 0034 D5       		.byte	(.L69-.L71)/2
 896 0035 D5       		.byte	(.L69-.L71)/2
 897 0036 D5       		.byte	(.L69-.L71)/2
 898 0037 D5       		.byte	(.L69-.L71)/2
 899 0038 D5       		.byte	(.L69-.L71)/2
 900 0039 3D       		.byte	(.L75-.L71)/2
 901 003a D5       		.byte	(.L69-.L71)/2
 902 003b D5       		.byte	(.L69-.L71)/2
 903 003c D5       		.byte	(.L69-.L71)/2
 904 003d D5       		.byte	(.L69-.L71)/2
 905 003e 70       		.byte	(.L76-.L71)/2
 906 003f D5       		.byte	(.L69-.L71)/2
 907 0040 D5       		.byte	(.L69-.L71)/2
 908 0041 D5       		.byte	(.L69-.L71)/2
 909 0042 D5       		.byte	(.L69-.L71)/2
 910 0043 D5       		.byte	(.L69-.L71)/2
 911 0044 D5       		.byte	(.L69-.L71)/2
 912 0045 D5       		.byte	(.L69-.L71)/2
ARM GAS  C:\Users\doug_000\AppData\Local\Temp\ccigWOLe.s 			page 22


 913 0046 D5       		.byte	(.L69-.L71)/2
 914 0047 D5       		.byte	(.L69-.L71)/2
 915 0048 C7       		.byte	(.L72-.L71)/2
 916 0049 D5       		.byte	(.L69-.L71)/2
 917 004a D5       		.byte	(.L69-.L71)/2
 918 004b 2D       		.byte	(.L73-.L71)/2
 919 004c D5       		.byte	(.L69-.L71)/2
 920 004d D5       		.byte	(.L69-.L71)/2
 921 004e B9       		.byte	(.L74-.L71)/2
 922 004f 1D       		.byte	(.L70-.L71)/2
 923 0050 D5       		.byte	(.L69-.L71)/2
 924 0051 D5       		.byte	(.L69-.L71)/2
 925 0052 D5       		.byte	(.L69-.L71)/2
 926 0053 D5       		.byte	(.L69-.L71)/2
 927 0054 D5       		.byte	(.L69-.L71)/2
 928 0055 D5       		.byte	(.L69-.L71)/2
 929 0056 D5       		.byte	(.L69-.L71)/2
 930 0057 D5       		.byte	(.L69-.L71)/2
 931 0058 D5       		.byte	(.L69-.L71)/2
 932 0059 3D       		.byte	(.L75-.L71)/2
 933 005a D5       		.byte	(.L69-.L71)/2
 934 005b D5       		.byte	(.L69-.L71)/2
 935 005c D5       		.byte	(.L69-.L71)/2
 936 005d D5       		.byte	(.L69-.L71)/2
 937 005e 70       		.byte	(.L76-.L71)/2
 938 005f 00       		.p2align 1
 939              	.L70:
 277:ARM_Monitor.c ****     {
 278:ARM_Monitor.c ****       case '?':
 279:ARM_Monitor.c ****       case 'H':
 280:ARM_Monitor.c ****       case 'h':
 281:ARM_Monitor.c ****         writeLine("RSADDR - Read/Modify byte/short/long data at address");
 940              		.loc 1 281 0
 941 0060 6048     		ldr	r0, .L91+8
 942 0062 FFF7FEFF 		bl	writeLine
 943              	.LVL123:
 282:ARM_Monitor.c ****         writeLine("WSADDR,DATA - Write byte/short/long address with data");
 944              		.loc 1 282 0
 945 0066 6048     		ldr	r0, .L91+12
 946 0068 FFF7FEFF 		bl	writeLine
 947              	.LVL124:
 283:ARM_Monitor.c ****         writeLine("Daddress - Dump starting at address");
 948              		.loc 1 283 0
 949 006c 5F48     		ldr	r0, .L91+16
 950 006e FFF7FEFF 		bl	writeLine
 951              	.LVL125:
 284:ARM_Monitor.c ****         writeLine("Gaddress - Go start executing at address");
 952              		.loc 1 284 0
 953 0072 5F48     		ldr	r0, .L91+20
 954 0074 FFF7FEFF 		bl	writeLine
 955              	.LVL126:
 285:ARM_Monitor.c ****         writeLine("Aaddress - disAssemble code at address");
 956              		.loc 1 285 0
 957 0078 5E48     		ldr	r0, .L91+24
 958 007a FFF7FEFF 		bl	writeLine
 959              	.LVL127:
 286:ARM_Monitor.c ****         break;
ARM GAS  C:\Users\doug_000\AppData\Local\Temp\ccigWOLe.s 			page 23


 960              		.loc 1 286 0
 961 007e AAE0     		b	.L68
 962              	.L73:
 287:ARM_Monitor.c ****       case 'D':
 288:ARM_Monitor.c ****       case 'd':
 289:ARM_Monitor.c ****         if (checkParmCount(rxBufferPtr,1) == -1)
 963              		.loc 1 289 0
 964 0080 6846     		mov	r0, sp
 965 0082 0121     		movs	r1, #1
 966 0084 FFF7FEFF 		bl	checkParmCount
 967              	.LVL128:
 968 0088 B0F1FF3F 		cmp	r0, #-1
 969 008c 00F0A380 		beq	.L68
 290:ARM_Monitor.c ****             break;
 291:ARM_Monitor.c ****         else
 292:ARM_Monitor.c ****             dumpMem(extractParm(&rxBufferPtr[1],0));
 970              		.loc 1 292 0
 971 0090 0DF10100 		add	r0, sp, #1
 972 0094 0021     		movs	r1, #0
 973 0096 FFF7FEFF 		bl	extractParm
 974              	.LVL129:
 975 009a FFF7FEFF 		bl	dumpMem
 976              	.LVL130:
 293:ARM_Monitor.c ****         break;
 977              		.loc 1 293 0
 978 009e 9AE0     		b	.L68
 979              	.L75:
 294:ARM_Monitor.c ****       case 'R':
 295:ARM_Monitor.c ****       case 'r':
 296:ARM_Monitor.c ****         if (checkParmCount(&rxBufferPtr[2],1) == -1)
 980              		.loc 1 296 0
 981 00a0 0DF10200 		add	r0, sp, #2
 982 00a4 0121     		movs	r1, #1
 983 00a6 FFF7FEFF 		bl	checkParmCount
 984              	.LVL131:
 985 00aa B0F1FF3F 		cmp	r0, #-1
 986 00ae 00F09280 		beq	.L68
 297:ARM_Monitor.c ****             break;
 298:ARM_Monitor.c ****         else
 299:ARM_Monitor.c ****         {
 300:ARM_Monitor.c ****             if ((rxBufferPtr[1]=='B') || (rxBufferPtr[1]=='b'))
 987              		.loc 1 300 0
 988 00b2 9DF80130 		ldrb	r3, [sp, #1]	@ zero_extendqisi2
 989 00b6 422B     		cmp	r3, #66
 990 00b8 01D0     		beq	.L78
 991              		.loc 1 300 0 is_stmt 0 discriminator 1
 992 00ba 622B     		cmp	r3, #98
 993 00bc 07D1     		bne	.L79
 994              	.L78:
 301:ARM_Monitor.c ****                 readMemByte(extractParm(&rxBufferPtr[2],0));
 995              		.loc 1 301 0 is_stmt 1
 996 00be 0DF10200 		add	r0, sp, #2
 997 00c2 0021     		movs	r1, #0
 998 00c4 FFF7FEFF 		bl	extractParm
 999              	.LVL132:
 1000 00c8 FFF7FEFF 		bl	readMemByte
 1001              	.LVL133:
ARM GAS  C:\Users\doug_000\AppData\Local\Temp\ccigWOLe.s 			page 24


 1002 00cc 83E0     		b	.L68
 1003              	.L79:
 302:ARM_Monitor.c ****             else if ((rxBufferPtr[1]=='S') || (rxBufferPtr[1]=='s'))
 1004              		.loc 1 302 0
 1005 00ce 532B     		cmp	r3, #83
 1006 00d0 01D0     		beq	.L80
 1007              		.loc 1 302 0 is_stmt 0 discriminator 1
 1008 00d2 732B     		cmp	r3, #115
 1009 00d4 07D1     		bne	.L81
 1010              	.L80:
 303:ARM_Monitor.c ****                 readMemShort(extractParm(&rxBufferPtr[2],0));
 1011              		.loc 1 303 0 is_stmt 1
 1012 00d6 0DF10200 		add	r0, sp, #2
 1013 00da 0021     		movs	r1, #0
 1014 00dc FFF7FEFF 		bl	extractParm
 1015              	.LVL134:
 1016 00e0 FFF7FEFF 		bl	readMemShort
 1017              	.LVL135:
 1018 00e4 77E0     		b	.L68
 1019              	.L81:
 304:ARM_Monitor.c ****             else if ((rxBufferPtr[1]=='L') || (rxBufferPtr[1]=='l'))
 1020              		.loc 1 304 0
 1021 00e6 4C2B     		cmp	r3, #76
 1022 00e8 01D0     		beq	.L82
 1023              		.loc 1 304 0 is_stmt 0 discriminator 1
 1024 00ea 6C2B     		cmp	r3, #108
 1025 00ec 07D1     		bne	.L83
 1026              	.L82:
 305:ARM_Monitor.c ****                 readMemLong(extractParm(&rxBufferPtr[2],0));
 1027              		.loc 1 305 0 is_stmt 1
 1028 00ee 0DF10200 		add	r0, sp, #2
 1029 00f2 0021     		movs	r1, #0
 1030 00f4 FFF7FEFF 		bl	extractParm
 1031              	.LVL136:
 1032 00f8 FFF7FEFF 		bl	readMemLong
 1033              	.LVL137:
 1034 00fc 6BE0     		b	.L68
 1035              	.L83:
 306:ARM_Monitor.c ****             else
 307:ARM_Monitor.c ****                 writeLine("RSADDR - Read Byte/Short/Long data at ADDRess");
 1036              		.loc 1 307 0
 1037 00fe 3E48     		ldr	r0, .L91+28
 1038 0100 FFF7FEFF 		bl	writeLine
 1039              	.LVL138:
 1040 0104 67E0     		b	.L68
 1041              	.L76:
 308:ARM_Monitor.c ****         }
 309:ARM_Monitor.c ****         break;
 310:ARM_Monitor.c ****       case 'W':
 311:ARM_Monitor.c ****       case 'w':
 312:ARM_Monitor.c ****         if (checkParmCount(rxBufferPtr,2) == -1)
 1042              		.loc 1 312 0
 1043 0106 6846     		mov	r0, sp
 1044 0108 0221     		movs	r1, #2
 1045 010a FFF7FEFF 		bl	checkParmCount
 1046              	.LVL139:
 1047 010e B0F1FF3F 		cmp	r0, #-1
ARM GAS  C:\Users\doug_000\AppData\Local\Temp\ccigWOLe.s 			page 25


 1048 0112 60D0     		beq	.L68
 313:ARM_Monitor.c ****             break;
 314:ARM_Monitor.c ****         else
 315:ARM_Monitor.c ****         {
 316:ARM_Monitor.c ****             writeLine("got write command");
 1049              		.loc 1 316 0
 1050 0114 3948     		ldr	r0, .L91+32
 1051 0116 FFF7FEFF 		bl	writeLine
 1052              	.LVL140:
 317:ARM_Monitor.c ****             if ((rxBufferPtr[1]=='B') || (rxBufferPtr[1]=='b'))
 1053              		.loc 1 317 0
 1054 011a 9DF80130 		ldrb	r3, [sp, #1]	@ zero_extendqisi2
 1055 011e 422B     		cmp	r3, #66
 1056 0120 01D0     		beq	.L84
 1057              		.loc 1 317 0 is_stmt 0 discriminator 1
 1058 0122 622B     		cmp	r3, #98
 1059 0124 0ED1     		bne	.L85
 1060              	.L84:
 318:ARM_Monitor.c ****                 writeMemByte(extractParm(&rxBufferPtr[2],0),extractParm(rxBufferPtr,1));
 1061              		.loc 1 318 0 is_stmt 1
 1062 0126 0DF10200 		add	r0, sp, #2
 1063 012a 0021     		movs	r1, #0
 1064 012c FFF7FEFF 		bl	extractParm
 1065              	.LVL141:
 1066 0130 0446     		mov	r4, r0
 1067 0132 6846     		mov	r0, sp
 1068 0134 0121     		movs	r1, #1
 1069 0136 FFF7FEFF 		bl	extractParm
 1070              	.LVL142:
 1071 013a C1B2     		uxtb	r1, r0
 1072 013c 2046     		mov	r0, r4
 1073 013e FFF7FEFF 		bl	writeMemByte
 1074              	.LVL143:
 1075 0142 48E0     		b	.L68
 1076              	.L85:
 319:ARM_Monitor.c ****             else if ((rxBufferPtr[1]=='S') || (rxBufferPtr[1]=='s'))
 1077              		.loc 1 319 0
 1078 0144 532B     		cmp	r3, #83
 1079 0146 01D0     		beq	.L86
 1080              		.loc 1 319 0 is_stmt 0 discriminator 1
 1081 0148 732B     		cmp	r3, #115
 1082 014a 0ED1     		bne	.L87
 1083              	.L86:
 320:ARM_Monitor.c ****                 writeMemShort(extractParm(&rxBufferPtr[2],0),extractParm(rxBufferPtr,1));
 1084              		.loc 1 320 0 is_stmt 1
 1085 014c 0DF10200 		add	r0, sp, #2
 1086 0150 0021     		movs	r1, #0
 1087 0152 FFF7FEFF 		bl	extractParm
 1088              	.LVL144:
 1089 0156 0446     		mov	r4, r0
 1090 0158 6846     		mov	r0, sp
 1091 015a 0121     		movs	r1, #1
 1092 015c FFF7FEFF 		bl	extractParm
 1093              	.LVL145:
 1094 0160 81B2     		uxth	r1, r0
 1095 0162 2046     		mov	r0, r4
 1096 0164 FFF7FEFF 		bl	writeMemShort
ARM GAS  C:\Users\doug_000\AppData\Local\Temp\ccigWOLe.s 			page 26


 1097              	.LVL146:
 1098 0168 35E0     		b	.L68
 1099              	.L87:
 321:ARM_Monitor.c ****             else if ((rxBufferPtr[1]=='L') || (rxBufferPtr[1]=='l'))
 1100              		.loc 1 321 0
 1101 016a 4C2B     		cmp	r3, #76
 1102 016c 01D0     		beq	.L88
 1103              		.loc 1 321 0 is_stmt 0 discriminator 1
 1104 016e 6C2B     		cmp	r3, #108
 1105 0170 0ED1     		bne	.L89
 1106              	.L88:
 322:ARM_Monitor.c ****                 writeMemLong(extractParm(&rxBufferPtr[2],0),extractParm(rxBufferPtr,1));
 1107              		.loc 1 322 0 is_stmt 1
 1108 0172 0DF10200 		add	r0, sp, #2
 1109 0176 0021     		movs	r1, #0
 1110 0178 FFF7FEFF 		bl	extractParm
 1111              	.LVL147:
 1112 017c 0446     		mov	r4, r0
 1113 017e 6846     		mov	r0, sp
 1114 0180 0121     		movs	r1, #1
 1115 0182 FFF7FEFF 		bl	extractParm
 1116              	.LVL148:
 1117 0186 0146     		mov	r1, r0
 1118 0188 2046     		mov	r0, r4
 1119 018a FFF7FEFF 		bl	writeMemLong
 1120              	.LVL149:
 1121 018e 22E0     		b	.L68
 1122              	.L89:
 323:ARM_Monitor.c ****             else
 324:ARM_Monitor.c ****                 writeLine("WSADDR,DATA - Write Byte/Short/Long ADDRess with DATA");
 1123              		.loc 1 324 0
 1124 0190 1B48     		ldr	r0, .L91+36
 1125 0192 FFF7FEFF 		bl	writeLine
 1126              	.LVL150:
 1127 0196 1EE0     		b	.L68
 1128              	.L74:
 325:ARM_Monitor.c ****         }
 326:ARM_Monitor.c ****         break;
 327:ARM_Monitor.c ****       case 'G':
 328:ARM_Monitor.c ****       case 'g':
 329:ARM_Monitor.c ****         if (checkParmCount(rxBufferPtr,1) == -1)
 1129              		.loc 1 329 0
 1130 0198 6846     		mov	r0, sp
 1131 019a 0121     		movs	r1, #1
 1132 019c FFF7FEFF 		bl	checkParmCount
 1133              	.LVL151:
 1134 01a0 B0F1FF3F 		cmp	r0, #-1
 1135 01a4 17D0     		beq	.L68
 330:ARM_Monitor.c ****             break;
 331:ARM_Monitor.c ****         else
 332:ARM_Monitor.c ****             goCommand(extractParm(rxBufferPtr,0));
 1136              		.loc 1 332 0
 1137 01a6 6846     		mov	r0, sp
 1138 01a8 0021     		movs	r1, #0
 1139 01aa FFF7FEFF 		bl	extractParm
 1140              	.LVL152:
 1141 01ae FFF7FEFF 		bl	goCommand
ARM GAS  C:\Users\doug_000\AppData\Local\Temp\ccigWOLe.s 			page 27


 1142              	.LVL153:
 333:ARM_Monitor.c ****         break;
 1143              		.loc 1 333 0
 1144 01b2 10E0     		b	.L68
 1145              	.L72:
 334:ARM_Monitor.c ****       case 'A':
 335:ARM_Monitor.c ****       case 'a':
 336:ARM_Monitor.c ****         if (checkParmCount(rxBufferPtr,1) == -1)
 1146              		.loc 1 336 0
 1147 01b4 6846     		mov	r0, sp
 1148 01b6 0121     		movs	r1, #1
 1149 01b8 FFF7FEFF 		bl	checkParmCount
 1150              	.LVL154:
 1151 01bc B0F1FF3F 		cmp	r0, #-1
 1152 01c0 09D0     		beq	.L68
 337:ARM_Monitor.c ****             break;
 338:ARM_Monitor.c ****         else
 339:ARM_Monitor.c ****             disassemble(extractParm(rxBufferPtr,0));
 1153              		.loc 1 339 0
 1154 01c2 6846     		mov	r0, sp
 1155 01c4 0021     		movs	r1, #0
 1156 01c6 FFF7FEFF 		bl	extractParm
 1157              	.LVL155:
 1158 01ca FFF7FEFF 		bl	disassemble
 1159              	.LVL156:
 340:ARM_Monitor.c ****         break;
 1160              		.loc 1 340 0
 1161 01ce 02E0     		b	.L68
 1162              	.L69:
 341:ARM_Monitor.c ****       default:
 342:ARM_Monitor.c ****         writeLine("Unrecognized command, ? to list commands");
 1163              		.loc 1 342 0
 1164 01d0 0C48     		ldr	r0, .L91+40
 1165 01d2 FFF7FEFF 		bl	writeLine
 1166              	.LVL157:
 1167              	.L68:
 343:ARM_Monitor.c ****         break;
 344:ARM_Monitor.c ****     }
 345:ARM_Monitor.c **** //        if (rxBufferPtr[0] == 'R')
 346:ARM_Monitor.c **** //           writeLine("Read");
 347:ARM_Monitor.c **** //        Control_Reg_1_Write(buffLen);         /* Number of character */
 348:ARM_Monitor.c **** //        blinkLED(5);
 349:ARM_Monitor.c **** //        writeLine(rxBufferPtr);
 350:ARM_Monitor.c ****    
 351:ARM_Monitor.c **** }
 1168              		.loc 1 351 0
 1169 01d6 14B0     		add	sp, sp, #80
 1170              		.cfi_def_cfa_offset 8
 1171              		@ sp needed
 1172 01d8 10BD     		pop	{r4, pc}
 1173              	.L92:
 1174 01da 00BF     		.align	2
 1175              	.L91:
 1176 01dc 80000000 		.word	.LC6
 1177 01e0 54000000 		.word	.LC3
 1178 01e4 B4000000 		.word	.LC7
 1179 01e8 EC000000 		.word	.LC8
ARM GAS  C:\Users\doug_000\AppData\Local\Temp\ccigWOLe.s 			page 28


 1180 01ec 24010000 		.word	.LC9
 1181 01f0 48010000 		.word	.LC10
 1182 01f4 74010000 		.word	.LC11
 1183 01f8 9C010000 		.word	.LC12
 1184 01fc CC010000 		.word	.LC13
 1185 0200 E0010000 		.word	.LC14
 1186 0204 18020000 		.word	.LC15
 1187              		.cfi_endproc
 1188              	.LFE75:
 1189              		.size	ARM_Monitor, .-ARM_Monitor
 1190              		.comm	myStringInMemory,256,4
 1191              		.section	.rodata.str1.4,"aMS",%progbits,1
 1192              		.align	2
 1193              	.LC0:
 1194 0000 63686563 		.ascii	"checkParmCount: Parameter error: \000"
 1194      6B506172 
 1194      6D436F75 
 1194      6E743A20 
 1194      50617261 
 1195 0022 0000     		.space	2
 1196              	.LC1:
 1197 0024 456E7465 		.ascii	"Enter to continue, any other key to stop\000"
 1197      7220746F 
 1197      20636F6E 
 1197      74696E75 
 1197      652C2061 
 1198 004d 000000   		.space	3
 1199              	.LC2:
 1200 0050 2000     		.ascii	" \000"
 1201 0052 0000     		.space	2
 1202              	.LC3:
 1203 0054 00       		.ascii	"\000"
 1204 0055 000000   		.space	3
 1205              	.LC4:
 1206 0058 77726974 		.ascii	"writeMem: writing - address=\000"
 1206      654D656D 
 1206      3A207772 
 1206      6974696E 
 1206      67202D20 
 1207 0075 000000   		.space	3
 1208              	.LC5:
 1209 0078 2C206461 		.ascii	", data=\000"
 1209      74613D00 
 1210              	.LC6:
 1211 0080 41524D20 		.ascii	"ARM PsOC Monitor v0.0.2 (? for a list of commands)\000"
 1211      50734F43 
 1211      204D6F6E 
 1211      69746F72 
 1211      2076302E 
 1212 00b3 00       		.space	1
 1213              	.LC7:
 1214 00b4 52534144 		.ascii	"RSADDR - Read/Modify byte/short/long data at addres"
 1214      4452202D 
 1214      20526561 
 1214      642F4D6F 
 1214      64696679 
 1215 00e7 7300     		.ascii	"s\000"
ARM GAS  C:\Users\doug_000\AppData\Local\Temp\ccigWOLe.s 			page 29


 1216 00e9 000000   		.space	3
 1217              	.LC8:
 1218 00ec 57534144 		.ascii	"WSADDR,DATA - Write byte/short/long address with da"
 1218      44522C44 
 1218      41544120 
 1218      2D205772 
 1218      69746520 
 1219 011f 746100   		.ascii	"ta\000"
 1220 0122 0000     		.space	2
 1221              	.LC9:
 1222 0124 44616464 		.ascii	"Daddress - Dump starting at address\000"
 1222      72657373 
 1222      202D2044 
 1222      756D7020 
 1222      73746172 
 1223              	.LC10:
 1224 0148 47616464 		.ascii	"Gaddress - Go start executing at address\000"
 1224      72657373 
 1224      202D2047 
 1224      6F207374 
 1224      61727420 
 1225 0171 000000   		.space	3
 1226              	.LC11:
 1227 0174 41616464 		.ascii	"Aaddress - disAssemble code at address\000"
 1227      72657373 
 1227      202D2064 
 1227      69734173 
 1227      73656D62 
 1228 019b 00       		.space	1
 1229              	.LC12:
 1230 019c 52534144 		.ascii	"RSADDR - Read Byte/Short/Long data at ADDRess\000"
 1230      4452202D 
 1230      20526561 
 1230      64204279 
 1230      74652F53 
 1231 01ca 0000     		.space	2
 1232              	.LC13:
 1233 01cc 676F7420 		.ascii	"got write command\000"
 1233      77726974 
 1233      6520636F 
 1233      6D6D616E 
 1233      6400
 1234 01de 0000     		.space	2
 1235              	.LC14:
 1236 01e0 57534144 		.ascii	"WSADDR,DATA - Write Byte/Short/Long ADDRess with DA"
 1236      44522C44 
 1236      41544120 
 1236      2D205772 
 1236      69746520 
 1237 0213 544100   		.ascii	"TA\000"
 1238 0216 0000     		.space	2
 1239              	.LC15:
 1240 0218 556E7265 		.ascii	"Unrecognized command, ? to list commands\000"
 1240      636F676E 
 1240      697A6564 
 1240      20636F6D 
 1240      6D616E64 
ARM GAS  C:\Users\doug_000\AppData\Local\Temp\ccigWOLe.s 			page 30


 1241 0241 000000   		.text
 1242              	.Letext0:
 1243              		.file 2 "c:\\program files (x86)\\cypress\\psoc creator\\4.0\\psoc creator\\import\\gnu\\arm\\4.9.
 1244              		.file 3 "c:\\program files (x86)\\cypress\\psoc creator\\4.0\\psoc creator\\import\\gnu\\arm\\4.9.
 1245              		.file 4 "Generated_Source\\PSoC5/cytypes.h"
 1246              		.file 5 "Generated_Source\\PSoC5/core_cm3.h"
 1247              		.file 6 "stringConvs.h"
 1248              		.file 7 "c:\\program files (x86)\\cypress\\psoc creator\\4.0\\psoc creator\\import\\gnu\\arm\\4.9.
 1249              		.file 8 "serialIO.h"
 1250              		.file 9 "accessMemory.h"