ARM GAS  C:\Users\doug_000\AppData\Local\Temp\ccIvUXyG.s 			page 1


   1              		.syntax unified
   2              		.cpu cortex-m3
   3              		.fpu softvfp
   4              		.eabi_attribute 20, 1
   5              		.eabi_attribute 21, 1
   6              		.eabi_attribute 23, 3
   7              		.eabi_attribute 24, 1
   8              		.eabi_attribute 25, 1
   9              		.eabi_attribute 26, 1
  10              		.eabi_attribute 30, 1
  11              		.eabi_attribute 34, 1
  12              		.eabi_attribute 18, 4
  13              		.thumb
  14              		.file	"cyfitter_cfg.c"
  15              		.text
  16              	.Ltext0:
  17              		.cfi_sections	.debug_frame
  18              		.section	.text.CyClockStartupError,"ax",%progbits
  19              		.align	2
  20              		.thumb
  21              		.thumb_func
  22              		.type	CyClockStartupError, %function
  23              	CyClockStartupError:
  24              	.LFB3:
  25              		.file 1 "Generated_Source\\PSoC5\\cyfitter_cfg.c"
   1:Generated_Source\PSoC5/cyfitter_cfg.c **** /*******************************************************************************
   2:Generated_Source\PSoC5/cyfitter_cfg.c **** * File Name: cyfitter_cfg.c
   3:Generated_Source\PSoC5/cyfitter_cfg.c **** * 
   4:Generated_Source\PSoC5/cyfitter_cfg.c **** * PSoC Creator  4.0
   5:Generated_Source\PSoC5/cyfitter_cfg.c **** *
   6:Generated_Source\PSoC5/cyfitter_cfg.c **** * Description:
   7:Generated_Source\PSoC5/cyfitter_cfg.c **** * This file contains device initialization code.
   8:Generated_Source\PSoC5/cyfitter_cfg.c **** * Except for the user defined sections in CyClockStartupError(), this file should not be modified.
   9:Generated_Source\PSoC5/cyfitter_cfg.c **** * This file is automatically generated by PSoC Creator.
  10:Generated_Source\PSoC5/cyfitter_cfg.c **** *
  11:Generated_Source\PSoC5/cyfitter_cfg.c **** ********************************************************************************
  12:Generated_Source\PSoC5/cyfitter_cfg.c **** * Copyright (c) 2007-2016 Cypress Semiconductor.  All rights reserved.
  13:Generated_Source\PSoC5/cyfitter_cfg.c **** * You may use this file only in accordance with the license, terms, conditions, 
  14:Generated_Source\PSoC5/cyfitter_cfg.c **** * disclaimers, and limitations in the end user license agreement accompanying 
  15:Generated_Source\PSoC5/cyfitter_cfg.c **** * the software package with which this file was provided.
  16:Generated_Source\PSoC5/cyfitter_cfg.c **** ********************************************************************************/
  17:Generated_Source\PSoC5/cyfitter_cfg.c **** 
  18:Generated_Source\PSoC5/cyfitter_cfg.c **** #include <string.h>
  19:Generated_Source\PSoC5/cyfitter_cfg.c **** #include "cytypes.h"
  20:Generated_Source\PSoC5/cyfitter_cfg.c **** #include "cydevice_trm.h"
  21:Generated_Source\PSoC5/cyfitter_cfg.c **** #include "cyfitter.h"
  22:Generated_Source\PSoC5/cyfitter_cfg.c **** #include "CyLib.h"
  23:Generated_Source\PSoC5/cyfitter_cfg.c **** #include "cyfitter_cfg.h"
  24:Generated_Source\PSoC5/cyfitter_cfg.c **** #include "cyapicallbacks.h"
  25:Generated_Source\PSoC5/cyfitter_cfg.c **** 
  26:Generated_Source\PSoC5/cyfitter_cfg.c **** #define CY_NEED_CYCLOCKSTARTUPERROR 1
  27:Generated_Source\PSoC5/cyfitter_cfg.c **** 
  28:Generated_Source\PSoC5/cyfitter_cfg.c **** 
  29:Generated_Source\PSoC5/cyfitter_cfg.c **** #if defined(__GNUC__) || defined(__ARMCC_VERSION)
  30:Generated_Source\PSoC5/cyfitter_cfg.c ****     #define CYPACKED 
  31:Generated_Source\PSoC5/cyfitter_cfg.c ****     #define CYPACKED_ATTR __attribute__ ((packed))
  32:Generated_Source\PSoC5/cyfitter_cfg.c ****     #define CYALIGNED __attribute__ ((aligned))
ARM GAS  C:\Users\doug_000\AppData\Local\Temp\ccIvUXyG.s 			page 2


  33:Generated_Source\PSoC5/cyfitter_cfg.c ****     #define CY_CFG_UNUSED __attribute__ ((unused))
  34:Generated_Source\PSoC5/cyfitter_cfg.c ****     #ifndef CY_CFG_SECTION
  35:Generated_Source\PSoC5/cyfitter_cfg.c ****         #define CY_CFG_SECTION __attribute__ ((section(".psocinit")))
  36:Generated_Source\PSoC5/cyfitter_cfg.c ****     #endif
  37:Generated_Source\PSoC5/cyfitter_cfg.c ****     
  38:Generated_Source\PSoC5/cyfitter_cfg.c ****     #if defined(__ARMCC_VERSION)
  39:Generated_Source\PSoC5/cyfitter_cfg.c ****         #define CY_CFG_MEMORY_BARRIER() __memory_changed()
  40:Generated_Source\PSoC5/cyfitter_cfg.c ****     #else
  41:Generated_Source\PSoC5/cyfitter_cfg.c ****         #define CY_CFG_MEMORY_BARRIER() __sync_synchronize()
  42:Generated_Source\PSoC5/cyfitter_cfg.c ****     #endif
  43:Generated_Source\PSoC5/cyfitter_cfg.c ****     
  44:Generated_Source\PSoC5/cyfitter_cfg.c **** #elif defined(__ICCARM__)
  45:Generated_Source\PSoC5/cyfitter_cfg.c ****     #include <intrinsics.h>
  46:Generated_Source\PSoC5/cyfitter_cfg.c **** 
  47:Generated_Source\PSoC5/cyfitter_cfg.c ****     #define CYPACKED __packed
  48:Generated_Source\PSoC5/cyfitter_cfg.c ****     #define CYPACKED_ATTR 
  49:Generated_Source\PSoC5/cyfitter_cfg.c ****     #define CYALIGNED _Pragma("data_alignment=4")
  50:Generated_Source\PSoC5/cyfitter_cfg.c ****     #define CY_CFG_UNUSED _Pragma("diag_suppress=Pe177")
  51:Generated_Source\PSoC5/cyfitter_cfg.c ****     #define CY_CFG_SECTION _Pragma("location=\".psocinit\"")
  52:Generated_Source\PSoC5/cyfitter_cfg.c ****     
  53:Generated_Source\PSoC5/cyfitter_cfg.c ****     #define CY_CFG_MEMORY_BARRIER() __DMB()
  54:Generated_Source\PSoC5/cyfitter_cfg.c ****     
  55:Generated_Source\PSoC5/cyfitter_cfg.c **** #else
  56:Generated_Source\PSoC5/cyfitter_cfg.c ****     #error Unsupported toolchain
  57:Generated_Source\PSoC5/cyfitter_cfg.c **** #endif
  58:Generated_Source\PSoC5/cyfitter_cfg.c **** 
  59:Generated_Source\PSoC5/cyfitter_cfg.c **** 
  60:Generated_Source\PSoC5/cyfitter_cfg.c **** CY_CFG_UNUSED
  61:Generated_Source\PSoC5/cyfitter_cfg.c **** static void CYMEMZERO(void *s, size_t n);
  62:Generated_Source\PSoC5/cyfitter_cfg.c **** CY_CFG_UNUSED
  63:Generated_Source\PSoC5/cyfitter_cfg.c **** static void CYMEMZERO(void *s, size_t n)
  64:Generated_Source\PSoC5/cyfitter_cfg.c **** {
  65:Generated_Source\PSoC5/cyfitter_cfg.c **** 	(void)memset(s, 0, n);
  66:Generated_Source\PSoC5/cyfitter_cfg.c **** }
  67:Generated_Source\PSoC5/cyfitter_cfg.c **** CY_CFG_UNUSED
  68:Generated_Source\PSoC5/cyfitter_cfg.c **** static void CYCONFIGCPY(void *dest, const void *src, size_t n);
  69:Generated_Source\PSoC5/cyfitter_cfg.c **** CY_CFG_UNUSED
  70:Generated_Source\PSoC5/cyfitter_cfg.c **** static void CYCONFIGCPY(void *dest, const void *src, size_t n)
  71:Generated_Source\PSoC5/cyfitter_cfg.c **** {
  72:Generated_Source\PSoC5/cyfitter_cfg.c **** 	(void)memcpy(dest, src, n);
  73:Generated_Source\PSoC5/cyfitter_cfg.c **** }
  74:Generated_Source\PSoC5/cyfitter_cfg.c **** CY_CFG_UNUSED
  75:Generated_Source\PSoC5/cyfitter_cfg.c **** static void CYCONFIGCPYCODE(void *dest, const void *src, size_t n);
  76:Generated_Source\PSoC5/cyfitter_cfg.c **** CY_CFG_UNUSED
  77:Generated_Source\PSoC5/cyfitter_cfg.c **** static void CYCONFIGCPYCODE(void *dest, const void *src, size_t n)
  78:Generated_Source\PSoC5/cyfitter_cfg.c **** {
  79:Generated_Source\PSoC5/cyfitter_cfg.c **** 	(void)memcpy(dest, src, n);
  80:Generated_Source\PSoC5/cyfitter_cfg.c **** }
  81:Generated_Source\PSoC5/cyfitter_cfg.c **** 
  82:Generated_Source\PSoC5/cyfitter_cfg.c **** 
  83:Generated_Source\PSoC5/cyfitter_cfg.c **** 
  84:Generated_Source\PSoC5/cyfitter_cfg.c **** 
  85:Generated_Source\PSoC5/cyfitter_cfg.c **** /* Clock startup error codes                                                   */
  86:Generated_Source\PSoC5/cyfitter_cfg.c **** #define CYCLOCKSTART_NO_ERROR    0u
  87:Generated_Source\PSoC5/cyfitter_cfg.c **** #define CYCLOCKSTART_XTAL_ERROR  1u
  88:Generated_Source\PSoC5/cyfitter_cfg.c **** #define CYCLOCKSTART_32KHZ_ERROR 2u
  89:Generated_Source\PSoC5/cyfitter_cfg.c **** #define CYCLOCKSTART_PLL_ERROR   3u
ARM GAS  C:\Users\doug_000\AppData\Local\Temp\ccIvUXyG.s 			page 3


  90:Generated_Source\PSoC5/cyfitter_cfg.c **** 
  91:Generated_Source\PSoC5/cyfitter_cfg.c **** 
  92:Generated_Source\PSoC5/cyfitter_cfg.c **** #ifdef CY_NEED_CYCLOCKSTARTUPERROR
  93:Generated_Source\PSoC5/cyfitter_cfg.c **** /*******************************************************************************
  94:Generated_Source\PSoC5/cyfitter_cfg.c **** * Function Name: CyClockStartupError
  95:Generated_Source\PSoC5/cyfitter_cfg.c **** ********************************************************************************
  96:Generated_Source\PSoC5/cyfitter_cfg.c **** * Summary:
  97:Generated_Source\PSoC5/cyfitter_cfg.c **** *  If an error is encountered during clock configuration (crystal startup error,
  98:Generated_Source\PSoC5/cyfitter_cfg.c **** *  PLL lock error, etc.), the system will end up here.  Unless reimplemented by
  99:Generated_Source\PSoC5/cyfitter_cfg.c **** *  the customer, this function will stop in an infinite loop.
 100:Generated_Source\PSoC5/cyfitter_cfg.c **** *
 101:Generated_Source\PSoC5/cyfitter_cfg.c **** * Parameters:
 102:Generated_Source\PSoC5/cyfitter_cfg.c **** *   void
 103:Generated_Source\PSoC5/cyfitter_cfg.c **** *
 104:Generated_Source\PSoC5/cyfitter_cfg.c **** * Return:
 105:Generated_Source\PSoC5/cyfitter_cfg.c **** *   void
 106:Generated_Source\PSoC5/cyfitter_cfg.c **** *
 107:Generated_Source\PSoC5/cyfitter_cfg.c **** *******************************************************************************/
 108:Generated_Source\PSoC5/cyfitter_cfg.c **** CY_CFG_UNUSED
 109:Generated_Source\PSoC5/cyfitter_cfg.c **** static void CyClockStartupError(uint8 errorCode);
 110:Generated_Source\PSoC5/cyfitter_cfg.c **** CY_CFG_UNUSED
 111:Generated_Source\PSoC5/cyfitter_cfg.c **** static void CyClockStartupError(uint8 errorCode)
 112:Generated_Source\PSoC5/cyfitter_cfg.c **** {
  26              		.loc 1 112 0
  27              		.cfi_startproc
  28              		@ Volatile: function does not return.
  29              		@ args = 0, pretend = 0, frame = 0
  30              		@ frame_needed = 0, uses_anonymous_args = 0
  31              		@ link register save eliminated.
  32              	.LVL0:
  33              	.L2:
 113:Generated_Source\PSoC5/cyfitter_cfg.c ****     /* To remove the compiler warning if errorCode not used.                */
 114:Generated_Source\PSoC5/cyfitter_cfg.c ****     errorCode = errorCode;
 115:Generated_Source\PSoC5/cyfitter_cfg.c **** 
 116:Generated_Source\PSoC5/cyfitter_cfg.c ****     /* If we have a clock startup error (bad MHz crystal, PLL lock, etc.),  */
 117:Generated_Source\PSoC5/cyfitter_cfg.c ****     /* we will end up here to allow the customer to implement something to  */
 118:Generated_Source\PSoC5/cyfitter_cfg.c ****     /* deal with the clock condition.                                       */
 119:Generated_Source\PSoC5/cyfitter_cfg.c **** 
 120:Generated_Source\PSoC5/cyfitter_cfg.c **** #ifdef CY_CFG_CLOCK_STARTUP_ERROR_CALLBACK
 121:Generated_Source\PSoC5/cyfitter_cfg.c **** 	CY_CFG_Clock_Startup_ErrorCallback();
 122:Generated_Source\PSoC5/cyfitter_cfg.c **** #else
 123:Generated_Source\PSoC5/cyfitter_cfg.c **** 	/*  If not using CY_CFG_CLOCK_STARTUP_ERROR_CALLBACK, place your clock startup code here. */
 124:Generated_Source\PSoC5/cyfitter_cfg.c ****     /* `#START CyClockStartupError` */
 125:Generated_Source\PSoC5/cyfitter_cfg.c **** 
 126:Generated_Source\PSoC5/cyfitter_cfg.c **** 
 127:Generated_Source\PSoC5/cyfitter_cfg.c **** 
 128:Generated_Source\PSoC5/cyfitter_cfg.c ****     /* `#END` */
 129:Generated_Source\PSoC5/cyfitter_cfg.c **** 
 130:Generated_Source\PSoC5/cyfitter_cfg.c ****     /* If nothing else, stop here since the clocks have not started         */
 131:Generated_Source\PSoC5/cyfitter_cfg.c ****     /* correctly.                                                           */
 132:Generated_Source\PSoC5/cyfitter_cfg.c ****     while(1) {}
  34              		.loc 1 132 0 discriminator 1
  35 0000 FEE7     		b	.L2
  36              		.cfi_endproc
  37              	.LFE3:
  38              		.size	CyClockStartupError, .-CyClockStartupError
  39 0002 00BF     		.section	.text.cfg_write_bytes32,"ax",%progbits
ARM GAS  C:\Users\doug_000\AppData\Local\Temp\ccIvUXyG.s 			page 4


  40              		.align	2
  41              		.thumb
  42              		.thumb_func
  43              		.type	cfg_write_bytes32, %function
  44              	cfg_write_bytes32:
  45              	.LFB4:
 133:Generated_Source\PSoC5/cyfitter_cfg.c **** #endif /* CY_CFG_CLOCK_STARTUP_ERROR_CALLBACK */ 
 134:Generated_Source\PSoC5/cyfitter_cfg.c **** }
 135:Generated_Source\PSoC5/cyfitter_cfg.c **** #endif
 136:Generated_Source\PSoC5/cyfitter_cfg.c **** 
 137:Generated_Source\PSoC5/cyfitter_cfg.c **** #define CY_CFG_BASE_ADDR_COUNT 19u
 138:Generated_Source\PSoC5/cyfitter_cfg.c **** CYPACKED typedef struct
 139:Generated_Source\PSoC5/cyfitter_cfg.c **** {
 140:Generated_Source\PSoC5/cyfitter_cfg.c **** 	uint8 offset;
 141:Generated_Source\PSoC5/cyfitter_cfg.c **** 	uint8 value;
 142:Generated_Source\PSoC5/cyfitter_cfg.c **** } CYPACKED_ATTR cy_cfg_addrvalue_t;
 143:Generated_Source\PSoC5/cyfitter_cfg.c **** 
 144:Generated_Source\PSoC5/cyfitter_cfg.c **** #define cy_cfg_addr_table ((const uint32 CYFAR *)0x48000000u)
 145:Generated_Source\PSoC5/cyfitter_cfg.c **** #define cy_cfg_data_table ((const cy_cfg_addrvalue_t CYFAR *)0x4800004Cu)
 146:Generated_Source\PSoC5/cyfitter_cfg.c **** 
 147:Generated_Source\PSoC5/cyfitter_cfg.c **** /* UDB_1_3_0_CONFIG Address: CYDEV_UCFG_B0_P2_U0_BASE Size (bytes): 128 */
 148:Generated_Source\PSoC5/cyfitter_cfg.c **** #define BS_UDB_1_3_0_CONFIG_VAL ((const uint8 CYFAR *)0x48000690u)
 149:Generated_Source\PSoC5/cyfitter_cfg.c **** 
 150:Generated_Source\PSoC5/cyfitter_cfg.c **** /* IOPINS0_0 Address: CYREG_PRT0_DM0 Size (bytes): 8 */
 151:Generated_Source\PSoC5/cyfitter_cfg.c **** #define BS_IOPINS0_0_VAL ((const uint8 CYFAR *)0x48000710u)
 152:Generated_Source\PSoC5/cyfitter_cfg.c **** 
 153:Generated_Source\PSoC5/cyfitter_cfg.c **** /* IOPINS0_7 Address: CYREG_PRT12_DM0 Size (bytes): 8 */
 154:Generated_Source\PSoC5/cyfitter_cfg.c **** #define BS_IOPINS0_7_VAL ((const uint8 CYFAR *)0x48000718u)
 155:Generated_Source\PSoC5/cyfitter_cfg.c **** 
 156:Generated_Source\PSoC5/cyfitter_cfg.c **** /* IOPINS0_8 Address: CYREG_PRT15_DM0 Size (bytes): 8 */
 157:Generated_Source\PSoC5/cyfitter_cfg.c **** #define BS_IOPINS0_8_VAL ((const uint8 CYFAR *)0x48000720u)
 158:Generated_Source\PSoC5/cyfitter_cfg.c **** 
 159:Generated_Source\PSoC5/cyfitter_cfg.c **** /* IOPINS0_1 Address: CYREG_PRT1_DM0 Size (bytes): 8 */
 160:Generated_Source\PSoC5/cyfitter_cfg.c **** #define BS_IOPINS0_1_VAL ((const uint8 CYFAR *)0x48000728u)
 161:Generated_Source\PSoC5/cyfitter_cfg.c **** 
 162:Generated_Source\PSoC5/cyfitter_cfg.c **** /* IOPINS0_3 Address: CYREG_PRT3_DR Size (bytes): 10 */
 163:Generated_Source\PSoC5/cyfitter_cfg.c **** #define BS_IOPINS0_3_VAL ((const uint8 CYFAR *)0x48000730u)
 164:Generated_Source\PSoC5/cyfitter_cfg.c **** 
 165:Generated_Source\PSoC5/cyfitter_cfg.c **** /* IOPINS0_4 Address: CYREG_PRT4_DM0 Size (bytes): 8 */
 166:Generated_Source\PSoC5/cyfitter_cfg.c **** #define BS_IOPINS0_4_VAL ((const uint8 CYFAR *)0x4800073Cu)
 167:Generated_Source\PSoC5/cyfitter_cfg.c **** 
 168:Generated_Source\PSoC5/cyfitter_cfg.c **** /* IOPINS0_5 Address: CYREG_PRT5_DM0 Size (bytes): 8 */
 169:Generated_Source\PSoC5/cyfitter_cfg.c **** #define BS_IOPINS0_5_VAL ((const uint8 CYFAR *)0x48000744u)
 170:Generated_Source\PSoC5/cyfitter_cfg.c **** 
 171:Generated_Source\PSoC5/cyfitter_cfg.c **** 
 172:Generated_Source\PSoC5/cyfitter_cfg.c **** /*******************************************************************************
 173:Generated_Source\PSoC5/cyfitter_cfg.c **** * Function Name: cfg_write_bytes32
 174:Generated_Source\PSoC5/cyfitter_cfg.c **** ********************************************************************************
 175:Generated_Source\PSoC5/cyfitter_cfg.c **** * Summary:
 176:Generated_Source\PSoC5/cyfitter_cfg.c **** *  This function is used for setting up the chip configuration areas that
 177:Generated_Source\PSoC5/cyfitter_cfg.c **** *  contain relatively sparse data.
 178:Generated_Source\PSoC5/cyfitter_cfg.c **** *
 179:Generated_Source\PSoC5/cyfitter_cfg.c **** * Parameters:
 180:Generated_Source\PSoC5/cyfitter_cfg.c **** *   void
 181:Generated_Source\PSoC5/cyfitter_cfg.c **** *
 182:Generated_Source\PSoC5/cyfitter_cfg.c **** * Return:
 183:Generated_Source\PSoC5/cyfitter_cfg.c **** *   void
ARM GAS  C:\Users\doug_000\AppData\Local\Temp\ccIvUXyG.s 			page 5


 184:Generated_Source\PSoC5/cyfitter_cfg.c **** *
 185:Generated_Source\PSoC5/cyfitter_cfg.c **** *******************************************************************************/
 186:Generated_Source\PSoC5/cyfitter_cfg.c **** static void cfg_write_bytes32(const uint32 addr_table[], const cy_cfg_addrvalue_t data_table[]);
 187:Generated_Source\PSoC5/cyfitter_cfg.c **** static void cfg_write_bytes32(const uint32 addr_table[], const cy_cfg_addrvalue_t data_table[])
 188:Generated_Source\PSoC5/cyfitter_cfg.c **** {
  46              		.loc 1 188 0
  47              		.cfi_startproc
  48              		@ args = 0, pretend = 0, frame = 0
  49              		@ frame_needed = 0, uses_anonymous_args = 0
  50              		@ link register save eliminated.
  51              	.LVL1:
  52 0000 F0B4     		push	{r4, r5, r6, r7}
  53              		.cfi_def_cfa_offset 16
  54              		.cfi_offset 4, -16
  55              		.cfi_offset 5, -12
  56              		.cfi_offset 6, -8
  57              		.cfi_offset 7, -4
  58              	.LVL2:
 189:Generated_Source\PSoC5/cyfitter_cfg.c **** 	/* For 32-bit little-endian architectures */
 190:Generated_Source\PSoC5/cyfitter_cfg.c **** 	uint32 i, j = 0u;
  59              		.loc 1 190 0
  60 0002 0022     		movs	r2, #0
 191:Generated_Source\PSoC5/cyfitter_cfg.c **** 	for (i = 0u; i < CY_CFG_BASE_ADDR_COUNT; i++)
  61              		.loc 1 191 0
  62 0004 1746     		mov	r7, r2
  63 0006 11E0     		b	.L4
  64              	.LVL3:
  65              	.L7:
  66              	.LBB2:
 192:Generated_Source\PSoC5/cyfitter_cfg.c **** 	{
 193:Generated_Source\PSoC5/cyfitter_cfg.c **** 		uint32 baseAddr = addr_table[i];
  67              		.loc 1 193 0
  68 0008 50F82760 		ldr	r6, [r0, r7, lsl #2]
  69              	.LVL4:
 194:Generated_Source\PSoC5/cyfitter_cfg.c **** 		uint8 count = (uint8)baseAddr;
  70              		.loc 1 194 0
  71 000c F3B2     		uxtb	r3, r6
  72              	.LVL5:
 195:Generated_Source\PSoC5/cyfitter_cfg.c **** 		baseAddr &= 0xFFFFFF00u;
  73              		.loc 1 195 0
  74 000e 26F0FF06 		bic	r6, r6, #255
  75              	.LVL6:
 196:Generated_Source\PSoC5/cyfitter_cfg.c **** 		while (count != 0u)
  76              		.loc 1 196 0
  77 0012 08E0     		b	.L5
  78              	.L6:
 197:Generated_Source\PSoC5/cyfitter_cfg.c **** 		{
 198:Generated_Source\PSoC5/cyfitter_cfg.c **** 			CY_SET_XTND_REG8((void CYFAR *)(baseAddr + data_table[j].offset), data_table[j].value);
  79              		.loc 1 198 0
  80 0014 01EB4205 		add	r5, r1, r2, lsl #1
  81 0018 11F81240 		ldrb	r4, [r1, r2, lsl #1]	@ zero_extendqisi2
  82 001c 6D78     		ldrb	r5, [r5, #1]	@ zero_extendqisi2
  83 001e A555     		strb	r5, [r4, r6]
 199:Generated_Source\PSoC5/cyfitter_cfg.c **** 			j++;
  84              		.loc 1 199 0
  85 0020 0132     		adds	r2, r2, #1
  86              	.LVL7:
ARM GAS  C:\Users\doug_000\AppData\Local\Temp\ccIvUXyG.s 			page 6


 200:Generated_Source\PSoC5/cyfitter_cfg.c **** 			count--;
  87              		.loc 1 200 0
  88 0022 013B     		subs	r3, r3, #1
  89              	.LVL8:
  90 0024 DBB2     		uxtb	r3, r3
  91              	.LVL9:
  92              	.L5:
 196:Generated_Source\PSoC5/cyfitter_cfg.c **** 		{
  93              		.loc 1 196 0
  94 0026 002B     		cmp	r3, #0
  95 0028 F4D1     		bne	.L6
  96              	.LBE2:
 191:Generated_Source\PSoC5/cyfitter_cfg.c **** 	{
  97              		.loc 1 191 0 discriminator 2
  98 002a 0137     		adds	r7, r7, #1
  99              	.LVL10:
 100              	.L4:
 191:Generated_Source\PSoC5/cyfitter_cfg.c **** 	{
 101              		.loc 1 191 0 is_stmt 0 discriminator 1
 102 002c 122F     		cmp	r7, #18
 103 002e EBD9     		bls	.L7
 201:Generated_Source\PSoC5/cyfitter_cfg.c **** 		}
 202:Generated_Source\PSoC5/cyfitter_cfg.c **** 	}
 203:Generated_Source\PSoC5/cyfitter_cfg.c **** }
 104              		.loc 1 203 0 is_stmt 1
 105 0030 F0BC     		pop	{r4, r5, r6, r7}
 106              		.cfi_restore 7
 107              		.cfi_restore 6
 108              		.cfi_restore 5
 109              		.cfi_restore 4
 110              		.cfi_def_cfa_offset 0
 111              	.LVL11:
 112 0032 7047     		bx	lr
 113              		.cfi_endproc
 114              	.LFE4:
 115              		.size	cfg_write_bytes32, .-cfg_write_bytes32
 116              		.section	.text.AnalogSetDefault,"ax",%progbits
 117              		.align	2
 118              		.thumb
 119              		.thumb_func
 120              		.type	AnalogSetDefault, %function
 121              	AnalogSetDefault:
 122              	.LFB6:
 204:Generated_Source\PSoC5/cyfitter_cfg.c **** 
 205:Generated_Source\PSoC5/cyfitter_cfg.c **** /*******************************************************************************
 206:Generated_Source\PSoC5/cyfitter_cfg.c **** * Function Name: ClockSetup
 207:Generated_Source\PSoC5/cyfitter_cfg.c **** ********************************************************************************
 208:Generated_Source\PSoC5/cyfitter_cfg.c **** *
 209:Generated_Source\PSoC5/cyfitter_cfg.c **** * Summary:
 210:Generated_Source\PSoC5/cyfitter_cfg.c **** *  Performs the initialization of all of the clocks in the device based on the
 211:Generated_Source\PSoC5/cyfitter_cfg.c **** *  settings in the Clock tab of the DWR.  This includes enabling the requested
 212:Generated_Source\PSoC5/cyfitter_cfg.c **** *  clocks and setting the necessary dividers to produce the desired frequency. 
 213:Generated_Source\PSoC5/cyfitter_cfg.c **** *
 214:Generated_Source\PSoC5/cyfitter_cfg.c **** * Parameters:
 215:Generated_Source\PSoC5/cyfitter_cfg.c **** *  void
 216:Generated_Source\PSoC5/cyfitter_cfg.c **** *
 217:Generated_Source\PSoC5/cyfitter_cfg.c **** * Return:
ARM GAS  C:\Users\doug_000\AppData\Local\Temp\ccIvUXyG.s 			page 7


 218:Generated_Source\PSoC5/cyfitter_cfg.c **** *  void
 219:Generated_Source\PSoC5/cyfitter_cfg.c **** *
 220:Generated_Source\PSoC5/cyfitter_cfg.c **** *******************************************************************************/
 221:Generated_Source\PSoC5/cyfitter_cfg.c **** static void ClockSetup(void);
 222:Generated_Source\PSoC5/cyfitter_cfg.c **** static void ClockSetup(void)
 223:Generated_Source\PSoC5/cyfitter_cfg.c **** {
 224:Generated_Source\PSoC5/cyfitter_cfg.c **** 	uint32 timeout;
 225:Generated_Source\PSoC5/cyfitter_cfg.c **** 	uint8 pllLock;
 226:Generated_Source\PSoC5/cyfitter_cfg.c **** 
 227:Generated_Source\PSoC5/cyfitter_cfg.c **** 
 228:Generated_Source\PSoC5/cyfitter_cfg.c **** 	/* Configure Digital Clocks based on settings from Clock DWR */
 229:Generated_Source\PSoC5/cyfitter_cfg.c **** 	CY_SET_XTND_REG16((void CYFAR *)(CYREG_CLKDIST_DCFG0_CFG0), 0x01A0u);
 230:Generated_Source\PSoC5/cyfitter_cfg.c **** 	CY_SET_XTND_REG8((void CYFAR *)(CYREG_CLKDIST_DCFG0_CFG0 + 0x2u), 0x18u);
 231:Generated_Source\PSoC5/cyfitter_cfg.c **** 	CY_SET_XTND_REG16((void CYFAR *)(CYREG_CLKDIST_DCFG1_CFG0), 0x00F9u);
 232:Generated_Source\PSoC5/cyfitter_cfg.c **** 	CY_SET_XTND_REG8((void CYFAR *)(CYREG_CLKDIST_DCFG1_CFG0 + 0x2u), 0x1Bu);
 233:Generated_Source\PSoC5/cyfitter_cfg.c **** 
 234:Generated_Source\PSoC5/cyfitter_cfg.c **** 	/* Configure ILO based on settings from Clock DWR */
 235:Generated_Source\PSoC5/cyfitter_cfg.c **** 	CY_SET_XTND_REG8((void CYFAR *)(CYREG_SLOWCLK_ILO_CR0), 0x02u);
 236:Generated_Source\PSoC5/cyfitter_cfg.c **** 	CY_SET_XTND_REG8((void CYFAR *)(CYREG_CLKDIST_CR), 0x08u);
 237:Generated_Source\PSoC5/cyfitter_cfg.c **** 
 238:Generated_Source\PSoC5/cyfitter_cfg.c **** 	/* Configure XTAL based on settings from Clock DWR */
 239:Generated_Source\PSoC5/cyfitter_cfg.c **** 	CY_SET_XTND_REG16((void CYFAR *)(CYREG_FASTCLK_XMHZ_CFG0), 0x3313u);
 240:Generated_Source\PSoC5/cyfitter_cfg.c **** 	CY_SET_XTND_REG8((void CYFAR *)(CYREG_FASTCLK_XMHZ_CSR), 0x05u);
 241:Generated_Source\PSoC5/cyfitter_cfg.c **** 	/* Wait up to 130000us for the XTAL to lock */
 242:Generated_Source\PSoC5/cyfitter_cfg.c **** 	CY_GET_XTND_REG8((void CYFAR *)CYREG_FASTCLK_XMHZ_CSR);
 243:Generated_Source\PSoC5/cyfitter_cfg.c **** 	for (timeout = 130000u / 10u; (timeout > 0u) && ((CY_GET_XTND_REG8((void CYFAR *)CYREG_FASTCLK_XMH
 244:Generated_Source\PSoC5/cyfitter_cfg.c **** 	{ 
 245:Generated_Source\PSoC5/cyfitter_cfg.c **** 		
 246:Generated_Source\PSoC5/cyfitter_cfg.c **** 		CyDelayCycles(10u * 48u); /* Delay 10us based on 48MHz clock */
 247:Generated_Source\PSoC5/cyfitter_cfg.c **** 	}
 248:Generated_Source\PSoC5/cyfitter_cfg.c **** 	if (timeout == 0u)
 249:Generated_Source\PSoC5/cyfitter_cfg.c **** 	{
 250:Generated_Source\PSoC5/cyfitter_cfg.c **** 		CyClockStartupError(CYCLOCKSTART_XTAL_ERROR);
 251:Generated_Source\PSoC5/cyfitter_cfg.c **** 	}
 252:Generated_Source\PSoC5/cyfitter_cfg.c **** 
 253:Generated_Source\PSoC5/cyfitter_cfg.c **** 	/* Configure PLL based on settings from Clock DWR */
 254:Generated_Source\PSoC5/cyfitter_cfg.c **** 	CY_SET_XTND_REG16((void CYFAR *)(CYREG_FASTCLK_PLL_P), 0x050Cu);
 255:Generated_Source\PSoC5/cyfitter_cfg.c **** 	CY_SET_XTND_REG8((void CYFAR *)(CYREG_CLKDIST_CR), 0x09u);
 256:Generated_Source\PSoC5/cyfitter_cfg.c **** 	CY_SET_XTND_REG16((void CYFAR *)(CYREG_FASTCLK_PLL_CFG0), 0x1251u);
 257:Generated_Source\PSoC5/cyfitter_cfg.c **** 	/* Wait up to 250us for the PLL to lock */
 258:Generated_Source\PSoC5/cyfitter_cfg.c **** 	pllLock = 0u;
 259:Generated_Source\PSoC5/cyfitter_cfg.c **** 	for (timeout = 250u / 10u; (timeout > 0u) && (pllLock != 0x03u); timeout--)
 260:Generated_Source\PSoC5/cyfitter_cfg.c **** 	{ 
 261:Generated_Source\PSoC5/cyfitter_cfg.c **** 		pllLock = 0x03u & ((uint8)((uint8)pllLock << 1) | ((CY_GET_XTND_REG8((void CYFAR *)CYREG_FASTCLK_
 262:Generated_Source\PSoC5/cyfitter_cfg.c **** 		CyDelayCycles(10u * 48u); /* Delay 10us based on 48MHz clock */
 263:Generated_Source\PSoC5/cyfitter_cfg.c **** 	}
 264:Generated_Source\PSoC5/cyfitter_cfg.c **** 	/* If we ran out of time the PLL didn't lock so go to the error function */
 265:Generated_Source\PSoC5/cyfitter_cfg.c **** 	if (timeout == 0u)
 266:Generated_Source\PSoC5/cyfitter_cfg.c **** 	{
 267:Generated_Source\PSoC5/cyfitter_cfg.c **** 		CyClockStartupError(CYCLOCKSTART_PLL_ERROR);
 268:Generated_Source\PSoC5/cyfitter_cfg.c **** 	}
 269:Generated_Source\PSoC5/cyfitter_cfg.c **** 
 270:Generated_Source\PSoC5/cyfitter_cfg.c **** 	/* Configure Bus/Master Clock based on settings from Clock DWR */
 271:Generated_Source\PSoC5/cyfitter_cfg.c **** 	CY_SET_XTND_REG16((void CYFAR *)(CYREG_CLKDIST_MSTR0), 0x0100u);
 272:Generated_Source\PSoC5/cyfitter_cfg.c **** 
 273:Generated_Source\PSoC5/cyfitter_cfg.c **** 	/* Configure IMO based on settings from Clock DWR */
 274:Generated_Source\PSoC5/cyfitter_cfg.c **** 	CY_SET_XTND_REG8((void CYFAR *)(CYREG_FASTCLK_IMO_CR), 0x03u);
ARM GAS  C:\Users\doug_000\AppData\Local\Temp\ccIvUXyG.s 			page 8


 275:Generated_Source\PSoC5/cyfitter_cfg.c **** 	CY_SET_XTND_REG8((void CYFAR *)(CYREG_IMO_TR1), (CY_GET_XTND_REG8((void CYFAR *)CYREG_FLSHID_CUST_
 276:Generated_Source\PSoC5/cyfitter_cfg.c **** 	CY_SET_XTND_REG8((void CYFAR *)(CYREG_CLKDIST_MSTR0), 0x07u);
 277:Generated_Source\PSoC5/cyfitter_cfg.c **** 	CY_SET_XTND_REG8((void CYFAR *)(CYREG_CLKDIST_BCFG0), 0x00u);
 278:Generated_Source\PSoC5/cyfitter_cfg.c **** 	CY_SET_XTND_REG8((void CYFAR *)(CYREG_CLKDIST_BCFG2), 0x48u);
 279:Generated_Source\PSoC5/cyfitter_cfg.c **** 	CY_SET_XTND_REG8((void CYFAR *)(CYREG_CLKDIST_MSTR0), 0x00u);
 280:Generated_Source\PSoC5/cyfitter_cfg.c **** 	CY_SET_XTND_REG8((void CYFAR *)(CYREG_CLKDIST_LD), 0x02u);
 281:Generated_Source\PSoC5/cyfitter_cfg.c **** 
 282:Generated_Source\PSoC5/cyfitter_cfg.c **** 	CY_SET_XTND_REG8((void CYFAR *)(CYREG_PM_ACT_CFG2), ((CY_GET_XTND_REG8((void CYFAR *)CYREG_PM_ACT_
 283:Generated_Source\PSoC5/cyfitter_cfg.c **** }
 284:Generated_Source\PSoC5/cyfitter_cfg.c **** 
 285:Generated_Source\PSoC5/cyfitter_cfg.c **** 
 286:Generated_Source\PSoC5/cyfitter_cfg.c **** /* Analog API Functions */
 287:Generated_Source\PSoC5/cyfitter_cfg.c **** 
 288:Generated_Source\PSoC5/cyfitter_cfg.c **** 
 289:Generated_Source\PSoC5/cyfitter_cfg.c **** /*******************************************************************************
 290:Generated_Source\PSoC5/cyfitter_cfg.c **** * Function Name: AnalogSetDefault
 291:Generated_Source\PSoC5/cyfitter_cfg.c **** ********************************************************************************
 292:Generated_Source\PSoC5/cyfitter_cfg.c **** *
 293:Generated_Source\PSoC5/cyfitter_cfg.c **** * Summary:
 294:Generated_Source\PSoC5/cyfitter_cfg.c **** *  Sets up the analog portions of the chip to default values based on chip
 295:Generated_Source\PSoC5/cyfitter_cfg.c **** *  configuration options from the project.
 296:Generated_Source\PSoC5/cyfitter_cfg.c **** *
 297:Generated_Source\PSoC5/cyfitter_cfg.c **** * Parameters:
 298:Generated_Source\PSoC5/cyfitter_cfg.c **** *  void
 299:Generated_Source\PSoC5/cyfitter_cfg.c **** *
 300:Generated_Source\PSoC5/cyfitter_cfg.c **** * Return:
 301:Generated_Source\PSoC5/cyfitter_cfg.c **** *  void
 302:Generated_Source\PSoC5/cyfitter_cfg.c **** *
 303:Generated_Source\PSoC5/cyfitter_cfg.c **** *******************************************************************************/
 304:Generated_Source\PSoC5/cyfitter_cfg.c **** static void AnalogSetDefault(void);
 305:Generated_Source\PSoC5/cyfitter_cfg.c **** static void AnalogSetDefault(void)
 306:Generated_Source\PSoC5/cyfitter_cfg.c **** {
 123              		.loc 1 306 0
 124              		.cfi_startproc
 125              		@ args = 0, pretend = 0, frame = 0
 126              		@ frame_needed = 0, uses_anonymous_args = 0
 127              		@ link register save eliminated.
 307:Generated_Source\PSoC5/cyfitter_cfg.c **** 	uint8 bg_xover_inl_trim = CY_GET_XTND_REG8((void CYFAR *)(CYREG_FLSHID_MFG_CFG_BG_XOVER_INL_TRIM +
 128              		.loc 1 307 0
 129 0000 064B     		ldr	r3, .L10
 130 0002 1B78     		ldrb	r3, [r3]	@ zero_extendqisi2
 131 0004 DBB2     		uxtb	r3, r3
 132              	.LVL12:
 308:Generated_Source\PSoC5/cyfitter_cfg.c **** 	CY_SET_XTND_REG8((void CYFAR *)(CYREG_BG_DFT0), (bg_xover_inl_trim & 0x07u));
 133              		.loc 1 308 0
 134 0006 03F00701 		and	r1, r3, #7
 135 000a 054A     		ldr	r2, .L10+4
 136 000c 1170     		strb	r1, [r2]
 309:Generated_Source\PSoC5/cyfitter_cfg.c **** 	CY_SET_XTND_REG8((void CYFAR *)(CYREG_BG_DFT1), ((bg_xover_inl_trim >> 4) & 0x0Fu));
 137              		.loc 1 309 0
 138 000e 1B09     		lsrs	r3, r3, #4
 139              	.LVL13:
 140 0010 0132     		adds	r2, r2, #1
 141 0012 1370     		strb	r3, [r2]
 310:Generated_Source\PSoC5/cyfitter_cfg.c **** 	CY_SET_XTND_REG8((void CYFAR *)CYREG_PUMP_CR0, 0x44u);
 142              		.loc 1 310 0
 143 0014 4422     		movs	r2, #68
ARM GAS  C:\Users\doug_000\AppData\Local\Temp\ccIvUXyG.s 			page 9


 144 0016 034B     		ldr	r3, .L10+8
 145 0018 1A70     		strb	r2, [r3]
 146 001a 7047     		bx	lr
 147              	.L11:
 148              		.align	2
 149              	.L10:
 150 001c CF010049 		.word	1224737231
 151 0020 6E580040 		.word	1073764462
 152 0024 76580040 		.word	1073764470
 153              		.cfi_endproc
 154              	.LFE6:
 155              		.size	AnalogSetDefault, .-AnalogSetDefault
 156              		.section	.text.CYMEMZERO,"ax",%progbits
 157              		.align	2
 158              		.thumb
 159              		.thumb_func
 160              		.type	CYMEMZERO, %function
 161              	CYMEMZERO:
 162              	.LFB0:
  64:Generated_Source\PSoC5/cyfitter_cfg.c **** 	(void)memset(s, 0, n);
 163              		.loc 1 64 0
 164              		.cfi_startproc
 165              		@ args = 0, pretend = 0, frame = 0
 166              		@ frame_needed = 0, uses_anonymous_args = 0
 167              	.LVL14:
 168 0000 08B5     		push	{r3, lr}
 169              		.cfi_def_cfa_offset 8
 170              		.cfi_offset 3, -8
 171              		.cfi_offset 14, -4
 172 0002 0A46     		mov	r2, r1
  65:Generated_Source\PSoC5/cyfitter_cfg.c **** }
 173              		.loc 1 65 0
 174 0004 0021     		movs	r1, #0
 175              	.LVL15:
 176 0006 FFF7FEFF 		bl	memset
 177              	.LVL16:
 178 000a 08BD     		pop	{r3, pc}
 179              		.cfi_endproc
 180              	.LFE0:
 181              		.size	CYMEMZERO, .-CYMEMZERO
 182              		.section	.text.ClockSetup,"ax",%progbits
 183              		.align	2
 184              		.thumb
 185              		.thumb_func
 186              		.type	ClockSetup, %function
 187              	ClockSetup:
 188              	.LFB5:
 223:Generated_Source\PSoC5/cyfitter_cfg.c **** 	uint32 timeout;
 189              		.loc 1 223 0
 190              		.cfi_startproc
 191              		@ args = 0, pretend = 0, frame = 0
 192              		@ frame_needed = 0, uses_anonymous_args = 0
 193 0000 38B5     		push	{r3, r4, r5, lr}
 194              		.cfi_def_cfa_offset 16
 195              		.cfi_offset 3, -16
 196              		.cfi_offset 4, -12
 197              		.cfi_offset 5, -8
ARM GAS  C:\Users\doug_000\AppData\Local\Temp\ccIvUXyG.s 			page 10


 198              		.cfi_offset 14, -4
 229:Generated_Source\PSoC5/cyfitter_cfg.c **** 	CY_SET_XTND_REG8((void CYFAR *)(CYREG_CLKDIST_DCFG0_CFG0 + 0x2u), 0x18u);
 199              		.loc 1 229 0
 200 0002 4FF4D072 		mov	r2, #416
 201 0006 384B     		ldr	r3, .L24
 202 0008 1A80     		strh	r2, [r3]	@ movhi
 230:Generated_Source\PSoC5/cyfitter_cfg.c **** 	CY_SET_XTND_REG16((void CYFAR *)(CYREG_CLKDIST_DCFG1_CFG0), 0x00F9u);
 203              		.loc 1 230 0
 204 000a 1822     		movs	r2, #24
 205 000c 0233     		adds	r3, r3, #2
 206 000e 1A70     		strb	r2, [r3]
 231:Generated_Source\PSoC5/cyfitter_cfg.c **** 	CY_SET_XTND_REG8((void CYFAR *)(CYREG_CLKDIST_DCFG1_CFG0 + 0x2u), 0x1Bu);
 207              		.loc 1 231 0
 208 0010 F922     		movs	r2, #249
 209 0012 0233     		adds	r3, r3, #2
 210 0014 1A80     		strh	r2, [r3]	@ movhi
 232:Generated_Source\PSoC5/cyfitter_cfg.c **** 
 211              		.loc 1 232 0
 212 0016 1B22     		movs	r2, #27
 213 0018 0233     		adds	r3, r3, #2
 214 001a 1A70     		strb	r2, [r3]
 235:Generated_Source\PSoC5/cyfitter_cfg.c **** 	CY_SET_XTND_REG8((void CYFAR *)(CYREG_CLKDIST_CR), 0x08u);
 215              		.loc 1 235 0
 216 001c 0222     		movs	r2, #2
 217 001e 03F27A23 		addw	r3, r3, #634
 218 0022 1A70     		strb	r2, [r3]
 236:Generated_Source\PSoC5/cyfitter_cfg.c **** 
 219              		.loc 1 236 0
 220 0024 0822     		movs	r2, #8
 221 0026 4FF04023 		mov	r3, #1073758208
 222 002a 1A70     		strb	r2, [r3]
 239:Generated_Source\PSoC5/cyfitter_cfg.c **** 	CY_SET_XTND_REG8((void CYFAR *)(CYREG_FASTCLK_XMHZ_CSR), 0x05u);
 223              		.loc 1 239 0
 224 002c 43F21332 		movw	r2, #13075
 225 0030 03F21223 		addw	r3, r3, #530
 226 0034 1A80     		strh	r2, [r3]	@ movhi
 240:Generated_Source\PSoC5/cyfitter_cfg.c **** 	/* Wait up to 130000us for the XTAL to lock */
 227              		.loc 1 240 0
 228 0036 023B     		subs	r3, r3, #2
 229 0038 0522     		movs	r2, #5
 230 003a 1A70     		strb	r2, [r3]
 242:Generated_Source\PSoC5/cyfitter_cfg.c **** 	for (timeout = 130000u / 10u; (timeout > 0u) && ((CY_GET_XTND_REG8((void CYFAR *)CYREG_FASTCLK_XMH
 231              		.loc 1 242 0
 232 003c 1B78     		ldrb	r3, [r3]	@ zero_extendqisi2
 233              	.LVL17:
 243:Generated_Source\PSoC5/cyfitter_cfg.c **** 	{ 
 234              		.loc 1 243 0
 235 003e 43F2C824 		movw	r4, #13000
 236 0042 04E0     		b	.L15
 237              	.LVL18:
 238              	.L17:
 246:Generated_Source\PSoC5/cyfitter_cfg.c **** 	}
 239              		.loc 1 246 0 discriminator 4
 240 0044 4FF4F070 		mov	r0, #480
 241 0048 FFF7FEFF 		bl	CyDelayCycles
 242              	.LVL19:
 243:Generated_Source\PSoC5/cyfitter_cfg.c **** 	{ 
ARM GAS  C:\Users\doug_000\AppData\Local\Temp\ccIvUXyG.s 			page 11


 243              		.loc 1 243 0 discriminator 4
 244 004c 013C     		subs	r4, r4, #1
 245              	.LVL20:
 246              	.L15:
 243:Generated_Source\PSoC5/cyfitter_cfg.c **** 	{ 
 247              		.loc 1 243 0 is_stmt 0 discriminator 1
 248 004e 24B1     		cbz	r4, .L16
 243:Generated_Source\PSoC5/cyfitter_cfg.c **** 	{ 
 249              		.loc 1 243 0 discriminator 3
 250 0050 264B     		ldr	r3, .L24+4
 251 0052 1B78     		ldrb	r3, [r3]	@ zero_extendqisi2
 252 0054 13F0800F 		tst	r3, #128
 253 0058 F4D1     		bne	.L17
 254              	.L16:
 248:Generated_Source\PSoC5/cyfitter_cfg.c **** 	{
 255              		.loc 1 248 0 is_stmt 1
 256 005a 14B9     		cbnz	r4, .L18
 250:Generated_Source\PSoC5/cyfitter_cfg.c **** 	}
 257              		.loc 1 250 0
 258 005c 0120     		movs	r0, #1
 259 005e FFF7FEFF 		bl	CyClockStartupError
 260              	.LVL21:
 261              	.L18:
 254:Generated_Source\PSoC5/cyfitter_cfg.c **** 	CY_SET_XTND_REG8((void CYFAR *)(CYREG_CLKDIST_CR), 0x09u);
 262              		.loc 1 254 0
 263 0062 40F20C52 		movw	r2, #1292
 264 0066 224B     		ldr	r3, .L24+8
 265 0068 1A80     		strh	r2, [r3]	@ movhi
 255:Generated_Source\PSoC5/cyfitter_cfg.c **** 	CY_SET_XTND_REG16((void CYFAR *)(CYREG_FASTCLK_PLL_CFG0), 0x1251u);
 266              		.loc 1 255 0
 267 006a 0922     		movs	r2, #9
 268 006c 4FF04023 		mov	r3, #1073758208
 269 0070 1A70     		strb	r2, [r3]
 256:Generated_Source\PSoC5/cyfitter_cfg.c **** 	/* Wait up to 250us for the PLL to lock */
 270              		.loc 1 256 0
 271 0072 41F25122 		movw	r2, #4689
 272 0076 03F50873 		add	r3, r3, #544
 273 007a 1A80     		strh	r2, [r3]	@ movhi
 274              	.LVL22:
 258:Generated_Source\PSoC5/cyfitter_cfg.c **** 	for (timeout = 250u / 10u; (timeout > 0u) && (pllLock != 0x03u); timeout--)
 275              		.loc 1 258 0
 276 007c 0024     		movs	r4, #0
 259:Generated_Source\PSoC5/cyfitter_cfg.c **** 	{ 
 277              		.loc 1 259 0
 278 007e 1925     		movs	r5, #25
 279 0080 0CE0     		b	.L19
 280              	.LVL23:
 281              	.L21:
 261:Generated_Source\PSoC5/cyfitter_cfg.c **** 		CyDelayCycles(10u * 48u); /* Delay 10us based on 48MHz clock */
 282              		.loc 1 261 0 discriminator 4
 283 0082 1C4B     		ldr	r3, .L24+12
 284 0084 1B78     		ldrb	r3, [r3]	@ zero_extendqisi2
 285 0086 03F00103 		and	r3, r3, #1
 286 008a 43EA4404 		orr	r4, r3, r4, lsl #1
 287              	.LVL24:
 288 008e 04F00304 		and	r4, r4, #3
 289              	.LVL25:
ARM GAS  C:\Users\doug_000\AppData\Local\Temp\ccIvUXyG.s 			page 12


 262:Generated_Source\PSoC5/cyfitter_cfg.c **** 	}
 290              		.loc 1 262 0 discriminator 4
 291 0092 4FF4F070 		mov	r0, #480
 292 0096 FFF7FEFF 		bl	CyDelayCycles
 293              	.LVL26:
 259:Generated_Source\PSoC5/cyfitter_cfg.c **** 	{ 
 294              		.loc 1 259 0 discriminator 4
 295 009a 013D     		subs	r5, r5, #1
 296              	.LVL27:
 297              	.L19:
 259:Generated_Source\PSoC5/cyfitter_cfg.c **** 	{ 
 298              		.loc 1 259 0 is_stmt 0 discriminator 1
 299 009c 0DB1     		cbz	r5, .L20
 259:Generated_Source\PSoC5/cyfitter_cfg.c **** 	{ 
 300              		.loc 1 259 0 discriminator 3
 301 009e 032C     		cmp	r4, #3
 302 00a0 EFD1     		bne	.L21
 303              	.L20:
 265:Generated_Source\PSoC5/cyfitter_cfg.c **** 	{
 304              		.loc 1 265 0 is_stmt 1
 305 00a2 15B9     		cbnz	r5, .L22
 267:Generated_Source\PSoC5/cyfitter_cfg.c **** 	}
 306              		.loc 1 267 0
 307 00a4 0320     		movs	r0, #3
 308 00a6 FFF7FEFF 		bl	CyClockStartupError
 309              	.LVL28:
 310              	.L22:
 271:Generated_Source\PSoC5/cyfitter_cfg.c **** 
 311              		.loc 1 271 0
 312 00aa 134B     		ldr	r3, .L24+16
 313 00ac 4FF48072 		mov	r2, #256
 314 00b0 1A80     		strh	r2, [r3]	@ movhi
 274:Generated_Source\PSoC5/cyfitter_cfg.c **** 	CY_SET_XTND_REG8((void CYFAR *)(CYREG_IMO_TR1), (CY_GET_XTND_REG8((void CYFAR *)CYREG_FLSHID_CUST_
 315              		.loc 1 274 0
 316 00b2 0321     		movs	r1, #3
 317 00b4 114A     		ldr	r2, .L24+20
 318 00b6 1170     		strb	r1, [r2]
 275:Generated_Source\PSoC5/cyfitter_cfg.c **** 	CY_SET_XTND_REG8((void CYFAR *)(CYREG_CLKDIST_MSTR0), 0x07u);
 319              		.loc 1 275 0
 320 00b8 114A     		ldr	r2, .L24+24
 321 00ba 1278     		ldrb	r2, [r2]	@ zero_extendqisi2
 322 00bc D2B2     		uxtb	r2, r2
 323 00be 1149     		ldr	r1, .L24+28
 324 00c0 0A70     		strb	r2, [r1]
 276:Generated_Source\PSoC5/cyfitter_cfg.c **** 	CY_SET_XTND_REG8((void CYFAR *)(CYREG_CLKDIST_BCFG0), 0x00u);
 325              		.loc 1 276 0
 326 00c2 0722     		movs	r2, #7
 327 00c4 1A70     		strb	r2, [r3]
 277:Generated_Source\PSoC5/cyfitter_cfg.c **** 	CY_SET_XTND_REG8((void CYFAR *)(CYREG_CLKDIST_BCFG2), 0x48u);
 328              		.loc 1 277 0
 329 00c6 0022     		movs	r2, #0
 330 00c8 A1F29B61 		subw	r1, r1, #1691
 331 00cc 0A70     		strb	r2, [r1]
 278:Generated_Source\PSoC5/cyfitter_cfg.c **** 	CY_SET_XTND_REG8((void CYFAR *)(CYREG_CLKDIST_MSTR0), 0x00u);
 332              		.loc 1 278 0
 333 00ce 4820     		movs	r0, #72
 334 00d0 0231     		adds	r1, r1, #2
ARM GAS  C:\Users\doug_000\AppData\Local\Temp\ccIvUXyG.s 			page 13


 335 00d2 0870     		strb	r0, [r1]
 279:Generated_Source\PSoC5/cyfitter_cfg.c **** 	CY_SET_XTND_REG8((void CYFAR *)(CYREG_CLKDIST_LD), 0x02u);
 336              		.loc 1 279 0
 337 00d4 1A70     		strb	r2, [r3]
 280:Generated_Source\PSoC5/cyfitter_cfg.c **** 
 338              		.loc 1 280 0
 339 00d6 0222     		movs	r2, #2
 340 00d8 033B     		subs	r3, r3, #3
 341 00da 1A70     		strb	r2, [r3]
 282:Generated_Source\PSoC5/cyfitter_cfg.c **** }
 342              		.loc 1 282 0
 343 00dc 0A4A     		ldr	r2, .L24+32
 344 00de 1378     		ldrb	r3, [r2]	@ zero_extendqisi2
 345 00e0 43F00303 		orr	r3, r3, #3
 346 00e4 1370     		strb	r3, [r2]
 347 00e6 38BD     		pop	{r3, r4, r5, pc}
 348              	.LVL29:
 349              	.L25:
 350              		.align	2
 351              	.L24:
 352 00e8 80400040 		.word	1073758336
 353 00ec 10420040 		.word	1073758736
 354 00f0 22420040 		.word	1073758754
 355 00f4 25420040 		.word	1073758757
 356 00f8 04400040 		.word	1073758212
 357 00fc 00420040 		.word	1073758720
 358 0100 08010049 		.word	1224737032
 359 0104 A1460040 		.word	1073759905
 360 0108 A2430040 		.word	1073759138
 361              		.cfi_endproc
 362              	.LFE5:
 363              		.size	ClockSetup, .-ClockSetup
 364              		.section	.text.CYCONFIGCPY,"ax",%progbits
 365              		.align	2
 366              		.thumb
 367              		.thumb_func
 368              		.type	CYCONFIGCPY, %function
 369              	CYCONFIGCPY:
 370              	.LFB1:
  71:Generated_Source\PSoC5/cyfitter_cfg.c **** 	(void)memcpy(dest, src, n);
 371              		.loc 1 71 0
 372              		.cfi_startproc
 373              		@ args = 0, pretend = 0, frame = 0
 374              		@ frame_needed = 0, uses_anonymous_args = 0
 375              	.LVL30:
 376 0000 08B5     		push	{r3, lr}
 377              		.cfi_def_cfa_offset 8
 378              		.cfi_offset 3, -8
 379              		.cfi_offset 14, -4
  72:Generated_Source\PSoC5/cyfitter_cfg.c **** }
 380              		.loc 1 72 0
 381 0002 FFF7FEFF 		bl	memcpy
 382              	.LVL31:
 383 0006 08BD     		pop	{r3, pc}
 384              		.cfi_endproc
 385              	.LFE1:
 386              		.size	CYCONFIGCPY, .-CYCONFIGCPY
ARM GAS  C:\Users\doug_000\AppData\Local\Temp\ccIvUXyG.s 			page 14


 387              		.section	.text.SetAnalogRoutingPumps,"ax",%progbits
 388              		.align	2
 389              		.global	SetAnalogRoutingPumps
 390              		.thumb
 391              		.thumb_func
 392              		.type	SetAnalogRoutingPumps, %function
 393              	SetAnalogRoutingPumps:
 394              	.LFB7:
 311:Generated_Source\PSoC5/cyfitter_cfg.c **** }
 312:Generated_Source\PSoC5/cyfitter_cfg.c **** 
 313:Generated_Source\PSoC5/cyfitter_cfg.c **** 
 314:Generated_Source\PSoC5/cyfitter_cfg.c **** /*******************************************************************************
 315:Generated_Source\PSoC5/cyfitter_cfg.c **** * Function Name: SetAnalogRoutingPumps
 316:Generated_Source\PSoC5/cyfitter_cfg.c **** ********************************************************************************
 317:Generated_Source\PSoC5/cyfitter_cfg.c **** *
 318:Generated_Source\PSoC5/cyfitter_cfg.c **** * Summary:
 319:Generated_Source\PSoC5/cyfitter_cfg.c **** * Enables or disables the analog pumps feeding analog routing switches.
 320:Generated_Source\PSoC5/cyfitter_cfg.c **** * Intended to be called at startup, based on the Vdda system configuration;
 321:Generated_Source\PSoC5/cyfitter_cfg.c **** * may be called during operation when the user informs us that the Vdda voltage
 322:Generated_Source\PSoC5/cyfitter_cfg.c **** * crossed the pump threshold.
 323:Generated_Source\PSoC5/cyfitter_cfg.c **** *
 324:Generated_Source\PSoC5/cyfitter_cfg.c **** * Parameters:
 325:Generated_Source\PSoC5/cyfitter_cfg.c **** *  enabled - 1 to enable the pumps, 0 to disable the pumps
 326:Generated_Source\PSoC5/cyfitter_cfg.c **** *
 327:Generated_Source\PSoC5/cyfitter_cfg.c **** * Return:
 328:Generated_Source\PSoC5/cyfitter_cfg.c **** *  void
 329:Generated_Source\PSoC5/cyfitter_cfg.c **** *
 330:Generated_Source\PSoC5/cyfitter_cfg.c **** *******************************************************************************/
 331:Generated_Source\PSoC5/cyfitter_cfg.c **** void SetAnalogRoutingPumps(uint8 enabled)
 332:Generated_Source\PSoC5/cyfitter_cfg.c **** {
 395              		.loc 1 332 0
 396              		.cfi_startproc
 397              		@ args = 0, pretend = 0, frame = 0
 398              		@ frame_needed = 0, uses_anonymous_args = 0
 399              		@ link register save eliminated.
 400              	.LVL32:
 333:Generated_Source\PSoC5/cyfitter_cfg.c **** 	uint8 regValue = CY_GET_XTND_REG8((void CYFAR *)CYREG_PUMP_CR0);
 401              		.loc 1 333 0
 402 0000 024A     		ldr	r2, .L29
 403 0002 1378     		ldrb	r3, [r2]	@ zero_extendqisi2
 404 0004 DBB2     		uxtb	r3, r3
 405              	.LVL33:
 334:Generated_Source\PSoC5/cyfitter_cfg.c **** 	if (enabled != 0u)
 335:Generated_Source\PSoC5/cyfitter_cfg.c **** 	{
 336:Generated_Source\PSoC5/cyfitter_cfg.c **** 		regValue |= 0x00u;
 337:Generated_Source\PSoC5/cyfitter_cfg.c **** 	}
 338:Generated_Source\PSoC5/cyfitter_cfg.c **** 	else
 339:Generated_Source\PSoC5/cyfitter_cfg.c **** 	{
 340:Generated_Source\PSoC5/cyfitter_cfg.c **** 		regValue &= (uint8)~0x00u;
 341:Generated_Source\PSoC5/cyfitter_cfg.c **** 	}
 342:Generated_Source\PSoC5/cyfitter_cfg.c **** 	CY_SET_XTND_REG8((void CYFAR *)CYREG_PUMP_CR0, regValue);
 406              		.loc 1 342 0
 407 0006 1370     		strb	r3, [r2]
 408 0008 7047     		bx	lr
 409              	.L30:
 410 000a 00BF     		.align	2
 411              	.L29:
ARM GAS  C:\Users\doug_000\AppData\Local\Temp\ccIvUXyG.s 			page 15


 412 000c 76580040 		.word	1073764470
 413              		.cfi_endproc
 414              	.LFE7:
 415              		.size	SetAnalogRoutingPumps, .-SetAnalogRoutingPumps
 416              		.section	.text.cyfitter_cfg,"ax",%progbits
 417              		.align	2
 418              		.global	cyfitter_cfg
 419              		.thumb
 420              		.thumb_func
 421              		.type	cyfitter_cfg, %function
 422              	cyfitter_cfg:
 423              	.LFB8:
 343:Generated_Source\PSoC5/cyfitter_cfg.c **** }
 344:Generated_Source\PSoC5/cyfitter_cfg.c **** 
 345:Generated_Source\PSoC5/cyfitter_cfg.c **** #define CY_AMUX_UNUSED CYREG_BOOST_SR
 346:Generated_Source\PSoC5/cyfitter_cfg.c **** 
 347:Generated_Source\PSoC5/cyfitter_cfg.c **** 
 348:Generated_Source\PSoC5/cyfitter_cfg.c **** /*******************************************************************************
 349:Generated_Source\PSoC5/cyfitter_cfg.c **** * Function Name: cyfitter_cfg
 350:Generated_Source\PSoC5/cyfitter_cfg.c **** ********************************************************************************
 351:Generated_Source\PSoC5/cyfitter_cfg.c **** * Summary:
 352:Generated_Source\PSoC5/cyfitter_cfg.c **** *  This function is called by the start-up code for the selected device. It
 353:Generated_Source\PSoC5/cyfitter_cfg.c **** *  performs all of the necessary device configuration based on the design
 354:Generated_Source\PSoC5/cyfitter_cfg.c **** *  settings.  This includes settings from the Design Wide Resources (DWR) such
 355:Generated_Source\PSoC5/cyfitter_cfg.c **** *  as Clocks and Pins as well as any component configuration that is necessary.
 356:Generated_Source\PSoC5/cyfitter_cfg.c **** *
 357:Generated_Source\PSoC5/cyfitter_cfg.c **** * Parameters:  
 358:Generated_Source\PSoC5/cyfitter_cfg.c **** *   void
 359:Generated_Source\PSoC5/cyfitter_cfg.c **** *
 360:Generated_Source\PSoC5/cyfitter_cfg.c **** * Return:
 361:Generated_Source\PSoC5/cyfitter_cfg.c **** *   void
 362:Generated_Source\PSoC5/cyfitter_cfg.c **** *
 363:Generated_Source\PSoC5/cyfitter_cfg.c **** *******************************************************************************/
 364:Generated_Source\PSoC5/cyfitter_cfg.c **** 
 365:Generated_Source\PSoC5/cyfitter_cfg.c **** void cyfitter_cfg(void)
 366:Generated_Source\PSoC5/cyfitter_cfg.c **** {
 424              		.loc 1 366 0
 425              		.cfi_startproc
 426              		@ args = 0, pretend = 0, frame = 0
 427              		@ frame_needed = 0, uses_anonymous_args = 0
 428 0000 70B5     		push	{r4, r5, r6, lr}
 429              		.cfi_def_cfa_offset 16
 430              		.cfi_offset 4, -16
 431              		.cfi_offset 5, -12
 432              		.cfi_offset 6, -8
 433              		.cfi_offset 14, -4
 367:Generated_Source\PSoC5/cyfitter_cfg.c **** #ifdef CYGlobalIntDisable
 368:Generated_Source\PSoC5/cyfitter_cfg.c **** 	/* Disable interrupts by default. Let user enable if/when they want. */
 369:Generated_Source\PSoC5/cyfitter_cfg.c **** 	CYGlobalIntDisable
 434              		.loc 1 369 0
 435              	@ 369 "Generated_Source\PSoC5\cyfitter_cfg.c" 1
 436 0002 72B6     		CPSID   i
 437              	@ 0 "" 2
 370:Generated_Source\PSoC5/cyfitter_cfg.c **** #endif
 371:Generated_Source\PSoC5/cyfitter_cfg.c **** 
 372:Generated_Source\PSoC5/cyfitter_cfg.c **** 	/* Enable/Disable Debug functionality based on settings from System DWR */
 373:Generated_Source\PSoC5/cyfitter_cfg.c **** 	CY_SET_XTND_REG8((void CYFAR *)CYREG_MLOGIC_DEBUG, (CY_GET_XTND_REG8((void CYFAR *)CYREG_MLOGIC_DE
ARM GAS  C:\Users\doug_000\AppData\Local\Temp\ccIvUXyG.s 			page 16


 438              		.loc 1 373 0
 439              		.thumb
 440 0004 3C4A     		ldr	r2, .L37
 441 0006 1378     		ldrb	r3, [r2]	@ zero_extendqisi2
 442 0008 43F00403 		orr	r3, r3, #4
 443 000c 1370     		strb	r3, [r2]
 444              	.LVL34:
 445              	.LBB3:
 374:Generated_Source\PSoC5/cyfitter_cfg.c **** 
 375:Generated_Source\PSoC5/cyfitter_cfg.c **** 	{
 376:Generated_Source\PSoC5/cyfitter_cfg.c **** 
 377:Generated_Source\PSoC5/cyfitter_cfg.c **** 		CYPACKED typedef struct {
 378:Generated_Source\PSoC5/cyfitter_cfg.c **** 			void CYFAR *address;
 379:Generated_Source\PSoC5/cyfitter_cfg.c **** 			uint16 size;
 380:Generated_Source\PSoC5/cyfitter_cfg.c **** 		} CYPACKED_ATTR cfg_memset_t;
 381:Generated_Source\PSoC5/cyfitter_cfg.c **** 
 382:Generated_Source\PSoC5/cyfitter_cfg.c **** 
 383:Generated_Source\PSoC5/cyfitter_cfg.c **** 		CYPACKED typedef struct {
 384:Generated_Source\PSoC5/cyfitter_cfg.c **** 			void CYFAR *dest;
 385:Generated_Source\PSoC5/cyfitter_cfg.c **** 			const void CYFAR *src;
 386:Generated_Source\PSoC5/cyfitter_cfg.c **** 			uint16 size;
 387:Generated_Source\PSoC5/cyfitter_cfg.c **** 		} CYPACKED_ATTR cfg_memcpy_t;
 388:Generated_Source\PSoC5/cyfitter_cfg.c **** 
 389:Generated_Source\PSoC5/cyfitter_cfg.c **** 		static const cfg_memset_t CYCODE cfg_memset_list [] = {
 390:Generated_Source\PSoC5/cyfitter_cfg.c **** 			/* address, size */
 391:Generated_Source\PSoC5/cyfitter_cfg.c **** 			{(void CYFAR *)(CYREG_PRT2_DR), 16u},
 392:Generated_Source\PSoC5/cyfitter_cfg.c **** 			{(void CYFAR *)(CYREG_PRT6_DR), 16u},
 393:Generated_Source\PSoC5/cyfitter_cfg.c **** 			{(void CYFAR *)(CYDEV_UCFG_B0_P0_U0_BASE), 1024u},
 394:Generated_Source\PSoC5/cyfitter_cfg.c **** 			{(void CYFAR *)(CYDEV_UCFG_B0_P2_U1_BASE), 2944u},
 395:Generated_Source\PSoC5/cyfitter_cfg.c **** 			{(void CYFAR *)(CYDEV_UCFG_B1_P2_U0_BASE), 2048u},
 396:Generated_Source\PSoC5/cyfitter_cfg.c **** 			{(void CYFAR *)(CYDEV_UCFG_DSI0_BASE), 2560u},
 397:Generated_Source\PSoC5/cyfitter_cfg.c **** 			{(void CYFAR *)(CYDEV_UCFG_DSI12_BASE), 512u},
 398:Generated_Source\PSoC5/cyfitter_cfg.c **** 			{(void CYFAR *)(CYREG_BCTL0_MDCLK_EN), 32u},
 399:Generated_Source\PSoC5/cyfitter_cfg.c **** 		};
 400:Generated_Source\PSoC5/cyfitter_cfg.c **** 
 401:Generated_Source\PSoC5/cyfitter_cfg.c **** 		static const cfg_memcpy_t CYCODE cfg_memcpy_list [] = {
 402:Generated_Source\PSoC5/cyfitter_cfg.c **** 			/* dest, src, size */
 403:Generated_Source\PSoC5/cyfitter_cfg.c **** 			{(void CYFAR *)(CYDEV_UCFG_B0_P2_U0_BASE), BS_UDB_1_3_0_CONFIG_VAL, 128u},
 404:Generated_Source\PSoC5/cyfitter_cfg.c **** 		};
 405:Generated_Source\PSoC5/cyfitter_cfg.c **** 
 406:Generated_Source\PSoC5/cyfitter_cfg.c **** 		uint8 CYDATA i;
 407:Generated_Source\PSoC5/cyfitter_cfg.c **** 
 408:Generated_Source\PSoC5/cyfitter_cfg.c **** 		/* Zero out critical memory blocks before beginning configuration */
 409:Generated_Source\PSoC5/cyfitter_cfg.c **** 		for (i = 0u; i < (sizeof(cfg_memset_list)/sizeof(cfg_memset_list[0])); i++)
 446              		.loc 1 409 0
 447 000e 0024     		movs	r4, #0
 448 0010 0CE0     		b	.L32
 449              	.LVL35:
 450              	.L33:
 451              	.LBB4:
 410:Generated_Source\PSoC5/cyfitter_cfg.c **** 		{
 411:Generated_Source\PSoC5/cyfitter_cfg.c **** 			const cfg_memset_t CYCODE * CYDATA ms = &cfg_memset_list[i];
 412:Generated_Source\PSoC5/cyfitter_cfg.c **** 			CYMEMZERO(ms->address, (size_t)(uint32)(ms->size));
 452              		.loc 1 412 0 discriminator 3
 453 0012 3A49     		ldr	r1, .L37+4
 454 0014 6300     		lsls	r3, r4, #1
 455 0016 1A19     		adds	r2, r3, r4
ARM GAS  C:\Users\doug_000\AppData\Local\Temp\ccIvUXyG.s 			page 17


 456 0018 5200     		lsls	r2, r2, #1
 457 001a 0A44     		add	r2, r2, r1
 458 001c 2344     		add	r3, r3, r4
 459 001e 5B00     		lsls	r3, r3, #1
 460 0020 C858     		ldr	r0, [r1, r3]	@ unaligned
 461 0022 9188     		ldrh	r1, [r2, #4]
 462 0024 FFF7FEFF 		bl	CYMEMZERO
 463              	.LVL36:
 464              	.LBE4:
 409:Generated_Source\PSoC5/cyfitter_cfg.c **** 		{
 465              		.loc 1 409 0 discriminator 3
 466 0028 0134     		adds	r4, r4, #1
 467              	.LVL37:
 468 002a E4B2     		uxtb	r4, r4
 469              	.LVL38:
 470              	.L32:
 409:Generated_Source\PSoC5/cyfitter_cfg.c **** 		{
 471              		.loc 1 409 0 is_stmt 0 discriminator 1
 472 002c 072C     		cmp	r4, #7
 473 002e F0D9     		bls	.L33
 474 0030 0024     		movs	r4, #0
 475              	.LVL39:
 476 0032 0BE0     		b	.L34
 477              	.LVL40:
 478              	.L35:
 479              	.LBB5:
 413:Generated_Source\PSoC5/cyfitter_cfg.c **** 		}
 414:Generated_Source\PSoC5/cyfitter_cfg.c **** 
 415:Generated_Source\PSoC5/cyfitter_cfg.c **** 		/* Copy device configuration data into registers */
 416:Generated_Source\PSoC5/cyfitter_cfg.c **** 		for (i = 0u; i < (sizeof(cfg_memcpy_list)/sizeof(cfg_memcpy_list[0])); i++)
 417:Generated_Source\PSoC5/cyfitter_cfg.c **** 		{
 418:Generated_Source\PSoC5/cyfitter_cfg.c **** 			const cfg_memcpy_t CYCODE * CYDATA mc = &cfg_memcpy_list[i];
 419:Generated_Source\PSoC5/cyfitter_cfg.c **** 			void * CYDATA destPtr = mc->dest;
 480              		.loc 1 419 0 is_stmt 1 discriminator 3
 481 0034 3149     		ldr	r1, .L37+4
 482 0036 A300     		lsls	r3, r4, #2
 483 0038 1A19     		adds	r2, r3, r4
 484 003a 5200     		lsls	r2, r2, #1
 485 003c 0A44     		add	r2, r2, r1
 486              	.LVL41:
 420:Generated_Source\PSoC5/cyfitter_cfg.c **** 			const void * CYDATA srcPtr = mc->src;
 421:Generated_Source\PSoC5/cyfitter_cfg.c **** 			uint16 CYDATA numBytes = mc->size;
 422:Generated_Source\PSoC5/cyfitter_cfg.c **** 			CYCONFIGCPY(destPtr, srcPtr, numBytes);
 487              		.loc 1 422 0 discriminator 3
 488 003e 106B     		ldr	r0, [r2, #48]	@ unaligned
 489              	.LVL42:
 490 0040 516B     		ldr	r1, [r2, #52]	@ unaligned
 491              	.LVL43:
 492 0042 8022     		movs	r2, #128
 493 0044 FFF7FEFF 		bl	CYCONFIGCPY
 494              	.LVL44:
 495              	.LBE5:
 416:Generated_Source\PSoC5/cyfitter_cfg.c **** 		{
 496              		.loc 1 416 0 discriminator 3
 497 0048 0134     		adds	r4, r4, #1
 498              	.LVL45:
 499 004a E4B2     		uxtb	r4, r4
ARM GAS  C:\Users\doug_000\AppData\Local\Temp\ccIvUXyG.s 			page 18


 500              	.LVL46:
 501              	.L34:
 416:Generated_Source\PSoC5/cyfitter_cfg.c **** 		{
 502              		.loc 1 416 0 is_stmt 0 discriminator 1
 503 004c 002C     		cmp	r4, #0
 504 004e F1D0     		beq	.L35
 423:Generated_Source\PSoC5/cyfitter_cfg.c **** 		}
 424:Generated_Source\PSoC5/cyfitter_cfg.c **** 
 425:Generated_Source\PSoC5/cyfitter_cfg.c **** 		cfg_write_bytes32(cy_cfg_addr_table, cy_cfg_data_table);
 505              		.loc 1 425 0 is_stmt 1
 506 0050 4FF09040 		mov	r0, #1207959552
 507 0054 2A49     		ldr	r1, .L37+8
 508 0056 FFF7FEFF 		bl	cfg_write_bytes32
 509              	.LVL47:
 426:Generated_Source\PSoC5/cyfitter_cfg.c **** 
 427:Generated_Source\PSoC5/cyfitter_cfg.c **** 		/* Enable digital routing */
 428:Generated_Source\PSoC5/cyfitter_cfg.c **** 		CY_SET_XTND_REG8((void CYFAR *)CYREG_BCTL0_BANK_CTL, CY_GET_XTND_REG8((void CYFAR *)CYREG_BCTL0_B
 510              		.loc 1 428 0
 511 005a 2A4A     		ldr	r2, .L37+12
 512 005c 1378     		ldrb	r3, [r2]	@ zero_extendqisi2
 513 005e 43F00203 		orr	r3, r3, #2
 514 0062 1370     		strb	r3, [r2]
 429:Generated_Source\PSoC5/cyfitter_cfg.c **** 		CY_SET_XTND_REG8((void CYFAR *)CYREG_BCTL1_BANK_CTL, CY_GET_XTND_REG8((void CYFAR *)CYREG_BCTL1_B
 515              		.loc 1 429 0
 516 0064 1032     		adds	r2, r2, #16
 517 0066 1378     		ldrb	r3, [r2]	@ zero_extendqisi2
 518 0068 43F00203 		orr	r3, r3, #2
 519 006c 1370     		strb	r3, [r2]
 430:Generated_Source\PSoC5/cyfitter_cfg.c **** 
 431:Generated_Source\PSoC5/cyfitter_cfg.c **** 		/* Enable UDB array */
 432:Generated_Source\PSoC5/cyfitter_cfg.c **** 		CY_SET_XTND_REG8((void CYFAR *)CYREG_PM_ACT_CFG0, CY_GET_XTND_REG8((void CYFAR *)CYREG_PM_ACT_CFG
 520              		.loc 1 432 0
 521 006e 264C     		ldr	r4, .L37+16
 522              	.LVL48:
 523 0070 2378     		ldrb	r3, [r4]	@ zero_extendqisi2
 524 0072 43F04003 		orr	r3, r3, #64
 525 0076 2370     		strb	r3, [r4]
 433:Generated_Source\PSoC5/cyfitter_cfg.c **** 		CY_SET_XTND_REG8((void CYFAR *)CYREG_PM_AVAIL_CR2, CY_GET_XTND_REG8((void CYFAR *)CYREG_PM_AVAIL_
 526              		.loc 1 433 0
 527 0078 A2F58632 		sub	r2, r2, #68608
 528 007c 513A     		subs	r2, r2, #81
 529 007e 1378     		ldrb	r3, [r2]	@ zero_extendqisi2
 530 0080 43F01003 		orr	r3, r3, #16
 531 0084 1370     		strb	r3, [r2]
 532              	.LBE3:
 434:Generated_Source\PSoC5/cyfitter_cfg.c **** 	}
 435:Generated_Source\PSoC5/cyfitter_cfg.c **** 
 436:Generated_Source\PSoC5/cyfitter_cfg.c **** 
 437:Generated_Source\PSoC5/cyfitter_cfg.c **** 	/* Perform second pass device configuration. These items must be configured in specific order afte
 438:Generated_Source\PSoC5/cyfitter_cfg.c **** 	CYCONFIGCPY((void CYFAR *)(CYREG_PRT0_DM0), (const void CYFAR *)(BS_IOPINS0_0_VAL), 8u);
 533              		.loc 1 438 0
 534 0086 2148     		ldr	r0, .L37+20
 535 0088 2149     		ldr	r1, .L37+24
 536 008a 0822     		movs	r2, #8
 537 008c FFF7FEFF 		bl	CYCONFIGCPY
 538              	.LVL49:
 439:Generated_Source\PSoC5/cyfitter_cfg.c **** 	CYCONFIGCPY((void CYFAR *)(CYREG_PRT12_DM0), (const void CYFAR *)(BS_IOPINS0_7_VAL), 8u);
ARM GAS  C:\Users\doug_000\AppData\Local\Temp\ccIvUXyG.s 			page 19


 539              		.loc 1 439 0
 540 0090 2048     		ldr	r0, .L37+28
 541 0092 2149     		ldr	r1, .L37+32
 542 0094 0822     		movs	r2, #8
 543 0096 FFF7FEFF 		bl	CYCONFIGCPY
 544              	.LVL50:
 440:Generated_Source\PSoC5/cyfitter_cfg.c **** 	CYCONFIGCPY((void CYFAR *)(CYREG_PRT15_DM0), (const void CYFAR *)(BS_IOPINS0_8_VAL), 8u);
 545              		.loc 1 440 0
 546 009a 2048     		ldr	r0, .L37+36
 547 009c 2049     		ldr	r1, .L37+40
 548 009e 0822     		movs	r2, #8
 549 00a0 FFF7FEFF 		bl	CYCONFIGCPY
 550              	.LVL51:
 441:Generated_Source\PSoC5/cyfitter_cfg.c **** 	CYCONFIGCPY((void CYFAR *)(CYREG_PRT1_DM0), (const void CYFAR *)(BS_IOPINS0_1_VAL), 8u);
 551              		.loc 1 441 0
 552 00a4 1F48     		ldr	r0, .L37+44
 553 00a6 2049     		ldr	r1, .L37+48
 554 00a8 0822     		movs	r2, #8
 555 00aa FFF7FEFF 		bl	CYCONFIGCPY
 556              	.LVL52:
 442:Generated_Source\PSoC5/cyfitter_cfg.c **** 	CYCONFIGCPY((void CYFAR *)(CYREG_PRT3_DR), (const void CYFAR *)(BS_IOPINS0_3_VAL), 10u);
 557              		.loc 1 442 0
 558 00ae 1F48     		ldr	r0, .L37+52
 559 00b0 1F49     		ldr	r1, .L37+56
 560 00b2 0A22     		movs	r2, #10
 561 00b4 FFF7FEFF 		bl	CYCONFIGCPY
 562              	.LVL53:
 443:Generated_Source\PSoC5/cyfitter_cfg.c **** 	CYCONFIGCPY((void CYFAR *)(CYREG_PRT4_DM0), (const void CYFAR *)(BS_IOPINS0_4_VAL), 8u);
 563              		.loc 1 443 0
 564 00b8 1E48     		ldr	r0, .L37+60
 565 00ba 1F49     		ldr	r1, .L37+64
 566 00bc 0822     		movs	r2, #8
 567 00be FFF7FEFF 		bl	CYCONFIGCPY
 568              	.LVL54:
 444:Generated_Source\PSoC5/cyfitter_cfg.c **** 	CYCONFIGCPY((void CYFAR *)(CYREG_PRT5_DM0), (const void CYFAR *)(BS_IOPINS0_5_VAL), 8u);
 569              		.loc 1 444 0
 570 00c2 1E48     		ldr	r0, .L37+68
 571 00c4 1E49     		ldr	r1, .L37+72
 572 00c6 0822     		movs	r2, #8
 573 00c8 FFF7FEFF 		bl	CYCONFIGCPY
 574              	.LVL55:
 445:Generated_Source\PSoC5/cyfitter_cfg.c **** 	/* Switch Boost to the precision bandgap reference from its internal reference */
 446:Generated_Source\PSoC5/cyfitter_cfg.c **** 	CY_SET_REG8((void CYXDATA *)CYREG_BOOST_CR2, (CY_GET_REG8((void CYXDATA *)CYREG_BOOST_CR2) | 0x08u
 575              		.loc 1 446 0
 576 00cc 1D4A     		ldr	r2, .L37+76
 577 00ce 1378     		ldrb	r3, [r2]	@ zero_extendqisi2
 578 00d0 43F00803 		orr	r3, r3, #8
 579 00d4 1370     		strb	r3, [r2]
 447:Generated_Source\PSoC5/cyfitter_cfg.c **** 
 448:Generated_Source\PSoC5/cyfitter_cfg.c **** 	/* Set Flash Cycles based on max possible frequency in case a glitch occurs during ClockSetup(). *
 449:Generated_Source\PSoC5/cyfitter_cfg.c **** 	CY_SET_XTND_REG8((void CYFAR *)(CYREG_CACHE_CC_CTL), (((CYDEV_INSTRUCT_CACHE_ENABLED) != 0) ? 0x01
 580              		.loc 1 449 0
 581 00d6 1C4E     		ldr	r6, .L37+80
 582 00d8 0125     		movs	r5, #1
 583 00da 3570     		strb	r5, [r6]
 450:Generated_Source\PSoC5/cyfitter_cfg.c **** 	/* Setup clocks based on selections from Clock DWR */
 451:Generated_Source\PSoC5/cyfitter_cfg.c **** 	ClockSetup();
ARM GAS  C:\Users\doug_000\AppData\Local\Temp\ccIvUXyG.s 			page 20


 584              		.loc 1 451 0
 585 00dc FFF7FEFF 		bl	ClockSetup
 586              	.LVL56:
 452:Generated_Source\PSoC5/cyfitter_cfg.c **** 	/* Set Flash Cycles based on newly configured 32.00MHz Bus Clock. */
 453:Generated_Source\PSoC5/cyfitter_cfg.c **** 	CY_SET_XTND_REG8((void CYFAR *)(CYREG_CACHE_CC_CTL), (((CYDEV_INSTRUCT_CACHE_ENABLED) != 0) ? 0x81
 587              		.loc 1 453 0
 588 00e0 8123     		movs	r3, #129
 589 00e2 3370     		strb	r3, [r6]
 454:Generated_Source\PSoC5/cyfitter_cfg.c **** 	CY_SET_XTND_REG8((void CYFAR *)(CYREG_PANTHER_WAITPIPE), 0x01u);
 590              		.loc 1 454 0
 591 00e4 194B     		ldr	r3, .L37+84
 592 00e6 1D70     		strb	r5, [r3]
 455:Generated_Source\PSoC5/cyfitter_cfg.c **** 
 456:Generated_Source\PSoC5/cyfitter_cfg.c **** 	/* Perform basic analog initialization to defaults */
 457:Generated_Source\PSoC5/cyfitter_cfg.c **** 	AnalogSetDefault();
 593              		.loc 1 457 0
 594 00e8 FFF7FEFF 		bl	AnalogSetDefault
 595              	.LVL57:
 458:Generated_Source\PSoC5/cyfitter_cfg.c **** 
 459:Generated_Source\PSoC5/cyfitter_cfg.c **** 	/* Configure alternate active mode */
 460:Generated_Source\PSoC5/cyfitter_cfg.c **** 	CYCONFIGCPY((void CYFAR *)CYDEV_PM_STBY_BASE, (const void CYFAR *)CYDEV_PM_ACT_BASE, 14u);
 596              		.loc 1 460 0
 597 00ec 1848     		ldr	r0, .L37+88
 598 00ee 2146     		mov	r1, r4
 599 00f0 0E22     		movs	r2, #14
 600 00f2 FFF7FEFF 		bl	CYCONFIGCPY
 601              	.LVL58:
 602 00f6 70BD     		pop	{r4, r5, r6, pc}
 603              	.L38:
 604              		.align	2
 605              	.L37:
 606 00f8 E8460040 		.word	1073759976
 607 00fc 00000000 		.word	.LANCHOR0
 608 0100 4C000048 		.word	1207959628
 609 0104 03500140 		.word	1073827843
 610 0108 A0430040 		.word	1073759136
 611 010c 02510040 		.word	1073762562
 612 0110 10070048 		.word	1207961360
 613 0114 C2510040 		.word	1073762754
 614 0118 18070048 		.word	1207961368
 615 011c F2510040 		.word	1073762802
 616 0120 20070048 		.word	1207961376
 617 0124 12510040 		.word	1073762578
 618 0128 28070048 		.word	1207961384
 619 012c 30510040 		.word	1073762608
 620 0130 30070048 		.word	1207961392
 621 0134 42510040 		.word	1073762626
 622 0138 3C070048 		.word	1207961404
 623 013c 52510040 		.word	1073762642
 624 0140 44070048 		.word	1207961412
 625 0144 22430040 		.word	1073759010
 626 0148 00480040 		.word	1073760256
 627 014c 04000840 		.word	1074266116
 628 0150 B0430040 		.word	1073759152
 629              		.cfi_endproc
 630              	.LFE8:
 631              		.size	cyfitter_cfg, .-cyfitter_cfg
ARM GAS  C:\Users\doug_000\AppData\Local\Temp\ccIvUXyG.s 			page 21


 632              		.section	.rodata
 633              		.align	2
 634              		.set	.LANCHOR0,. + 0
 635              		.type	cfg_memset_list.4888, %object
 636              		.size	cfg_memset_list.4888, 48
 637              	cfg_memset_list.4888:
 638 0000 20510040 		.word	1073762592
 639 0004 1000     		.short	16
 640 0006 60510040 		.4byte	1073762656
 641 000a 1000     		.short	16
 642 000c 00000140 		.word	1073807360
 643 0010 0004     		.short	1024
 644 0012 80040140 		.4byte	1073808512
 645 0016 800B     		.short	2944
 646 0018 00140140 		.word	1073812480
 647 001c 0008     		.short	2048
 648 001e 00400140 		.4byte	1073823744
 649 0022 000A     		.short	2560
 650 0024 004C0140 		.word	1073826816
 651 0028 0002     		.short	512
 652 002a 00500140 		.4byte	1073827840
 653 002e 2000     		.short	32
 654              		.type	cfg_memcpy_list.4889, %object
 655              		.size	cfg_memcpy_list.4889, 10
 656              	cfg_memcpy_list.4889:
 657 0030 00040140 		.word	1073808384
 658 0034 90060048 		.word	1207961232
 659 0038 8000     		.short	128
 660 003a 0000     		.text
 661              	.Letext0:
 662              		.file 2 "c:\\program files (x86)\\cypress\\psoc creator\\4.0\\psoc creator\\import\\gnu\\arm\\4.9.
 663              		.file 3 "Generated_Source\\PSoC5\\cytypes.h"
 664              		.file 4 "Generated_Source\\PSoC5\\CyLib.h"