ARM GAS  C:\Users\doug_000\AppData\Local\Temp\cc5pRnII.s 			page 1


   1              		.syntax unified
   2              		.cpu cortex-m3
   3              		.fpu softvfp
   4              		.eabi_attribute 20, 1
   5              		.eabi_attribute 21, 1
   6              		.eabi_attribute 23, 3
   7              		.eabi_attribute 24, 1
   8              		.eabi_attribute 25, 1
   9              		.eabi_attribute 26, 1
  10              		.eabi_attribute 30, 1
  11              		.eabi_attribute 34, 1
  12              		.eabi_attribute 18, 4
  13              		.thumb
  14              		.file	"main.c"
  15              		.text
  16              	.Ltext0:
  17              		.cfi_sections	.debug_frame
  18              		.section	.text.blinkLED,"ax",%progbits
  19              		.align	2
  20              		.global	blinkLED
  21              		.thumb
  22              		.thumb_func
  23              		.type	blinkLED, %function
  24              	blinkLED:
  25              	.LFB63:
  26              		.file 1 "main.c"
   1:main.c        **** /* ========================================
   2:main.c        ****  *
   3:main.c        ****  * Copyright Land Boards, LLC, 2016
   4:main.c        ****  * All Rights Reserved
   5:main.c        ****  * UNPUBLISHED, LICENSED SOFTWARE.
   6:main.c        ****  *
   7:main.c        ****  * CONFIDENTIAL AND PROPRIETARY INFORMATION
   8:main.c        ****  * WHICH IS THE PROPERTY OF your company.
   9:main.c        ****  *
  10:main.c        ****  * ========================================
  11:main.c        **** */
  12:main.c        **** 
  13:main.c        **** #include "project.h"
  14:main.c        **** #include "ARM_Monitor.h"
  15:main.c        **** #include "serialIO.h"
  16:main.c        **** extern char myStringInMemory[];
  17:main.c        **** 
  18:main.c        **** ////////////////////////////////////////////////////////////////
  19:main.c        **** //
  20:main.c        **** ////////////////////////////////////////////////////////////////
  21:main.c        **** 
  22:main.c        **** void blinkLED(uint8 blinkTime)
  23:main.c        **** {
  27              		.loc 1 23 0
  28              		.cfi_startproc
  29              		@ args = 0, pretend = 0, frame = 0
  30              		@ frame_needed = 0, uses_anonymous_args = 0
  31              	.LVL0:
  32 0000 10B5     		push	{r4, lr}
  33              		.cfi_def_cfa_offset 8
  34              		.cfi_offset 4, -8
ARM GAS  C:\Users\doug_000\AppData\Local\Temp\cc5pRnII.s 			page 2


  35              		.cfi_offset 14, -4
  36 0002 0446     		mov	r4, r0
  24:main.c        ****     LED_Write(1);
  37              		.loc 1 24 0
  38 0004 0120     		movs	r0, #1
  39              	.LVL1:
  40 0006 FFF7FEFF 		bl	LED_Write
  41              	.LVL2:
  25:main.c        ****     CyDelay(blinkTime);
  42              		.loc 1 25 0
  43 000a 2046     		mov	r0, r4
  44 000c FFF7FEFF 		bl	CyDelay
  45              	.LVL3:
  26:main.c        ****     LED_Write(0);
  46              		.loc 1 26 0
  47 0010 0020     		movs	r0, #0
  48 0012 FFF7FEFF 		bl	LED_Write
  49              	.LVL4:
  50 0016 10BD     		pop	{r4, pc}
  51              		.cfi_endproc
  52              	.LFE63:
  53              		.size	blinkLED, .-blinkLED
  54              		.section	.text.main,"ax",%progbits
  55              		.align	2
  56              		.global	main
  57              		.thumb
  58              		.thumb_func
  59              		.type	main, %function
  60              	main:
  61              	.LFB64:
  27:main.c        **** }
  28:main.c        **** 
  29:main.c        **** ////////////////////////////////////////////////////////////////
  30:main.c        **** // int main(void)
  31:main.c        **** ////////////////////////////////////////////////////////////////
  32:main.c        **** 
  33:main.c        **** int main(void)
  34:main.c        **** {   
  62              		.loc 1 34 0
  63              		.cfi_startproc
  64              		@ Volatile: function does not return.
  65              		@ args = 0, pretend = 0, frame = 0
  66              		@ frame_needed = 0, uses_anonymous_args = 0
  67 0000 08B5     		push	{r3, lr}
  68              		.cfi_def_cfa_offset 8
  69              		.cfi_offset 3, -8
  70              		.cfi_offset 14, -4
  35:main.c        ****     CyGlobalIntEnable; /* Enable all interrupts by the processor. */
  71              		.loc 1 35 0
  72              	@ 35 "main.c" 1
  73 0002 62B6     		CPSIE   i
  74              	@ 0 "" 2
  36:main.c        ****     initSerial();
  75              		.loc 1 36 0
  76              		.thumb
  77 0004 FFF7FEFF 		bl	initSerial
  78              	.LVL5:
ARM GAS  C:\Users\doug_000\AppData\Local\Temp\cc5pRnII.s 			page 3


  37:main.c        **** 
  38:main.c        ****     blinkLED(250);
  79              		.loc 1 38 0
  80 0008 FA20     		movs	r0, #250
  81 000a FFF7FEFF 		bl	blinkLED
  82              	.LVL6:
  39:main.c        ****     myStringInMemory[0] = 0x12;
  83              		.loc 1 39 0
  84 000e 1222     		movs	r2, #18
  85 0010 024B     		ldr	r3, .L6
  86 0012 1A70     		strb	r2, [r3]
  87              	.L4:
  40:main.c        ****     while(1)
  41:main.c        ****     {
  42:main.c        ****         ARM_Monitor();
  88              		.loc 1 42 0 discriminator 1
  89 0014 FFF7FEFF 		bl	ARM_Monitor
  90              	.LVL7:
  43:main.c        ****     }
  91              		.loc 1 43 0 discriminator 1
  92 0018 FCE7     		b	.L4
  93              	.L7:
  94 001a 00BF     		.align	2
  95              	.L6:
  96 001c 00000000 		.word	myStringInMemory
  97              		.cfi_endproc
  98              	.LFE64:
  99              		.size	main, .-main
 100              		.text
 101              	.Letext0:
 102              		.file 2 "c:\\program files (x86)\\cypress\\psoc creator\\4.0\\psoc creator\\import\\gnu\\arm\\4.9.
 103              		.file 3 "c:\\program files (x86)\\cypress\\psoc creator\\4.0\\psoc creator\\import\\gnu\\arm\\4.9.
 104              		.file 4 "Generated_Source\\PSoC5/cytypes.h"
 105              		.file 5 "Generated_Source\\PSoC5/core_cm3.h"
 106              		.file 6 "Generated_Source\\PSoC5/LED.h"
 107              		.file 7 "Generated_Source\\PSoC5/CyLib.h"
 108              		.file 8 "serialIO.h"
 109              		.file 9 "ARM_Monitor.h"