ARM GAS  C:\Users\doug_000\AppData\Local\Temp\ccbaKQF3.s 			page 1


   1              		.syntax unified
   2              		.cpu cortex-m3
   3              		.fpu softvfp
   4              		.eabi_attribute 20, 1
   5              		.eabi_attribute 21, 1
   6              		.eabi_attribute 23, 3
   7              		.eabi_attribute 24, 1
   8              		.eabi_attribute 25, 1
   9              		.eabi_attribute 26, 1
  10              		.eabi_attribute 30, 1
  11              		.eabi_attribute 34, 1
  12              		.eabi_attribute 18, 4
  13              		.thumb
  14              		.file	"TinyBasic.c"
  15              		.text
  16              	.Ltext0:
  17              		.cfi_sections	.debug_frame
  18              		.section	.text.CfileRead,"ax",%progbits
  19              		.align	2
  20              		.global	CfileRead
  21              		.thumb
  22              		.thumb_func
  23              		.type	CfileRead, %function
  24              	CfileRead:
  25              	.LFB0:
  26              		.file 1 "TinyBasic.c"
   1:TinyBasic.c   **** /* Tiny Basic Intermediate Language Interpreter -- 2004 July 19 */
   2:TinyBasic.c   **** 
   3:TinyBasic.c   **** #include <stdio.h>
   4:TinyBasic.c   **** #include <string.h>
   5:TinyBasic.c   **** #include <stdlib.h>  /* added 08 Oct 31 */
   6:TinyBasic.c   **** 
   7:TinyBasic.c   **** /* Default input/output file names, if defined (omit otherwise)... */
   8:TinyBasic.c   **** #define DefaultInputFile "TBasm.txt"
   9:TinyBasic.c   **** #define DefaultOutputFile "TBout.txt"
  10:TinyBasic.c   **** 
  11:TinyBasic.c   **** /* File input/output function macros (adjust for C++ framework) */
  12:TinyBasic.c   **** #define FileType           FILE*
  13:TinyBasic.c   **** #define IoFileClose(fi)    fclose(fi)
  14:TinyBasic.c   **** #define InFileChar(fi)     CfileRead(fi)
  15:TinyBasic.c   **** #define OutFileChar(fi,ch) fputc(ch,fi)
  16:TinyBasic.c   **** #define ScreenChar(ch)     putchar(ch)
  17:TinyBasic.c   **** #define KeyInChar          (char)getchar()
  18:TinyBasic.c   **** #define NeedsEcho          false
  19:TinyBasic.c   **** #define BreakTest          Broken
  20:TinyBasic.c   **** 
  21:TinyBasic.c   **** /* File input/output function macros (Qt examples:) */
  22:TinyBasic.c   **** /* #define FileType           QFile* */
  23:TinyBasic.c   **** /* #define IoFileClose(fi)    fi->close() */
  24:TinyBasic.c   **** /* #define InFileChar(fi)     (fi->atEnd()?'\0':fi->getch()) */
  25:TinyBasic.c   **** /* #define OutFileChar(fi,ch) fi->putch(ch) */
  26:TinyBasic.c   **** 
  27:TinyBasic.c   **** char CfileRead(FileType fi) {   /* C file reader, returns '\0' on eof */
  27              		.loc 1 27 0
  28              		.cfi_startproc
  29              		@ args = 0, pretend = 0, frame = 0
  30              		@ frame_needed = 0, uses_anonymous_args = 0
ARM GAS  C:\Users\doug_000\AppData\Local\Temp\ccbaKQF3.s 			page 2


  31              	.LVL0:
  32 0000 08B5     		push	{r3, lr}
  33              		.cfi_def_cfa_offset 8
  34              		.cfi_offset 3, -8
  35              		.cfi_offset 14, -4
  28:TinyBasic.c   ****   int chn = fgetc(fi);
  36              		.loc 1 28 0
  37 0002 FFF7FEFF 		bl	fgetc
  38              	.LVL1:
  29:TinyBasic.c   ****   if (chn == EOF) return '\0';
  39              		.loc 1 29 0
  40 0006 B0F1FF3F 		cmp	r0, #-1
  41 000a 01D0     		beq	.L3
  30:TinyBasic.c   ****   return (char)chn;} /* ~CfileRead */
  42              		.loc 1 30 0
  43 000c C0B2     		uxtb	r0, r0
  44              	.LVL2:
  45 000e 08BD     		pop	{r3, pc}
  46              	.LVL3:
  47              	.L3:
  29:TinyBasic.c   ****   if (chn == EOF) return '\0';
  48              		.loc 1 29 0
  49 0010 0020     		movs	r0, #0
  50              	.LVL4:
  51              		.loc 1 30 0
  52 0012 08BD     		pop	{r3, pc}
  53              		.cfi_endproc
  54              	.LFE0:
  55              		.size	CfileRead, .-CfileRead
  56              		.section	.text.Poke2,"ax",%progbits
  57              		.align	2
  58              		.global	Poke2
  59              		.thumb
  60              		.thumb_func
  61              		.type	Poke2, %function
  62              	Poke2:
  63              	.LFB1:
  31:TinyBasic.c   **** 
  32:TinyBasic.c   **** /* Constants: */
  33:TinyBasic.c   **** 
  34:TinyBasic.c   **** #define aByte unsigned char
  35:TinyBasic.c   **** //#define CoreTop 65536 /* Core size */
  36:TinyBasic.c   **** #define CoreTop 16384 /* Core size */
  37:TinyBasic.c   **** #define UserProg 32   /* Core address of front of Basic program */
  38:TinyBasic.c   **** #define EndUser 34    /* Core address of end of stack/user space */
  39:TinyBasic.c   **** #define EndProg 36    /* Core address of end of Basic program */
  40:TinyBasic.c   **** #define GoStkTop 38   /* Core address of Gosub stack top */
  41:TinyBasic.c   **** #define LinoCore 40   /* Core address of "Current BASIC line number" */
  42:TinyBasic.c   **** #define ILPCcore 42   /* Core address of "IL Program Counter" */
  43:TinyBasic.c   **** #define BPcore 44     /* Core address of "Basic Pointer" */
  44:TinyBasic.c   **** #define SvPtCore 46   /* Core address of "Saved Pointer" */
  45:TinyBasic.c   **** #define InLine 48     /* Core address of input line */
  46:TinyBasic.c   **** #define ExpnStk 128   /* Core address of expression stack (empty) */
  47:TinyBasic.c   **** #define TabHere 191   /* Core address of output line size, for tabs */
  48:TinyBasic.c   **** #define WachPoint 255 /* Core address of debug watchpoint USR */
  49:TinyBasic.c   **** #define ColdGo 256    /* Core address of nominal restart USR */
  50:TinyBasic.c   **** #define WarmGo 259    /* Core address of nominal warm start USR */
ARM GAS  C:\Users\doug_000\AppData\Local\Temp\ccbaKQF3.s 			page 3


  51:TinyBasic.c   **** #define InchSub 262   /* Core address of nominal char input USR */
  52:TinyBasic.c   **** #define OutchSub 265  /* Core address of nominal char output USR */
  53:TinyBasic.c   **** #define BreakSub 268  /* Core address of nominal break test USR */
  54:TinyBasic.c   **** #define DumpSub 273   /* Core address of debug core dump USR */
  55:TinyBasic.c   **** #define PeekSub 276   /* Core address of nominal byte peek USR */
  56:TinyBasic.c   **** #define Peek2Sub 277  /* Core address of nominal 2-byte peek USR */
  57:TinyBasic.c   **** #define PokeSub 280   /* Core address of nominal byte poke USR */
  58:TinyBasic.c   **** #define TrLogSub 283  /* Core address of debug trace log USR */
  59:TinyBasic.c   **** #define BScode 271    /* Core address of backspace code */
  60:TinyBasic.c   **** #define CanCode 272   /* Core address of line cancel code */
  61:TinyBasic.c   **** #define ILfront 286   /* Core address of IL code address */
  62:TinyBasic.c   **** #define BadOp 15      /* illegal op, default IL code */
  63:TinyBasic.c   ****   /* Pascal habits die hard.. */
  64:TinyBasic.c   **** #define true 1
  65:TinyBasic.c   **** #define false 0
  66:TinyBasic.c   **** 
  67:TinyBasic.c   **** /* debugging stuff... */
  68:TinyBasic.c   **** #define DEBUGON 1     /* 1 enables \t Debugging toggle, 0 disables */
  69:TinyBasic.c   **** #define LOGSIZE 4096  /* how much to log */
  70:TinyBasic.c   **** static int Debugging = 0;    /* >0 enables debug code */
  71:TinyBasic.c   **** int DebugLog[LOGSIZE];       /* quietly logs recent activity */
  72:TinyBasic.c   **** int LogHere = 0;             /* current index in DebugLog */
  73:TinyBasic.c   **** int Watcher = 0, Watchee;    /* memory watchpoint */
  74:TinyBasic.c   **** 
  75:TinyBasic.c   **** /* Static/global data: */
  76:TinyBasic.c   **** aByte Core[CoreTop];    /* everything goes in here */
  77:TinyBasic.c   **** aByte DeCaps[128];      /* capitalization table */
  78:TinyBasic.c   **** int Lino, ILPC;         /* current line #, IL program counter */
  79:TinyBasic.c   **** int BP, SvPt;           /* current, saved TB parse pointer */
  80:TinyBasic.c   **** int SubStk, ExpnTop;    /* stack pointers */
  81:TinyBasic.c   **** int InLend, SrcEnd;     /* current input line & TB source end */
  82:TinyBasic.c   **** int UserEnd;
  83:TinyBasic.c   **** int ILend, XQhere;      /* end of IL code, start of execute loop */
  84:TinyBasic.c   **** int Broken = false;     /* =true to stop execution or listing */
  85:TinyBasic.c   **** FileType inFile = NULL; /* from option '-i' or user menu/button */
  86:TinyBasic.c   **** FileType oFile = NULL;  /* from option '-o' or user menu/button */
  87:TinyBasic.c   **** 
  88:TinyBasic.c   **** /************************* Memory Utilities.. *************************/
  89:TinyBasic.c   **** 
  90:TinyBasic.c   **** void Poke2(int loc, int valu) {         /* store integer as two bytes */
  64              		.loc 1 90 0
  65              		.cfi_startproc
  66              		@ args = 0, pretend = 0, frame = 0
  67              		@ frame_needed = 0, uses_anonymous_args = 0
  68              		@ link register save eliminated.
  69              	.LVL5:
  91:TinyBasic.c   ****   Core[loc] = (aByte)((valu>>8)&255);         /* nominally Big-Endian */
  70              		.loc 1 91 0
  71 0000 C1F30722 		ubfx	r2, r1, #8, #8
  72 0004 024B     		ldr	r3, .L6
  73 0006 1A54     		strb	r2, [r3, r0]
  92:TinyBasic.c   ****   Core[loc+1] = (aByte)(valu&255);} /* ~Poke2 */
  74              		.loc 1 92 0
  75 0008 0130     		adds	r0, r0, #1
  76              	.LVL6:
  77 000a 1954     		strb	r1, [r3, r0]
  78 000c 7047     		bx	lr
ARM GAS  C:\Users\doug_000\AppData\Local\Temp\ccbaKQF3.s 			page 4


  79              	.L7:
  80 000e 00BF     		.align	2
  81              	.L6:
  82 0010 00000000 		.word	Core
  83              		.cfi_endproc
  84              	.LFE1:
  85              		.size	Poke2, .-Poke2
  86              		.section	.text.Peek2,"ax",%progbits
  87              		.align	2
  88              		.global	Peek2
  89              		.thumb
  90              		.thumb_func
  91              		.type	Peek2, %function
  92              	Peek2:
  93              	.LFB2:
  93:TinyBasic.c   **** 
  94:TinyBasic.c   **** int Peek2(int loc) {                  /* fetch integer from two bytes */
  94              		.loc 1 94 0
  95              		.cfi_startproc
  96              		@ args = 0, pretend = 0, frame = 0
  97              		@ frame_needed = 0, uses_anonymous_args = 0
  98              		@ link register save eliminated.
  99              	.LVL7:
  95:TinyBasic.c   ****   return ((int)Core[loc])*256 + ((int)Core[loc+1]);} /* ~Peek2 */
 100              		.loc 1 95 0
 101 0000 034B     		ldr	r3, .L9
 102 0002 1A5C     		ldrb	r2, [r3, r0]	@ zero_extendqisi2
 103 0004 0130     		adds	r0, r0, #1
 104              	.LVL8:
 105 0006 185C     		ldrb	r0, [r3, r0]	@ zero_extendqisi2
 106              	.LVL9:
 107 0008 00EB0220 		add	r0, r0, r2, lsl #8
 108 000c 7047     		bx	lr
 109              	.L10:
 110 000e 00BF     		.align	2
 111              	.L9:
 112 0010 00000000 		.word	Core
 113              		.cfi_endproc
 114              	.LFE2:
 115              		.size	Peek2, .-Peek2
 116              		.section	.text.Ouch,"ax",%progbits
 117              		.align	2
 118              		.global	Ouch
 119              		.thumb
 120              		.thumb_func
 121              		.type	Ouch, %function
 122              	Ouch:
 123              	.LFB3:
  96:TinyBasic.c   **** 
  97:TinyBasic.c   **** /************************** I/O Utilities... **************************/
  98:TinyBasic.c   **** 
  99:TinyBasic.c   **** void Ouch(char ch) {                         /* output char to stdout */
 124              		.loc 1 99 0
 125              		.cfi_startproc
 126              		@ args = 0, pretend = 0, frame = 0
 127              		@ frame_needed = 0, uses_anonymous_args = 0
 128              	.LVL10:
ARM GAS  C:\Users\doug_000\AppData\Local\Temp\ccbaKQF3.s 			page 5


 129 0000 10B5     		push	{r4, lr}
 130              		.cfi_def_cfa_offset 8
 131              		.cfi_offset 4, -8
 132              		.cfi_offset 14, -4
 133 0002 0446     		mov	r4, r0
 100:TinyBasic.c   ****   if (oFile != NULL) {                   /* there is an output file.. */
 134              		.loc 1 100 0
 135 0004 3A4B     		ldr	r3, .L25
 136 0006 1968     		ldr	r1, [r3]
 137 0008 49B1     		cbz	r1, .L12
 101:TinyBasic.c   ****     if (ch>=' ') OutFileChar(oFile,ch);
 138              		.loc 1 101 0
 139 000a 1F28     		cmp	r0, #31
 140 000c 02D9     		bls	.L13
 141              		.loc 1 101 0 is_stmt 0 discriminator 1
 142 000e FFF7FEFF 		bl	fputc
 143              	.LVL11:
 144 0012 04E0     		b	.L12
 145              	.LVL12:
 146              	.L13:
 102:TinyBasic.c   ****     else if (ch == '\r') OutFileChar(oFile,'\n');}
 147              		.loc 1 102 0 is_stmt 1
 148 0014 0D28     		cmp	r0, #13
 149 0016 02D1     		bne	.L12
 150              		.loc 1 102 0 is_stmt 0 discriminator 1
 151 0018 0A20     		movs	r0, #10
 152              	.LVL13:
 153 001a FFF7FEFF 		bl	fputc
 154              	.LVL14:
 155              	.L12:
 103:TinyBasic.c   ****   if (ch=='\r') {
 156              		.loc 1 103 0 is_stmt 1
 157 001e 0D2C     		cmp	r4, #13
 158 0020 30D1     		bne	.L14
 104:TinyBasic.c   ****     Core[TabHere] = 0;         /* keep count of how long this line is */
 159              		.loc 1 104 0
 160 0022 0022     		movs	r2, #0
 161 0024 334B     		ldr	r3, .L25+4
 162 0026 83F8BF20 		strb	r2, [r3, #191]
 105:TinyBasic.c   ****     ScreenChar('\n');}
 163              		.loc 1 105 0
 164 002a 334B     		ldr	r3, .L25+8
 165 002c 1868     		ldr	r0, [r3]
 166 002e 8268     		ldr	r2, [r0, #8]
 167 0030 9368     		ldr	r3, [r2, #8]
 168 0032 013B     		subs	r3, r3, #1
 169 0034 9360     		str	r3, [r2, #8]
 170 0036 002B     		cmp	r3, #0
 171 0038 19DA     		bge	.L15
 172              		.loc 1 105 0 is_stmt 0 discriminator 1
 173 003a 8268     		ldr	r2, [r0, #8]
 174 003c 9168     		ldr	r1, [r2, #8]
 175 003e 9369     		ldr	r3, [r2, #24]
 176 0040 9942     		cmp	r1, r3
 177 0042 10DB     		blt	.L16
 178              		.loc 1 105 0 discriminator 3
 179 0044 1368     		ldr	r3, [r2]
ARM GAS  C:\Users\doug_000\AppData\Local\Temp\ccbaKQF3.s 			page 6


 180 0046 0A22     		movs	r2, #10
 181 0048 1A70     		strb	r2, [r3]
 182 004a 2B4B     		ldr	r3, .L25+8
 183 004c 1868     		ldr	r0, [r3]
 184 004e 8268     		ldr	r2, [r0, #8]
 185 0050 1368     		ldr	r3, [r2]
 186 0052 1978     		ldrb	r1, [r3]	@ zero_extendqisi2
 187 0054 0A29     		cmp	r1, #10
 188 0056 02D0     		beq	.L17
 189              		.loc 1 105 0 discriminator 5
 190 0058 0133     		adds	r3, r3, #1
 191 005a 1360     		str	r3, [r2]
 192 005c 10BD     		pop	{r4, pc}
 193              	.L17:
 194              		.loc 1 105 0 discriminator 6
 195 005e 0A21     		movs	r1, #10
 196 0060 FFF7FEFF 		bl	__swbuf_r
 197              	.LVL15:
 198 0064 10BD     		pop	{r4, pc}
 199              	.L16:
 200              		.loc 1 105 0 discriminator 4
 201 0066 0A21     		movs	r1, #10
 202 0068 FFF7FEFF 		bl	__swbuf_r
 203              	.LVL16:
 204 006c 10BD     		pop	{r4, pc}
 205              	.L15:
 206              		.loc 1 105 0 discriminator 2
 207 006e 8368     		ldr	r3, [r0, #8]
 208 0070 1B68     		ldr	r3, [r3]
 209 0072 0A22     		movs	r2, #10
 210 0074 1A70     		strb	r2, [r3]
 211 0076 204B     		ldr	r3, .L25+8
 212 0078 1B68     		ldr	r3, [r3]
 213 007a 9A68     		ldr	r2, [r3, #8]
 214 007c 1368     		ldr	r3, [r2]
 215 007e 0133     		adds	r3, r3, #1
 216 0080 1360     		str	r3, [r2]
 217 0082 10BD     		pop	{r4, pc}
 218              	.L14:
 106:TinyBasic.c   ****   else if (ch>=' ') if (ch<='~') {  /* ignore non-print control chars */
 219              		.loc 1 106 0 is_stmt 1
 220 0084 1F2C     		cmp	r4, #31
 221 0086 31D9     		bls	.L11
 222              		.loc 1 106 0 is_stmt 0 discriminator 1
 223 0088 7E2C     		cmp	r4, #126
 224 008a 2FD8     		bhi	.L11
 107:TinyBasic.c   ****     Core[TabHere]++;
 225              		.loc 1 107 0 is_stmt 1
 226 008c 194A     		ldr	r2, .L25+4
 227 008e 92F8BF30 		ldrb	r3, [r2, #191]	@ zero_extendqisi2
 228 0092 0133     		adds	r3, r3, #1
 229 0094 82F8BF30 		strb	r3, [r2, #191]
 108:TinyBasic.c   ****     ScreenChar(ch);}} /* ~Ouch */
 230              		.loc 1 108 0
 231 0098 174B     		ldr	r3, .L25+8
 232 009a 1868     		ldr	r0, [r3]
 233 009c 8268     		ldr	r2, [r0, #8]
ARM GAS  C:\Users\doug_000\AppData\Local\Temp\ccbaKQF3.s 			page 7


 234 009e 9368     		ldr	r3, [r2, #8]
 235 00a0 013B     		subs	r3, r3, #1
 236 00a2 9360     		str	r3, [r2, #8]
 237 00a4 002B     		cmp	r3, #0
 238 00a6 18DA     		bge	.L20
 239              		.loc 1 108 0 is_stmt 0 discriminator 1
 240 00a8 8268     		ldr	r2, [r0, #8]
 241 00aa 9168     		ldr	r1, [r2, #8]
 242 00ac 9369     		ldr	r3, [r2, #24]
 243 00ae 9942     		cmp	r1, r3
 244 00b0 0FDB     		blt	.L21
 245              		.loc 1 108 0 discriminator 3
 246 00b2 1368     		ldr	r3, [r2]
 247 00b4 1C70     		strb	r4, [r3]
 248 00b6 104B     		ldr	r3, .L25+8
 249 00b8 1868     		ldr	r0, [r3]
 250 00ba 8268     		ldr	r2, [r0, #8]
 251 00bc 1368     		ldr	r3, [r2]
 252 00be 1978     		ldrb	r1, [r3]	@ zero_extendqisi2
 253 00c0 0A29     		cmp	r1, #10
 254 00c2 02D0     		beq	.L22
 255              		.loc 1 108 0 discriminator 5
 256 00c4 0133     		adds	r3, r3, #1
 257 00c6 1360     		str	r3, [r2]
 258 00c8 10BD     		pop	{r4, pc}
 259              	.L22:
 260              		.loc 1 108 0 discriminator 6
 261 00ca 0A21     		movs	r1, #10
 262 00cc FFF7FEFF 		bl	__swbuf_r
 263              	.LVL17:
 264 00d0 10BD     		pop	{r4, pc}
 265              	.L21:
 266              		.loc 1 108 0 discriminator 4
 267 00d2 2146     		mov	r1, r4
 268 00d4 FFF7FEFF 		bl	__swbuf_r
 269              	.LVL18:
 270 00d8 10BD     		pop	{r4, pc}
 271              	.L20:
 272              		.loc 1 108 0 discriminator 2
 273 00da 8368     		ldr	r3, [r0, #8]
 274 00dc 1B68     		ldr	r3, [r3]
 275 00de 1C70     		strb	r4, [r3]
 276 00e0 054B     		ldr	r3, .L25+8
 277 00e2 1B68     		ldr	r3, [r3]
 278 00e4 9A68     		ldr	r2, [r3, #8]
 279 00e6 1368     		ldr	r3, [r2]
 280 00e8 0133     		adds	r3, r3, #1
 281 00ea 1360     		str	r3, [r2]
 282              	.L11:
 283 00ec 10BD     		pop	{r4, pc}
 284              	.L26:
 285 00ee 00BF     		.align	2
 286              	.L25:
 287 00f0 00000000 		.word	.LANCHOR0
 288 00f4 00000000 		.word	Core
 289 00f8 00000000 		.word	_impure_ptr
 290              		.cfi_endproc
ARM GAS  C:\Users\doug_000\AppData\Local\Temp\ccbaKQF3.s 			page 8


 291              	.LFE3:
 292              		.size	Ouch, .-Ouch
 293              		.section	.text.Inch,"ax",%progbits
 294              		.align	2
 295              		.global	Inch
 296              		.thumb
 297              		.thumb_func
 298              		.type	Inch, %function
 299              	Inch:
 300              	.LFB4:
 109:TinyBasic.c   **** 
 110:TinyBasic.c   **** char Inch(void) {          /* read input character from stdin or file */
 301              		.loc 1 110 0 is_stmt 1
 302              		.cfi_startproc
 303              		@ args = 0, pretend = 0, frame = 0
 304              		@ frame_needed = 0, uses_anonymous_args = 0
 305 0000 10B5     		push	{r4, lr}
 306              		.cfi_def_cfa_offset 8
 307              		.cfi_offset 4, -8
 308              		.cfi_offset 14, -4
 111:TinyBasic.c   ****   char ch;
 112:TinyBasic.c   ****   if (inFile != NULL) {        /* there is a file to get input from.. */
 309              		.loc 1 112 0
 310 0002 1C4B     		ldr	r3, .L38
 311 0004 5868     		ldr	r0, [r3, #4]
 312 0006 90B1     		cbz	r0, .L28
 113:TinyBasic.c   ****     ch = InFileChar(inFile);
 313              		.loc 1 113 0
 314 0008 FFF7FEFF 		bl	CfileRead
 315              	.LVL19:
 316 000c 0446     		mov	r4, r0
 317              	.LVL20:
 114:TinyBasic.c   ****     if (ch == '\n') ch = '\r';
 318              		.loc 1 114 0
 319 000e 0A28     		cmp	r0, #10
 320 0010 00D1     		bne	.L29
 321 0012 0D24     		movs	r4, #13
 322              	.L29:
 323              	.LVL21:
 115:TinyBasic.c   ****     if (ch == '\0') {          /* switch over to console input at eof */
 324              		.loc 1 115 0
 325 0014 34B9     		cbnz	r4, .L30
 116:TinyBasic.c   ****       IoFileClose(inFile);
 326              		.loc 1 116 0
 327 0016 174C     		ldr	r4, .L38
 328              	.LVL22:
 329 0018 6068     		ldr	r0, [r4, #4]
 330 001a FFF7FEFF 		bl	fclose
 331              	.LVL23:
 117:TinyBasic.c   ****       inFile = NULL;}
 332              		.loc 1 117 0
 333 001e 0023     		movs	r3, #0
 334 0020 6360     		str	r3, [r4, #4]
 335 0022 04E0     		b	.L28
 336              	.LVL24:
 337              	.L30:
 118:TinyBasic.c   ****     else {
ARM GAS  C:\Users\doug_000\AppData\Local\Temp\ccbaKQF3.s 			page 9


 119:TinyBasic.c   ****       Ouch(ch);         /* echo input to screen (but not output file) */
 338              		.loc 1 119 0
 339 0024 2046     		mov	r0, r4
 340 0026 FFF7FEFF 		bl	Ouch
 341              	.LVL25:
 120:TinyBasic.c   ****       return ch;}}
 342              		.loc 1 120 0
 343 002a 2046     		mov	r0, r4
 344 002c 10BD     		pop	{r4, pc}
 345              	.LVL26:
 346              	.L28:
 121:TinyBasic.c   ****   ch = KeyInChar;                             /* get input from stdin */
 347              		.loc 1 121 0
 348 002e 124B     		ldr	r3, .L38+4
 349 0030 1A68     		ldr	r2, [r3]
 350 0032 5168     		ldr	r1, [r2, #4]
 351 0034 4B68     		ldr	r3, [r1, #4]
 352 0036 013B     		subs	r3, r3, #1
 353 0038 4B60     		str	r3, [r1, #4]
 354 003a 002B     		cmp	r3, #0
 355 003c 05DA     		bge	.L32
 356              		.loc 1 121 0 is_stmt 0 discriminator 1
 357 003e 1046     		mov	r0, r2
 358 0040 5168     		ldr	r1, [r2, #4]
 359 0042 FFF7FEFF 		bl	__srget_r
 360              	.LVL27:
 361 0046 C4B2     		uxtb	r4, r0
 362 0048 04E0     		b	.L33
 363              	.L32:
 364              		.loc 1 121 0 discriminator 2
 365 004a 5268     		ldr	r2, [r2, #4]
 366 004c 1368     		ldr	r3, [r2]
 367 004e 591C     		adds	r1, r3, #1
 368 0050 1160     		str	r1, [r2]
 369 0052 1C78     		ldrb	r4, [r3]	@ zero_extendqisi2
 370              	.L33:
 371              	.LVL28:
 122:TinyBasic.c   ****   if (NeedsEcho) ScreenChar(ch);   /* alternative input may need this */
 123:TinyBasic.c   ****   if (oFile != NULL) OutFileChar(oFile,ch); /* echo it to output file */
 372              		.loc 1 123 0 is_stmt 1 discriminator 4
 373 0054 074B     		ldr	r3, .L38
 374 0056 1968     		ldr	r1, [r3]
 375 0058 11B1     		cbz	r1, .L34
 376              		.loc 1 123 0 is_stmt 0 discriminator 1
 377 005a 2046     		mov	r0, r4
 378 005c FFF7FEFF 		bl	fputc
 379              	.LVL29:
 380              	.L34:
 124:TinyBasic.c   ****   if (ch == '\n') {
 381              		.loc 1 124 0 is_stmt 1
 382 0060 0A2C     		cmp	r4, #10
 383 0062 04D1     		bne	.L35
 384              	.LVL30:
 125:TinyBasic.c   ****     ch = '\r';                     /* convert line end to TB standard */
 126:TinyBasic.c   ****     Core[TabHere] = 0;}                          /* reset tab counter */
 385              		.loc 1 126 0
 386 0064 0022     		movs	r2, #0
ARM GAS  C:\Users\doug_000\AppData\Local\Temp\ccbaKQF3.s 			page 10


 387 0066 054B     		ldr	r3, .L38+8
 388 0068 83F8BF20 		strb	r2, [r3, #191]
 125:TinyBasic.c   ****     ch = '\r';                     /* convert line end to TB standard */
 389              		.loc 1 125 0
 390 006c 0D24     		movs	r4, #13
 391              	.LVL31:
 392              	.L35:
 127:TinyBasic.c   ****   return ch;} /* ~Inch */
 393              		.loc 1 127 0
 394 006e 2046     		mov	r0, r4
 395 0070 10BD     		pop	{r4, pc}
 396              	.LVL32:
 397              	.L39:
 398 0072 00BF     		.align	2
 399              	.L38:
 400 0074 00000000 		.word	.LANCHOR0
 401 0078 00000000 		.word	_impure_ptr
 402 007c 00000000 		.word	Core
 403              		.cfi_endproc
 404              	.LFE4:
 405              		.size	Inch, .-Inch
 406              		.section	.text.StopIt,"ax",%progbits
 407              		.align	2
 408              		.global	StopIt
 409              		.thumb
 410              		.thumb_func
 411              		.type	StopIt, %function
 412              	StopIt:
 413              	.LFB5:
 128:TinyBasic.c   **** 
 129:TinyBasic.c   **** int StopIt(void) {return BreakTest;}   /* ~StopIt, .. not implemented */
 414              		.loc 1 129 0
 415              		.cfi_startproc
 416              		@ args = 0, pretend = 0, frame = 0
 417              		@ frame_needed = 0, uses_anonymous_args = 0
 418              		@ link register save eliminated.
 419              		.loc 1 129 0
 420 0000 014B     		ldr	r3, .L41
 421 0002 9868     		ldr	r0, [r3, #8]
 422 0004 7047     		bx	lr
 423              	.L42:
 424 0006 00BF     		.align	2
 425              	.L41:
 426 0008 00000000 		.word	.LANCHOR0
 427              		.cfi_endproc
 428              	.LFE5:
 429              		.size	StopIt, .-StopIt
 430              		.section	.text.OutStr,"ax",%progbits
 431              		.align	2
 432              		.global	OutStr
 433              		.thumb
 434              		.thumb_func
 435              		.type	OutStr, %function
 436              	OutStr:
 437              	.LFB6:
 130:TinyBasic.c   **** 
 131:TinyBasic.c   **** void OutStr(char* theMsg) {         /* output a string to the console */
ARM GAS  C:\Users\doug_000\AppData\Local\Temp\ccbaKQF3.s 			page 11


 438              		.loc 1 131 0
 439              		.cfi_startproc
 440              		@ args = 0, pretend = 0, frame = 0
 441              		@ frame_needed = 0, uses_anonymous_args = 0
 442              	.LVL33:
 443 0000 10B5     		push	{r4, lr}
 444              		.cfi_def_cfa_offset 8
 445              		.cfi_offset 4, -8
 446              		.cfi_offset 14, -4
 447 0002 0446     		mov	r4, r0
 132:TinyBasic.c   ****   while (*theMsg != '\0') Ouch(*theMsg++);} /* ~OutStr */
 448              		.loc 1 132 0
 449 0004 02E0     		b	.L44
 450              	.LVL34:
 451              	.L45:
 452              		.loc 1 132 0 is_stmt 0 discriminator 2
 453 0006 0134     		adds	r4, r4, #1
 454              	.LVL35:
 455 0008 FFF7FEFF 		bl	Ouch
 456              	.LVL36:
 457              	.L44:
 458              		.loc 1 132 0 discriminator 1
 459 000c 2078     		ldrb	r0, [r4]	@ zero_extendqisi2
 460 000e 0028     		cmp	r0, #0
 461 0010 F9D1     		bne	.L45
 462              		.loc 1 132 0
 463 0012 10BD     		pop	{r4, pc}
 464              		.cfi_endproc
 465              	.LFE6:
 466              		.size	OutStr, .-OutStr
 467              		.section	.text.OutLn,"ax",%progbits
 468              		.align	2
 469              		.global	OutLn
 470              		.thumb
 471              		.thumb_func
 472              		.type	OutLn, %function
 473              	OutLn:
 474              	.LFB7:
 133:TinyBasic.c   **** 
 134:TinyBasic.c   **** void OutLn(void) {            /* terminate output line to the console */
 475              		.loc 1 134 0 is_stmt 1
 476              		.cfi_startproc
 477              		@ args = 0, pretend = 0, frame = 0
 478              		@ frame_needed = 0, uses_anonymous_args = 0
 479 0000 08B5     		push	{r3, lr}
 480              		.cfi_def_cfa_offset 8
 481              		.cfi_offset 3, -8
 482              		.cfi_offset 14, -4
 135:TinyBasic.c   ****   OutStr("\r");} /* ~OutLn */
 483              		.loc 1 135 0
 484 0002 0248     		ldr	r0, .L49
 485 0004 FFF7FEFF 		bl	OutStr
 486              	.LVL37:
 487 0008 08BD     		pop	{r3, pc}
 488              	.L50:
 489 000a 00BF     		.align	2
 490              	.L49:
ARM GAS  C:\Users\doug_000\AppData\Local\Temp\ccbaKQF3.s 			page 12


 491 000c 00000000 		.word	.LC0
 492              		.cfi_endproc
 493              	.LFE7:
 494              		.size	OutLn, .-OutLn
 495              		.section	.text.OutInt,"ax",%progbits
 496              		.align	2
 497              		.global	OutInt
 498              		.thumb
 499              		.thumb_func
 500              		.type	OutInt, %function
 501              	OutInt:
 502              	.LFB8:
 136:TinyBasic.c   **** 
 137:TinyBasic.c   **** void OutInt(int theNum) {           /* output a number to the console */
 503              		.loc 1 137 0
 504              		.cfi_startproc
 505              		@ args = 0, pretend = 0, frame = 0
 506              		@ frame_needed = 0, uses_anonymous_args = 0
 507              	.LVL38:
 508 0000 10B5     		push	{r4, lr}
 509              		.cfi_def_cfa_offset 8
 510              		.cfi_offset 4, -8
 511              		.cfi_offset 14, -4
 138:TinyBasic.c   ****   if (theNum<0) {
 512              		.loc 1 138 0
 513 0002 041E     		subs	r4, r0, #0
 514 0004 03DA     		bge	.L52
 139:TinyBasic.c   ****     Ouch('-');
 515              		.loc 1 139 0
 516 0006 2D20     		movs	r0, #45
 517              	.LVL39:
 518 0008 FFF7FEFF 		bl	Ouch
 519              	.LVL40:
 140:TinyBasic.c   ****     theNum = -theNum;}
 520              		.loc 1 140 0
 521 000c 6442     		negs	r4, r4
 522              	.LVL41:
 523              	.L52:
 141:TinyBasic.c   ****   if (theNum>9) OutInt(theNum/10);
 524              		.loc 1 141 0
 525 000e 092C     		cmp	r4, #9
 526 0010 07DD     		ble	.L53
 527              		.loc 1 141 0 is_stmt 0 discriminator 1
 528 0012 0B4B     		ldr	r3, .L55
 529 0014 83FB0423 		smull	r2, r3, r3, r4
 530 0018 E017     		asrs	r0, r4, #31
 531 001a C0EBA300 		rsb	r0, r0, r3, asr #2
 532 001e FFF7FEFF 		bl	OutInt
 533              	.LVL42:
 534              	.L53:
 142:TinyBasic.c   ****   Ouch((char)(theNum%10+48));} /* ~OutInt */
 535              		.loc 1 142 0 is_stmt 1
 536 0022 0748     		ldr	r0, .L55
 537 0024 80FB0430 		smull	r3, r0, r0, r4
 538 0028 E317     		asrs	r3, r4, #31
 539 002a C3EBA000 		rsb	r0, r3, r0, asr #2
 540 002e 00EB8000 		add	r0, r0, r0, lsl #2
ARM GAS  C:\Users\doug_000\AppData\Local\Temp\ccbaKQF3.s 			page 13


 541 0032 4000     		lsls	r0, r0, #1
 542 0034 201A     		subs	r0, r4, r0
 543 0036 3030     		adds	r0, r0, #48
 544 0038 C0B2     		uxtb	r0, r0
 545 003a FFF7FEFF 		bl	Ouch
 546              	.LVL43:
 547 003e 10BD     		pop	{r4, pc}
 548              	.LVL44:
 549              	.L56:
 550              		.align	2
 551              	.L55:
 552 0040 67666666 		.word	1717986919
 553              		.cfi_endproc
 554              	.LFE8:
 555              		.size	OutInt, .-OutInt
 556              		.section	.text.OutHex,"ax",%progbits
 557              		.align	2
 558              		.global	OutHex
 559              		.thumb
 560              		.thumb_func
 561              		.type	OutHex, %function
 562              	OutHex:
 563              	.LFB9:
 143:TinyBasic.c   **** 
 144:TinyBasic.c   **** /*********************** Debugging Utilities... ***********************/
 145:TinyBasic.c   **** 
 146:TinyBasic.c   **** void OutHex(int num, int nd) {  /* output a hex number to the console */
 564              		.loc 1 146 0
 565              		.cfi_startproc
 566              		@ args = 0, pretend = 0, frame = 0
 567              		@ frame_needed = 0, uses_anonymous_args = 0
 568              	.LVL45:
 569 0000 10B5     		push	{r4, lr}
 570              		.cfi_def_cfa_offset 8
 571              		.cfi_offset 4, -8
 572              		.cfi_offset 14, -4
 573 0002 0446     		mov	r4, r0
 147:TinyBasic.c   ****   if (nd>1) OutHex(num>>4, nd-1);
 574              		.loc 1 147 0
 575 0004 0129     		cmp	r1, #1
 576 0006 03DD     		ble	.L58
 577              		.loc 1 147 0 is_stmt 0 discriminator 1
 578 0008 0011     		asrs	r0, r0, #4
 579              	.LVL46:
 580 000a 0139     		subs	r1, r1, #1
 581              	.LVL47:
 582 000c FFF7FEFF 		bl	OutHex
 583              	.LVL48:
 584              	.L58:
 148:TinyBasic.c   ****   num = num&15;
 585              		.loc 1 148 0 is_stmt 1
 586 0010 04F00F00 		and	r0, r4, #15
 587              	.LVL49:
 149:TinyBasic.c   ****   if (num>9) Ouch((char)(num+55));
 588              		.loc 1 149 0
 589 0014 0928     		cmp	r0, #9
 590 0016 03DD     		ble	.L59
ARM GAS  C:\Users\doug_000\AppData\Local\Temp\ccbaKQF3.s 			page 14


 591              		.loc 1 149 0 is_stmt 0 discriminator 1
 592 0018 3730     		adds	r0, r0, #55
 593              	.LVL50:
 594 001a FFF7FEFF 		bl	Ouch
 595              	.LVL51:
 596 001e 10BD     		pop	{r4, pc}
 597              	.LVL52:
 598              	.L59:
 150:TinyBasic.c   ****     else Ouch((char)(num+48));} /* ~OutHex */
 599              		.loc 1 150 0 is_stmt 1
 600 0020 3030     		adds	r0, r0, #48
 601              	.LVL53:
 602 0022 FFF7FEFF 		bl	Ouch
 603              	.LVL54:
 604 0026 10BD     		pop	{r4, pc}
 605              		.cfi_endproc
 606              	.LFE9:
 607              		.size	OutHex, .-OutHex
 608              		.section	.text.ShowSubs,"ax",%progbits
 609              		.align	2
 610              		.global	ShowSubs
 611              		.thumb
 612              		.thumb_func
 613              		.type	ShowSubs, %function
 614              	ShowSubs:
 615              	.LFB10:
 151:TinyBasic.c   **** 
 152:TinyBasic.c   **** void ShowSubs(void) {       /* display subroutine stack for debugging */
 616              		.loc 1 152 0
 617              		.cfi_startproc
 618              		@ args = 0, pretend = 0, frame = 0
 619              		@ frame_needed = 0, uses_anonymous_args = 0
 620 0000 10B5     		push	{r4, lr}
 621              		.cfi_def_cfa_offset 8
 622              		.cfi_offset 4, -8
 623              		.cfi_offset 14, -4
 153:TinyBasic.c   ****   int ix;
 154:TinyBasic.c   ****   OutLn(); OutStr(" [Stk "); OutHex(SubStk,5);
 624              		.loc 1 154 0
 625 0002 FFF7FEFF 		bl	OutLn
 626              	.LVL55:
 627 0006 0D48     		ldr	r0, .L66
 628 0008 FFF7FEFF 		bl	OutStr
 629              	.LVL56:
 630 000c 0C4C     		ldr	r4, .L66+4
 631 000e 2068     		ldr	r0, [r4]
 632 0010 0521     		movs	r1, #5
 633 0012 FFF7FEFF 		bl	OutHex
 634              	.LVL57:
 155:TinyBasic.c   ****   for (ix=SubStk; ix<UserEnd; ix++) {
 635              		.loc 1 155 0
 636 0016 2468     		ldr	r4, [r4]
 637              	.LVL58:
 638 0018 08E0     		b	.L63
 639              	.L64:
 156:TinyBasic.c   ****     OutStr(" ");
 640              		.loc 1 156 0 discriminator 3
ARM GAS  C:\Users\doug_000\AppData\Local\Temp\ccbaKQF3.s 			page 15


 641 001a 0A48     		ldr	r0, .L66+8
 642 001c FFF7FEFF 		bl	OutStr
 643              	.LVL59:
 157:TinyBasic.c   ****     OutInt(Peek2(ix++));}
 644              		.loc 1 157 0 discriminator 3
 645 0020 2046     		mov	r0, r4
 646 0022 FFF7FEFF 		bl	Peek2
 647              	.LVL60:
 648 0026 FFF7FEFF 		bl	OutInt
 649              	.LVL61:
 155:TinyBasic.c   ****   for (ix=SubStk; ix<UserEnd; ix++) {
 650              		.loc 1 155 0 discriminator 3
 651 002a 0234     		adds	r4, r4, #2
 652              	.LVL62:
 653              	.L63:
 155:TinyBasic.c   ****   for (ix=SubStk; ix<UserEnd; ix++) {
 654              		.loc 1 155 0 is_stmt 0 discriminator 1
 655 002c 064B     		ldr	r3, .L66+12
 656 002e 1B68     		ldr	r3, [r3]
 657 0030 9C42     		cmp	r4, r3
 658 0032 F2DB     		blt	.L64
 158:TinyBasic.c   ****   OutStr("]");} /* ~ShowSubs */
 659              		.loc 1 158 0 is_stmt 1
 660 0034 0548     		ldr	r0, .L66+16
 661 0036 FFF7FEFF 		bl	OutStr
 662              	.LVL63:
 663 003a 10BD     		pop	{r4, pc}
 664              	.LVL64:
 665              	.L67:
 666              		.align	2
 667              	.L66:
 668 003c 04000000 		.word	.LC1
 669 0040 00000000 		.word	SubStk
 670 0044 0C000000 		.word	.LC2
 671 0048 00000000 		.word	UserEnd
 672 004c 10000000 		.word	.LC3
 673              		.cfi_endproc
 674              	.LFE10:
 675              		.size	ShowSubs, .-ShowSubs
 676              		.section	.text.ShowExSt,"ax",%progbits
 677              		.align	2
 678              		.global	ShowExSt
 679              		.thumb
 680              		.thumb_func
 681              		.type	ShowExSt, %function
 682              	ShowExSt:
 683              	.LFB11:
 159:TinyBasic.c   **** 
 160:TinyBasic.c   **** void ShowExSt(void) {       /* display expression stack for debugging */
 684              		.loc 1 160 0
 685              		.cfi_startproc
 686              		@ args = 0, pretend = 0, frame = 0
 687              		@ frame_needed = 0, uses_anonymous_args = 0
 688 0000 10B5     		push	{r4, lr}
 689              		.cfi_def_cfa_offset 8
 690              		.cfi_offset 4, -8
 691              		.cfi_offset 14, -4
ARM GAS  C:\Users\doug_000\AppData\Local\Temp\ccbaKQF3.s 			page 16


 161:TinyBasic.c   ****   int ix;
 162:TinyBasic.c   ****   OutLn(); OutStr(" [Exp "); OutHex(ExpnTop,3);
 692              		.loc 1 162 0
 693 0002 FFF7FEFF 		bl	OutLn
 694              	.LVL65:
 695 0006 1448     		ldr	r0, .L75
 696 0008 FFF7FEFF 		bl	OutStr
 697              	.LVL66:
 698 000c 134C     		ldr	r4, .L75+4
 699 000e 2068     		ldr	r0, [r4]
 700 0010 0321     		movs	r1, #3
 701 0012 FFF7FEFF 		bl	OutHex
 702              	.LVL67:
 163:TinyBasic.c   ****   if ((ExpnTop&1)==0) for (ix=ExpnTop; ix<ExpnStk; ix++) {
 703              		.loc 1 163 0
 704 0016 2468     		ldr	r4, [r4]
 705 0018 14F0010F 		tst	r4, #1
 706 001c 0AD0     		beq	.L69
 707 001e 14E0     		b	.L70
 708              	.LVL68:
 709              	.L71:
 164:TinyBasic.c   ****     OutStr(" ");
 710              		.loc 1 164 0 discriminator 4
 711 0020 0F48     		ldr	r0, .L75+8
 712 0022 FFF7FEFF 		bl	OutStr
 713              	.LVL69:
 165:TinyBasic.c   ****     OutInt((int)((short)Peek2(ix++)));}
 714              		.loc 1 165 0 discriminator 4
 715 0026 2046     		mov	r0, r4
 716 0028 FFF7FEFF 		bl	Peek2
 717              	.LVL70:
 718 002c 00B2     		sxth	r0, r0
 719 002e FFF7FEFF 		bl	OutInt
 720              	.LVL71:
 163:TinyBasic.c   ****   if ((ExpnTop&1)==0) for (ix=ExpnTop; ix<ExpnStk; ix++) {
 721              		.loc 1 163 0 discriminator 4
 722 0032 0234     		adds	r4, r4, #2
 723              	.LVL72:
 724              	.L69:
 163:TinyBasic.c   ****   if ((ExpnTop&1)==0) for (ix=ExpnTop; ix<ExpnStk; ix++) {
 725              		.loc 1 163 0 is_stmt 0 discriminator 2
 726 0034 7F2C     		cmp	r4, #127
 727 0036 F3DD     		ble	.L71
 728 0038 09E0     		b	.L72
 729              	.L73:
 166:TinyBasic.c   ****   else for (ix=ExpnTop; ix<ExpnStk; ix++) {
 167:TinyBasic.c   ****     OutStr(".");
 730              		.loc 1 167 0 is_stmt 1 discriminator 3
 731 003a 0A48     		ldr	r0, .L75+12
 732 003c FFF7FEFF 		bl	OutStr
 733              	.LVL73:
 168:TinyBasic.c   ****     OutInt((int)Core[ix]);}
 734              		.loc 1 168 0 discriminator 3
 735 0040 094B     		ldr	r3, .L75+16
 736 0042 185D     		ldrb	r0, [r3, r4]	@ zero_extendqisi2
 737 0044 FFF7FEFF 		bl	OutInt
 738              	.LVL74:
ARM GAS  C:\Users\doug_000\AppData\Local\Temp\ccbaKQF3.s 			page 17


 166:TinyBasic.c   ****   else for (ix=ExpnTop; ix<ExpnStk; ix++) {
 739              		.loc 1 166 0 discriminator 3
 740 0048 0134     		adds	r4, r4, #1
 741              	.LVL75:
 742              	.L70:
 166:TinyBasic.c   ****   else for (ix=ExpnTop; ix<ExpnStk; ix++) {
 743              		.loc 1 166 0 is_stmt 0 discriminator 1
 744 004a 7F2C     		cmp	r4, #127
 745 004c F5DD     		ble	.L73
 746              	.L72:
 169:TinyBasic.c   ****   OutStr("]");} /* ~ShowExSt */
 747              		.loc 1 169 0 is_stmt 1
 748 004e 0748     		ldr	r0, .L75+20
 749 0050 FFF7FEFF 		bl	OutStr
 750              	.LVL76:
 751 0054 10BD     		pop	{r4, pc}
 752              	.LVL77:
 753              	.L76:
 754 0056 00BF     		.align	2
 755              	.L75:
 756 0058 14000000 		.word	.LC4
 757 005c 00000000 		.word	ExpnTop
 758 0060 0C000000 		.word	.LC2
 759 0064 1C000000 		.word	.LC5
 760 0068 00000000 		.word	Core
 761 006c 10000000 		.word	.LC3
 762              		.cfi_endproc
 763              	.LFE11:
 764              		.size	ShowExSt, .-ShowExSt
 765              		.section	.text.ShowVars,"ax",%progbits
 766              		.align	2
 767              		.global	ShowVars
 768              		.thumb
 769              		.thumb_func
 770              		.type	ShowVars, %function
 771              	ShowVars:
 772              	.LFB12:
 170:TinyBasic.c   **** 
 171:TinyBasic.c   **** void ShowVars(int whom) {               /* display vars for debugging */
 773              		.loc 1 171 0
 774              		.cfi_startproc
 775              		@ args = 0, pretend = 0, frame = 0
 776              		@ frame_needed = 0, uses_anonymous_args = 0
 777              	.LVL78:
 778 0000 F8B5     		push	{r3, r4, r5, r6, r7, lr}
 779              		.cfi_def_cfa_offset 24
 780              		.cfi_offset 3, -24
 781              		.cfi_offset 4, -20
 782              		.cfi_offset 5, -16
 783              		.cfi_offset 6, -12
 784              		.cfi_offset 7, -8
 785              		.cfi_offset 14, -4
 786              	.LVL79:
 172:TinyBasic.c   ****   int ix, valu = 1, prior = 1;
 173:TinyBasic.c   ****   if (whom==0) whom = 26; else {
 787              		.loc 1 173 0
 788 0002 18B1     		cbz	r0, .L83
ARM GAS  C:\Users\doug_000\AppData\Local\Temp\ccbaKQF3.s 			page 18


 174:TinyBasic.c   ****     whom = (whom>>1)&31;             /* whom is a specified var, or 0 */
 789              		.loc 1 174 0
 790 0004 C0F34407 		ubfx	r7, r0, #1, #5
 791              	.LVL80:
 175:TinyBasic.c   ****     valu = whom;}
 792              		.loc 1 175 0
 793 0008 3C46     		mov	r4, r7
 794 000a 01E0     		b	.L78
 795              	.LVL81:
 796              	.L83:
 172:TinyBasic.c   ****   int ix, valu = 1, prior = 1;
 797              		.loc 1 172 0
 798 000c 0124     		movs	r4, #1
 173:TinyBasic.c   ****     whom = (whom>>1)&31;             /* whom is a specified var, or 0 */
 799              		.loc 1 173 0
 800 000e 1A27     		movs	r7, #26
 801              	.LVL82:
 802              	.L78:
 176:TinyBasic.c   ****   OutLn(); OutStr("  [Vars");
 803              		.loc 1 176 0
 804 0010 FFF7FEFF 		bl	OutLn
 805              	.LVL83:
 806 0014 1148     		ldr	r0, .L85
 807 0016 FFF7FEFF 		bl	OutStr
 808              	.LVL84:
 172:TinyBasic.c   ****   if (whom==0) whom = 26; else {
 809              		.loc 1 172 0
 810 001a 0126     		movs	r6, #1
 177:TinyBasic.c   ****   for (ix=valu; ix<=whom; ix++) {  /* all non-zero vars, or else whom */
 811              		.loc 1 177 0
 812 001c 17E0     		b	.L79
 813              	.LVL85:
 814              	.L82:
 178:TinyBasic.c   ****     valu = (int)((short)Peek2(ix*2+ExpnStk));
 815              		.loc 1 178 0
 816 001e 04F14000 		add	r0, r4, #64
 817 0022 4000     		lsls	r0, r0, #1
 818 0024 FFF7FEFF 		bl	Peek2
 819              	.LVL86:
 820 0028 05B2     		sxth	r5, r0
 821              	.LVL87:
 179:TinyBasic.c   ****     if (valu==0) if (prior==0) continue;          /* omit multiple 0s */
 822              		.loc 1 179 0
 823 002a 05B9     		cbnz	r5, .L80
 824              		.loc 1 179 0 is_stmt 0 discriminator 1
 825 002c 76B1     		cbz	r6, .L81
 826              	.L80:
 827              	.LVL88:
 180:TinyBasic.c   ****     prior = valu;
 181:TinyBasic.c   ****     OutStr(" ");
 828              		.loc 1 181 0 is_stmt 1
 829 002e 0C48     		ldr	r0, .L85+4
 830 0030 FFF7FEFF 		bl	OutStr
 831              	.LVL89:
 182:TinyBasic.c   ****     Ouch((char)(ix+64));                             /* show var name */
 832              		.loc 1 182 0
 833 0034 04F14000 		add	r0, r4, #64
ARM GAS  C:\Users\doug_000\AppData\Local\Temp\ccbaKQF3.s 			page 19


 834 0038 C0B2     		uxtb	r0, r0
 835 003a FFF7FEFF 		bl	Ouch
 836              	.LVL90:
 183:TinyBasic.c   ****     OutStr("=");
 837              		.loc 1 183 0
 838 003e 0948     		ldr	r0, .L85+8
 839 0040 FFF7FEFF 		bl	OutStr
 840              	.LVL91:
 184:TinyBasic.c   ****     OutInt(valu);}
 841              		.loc 1 184 0
 842 0044 2846     		mov	r0, r5
 843 0046 FFF7FEFF 		bl	OutInt
 844              	.LVL92:
 180:TinyBasic.c   ****     OutStr(" ");
 845              		.loc 1 180 0
 846 004a 2E46     		mov	r6, r5
 847              	.LVL93:
 848              	.L81:
 177:TinyBasic.c   ****     valu = (int)((short)Peek2(ix*2+ExpnStk));
 849              		.loc 1 177 0 discriminator 2
 850 004c 0134     		adds	r4, r4, #1
 851              	.LVL94:
 852              	.L79:
 177:TinyBasic.c   ****     valu = (int)((short)Peek2(ix*2+ExpnStk));
 853              		.loc 1 177 0 is_stmt 0 discriminator 1
 854 004e BC42     		cmp	r4, r7
 855 0050 E5DD     		ble	.L82
 185:TinyBasic.c   ****   OutStr("]");} /* ~ShowVars */
 856              		.loc 1 185 0 is_stmt 1
 857 0052 0548     		ldr	r0, .L85+12
 858 0054 FFF7FEFF 		bl	OutStr
 859              	.LVL95:
 860 0058 F8BD     		pop	{r3, r4, r5, r6, r7, pc}
 861              	.LVL96:
 862              	.L86:
 863 005a 00BF     		.align	2
 864              	.L85:
 865 005c 20000000 		.word	.LC6
 866 0060 0C000000 		.word	.LC2
 867 0064 28000000 		.word	.LC7
 868 0068 10000000 		.word	.LC3
 869              		.cfi_endproc
 870              	.LFE12:
 871              		.size	ShowVars, .-ShowVars
 872              		.section	.text.ShoMemDump,"ax",%progbits
 873              		.align	2
 874              		.global	ShoMemDump
 875              		.thumb
 876              		.thumb_func
 877              		.type	ShoMemDump, %function
 878              	ShoMemDump:
 879              	.LFB13:
 186:TinyBasic.c   **** 
 187:TinyBasic.c   **** void ShoMemDump(int here, int nlocs) {     /* display hex memory dump */
 880              		.loc 1 187 0
 881              		.cfi_startproc
 882              		@ args = 0, pretend = 0, frame = 0
ARM GAS  C:\Users\doug_000\AppData\Local\Temp\ccbaKQF3.s 			page 20


 883              		@ frame_needed = 0, uses_anonymous_args = 0
 884              	.LVL97:
 885 0000 2DE9F041 		push	{r4, r5, r6, r7, r8, lr}
 886              		.cfi_def_cfa_offset 24
 887              		.cfi_offset 4, -24
 888              		.cfi_offset 5, -20
 889              		.cfi_offset 6, -16
 890              		.cfi_offset 7, -12
 891              		.cfi_offset 8, -8
 892              		.cfi_offset 14, -4
 893 0004 0546     		mov	r5, r0
 894 0006 0F46     		mov	r7, r1
 188:TinyBasic.c   ****   int temp, thar = here&-16;
 895              		.loc 1 188 0
 896 0008 20F00F08 		bic	r8, r0, #15
 897              	.LVL98:
 189:TinyBasic.c   ****   while (nlocs>0) {
 898              		.loc 1 189 0
 899 000c 56E0     		b	.L88
 900              	.LVL99:
 901              	.L104:
 190:TinyBasic.c   ****     temp = thar;
 191:TinyBasic.c   ****     OutLn();
 902              		.loc 1 191 0
 903 000e FFF7FEFF 		bl	OutLn
 904              	.LVL100:
 192:TinyBasic.c   ****     OutHex(here,4);
 905              		.loc 1 192 0
 906 0012 2846     		mov	r0, r5
 907 0014 0421     		movs	r1, #4
 908 0016 FFF7FEFF 		bl	OutHex
 909              	.LVL101:
 193:TinyBasic.c   ****     OutStr(": ");
 910              		.loc 1 193 0
 911 001a 2B48     		ldr	r0, .L107
 912 001c FFF7FEFF 		bl	OutStr
 913              	.LVL102:
 194:TinyBasic.c   ****     while (thar<here) {OutStr("   "); thar++;}
 914              		.loc 1 194 0
 915 0020 4446     		mov	r4, r8
 916 0022 03E0     		b	.L89
 917              	.LVL103:
 918              	.L90:
 919              		.loc 1 194 0 is_stmt 0 discriminator 2
 920 0024 2948     		ldr	r0, .L107+4
 921 0026 FFF7FEFF 		bl	OutStr
 922              	.LVL104:
 923 002a 0134     		adds	r4, r4, #1
 924              	.LVL105:
 925              	.L89:
 926              		.loc 1 194 0 discriminator 1
 927 002c AC42     		cmp	r4, r5
 928 002e F9DB     		blt	.L90
 929 0030 00E0     		b	.L93
 930              	.LVL106:
 931              	.L105:
 195:TinyBasic.c   ****     do {
ARM GAS  C:\Users\doug_000\AppData\Local\Temp\ccbaKQF3.s 			page 21


 196:TinyBasic.c   ****       OutStr(" ");
 197:TinyBasic.c   ****       if (nlocs-- >0) OutHex(Core[here],2);
 932              		.loc 1 197 0 is_stmt 1
 933 0032 3746     		mov	r7, r6
 934              	.LVL107:
 935              	.L93:
 196:TinyBasic.c   ****       if (nlocs-- >0) OutHex(Core[here],2);
 936              		.loc 1 196 0
 937 0034 2648     		ldr	r0, .L107+8
 938 0036 FFF7FEFF 		bl	OutStr
 939              	.LVL108:
 940              		.loc 1 197 0
 941 003a 7E1E     		subs	r6, r7, #1
 942              	.LVL109:
 943 003c 002F     		cmp	r7, #0
 944 003e 05DD     		ble	.L91
 945              		.loc 1 197 0 is_stmt 0 discriminator 1
 946 0040 244B     		ldr	r3, .L107+12
 947 0042 585D     		ldrb	r0, [r3, r5]	@ zero_extendqisi2
 948 0044 0221     		movs	r1, #2
 949 0046 FFF7FEFF 		bl	OutHex
 950              	.LVL110:
 951 004a 02E0     		b	.L92
 952              	.L91:
 198:TinyBasic.c   ****         else OutStr("  ");}
 953              		.loc 1 198 0 is_stmt 1
 954 004c 2248     		ldr	r0, .L107+16
 955 004e FFF7FEFF 		bl	OutStr
 956              	.LVL111:
 957              	.L92:
 199:TinyBasic.c   ****       while (++here%16 !=0);
 958              		.loc 1 199 0
 959 0052 0135     		adds	r5, r5, #1
 960              	.LVL112:
 961 0054 15F00F0F 		tst	r5, #15
 962 0058 EBD1     		bne	.L105
 200:TinyBasic.c   ****     OutStr("  ");
 963              		.loc 1 200 0
 964 005a 1F48     		ldr	r0, .L107+16
 965 005c FFF7FEFF 		bl	OutStr
 966              	.LVL113:
 201:TinyBasic.c   ****     while (temp<thar) {OutStr(" "); temp++;}
 967              		.loc 1 201 0
 968 0060 04E0     		b	.L94
 969              	.L95:
 970              		.loc 1 201 0 is_stmt 0 discriminator 2
 971 0062 1B48     		ldr	r0, .L107+8
 972 0064 FFF7FEFF 		bl	OutStr
 973              	.LVL114:
 974 0068 08F10108 		add	r8, r8, #1
 975              	.LVL115:
 976              	.L94:
 977              		.loc 1 201 0 discriminator 1
 978 006c A045     		cmp	r8, r4
 979 006e F8DB     		blt	.L95
 980 0070 20E0     		b	.L96
 981              	.LVL116:
ARM GAS  C:\Users\doug_000\AppData\Local\Temp\ccbaKQF3.s 			page 22


 982              	.L103:
 202:TinyBasic.c   ****     while (thar<here) {
 203:TinyBasic.c   ****       if (nlocs<0) if ((thar&15) >= nlocs+16) break;
 983              		.loc 1 203 0 is_stmt 1
 984 0072 002E     		cmp	r6, #0
 985 0074 05DA     		bge	.L97
 986              		.loc 1 203 0 is_stmt 0 discriminator 1
 987 0076 04F00F03 		and	r3, r4, #15
 988 007a 07F10F02 		add	r2, r7, #15
 989 007e 9342     		cmp	r3, r2
 990 0080 1ADA     		bge	.L98
 991              	.L97:
 204:TinyBasic.c   ****       temp = Core[thar++];
 992              		.loc 1 204 0 is_stmt 1
 993 0082 04F10108 		add	r8, r4, #1
 994              	.LVL117:
 995 0086 134B     		ldr	r3, .L107+12
 996 0088 185D     		ldrb	r0, [r3, r4]	@ zero_extendqisi2
 997              	.LVL118:
 205:TinyBasic.c   ****       if (temp == (int)'\r') Ouch('\\');
 998              		.loc 1 205 0
 999 008a 0D28     		cmp	r0, #13
 1000 008c 03D1     		bne	.L99
 1001              		.loc 1 205 0 is_stmt 0 discriminator 1
 1002 008e 5C20     		movs	r0, #92
 1003              	.LVL119:
 1004 0090 FFF7FEFF 		bl	Ouch
 1005              	.LVL120:
 1006 0094 0DE0     		b	.L100
 1007              	.LVL121:
 1008              	.L99:
 206:TinyBasic.c   ****       else if (temp<32) Ouch('`');
 1009              		.loc 1 206 0 is_stmt 1
 1010 0096 1F28     		cmp	r0, #31
 1011 0098 03DC     		bgt	.L101
 1012              		.loc 1 206 0 is_stmt 0 discriminator 1
 1013 009a 6020     		movs	r0, #96
 1014              	.LVL122:
 1015 009c FFF7FEFF 		bl	Ouch
 1016              	.LVL123:
 1017 00a0 07E0     		b	.L100
 1018              	.LVL124:
 1019              	.L101:
 207:TinyBasic.c   ****       else if (temp>126) Ouch('~');
 1020              		.loc 1 207 0 is_stmt 1
 1021 00a2 7E28     		cmp	r0, #126
 1022 00a4 03DD     		ble	.L102
 1023              		.loc 1 207 0 is_stmt 0 discriminator 1
 1024 00a6 7E20     		movs	r0, #126
 1025              	.LVL125:
 1026 00a8 FFF7FEFF 		bl	Ouch
 1027              	.LVL126:
 1028 00ac 01E0     		b	.L100
 1029              	.LVL127:
 1030              	.L102:
 208:TinyBasic.c   ****         else Ouch((char)temp);}}
 1031              		.loc 1 208 0 is_stmt 1
ARM GAS  C:\Users\doug_000\AppData\Local\Temp\ccbaKQF3.s 			page 23


 1032 00ae FFF7FEFF 		bl	Ouch
 1033              	.LVL128:
 1034              	.L100:
 197:TinyBasic.c   ****         else OutStr("  ");}
 1035              		.loc 1 197 0
 1036 00b2 4446     		mov	r4, r8
 1037              	.LVL129:
 1038              	.L96:
 202:TinyBasic.c   ****       if (nlocs<0) if ((thar&15) >= nlocs+16) break;
 1039              		.loc 1 202 0
 1040 00b4 AC42     		cmp	r4, r5
 1041 00b6 DCDB     		blt	.L103
 1042              	.L98:
 197:TinyBasic.c   ****         else OutStr("  ");}
 1043              		.loc 1 197 0
 1044 00b8 A046     		mov	r8, r4
 1045 00ba 3746     		mov	r7, r6
 1046              	.LVL130:
 1047              	.L88:
 189:TinyBasic.c   ****     temp = thar;
 1048              		.loc 1 189 0
 1049 00bc 002F     		cmp	r7, #0
 1050 00be A6DC     		bgt	.L104
 209:TinyBasic.c   ****   OutLn();} /* ~ShoMemDump */
 1051              		.loc 1 209 0
 1052 00c0 FFF7FEFF 		bl	OutLn
 1053              	.LVL131:
 1054 00c4 BDE8F081 		pop	{r4, r5, r6, r7, r8, pc}
 1055              	.LVL132:
 1056              	.L108:
 1057              		.align	2
 1058              	.L107:
 1059 00c8 2C000000 		.word	.LC8
 1060 00cc 30000000 		.word	.LC9
 1061 00d0 0C000000 		.word	.LC2
 1062 00d4 00000000 		.word	Core
 1063 00d8 34000000 		.word	.LC10
 1064              		.cfi_endproc
 1065              	.LFE13:
 1066              		.size	ShoMemDump, .-ShoMemDump
 1067              		.section	.text.ShoLogVal,"ax",%progbits
 1068              		.align	2
 1069              		.global	ShoLogVal
 1070              		.thumb
 1071              		.thumb_func
 1072              		.type	ShoLogVal, %function
 1073              	ShoLogVal:
 1074              	.LFB14:
 210:TinyBasic.c   **** 
 211:TinyBasic.c   **** void ShoLogVal(int item) {   /* format & output one activity log item */
 1075              		.loc 1 211 0
 1076              		.cfi_startproc
 1077              		@ args = 0, pretend = 0, frame = 0
 1078              		@ frame_needed = 0, uses_anonymous_args = 0
 1079              	.LVL133:
 1080 0000 10B5     		push	{r4, lr}
 1081              		.cfi_def_cfa_offset 8
ARM GAS  C:\Users\doug_000\AppData\Local\Temp\ccbaKQF3.s 			page 24


 1082              		.cfi_offset 4, -8
 1083              		.cfi_offset 14, -4
 212:TinyBasic.c   ****   int valu = DebugLog[item];
 1084              		.loc 1 212 0
 1085 0002 254B     		ldr	r3, .L116
 1086 0004 53F82040 		ldr	r4, [r3, r0, lsl #2]
 1087              	.LVL134:
 213:TinyBasic.c   ****   OutLn();
 1088              		.loc 1 213 0
 1089 0008 FFF7FEFF 		bl	OutLn
 1090              	.LVL135:
 214:TinyBasic.c   ****   if (valu < -65536) {                         /* store to a variable */
 1091              		.loc 1 214 0
 1092 000c 14F5803F 		cmn	r4, #65536
 1093 0010 0FDA     		bge	.L110
 215:TinyBasic.c   ****     Ouch((char)(((valu>>17)&31)+64));
 1094              		.loc 1 215 0
 1095 0012 C4F34440 		ubfx	r0, r4, #17, #5
 1096 0016 4030     		adds	r0, r0, #64
 1097 0018 FFF7FEFF 		bl	Ouch
 1098              	.LVL136:
 216:TinyBasic.c   ****     OutStr("=");
 1099              		.loc 1 216 0
 1100 001c 1F48     		ldr	r0, .L116+4
 1101 001e FFF7FEFF 		bl	OutStr
 1102              	.LVL137:
 217:TinyBasic.c   ****     OutInt((valu&0x7FFF)-(valu&0x8000));}
 1103              		.loc 1 217 0
 1104 0022 C4F30E00 		ubfx	r0, r4, #0, #15
 1105 0026 04F40044 		and	r4, r4, #32768
 1106              	.LVL138:
 1107 002a 001B     		subs	r0, r0, r4
 1108 002c FFF7FEFF 		bl	OutInt
 1109              	.LVL139:
 1110 0030 10BD     		pop	{r4, pc}
 1111              	.LVL140:
 1112              	.L110:
 218:TinyBasic.c   ****   else if (valu < -32768) {                                /* error # */
 1113              		.loc 1 218 0
 1114 0032 14F5004F 		cmn	r4, #32768
 1115 0036 07DA     		bge	.L112
 219:TinyBasic.c   ****     OutStr("Err ");
 1116              		.loc 1 219 0
 1117 0038 1948     		ldr	r0, .L116+8
 1118 003a FFF7FEFF 		bl	OutStr
 1119              	.LVL141:
 220:TinyBasic.c   ****     OutInt(-valu-32768);}
 1120              		.loc 1 220 0
 1121 003e 1948     		ldr	r0, .L116+12
 1122 0040 001B     		subs	r0, r0, r4
 1123 0042 FFF7FEFF 		bl	OutInt
 1124              	.LVL142:
 1125 0046 10BD     		pop	{r4, pc}
 1126              	.LVL143:
 1127              	.L112:
 221:TinyBasic.c   ****   else if (valu<0) {                 /* only logs IL sequence changes */
 1128              		.loc 1 221 0
ARM GAS  C:\Users\doug_000\AppData\Local\Temp\ccbaKQF3.s 			page 25


 1129 0048 002C     		cmp	r4, #0
 1130 004a 0CDA     		bge	.L113
 222:TinyBasic.c   ****     OutStr("  IL+");
 1131              		.loc 1 222 0
 1132 004c 1648     		ldr	r0, .L116+16
 1133 004e FFF7FEFF 		bl	OutStr
 1134              	.LVL144:
 223:TinyBasic.c   ****     OutHex(-Peek2(ILfront)-valu,3);}
 1135              		.loc 1 223 0
 1136 0052 4FF48F70 		mov	r0, #286
 1137 0056 FFF7FEFF 		bl	Peek2
 1138              	.LVL145:
 1139 005a 4042     		negs	r0, r0
 1140 005c 001B     		subs	r0, r0, r4
 1141 005e 0321     		movs	r1, #3
 1142 0060 FFF7FEFF 		bl	OutHex
 1143              	.LVL146:
 1144 0064 10BD     		pop	{r4, pc}
 1145              	.LVL147:
 1146              	.L113:
 224:TinyBasic.c   ****   else if (valu<65536) {                          /* TinyBasic line # */
 1147              		.loc 1 224 0
 1148 0066 B4F5803F 		cmp	r4, #65536
 1149 006a 06DA     		bge	.L114
 225:TinyBasic.c   ****     OutStr("#");
 1150              		.loc 1 225 0
 1151 006c 0F48     		ldr	r0, .L116+20
 1152 006e FFF7FEFF 		bl	OutStr
 1153              	.LVL148:
 226:TinyBasic.c   ****     OutInt(valu);}
 1154              		.loc 1 226 0
 1155 0072 2046     		mov	r0, r4
 1156 0074 FFF7FEFF 		bl	OutInt
 1157              	.LVL149:
 1158 0078 10BD     		pop	{r4, pc}
 1159              	.LVL150:
 1160              	.L114:
 227:TinyBasic.c   ****   else {                                          /* poke memory byte */
 228:TinyBasic.c   ****     OutStr("!");
 1161              		.loc 1 228 0
 1162 007a 0D48     		ldr	r0, .L116+24
 1163 007c FFF7FEFF 		bl	OutStr
 1164              	.LVL151:
 229:TinyBasic.c   ****     OutHex(valu,4);
 1165              		.loc 1 229 0
 1166 0080 2046     		mov	r0, r4
 1167 0082 0421     		movs	r1, #4
 1168 0084 FFF7FEFF 		bl	OutHex
 1169              	.LVL152:
 230:TinyBasic.c   ****     OutStr("=");
 1170              		.loc 1 230 0
 1171 0088 0448     		ldr	r0, .L116+4
 1172 008a FFF7FEFF 		bl	OutStr
 1173              	.LVL153:
 231:TinyBasic.c   ****     OutInt(valu>>16);}} /* ~ShoLogVal */
 1174              		.loc 1 231 0
 1175 008e 2014     		asrs	r0, r4, #16
ARM GAS  C:\Users\doug_000\AppData\Local\Temp\ccbaKQF3.s 			page 26


 1176 0090 FFF7FEFF 		bl	OutInt
 1177              	.LVL154:
 1178 0094 10BD     		pop	{r4, pc}
 1179              	.LVL155:
 1180              	.L117:
 1181 0096 00BF     		.align	2
 1182              	.L116:
 1183 0098 00000000 		.word	DebugLog
 1184 009c 28000000 		.word	.LC7
 1185 00a0 38000000 		.word	.LC11
 1186 00a4 0080FFFF 		.word	-32768
 1187 00a8 40000000 		.word	.LC12
 1188 00ac 48000000 		.word	.LC13
 1189 00b0 4C000000 		.word	.LC14
 1190              		.cfi_endproc
 1191              	.LFE14:
 1192              		.size	ShoLogVal, .-ShoLogVal
 1193              		.section	.text.ShowLog,"ax",%progbits
 1194              		.align	2
 1195              		.global	ShowLog
 1196              		.thumb
 1197              		.thumb_func
 1198              		.type	ShowLog, %function
 1199              	ShowLog:
 1200              	.LFB15:
 232:TinyBasic.c   **** 
 233:TinyBasic.c   **** void ShowLog(void) {            /* display activity log for debugging */
 1201              		.loc 1 233 0
 1202              		.cfi_startproc
 1203              		@ args = 0, pretend = 0, frame = 0
 1204              		@ frame_needed = 0, uses_anonymous_args = 0
 1205 0000 10B5     		push	{r4, lr}
 1206              		.cfi_def_cfa_offset 8
 1207              		.cfi_offset 4, -8
 1208              		.cfi_offset 14, -4
 234:TinyBasic.c   ****   int ix;
 235:TinyBasic.c   ****   OutLn();
 1209              		.loc 1 235 0
 1210 0002 FFF7FEFF 		bl	OutLn
 1211              	.LVL156:
 236:TinyBasic.c   ****   OutStr("*** Activity Log @ ");
 1212              		.loc 1 236 0
 1213 0006 1648     		ldr	r0, .L125
 1214 0008 FFF7FEFF 		bl	OutStr
 1215              	.LVL157:
 237:TinyBasic.c   ****   OutInt(LogHere);
 1216              		.loc 1 237 0
 1217 000c 154C     		ldr	r4, .L125+4
 1218 000e E068     		ldr	r0, [r4, #12]
 1219 0010 FFF7FEFF 		bl	OutInt
 1220              	.LVL158:
 238:TinyBasic.c   ****   OutStr(" ***");
 1221              		.loc 1 238 0
 1222 0014 1448     		ldr	r0, .L125+8
 1223 0016 FFF7FEFF 		bl	OutStr
 1224              	.LVL159:
 239:TinyBasic.c   ****   if (LogHere >= LOGSIZE)   /* circular, show only last 4K activities */
ARM GAS  C:\Users\doug_000\AppData\Local\Temp\ccbaKQF3.s 			page 27


 1225              		.loc 1 239 0
 1226 001a E468     		ldr	r4, [r4, #12]
 1227 001c B4F5805F 		cmp	r4, #4096
 1228 0020 09DB     		blt	.L119
 240:TinyBasic.c   ****     for (ix=(LogHere&(LOGSIZE-1)); ix<LOGSIZE; ix++) ShoLogVal(ix);
 1229              		.loc 1 240 0
 1230 0022 C4F30B04 		ubfx	r4, r4, #0, #12
 1231              	.LVL160:
 1232 0026 03E0     		b	.L120
 1233              	.L121:
 1234              		.loc 1 240 0 is_stmt 0 discriminator 3
 1235 0028 2046     		mov	r0, r4
 1236 002a FFF7FEFF 		bl	ShoLogVal
 1237              	.LVL161:
 1238 002e 0134     		adds	r4, r4, #1
 1239              	.LVL162:
 1240              	.L120:
 1241              		.loc 1 240 0 discriminator 1
 1242 0030 B4F5805F 		cmp	r4, #4096
 1243 0034 F8DB     		blt	.L121
 1244              	.LVL163:
 1245              	.L119:
 233:TinyBasic.c   ****   int ix;
 1246              		.loc 1 233 0 is_stmt 1 discriminator 1
 1247 0036 0024     		movs	r4, #0
 1248 0038 03E0     		b	.L122
 1249              	.LVL164:
 1250              	.L123:
 241:TinyBasic.c   ****   for (ix=0; ix<(LogHere&(LOGSIZE-1)); ix++) ShoLogVal(ix);
 1251              		.loc 1 241 0 discriminator 3
 1252 003a 2046     		mov	r0, r4
 1253 003c FFF7FEFF 		bl	ShoLogVal
 1254              	.LVL165:
 1255 0040 0134     		adds	r4, r4, #1
 1256              	.LVL166:
 1257              	.L122:
 1258              		.loc 1 241 0 is_stmt 0 discriminator 1
 1259 0042 084B     		ldr	r3, .L125+4
 1260 0044 DB68     		ldr	r3, [r3, #12]
 1261 0046 C3F30B03 		ubfx	r3, r3, #0, #12
 1262 004a A342     		cmp	r3, r4
 1263 004c F5DC     		bgt	.L123
 242:TinyBasic.c   ****   OutLn();
 1264              		.loc 1 242 0 is_stmt 1
 1265 004e FFF7FEFF 		bl	OutLn
 1266              	.LVL167:
 243:TinyBasic.c   ****   OutStr("*****");
 1267              		.loc 1 243 0
 1268 0052 0648     		ldr	r0, .L125+12
 1269 0054 FFF7FEFF 		bl	OutStr
 1270              	.LVL168:
 244:TinyBasic.c   ****   OutLn();} /* ~ShowLog */
 1271              		.loc 1 244 0
 1272 0058 FFF7FEFF 		bl	OutLn
 1273              	.LVL169:
 1274 005c 10BD     		pop	{r4, pc}
 1275              	.LVL170:
ARM GAS  C:\Users\doug_000\AppData\Local\Temp\ccbaKQF3.s 			page 28


 1276              	.L126:
 1277 005e 00BF     		.align	2
 1278              	.L125:
 1279 0060 50000000 		.word	.LC15
 1280 0064 00000000 		.word	.LANCHOR0
 1281 0068 64000000 		.word	.LC16
 1282 006c 6C000000 		.word	.LC17
 1283              		.cfi_endproc
 1284              	.LFE15:
 1285              		.size	ShowLog, .-ShowLog
 1286              		.section	.text.LogIt,"ax",%progbits
 1287              		.align	2
 1288              		.global	LogIt
 1289              		.thumb
 1290              		.thumb_func
 1291              		.type	LogIt, %function
 1292              	LogIt:
 1293              	.LFB16:
 245:TinyBasic.c   **** 
 246:TinyBasic.c   **** void LogIt(int valu) {          /* insert this valu into activity log */
 1294              		.loc 1 246 0
 1295              		.cfi_startproc
 1296              		@ args = 0, pretend = 0, frame = 0
 1297              		@ frame_needed = 0, uses_anonymous_args = 0
 1298              		@ link register save eliminated.
 1299              	.LVL171:
 247:TinyBasic.c   ****   DebugLog[(LogHere++)&(LOGSIZE-1)] = valu;}
 1300              		.loc 1 247 0
 1301 0000 044A     		ldr	r2, .L128
 1302 0002 D368     		ldr	r3, [r2, #12]
 1303 0004 591C     		adds	r1, r3, #1
 1304 0006 D160     		str	r1, [r2, #12]
 1305 0008 C3F30B03 		ubfx	r3, r3, #0, #12
 1306 000c 024A     		ldr	r2, .L128+4
 1307 000e 42F82300 		str	r0, [r2, r3, lsl #2]
 1308 0012 7047     		bx	lr
 1309              	.L129:
 1310              		.align	2
 1311              	.L128:
 1312 0014 00000000 		.word	.LANCHOR0
 1313 0018 00000000 		.word	DebugLog
 1314              		.cfi_endproc
 1315              	.LFE16:
 1316              		.size	LogIt, .-LogIt
 1317              		.section	.text.WarmStart,"ax",%progbits
 1318              		.align	2
 1319              		.global	WarmStart
 1320              		.thumb
 1321              		.thumb_func
 1322              		.type	WarmStart, %function
 1323              	WarmStart:
 1324              	.LFB17:
 248:TinyBasic.c   **** 
 249:TinyBasic.c   **** /************************ Utility functions... ************************/
 250:TinyBasic.c   **** 
 251:TinyBasic.c   **** void WarmStart(void) {                 /* initialize existing program */
 1325              		.loc 1 251 0
ARM GAS  C:\Users\doug_000\AppData\Local\Temp\ccbaKQF3.s 			page 29


 1326              		.cfi_startproc
 1327              		@ args = 0, pretend = 0, frame = 0
 1328              		@ frame_needed = 0, uses_anonymous_args = 0
 1329 0000 08B5     		push	{r3, lr}
 1330              		.cfi_def_cfa_offset 8
 1331              		.cfi_offset 3, -8
 1332              		.cfi_offset 14, -4
 252:TinyBasic.c   ****   UserEnd = Peek2(EndUser);
 1333              		.loc 1 252 0
 1334 0002 2220     		movs	r0, #34
 1335 0004 FFF7FEFF 		bl	Peek2
 1336              	.LVL172:
 1337 0008 0146     		mov	r1, r0
 1338 000a 0E4B     		ldr	r3, .L132
 1339 000c 1860     		str	r0, [r3]
 253:TinyBasic.c   ****   SubStk = UserEnd;            /* empty subroutine, expression stacks */
 1340              		.loc 1 253 0
 1341 000e 0E4B     		ldr	r3, .L132+4
 1342 0010 1860     		str	r0, [r3]
 254:TinyBasic.c   ****   Poke2(GoStkTop,SubStk);
 1343              		.loc 1 254 0
 1344 0012 2620     		movs	r0, #38
 1345 0014 FFF7FEFF 		bl	Poke2
 1346              	.LVL173:
 255:TinyBasic.c   ****   ExpnTop = ExpnStk;
 1347              		.loc 1 255 0
 1348 0018 8022     		movs	r2, #128
 1349 001a 0C4B     		ldr	r3, .L132+8
 1350 001c 1A60     		str	r2, [r3]
 256:TinyBasic.c   ****   Lino = 0;                                        /* not in any line */
 1351              		.loc 1 256 0
 1352 001e 0023     		movs	r3, #0
 1353 0020 0B4A     		ldr	r2, .L132+12
 1354 0022 1360     		str	r3, [r2]
 257:TinyBasic.c   ****   ILPC = 0;                                      /* start IL at front */
 1355              		.loc 1 257 0
 1356 0024 0B4A     		ldr	r2, .L132+16
 1357 0026 1360     		str	r3, [r2]
 258:TinyBasic.c   ****   SvPt = InLine;
 1358              		.loc 1 258 0
 1359 0028 3022     		movs	r2, #48
 1360 002a 0B49     		ldr	r1, .L132+20
 1361 002c 0A60     		str	r2, [r1]
 259:TinyBasic.c   ****   BP = InLine;
 1362              		.loc 1 259 0
 1363 002e 0B49     		ldr	r1, .L132+24
 1364 0030 0A60     		str	r2, [r1]
 260:TinyBasic.c   ****   Core[BP] = 0;
 1365              		.loc 1 260 0
 1366 0032 0B49     		ldr	r1, .L132+28
 1367 0034 81F83030 		strb	r3, [r1, #48]
 261:TinyBasic.c   ****   Core[TabHere] = 0;
 1368              		.loc 1 261 0
 1369 0038 81F8BF30 		strb	r3, [r1, #191]
 262:TinyBasic.c   ****   InLend = InLine;} /* ~WarmStart */
 1370              		.loc 1 262 0
 1371 003c 094B     		ldr	r3, .L132+32
ARM GAS  C:\Users\doug_000\AppData\Local\Temp\ccbaKQF3.s 			page 30


 1372 003e 1A60     		str	r2, [r3]
 1373 0040 08BD     		pop	{r3, pc}
 1374              	.L133:
 1375 0042 00BF     		.align	2
 1376              	.L132:
 1377 0044 00000000 		.word	UserEnd
 1378 0048 00000000 		.word	SubStk
 1379 004c 00000000 		.word	ExpnTop
 1380 0050 00000000 		.word	Lino
 1381 0054 00000000 		.word	ILPC
 1382 0058 00000000 		.word	SvPt
 1383 005c 00000000 		.word	BP
 1384 0060 00000000 		.word	Core
 1385 0064 00000000 		.word	InLend
 1386              		.cfi_endproc
 1387              	.LFE17:
 1388              		.size	WarmStart, .-WarmStart
 1389              		.section	.text.ColdStart,"ax",%progbits
 1390              		.align	2
 1391              		.global	ColdStart
 1392              		.thumb
 1393              		.thumb_func
 1394              		.type	ColdStart, %function
 1395              	ColdStart:
 1396              	.LFB18:
 263:TinyBasic.c   **** 
 264:TinyBasic.c   **** void ColdStart(void) {                 /* initialize program to empty */
 1397              		.loc 1 264 0
 1398              		.cfi_startproc
 1399              		@ args = 0, pretend = 0, frame = 0
 1400              		@ frame_needed = 0, uses_anonymous_args = 0
 1401 0000 10B5     		push	{r4, lr}
 1402              		.cfi_def_cfa_offset 8
 1403              		.cfi_offset 4, -8
 1404              		.cfi_offset 14, -4
 265:TinyBasic.c   ****   if (Peek2(ILfront) != ILfront+2) ILend = Peek2(ILfront)+0x800;
 1405              		.loc 1 265 0
 1406 0002 4FF48F70 		mov	r0, #286
 1407 0006 FFF7FEFF 		bl	Peek2
 1408              	.LVL174:
 1409 000a B0F5907F 		cmp	r0, #288
 1410 000e 03D0     		beq	.L135
 1411              		.loc 1 265 0 is_stmt 0 discriminator 1
 1412 0010 00F50060 		add	r0, r0, #2048
 1413 0014 104B     		ldr	r3, .L137
 1414 0016 1860     		str	r0, [r3]
 1415              	.L135:
 266:TinyBasic.c   ****   Poke2(UserProg,(ILend+255)&-256);   /* start Basic shortly after IL */
 1416              		.loc 1 266 0 is_stmt 1
 1417 0018 0F4B     		ldr	r3, .L137
 1418 001a 1968     		ldr	r1, [r3]
 1419 001c FF31     		adds	r1, r1, #255
 1420 001e 2020     		movs	r0, #32
 1421 0020 21F0FF01 		bic	r1, r1, #255
 1422 0024 FFF7FEFF 		bl	Poke2
 1423              	.LVL175:
 267:TinyBasic.c   ****   if (CoreTop>65535) {
ARM GAS  C:\Users\doug_000\AppData\Local\Temp\ccbaKQF3.s 			page 31


 268:TinyBasic.c   ****     Poke2(EndUser,65534);
 269:TinyBasic.c   ****     Poke2(65534,0xDEAD);}
 270:TinyBasic.c   ****   else Poke2(EndUser,CoreTop);
 1424              		.loc 1 270 0
 1425 0028 2220     		movs	r0, #34
 1426 002a 4FF48041 		mov	r1, #16384
 1427 002e FFF7FEFF 		bl	Poke2
 1428              	.LVL176:
 271:TinyBasic.c   ****   WarmStart();
 1429              		.loc 1 271 0
 1430 0032 FFF7FEFF 		bl	WarmStart
 1431              	.LVL177:
 272:TinyBasic.c   ****   SrcEnd = Peek2(UserProg);
 1432              		.loc 1 272 0
 1433 0036 2020     		movs	r0, #32
 1434 0038 FFF7FEFF 		bl	Peek2
 1435              	.LVL178:
 1436 003c 074C     		ldr	r4, .L137+4
 273:TinyBasic.c   ****   Poke2(SrcEnd++,0);
 1437              		.loc 1 273 0
 1438 003e 431C     		adds	r3, r0, #1
 1439 0040 2360     		str	r3, [r4]
 1440 0042 0021     		movs	r1, #0
 1441 0044 FFF7FEFF 		bl	Poke2
 1442              	.LVL179:
 274:TinyBasic.c   ****   Poke2(EndProg,++SrcEnd);} /* ~ColdStart */
 1443              		.loc 1 274 0
 1444 0048 2168     		ldr	r1, [r4]
 1445 004a 0131     		adds	r1, r1, #1
 1446 004c 2160     		str	r1, [r4]
 1447 004e 2420     		movs	r0, #36
 1448 0050 FFF7FEFF 		bl	Poke2
 1449              	.LVL180:
 1450 0054 10BD     		pop	{r4, pc}
 1451              	.L138:
 1452 0056 00BF     		.align	2
 1453              	.L137:
 1454 0058 00000000 		.word	ILend
 1455 005c 00000000 		.word	SrcEnd
 1456              		.cfi_endproc
 1457              	.LFE18:
 1458              		.size	ColdStart, .-ColdStart
 1459              		.section	.text.TBerror,"ax",%progbits
 1460              		.align	2
 1461              		.global	TBerror
 1462              		.thumb
 1463              		.thumb_func
 1464              		.type	TBerror, %function
 1465              	TBerror:
 1466              	.LFB19:
 275:TinyBasic.c   **** 
 276:TinyBasic.c   **** void TBerror(void) {                      /* report interpreter error */
 1467              		.loc 1 276 0
 1468              		.cfi_startproc
 1469              		@ args = 0, pretend = 0, frame = 0
 1470              		@ frame_needed = 0, uses_anonymous_args = 0
 277:TinyBasic.c   ****   if (ILPC == 0) return;                       /* already reported it */
ARM GAS  C:\Users\doug_000\AppData\Local\Temp\ccbaKQF3.s 			page 32


 1471              		.loc 1 277 0
 1472 0000 304B     		ldr	r3, .L145
 1473 0002 1B68     		ldr	r3, [r3]
 1474 0004 002B     		cmp	r3, #0
 1475 0006 5CD0     		beq	.L144
 276:TinyBasic.c   ****   if (ILPC == 0) return;                       /* already reported it */
 1476              		.loc 1 276 0
 1477 0008 10B5     		push	{r4, lr}
 1478              		.cfi_def_cfa_offset 8
 1479              		.cfi_offset 4, -8
 1480              		.cfi_offset 14, -4
 278:TinyBasic.c   ****   OutLn();
 1481              		.loc 1 278 0
 1482 000a FFF7FEFF 		bl	OutLn
 1483              	.LVL181:
 279:TinyBasic.c   ****   LogIt(-ILPC-32768);
 1484              		.loc 1 279 0
 1485 000e 2D4C     		ldr	r4, .L145
 1486 0010 2368     		ldr	r3, [r4]
 1487 0012 2D48     		ldr	r0, .L145+4
 1488 0014 C01A     		subs	r0, r0, r3
 1489 0016 FFF7FEFF 		bl	LogIt
 1490              	.LVL182:
 280:TinyBasic.c   ****   OutStr("Tiny Basic error #");          /* IL address is the error # */
 1491              		.loc 1 280 0
 1492 001a 2C48     		ldr	r0, .L145+8
 1493 001c FFF7FEFF 		bl	OutStr
 1494              	.LVL183:
 281:TinyBasic.c   ****   OutInt(ILPC-Peek2(ILfront));
 1495              		.loc 1 281 0
 1496 0020 2468     		ldr	r4, [r4]
 1497 0022 4FF48F70 		mov	r0, #286
 1498 0026 FFF7FEFF 		bl	Peek2
 1499              	.LVL184:
 1500 002a 201A     		subs	r0, r4, r0
 1501 002c FFF7FEFF 		bl	OutInt
 1502              	.LVL185:
 282:TinyBasic.c   ****   if (Lino>0) {                          /* Lino=0 if in command line */
 1503              		.loc 1 282 0
 1504 0030 274B     		ldr	r3, .L145+12
 1505 0032 1B68     		ldr	r3, [r3]
 1506 0034 002B     		cmp	r3, #0
 1507 0036 06DD     		ble	.L141
 283:TinyBasic.c   ****     OutStr(" at line ");
 1508              		.loc 1 283 0
 1509 0038 2648     		ldr	r0, .L145+16
 1510 003a FFF7FEFF 		bl	OutStr
 1511              	.LVL186:
 284:TinyBasic.c   ****     OutInt(Lino);}
 1512              		.loc 1 284 0
 1513 003e 244B     		ldr	r3, .L145+12
 1514 0040 1868     		ldr	r0, [r3]
 1515 0042 FFF7FEFF 		bl	OutInt
 1516              	.LVL187:
 1517              	.L141:
 285:TinyBasic.c   ****   OutLn();
 1518              		.loc 1 285 0
ARM GAS  C:\Users\doug_000\AppData\Local\Temp\ccbaKQF3.s 			page 33


 1519 0046 FFF7FEFF 		bl	OutLn
 1520              	.LVL188:
 286:TinyBasic.c   ****   if (Debugging>0) {                /* some extra info if debugging.. */
 1521              		.loc 1 286 0
 1522 004a 234B     		ldr	r3, .L145+20
 1523 004c 1B69     		ldr	r3, [r3, #16]
 1524 004e 002B     		cmp	r3, #0
 1525 0050 2BDD     		ble	.L142
 287:TinyBasic.c   ****     ShowSubs();
 1526              		.loc 1 287 0
 1527 0052 FFF7FEFF 		bl	ShowSubs
 1528              	.LVL189:
 288:TinyBasic.c   ****     ShowExSt();
 1529              		.loc 1 288 0
 1530 0056 FFF7FEFF 		bl	ShowExSt
 1531              	.LVL190:
 289:TinyBasic.c   ****     ShowVars(0);
 1532              		.loc 1 289 0
 1533 005a 0020     		movs	r0, #0
 1534 005c FFF7FEFF 		bl	ShowVars
 1535              	.LVL191:
 290:TinyBasic.c   ****     OutStr(" [BP=");
 1536              		.loc 1 290 0
 1537 0060 1E48     		ldr	r0, .L145+24
 1538 0062 FFF7FEFF 		bl	OutStr
 1539              	.LVL192:
 291:TinyBasic.c   ****     OutHex(BP,4);
 1540              		.loc 1 291 0
 1541 0066 1E4C     		ldr	r4, .L145+28
 1542 0068 2068     		ldr	r0, [r4]
 1543 006a 0421     		movs	r1, #4
 1544 006c FFF7FEFF 		bl	OutHex
 1545              	.LVL193:
 292:TinyBasic.c   ****     OutStr(", TB@");
 1546              		.loc 1 292 0
 1547 0070 1C48     		ldr	r0, .L145+32
 1548 0072 FFF7FEFF 		bl	OutStr
 1549              	.LVL194:
 293:TinyBasic.c   ****     OutHex(Peek2(UserProg),4);
 1550              		.loc 1 293 0
 1551 0076 2020     		movs	r0, #32
 1552 0078 FFF7FEFF 		bl	Peek2
 1553              	.LVL195:
 1554 007c 0421     		movs	r1, #4
 1555 007e FFF7FEFF 		bl	OutHex
 1556              	.LVL196:
 294:TinyBasic.c   ****     OutStr(", IL@");
 1557              		.loc 1 294 0
 1558 0082 1948     		ldr	r0, .L145+36
 1559 0084 FFF7FEFF 		bl	OutStr
 1560              	.LVL197:
 295:TinyBasic.c   ****     OutHex(Peek2(ILfront),4);
 1561              		.loc 1 295 0
 1562 0088 4FF48F70 		mov	r0, #286
 1563 008c FFF7FEFF 		bl	Peek2
 1564              	.LVL198:
 1565 0090 0421     		movs	r1, #4
ARM GAS  C:\Users\doug_000\AppData\Local\Temp\ccbaKQF3.s 			page 34


 1566 0092 FFF7FEFF 		bl	OutHex
 1567              	.LVL199:
 296:TinyBasic.c   ****     OutStr("]");
 1568              		.loc 1 296 0
 1569 0096 1548     		ldr	r0, .L145+40
 1570 0098 FFF7FEFF 		bl	OutStr
 1571              	.LVL200:
 297:TinyBasic.c   ****     ShoMemDump((BP-30)&-16,64);}
 1572              		.loc 1 297 0
 1573 009c 2068     		ldr	r0, [r4]
 1574 009e 1E38     		subs	r0, r0, #30
 1575 00a0 20F00F00 		bic	r0, r0, #15
 1576 00a4 4021     		movs	r1, #64
 1577 00a6 FFF7FEFF 		bl	ShoMemDump
 1578              	.LVL201:
 1579              	.L142:
 298:TinyBasic.c   ****   Lino = 0;                           /* restart interpreter at front */
 1580              		.loc 1 298 0
 1581 00aa 0023     		movs	r3, #0
 1582 00ac 084A     		ldr	r2, .L145+12
 1583 00ae 1360     		str	r3, [r2]
 299:TinyBasic.c   ****   ExpnTop = ExpnStk;                   /* with empty expression stack */
 1584              		.loc 1 299 0
 1585 00b0 8021     		movs	r1, #128
 1586 00b2 0F4A     		ldr	r2, .L145+44
 1587 00b4 1160     		str	r1, [r2]
 300:TinyBasic.c   ****   ILPC = 0;       /* cheap error test; interp reloads it from ILfront */
 1588              		.loc 1 300 0
 1589 00b6 034A     		ldr	r2, .L145
 1590 00b8 1360     		str	r3, [r2]
 301:TinyBasic.c   ****   BP = InLine;} /* ~TBerror */
 1591              		.loc 1 301 0
 1592 00ba 3022     		movs	r2, #48
 1593 00bc 084B     		ldr	r3, .L145+28
 1594 00be 1A60     		str	r2, [r3]
 1595 00c0 10BD     		pop	{r4, pc}
 1596              	.L144:
 1597              		.cfi_def_cfa_offset 0
 1598              		.cfi_restore 4
 1599              		.cfi_restore 14
 1600 00c2 7047     		bx	lr
 1601              	.L146:
 1602              		.align	2
 1603              	.L145:
 1604 00c4 00000000 		.word	ILPC
 1605 00c8 0080FFFF 		.word	-32768
 1606 00cc 74000000 		.word	.LC18
 1607 00d0 00000000 		.word	Lino
 1608 00d4 88000000 		.word	.LC19
 1609 00d8 00000000 		.word	.LANCHOR0
 1610 00dc 94000000 		.word	.LC20
 1611 00e0 00000000 		.word	BP
 1612 00e4 9C000000 		.word	.LC21
 1613 00e8 A4000000 		.word	.LC22
 1614 00ec 10000000 		.word	.LC3
 1615 00f0 00000000 		.word	ExpnTop
 1616              		.cfi_endproc
ARM GAS  C:\Users\doug_000\AppData\Local\Temp\ccbaKQF3.s 			page 35


 1617              	.LFE19:
 1618              		.size	TBerror, .-TBerror
 1619              		.section	.text.PushSub,"ax",%progbits
 1620              		.align	2
 1621              		.global	PushSub
 1622              		.thumb
 1623              		.thumb_func
 1624              		.type	PushSub, %function
 1625              	PushSub:
 1626              	.LFB20:
 302:TinyBasic.c   **** 
 303:TinyBasic.c   **** void PushSub(int valu) {               /* push value onto Gosub stack */
 1627              		.loc 1 303 0
 1628              		.cfi_startproc
 1629              		@ args = 0, pretend = 0, frame = 0
 1630              		@ frame_needed = 0, uses_anonymous_args = 0
 1631              	.LVL202:
 1632 0000 38B5     		push	{r3, r4, r5, lr}
 1633              		.cfi_def_cfa_offset 16
 1634              		.cfi_offset 3, -16
 1635              		.cfi_offset 4, -12
 1636              		.cfi_offset 5, -8
 1637              		.cfi_offset 14, -4
 304:TinyBasic.c   ****   if (SubStk<=SrcEnd) TBerror(); /* overflow: bumped into program end */
 1638              		.loc 1 304 0
 1639 0002 0D4B     		ldr	r3, .L152
 1640 0004 1968     		ldr	r1, [r3]
 1641 0006 0D4B     		ldr	r3, .L152+4
 1642 0008 1B68     		ldr	r3, [r3]
 1643 000a 9942     		cmp	r1, r3
 1644 000c 02DC     		bgt	.L148
 1645              		.loc 1 304 0 is_stmt 0 discriminator 1
 1646 000e FFF7FEFF 		bl	TBerror
 1647              	.LVL203:
 1648 0012 0AE0     		b	.L149
 1649              	.LVL204:
 1650              	.L148:
 1651 0014 0446     		mov	r4, r0
 305:TinyBasic.c   ****   else {
 306:TinyBasic.c   ****     SubStk = SubStk-2;
 1652              		.loc 1 306 0 is_stmt 1
 1653 0016 0239     		subs	r1, r1, #2
 1654 0018 074D     		ldr	r5, .L152
 1655 001a 2960     		str	r1, [r5]
 307:TinyBasic.c   ****     Poke2(GoStkTop,SubStk);
 1656              		.loc 1 307 0
 1657 001c 2620     		movs	r0, #38
 1658              	.LVL205:
 1659 001e FFF7FEFF 		bl	Poke2
 1660              	.LVL206:
 308:TinyBasic.c   ****     Poke2(SubStk,valu);}
 1661              		.loc 1 308 0
 1662 0022 2868     		ldr	r0, [r5]
 1663 0024 2146     		mov	r1, r4
 1664 0026 FFF7FEFF 		bl	Poke2
 1665              	.LVL207:
 1666              	.L149:
ARM GAS  C:\Users\doug_000\AppData\Local\Temp\ccbaKQF3.s 			page 36


 309:TinyBasic.c   ****   if (Debugging>0) ShowSubs();} /* ~PushSub */
 1667              		.loc 1 309 0
 1668 002a 054B     		ldr	r3, .L152+8
 1669 002c 1B69     		ldr	r3, [r3, #16]
 1670 002e 002B     		cmp	r3, #0
 1671 0030 01DD     		ble	.L147
 1672              		.loc 1 309 0 is_stmt 0 discriminator 1
 1673 0032 FFF7FEFF 		bl	ShowSubs
 1674              	.LVL208:
 1675              	.L147:
 1676 0036 38BD     		pop	{r3, r4, r5, pc}
 1677              	.L153:
 1678              		.align	2
 1679              	.L152:
 1680 0038 00000000 		.word	SubStk
 1681 003c 00000000 		.word	SrcEnd
 1682 0040 00000000 		.word	.LANCHOR0
 1683              		.cfi_endproc
 1684              	.LFE20:
 1685              		.size	PushSub, .-PushSub
 1686              		.section	.text.PopSub,"ax",%progbits
 1687              		.align	2
 1688              		.global	PopSub
 1689              		.thumb
 1690              		.thumb_func
 1691              		.type	PopSub, %function
 1692              	PopSub:
 1693              	.LFB21:
 310:TinyBasic.c   **** 
 311:TinyBasic.c   **** int PopSub(void) {                       /* pop value off Gosub stack */
 1694              		.loc 1 311 0 is_stmt 1
 1695              		.cfi_startproc
 1696              		@ args = 0, pretend = 0, frame = 0
 1697              		@ frame_needed = 0, uses_anonymous_args = 0
 1698 0000 10B5     		push	{r4, lr}
 1699              		.cfi_def_cfa_offset 8
 1700              		.cfi_offset 4, -8
 1701              		.cfi_offset 14, -4
 312:TinyBasic.c   ****   if (SubStk>=Peek2(EndUser)-1) {   /* underflow (nothing in stack).. */
 1702              		.loc 1 312 0
 1703 0002 2220     		movs	r0, #34
 1704 0004 FFF7FEFF 		bl	Peek2
 1705              	.LVL209:
 1706 0008 0138     		subs	r0, r0, #1
 1707 000a 0D4B     		ldr	r3, .L159
 1708 000c 1B68     		ldr	r3, [r3]
 1709 000e 9842     		cmp	r0, r3
 1710 0010 04DC     		bgt	.L155
 313:TinyBasic.c   ****     TBerror();
 1711              		.loc 1 313 0
 1712 0012 FFF7FEFF 		bl	TBerror
 1713              	.LVL210:
 314:TinyBasic.c   ****     return -1;}
 1714              		.loc 1 314 0
 1715 0016 4FF0FF30 		mov	r0, #-1
 1716 001a 10BD     		pop	{r4, pc}
 1717              	.L155:
ARM GAS  C:\Users\doug_000\AppData\Local\Temp\ccbaKQF3.s 			page 37


 315:TinyBasic.c   ****   else {
 316:TinyBasic.c   ****       if (Debugging>1) ShowSubs();
 1718              		.loc 1 316 0
 1719 001c 094B     		ldr	r3, .L159+4
 1720 001e 1B69     		ldr	r3, [r3, #16]
 1721 0020 012B     		cmp	r3, #1
 1722 0022 01DD     		ble	.L157
 1723              		.loc 1 316 0 is_stmt 0 discriminator 1
 1724 0024 FFF7FEFF 		bl	ShowSubs
 1725              	.LVL211:
 1726              	.L157:
 317:TinyBasic.c   ****     SubStk = SubStk+2;
 1727              		.loc 1 317 0 is_stmt 1
 1728 0028 054C     		ldr	r4, .L159
 1729 002a 2168     		ldr	r1, [r4]
 1730 002c 0231     		adds	r1, r1, #2
 1731 002e 2160     		str	r1, [r4]
 318:TinyBasic.c   ****     Poke2(GoStkTop,SubStk);
 1732              		.loc 1 318 0
 1733 0030 2620     		movs	r0, #38
 1734 0032 FFF7FEFF 		bl	Poke2
 1735              	.LVL212:
 319:TinyBasic.c   ****     return Peek2(SubStk-2);}} /* ~PopSub */
 1736              		.loc 1 319 0
 1737 0036 2068     		ldr	r0, [r4]
 1738 0038 0238     		subs	r0, r0, #2
 1739 003a FFF7FEFF 		bl	Peek2
 1740              	.LVL213:
 1741 003e 10BD     		pop	{r4, pc}
 1742              	.L160:
 1743              		.align	2
 1744              	.L159:
 1745 0040 00000000 		.word	SubStk
 1746 0044 00000000 		.word	.LANCHOR0
 1747              		.cfi_endproc
 1748              	.LFE21:
 1749              		.size	PopSub, .-PopSub
 1750              		.section	.text.PushExBy,"ax",%progbits
 1751              		.align	2
 1752              		.global	PushExBy
 1753              		.thumb
 1754              		.thumb_func
 1755              		.type	PushExBy, %function
 1756              	PushExBy:
 1757              	.LFB22:
 320:TinyBasic.c   **** 
 321:TinyBasic.c   **** void PushExBy(int valu) {          /* push byte onto expression stack */
 1758              		.loc 1 321 0
 1759              		.cfi_startproc
 1760              		@ args = 0, pretend = 0, frame = 0
 1761              		@ frame_needed = 0, uses_anonymous_args = 0
 1762              	.LVL214:
 1763 0000 08B5     		push	{r3, lr}
 1764              		.cfi_def_cfa_offset 8
 1765              		.cfi_offset 3, -8
 1766              		.cfi_offset 14, -4
 322:TinyBasic.c   ****   if (ExpnTop<=InLend) TBerror(); /* overflow: bumped into input line */
ARM GAS  C:\Users\doug_000\AppData\Local\Temp\ccbaKQF3.s 			page 38


 1767              		.loc 1 322 0
 1768 0002 0A4B     		ldr	r3, .L166
 1769 0004 1B68     		ldr	r3, [r3]
 1770 0006 0A4A     		ldr	r2, .L166+4
 1771 0008 1268     		ldr	r2, [r2]
 1772 000a 9342     		cmp	r3, r2
 1773 000c 02DC     		bgt	.L162
 1774              		.loc 1 322 0 is_stmt 0 discriminator 1
 1775 000e FFF7FEFF 		bl	TBerror
 1776              	.LVL215:
 1777 0012 04E0     		b	.L163
 1778              	.LVL216:
 1779              	.L162:
 323:TinyBasic.c   ****     else Core[--ExpnTop] = (aByte)(valu&255);
 1780              		.loc 1 323 0 is_stmt 1
 1781 0014 013B     		subs	r3, r3, #1
 1782 0016 054A     		ldr	r2, .L166
 1783 0018 1360     		str	r3, [r2]
 1784 001a 064A     		ldr	r2, .L166+8
 1785 001c D054     		strb	r0, [r2, r3]
 1786              	.LVL217:
 1787              	.L163:
 324:TinyBasic.c   ****   if (Debugging>0) ShowExSt();} /* ~PushExBy */
 1788              		.loc 1 324 0
 1789 001e 064B     		ldr	r3, .L166+12
 1790 0020 1B69     		ldr	r3, [r3, #16]
 1791 0022 002B     		cmp	r3, #0
 1792 0024 01DD     		ble	.L161
 1793              		.loc 1 324 0 is_stmt 0 discriminator 1
 1794 0026 FFF7FEFF 		bl	ShowExSt
 1795              	.LVL218:
 1796              	.L161:
 1797 002a 08BD     		pop	{r3, pc}
 1798              	.L167:
 1799              		.align	2
 1800              	.L166:
 1801 002c 00000000 		.word	ExpnTop
 1802 0030 00000000 		.word	InLend
 1803 0034 00000000 		.word	Core
 1804 0038 00000000 		.word	.LANCHOR0
 1805              		.cfi_endproc
 1806              	.LFE22:
 1807              		.size	PushExBy, .-PushExBy
 1808              		.section	.text.PopExBy,"ax",%progbits
 1809              		.align	2
 1810              		.global	PopExBy
 1811              		.thumb
 1812              		.thumb_func
 1813              		.type	PopExBy, %function
 1814              	PopExBy:
 1815              	.LFB23:
 325:TinyBasic.c   **** 
 326:TinyBasic.c   **** int PopExBy(void) {                  /* pop byte off expression stack */
 1816              		.loc 1 326 0 is_stmt 1
 1817              		.cfi_startproc
 1818              		@ args = 0, pretend = 0, frame = 0
 1819              		@ frame_needed = 0, uses_anonymous_args = 0
ARM GAS  C:\Users\doug_000\AppData\Local\Temp\ccbaKQF3.s 			page 39


 1820 0000 08B5     		push	{r3, lr}
 1821              		.cfi_def_cfa_offset 8
 1822              		.cfi_offset 3, -8
 1823              		.cfi_offset 14, -4
 327:TinyBasic.c   ****   if (ExpnTop<ExpnStk) return (int)Core[ExpnTop++];
 1824              		.loc 1 327 0
 1825 0002 074B     		ldr	r3, .L172
 1826 0004 1B68     		ldr	r3, [r3]
 1827 0006 7F2B     		cmp	r3, #127
 1828 0008 05DC     		bgt	.L169
 1829              		.loc 1 327 0 is_stmt 0 discriminator 1
 1830 000a 591C     		adds	r1, r3, #1
 1831 000c 044A     		ldr	r2, .L172
 1832 000e 1160     		str	r1, [r2]
 1833 0010 044A     		ldr	r2, .L172+4
 1834 0012 D05C     		ldrb	r0, [r2, r3]	@ zero_extendqisi2
 1835 0014 08BD     		pop	{r3, pc}
 1836              	.L169:
 328:TinyBasic.c   ****   TBerror();                          /* underflow (nothing in stack) */
 1837              		.loc 1 328 0 is_stmt 1
 1838 0016 FFF7FEFF 		bl	TBerror
 1839              	.LVL219:
 329:TinyBasic.c   ****   return -1;} /* ~PopExBy */
 1840              		.loc 1 329 0
 1841 001a 4FF0FF30 		mov	r0, #-1
 1842 001e 08BD     		pop	{r3, pc}
 1843              	.L173:
 1844              		.align	2
 1845              	.L172:
 1846 0020 00000000 		.word	ExpnTop
 1847 0024 00000000 		.word	Core
 1848              		.cfi_endproc
 1849              	.LFE23:
 1850              		.size	PopExBy, .-PopExBy
 1851              		.section	.text.PushExInt,"ax",%progbits
 1852              		.align	2
 1853              		.global	PushExInt
 1854              		.thumb
 1855              		.thumb_func
 1856              		.type	PushExInt, %function
 1857              	PushExInt:
 1858              	.LFB24:
 330:TinyBasic.c   **** 
 331:TinyBasic.c   **** void PushExInt(int valu) {      /* push integer onto expression stack */
 1859              		.loc 1 331 0
 1860              		.cfi_startproc
 1861              		@ args = 0, pretend = 0, frame = 0
 1862              		@ frame_needed = 0, uses_anonymous_args = 0
 1863              	.LVL220:
 1864 0000 08B5     		push	{r3, lr}
 1865              		.cfi_def_cfa_offset 8
 1866              		.cfi_offset 3, -8
 1867              		.cfi_offset 14, -4
 1868 0002 0146     		mov	r1, r0
 332:TinyBasic.c   ****   ExpnTop = ExpnTop-2;
 1869              		.loc 1 332 0
 1870 0004 094B     		ldr	r3, .L179
ARM GAS  C:\Users\doug_000\AppData\Local\Temp\ccbaKQF3.s 			page 40


 1871 0006 1868     		ldr	r0, [r3]
 1872              	.LVL221:
 1873 0008 0238     		subs	r0, r0, #2
 1874 000a 1860     		str	r0, [r3]
 333:TinyBasic.c   ****   if (ExpnTop<InLend) TBerror();  /* overflow: bumped into input line */
 1875              		.loc 1 333 0
 1876 000c 084B     		ldr	r3, .L179+4
 1877 000e 1B68     		ldr	r3, [r3]
 1878 0010 9842     		cmp	r0, r3
 1879 0012 02DA     		bge	.L175
 1880              		.loc 1 333 0 is_stmt 0 discriminator 1
 1881 0014 FFF7FEFF 		bl	TBerror
 1882              	.LVL222:
 1883 0018 01E0     		b	.L176
 1884              	.LVL223:
 1885              	.L175:
 334:TinyBasic.c   ****     else Poke2(ExpnTop,valu);
 1886              		.loc 1 334 0 is_stmt 1
 1887 001a FFF7FEFF 		bl	Poke2
 1888              	.LVL224:
 1889              	.L176:
 335:TinyBasic.c   ****   if (Debugging>0) ShowExSt();} /* ~PushExInt */
 1890              		.loc 1 335 0
 1891 001e 054B     		ldr	r3, .L179+8
 1892 0020 1B69     		ldr	r3, [r3, #16]
 1893 0022 002B     		cmp	r3, #0
 1894 0024 01DD     		ble	.L174
 1895              		.loc 1 335 0 is_stmt 0 discriminator 1
 1896 0026 FFF7FEFF 		bl	ShowExSt
 1897              	.LVL225:
 1898              	.L174:
 1899 002a 08BD     		pop	{r3, pc}
 1900              	.L180:
 1901              		.align	2
 1902              	.L179:
 1903 002c 00000000 		.word	ExpnTop
 1904 0030 00000000 		.word	InLend
 1905 0034 00000000 		.word	.LANCHOR0
 1906              		.cfi_endproc
 1907              	.LFE24:
 1908              		.size	PushExInt, .-PushExInt
 1909              		.section	.text.PopExInt,"ax",%progbits
 1910              		.align	2
 1911              		.global	PopExInt
 1912              		.thumb
 1913              		.thumb_func
 1914              		.type	PopExInt, %function
 1915              	PopExInt:
 1916              	.LFB25:
 336:TinyBasic.c   **** 
 337:TinyBasic.c   **** int PopExInt(void) {              /* pop integer off expression stack */
 1917              		.loc 1 337 0 is_stmt 1
 1918              		.cfi_startproc
 1919              		@ args = 0, pretend = 0, frame = 0
 1920              		@ frame_needed = 0, uses_anonymous_args = 0
 1921 0000 08B5     		push	{r3, lr}
 1922              		.cfi_def_cfa_offset 8
ARM GAS  C:\Users\doug_000\AppData\Local\Temp\ccbaKQF3.s 			page 41


 1923              		.cfi_offset 3, -8
 1924              		.cfi_offset 14, -4
 338:TinyBasic.c   ****   if (++ExpnTop<ExpnStk) return (int)((short)Peek2((ExpnTop++)-1));
 1925              		.loc 1 338 0
 1926 0002 084A     		ldr	r2, .L185
 1927 0004 1068     		ldr	r0, [r2]
 1928 0006 431C     		adds	r3, r0, #1
 1929 0008 1360     		str	r3, [r2]
 1930 000a 7F2B     		cmp	r3, #127
 1931 000c 05DC     		bgt	.L182
 1932              		.loc 1 338 0 is_stmt 0 discriminator 1
 1933 000e 831C     		adds	r3, r0, #2
 1934 0010 1360     		str	r3, [r2]
 1935 0012 FFF7FEFF 		bl	Peek2
 1936              	.LVL226:
 1937 0016 00B2     		sxth	r0, r0
 1938 0018 08BD     		pop	{r3, pc}
 1939              	.L182:
 339:TinyBasic.c   ****   TBerror();    /* underflow (nothing in stack) */
 1940              		.loc 1 339 0 is_stmt 1
 1941 001a FFF7FEFF 		bl	TBerror
 1942              	.LVL227:
 340:TinyBasic.c   ****   return -1;} /* ~PopExInt */
 1943              		.loc 1 340 0
 1944 001e 4FF0FF30 		mov	r0, #-1
 1945 0022 08BD     		pop	{r3, pc}
 1946              	.L186:
 1947              		.align	2
 1948              	.L185:
 1949 0024 00000000 		.word	ExpnTop
 1950              		.cfi_endproc
 1951              	.LFE25:
 1952              		.size	PopExInt, .-PopExInt
 1953              		.section	.text.DeHex,"ax",%progbits
 1954              		.align	2
 1955              		.global	DeHex
 1956              		.thumb
 1957              		.thumb_func
 1958              		.type	DeHex, %function
 1959              	DeHex:
 1960              	.LFB26:
 341:TinyBasic.c   **** 
 342:TinyBasic.c   **** int DeHex(char* txt, int ndigs) {                /* decode hex -> int */
 1961              		.loc 1 342 0
 1962              		.cfi_startproc
 1963              		@ args = 0, pretend = 0, frame = 0
 1964              		@ frame_needed = 0, uses_anonymous_args = 0
 1965              		@ link register save eliminated.
 1966              	.LVL228:
 343:TinyBasic.c   ****   int num = 0;
 344:TinyBasic.c   ****   char ch = ' ';
 1967              		.loc 1 344 0
 1968 0000 2023     		movs	r3, #32
 345:TinyBasic.c   ****   while (ch<'0')                              /* first skip to num... */
 1969              		.loc 1 345 0
 1970 0002 06E0     		b	.L188
 1971              	.LVL229:
ARM GAS  C:\Users\doug_000\AppData\Local\Temp\ccbaKQF3.s 			page 42


 1972              	.L190:
 346:TinyBasic.c   ****     if (ch == '\0') return -1; else ch = DeCaps[((int)*txt++)&127];
 1973              		.loc 1 346 0
 1974 0004 93B3     		cbz	r3, .L197
 1975              	.LVL230:
 1976              		.loc 1 346 0 is_stmt 0 discriminator 2
 1977 0006 0378     		ldrb	r3, [r0]	@ zero_extendqisi2
 1978              	.LVL231:
 1979 0008 03F07F03 		and	r3, r3, #127
 1980 000c 1D4A     		ldr	r2, .L202
 1981 000e D35C     		ldrb	r3, [r2, r3]	@ zero_extendqisi2
 1982              	.LVL232:
 1983 0010 0130     		adds	r0, r0, #1
 1984              	.LVL233:
 1985              	.L188:
 345:TinyBasic.c   ****   while (ch<'0')                              /* first skip to num... */
 1986              		.loc 1 345 0 is_stmt 1
 1987 0012 2F2B     		cmp	r3, #47
 1988 0014 F6D9     		bls	.L190
 347:TinyBasic.c   ****   if (ch>'F' || ch>'9' && ch<'A') return -1;               /* not hex */
 1989              		.loc 1 347 0
 1990 0016 462B     		cmp	r3, #70
 1991 0018 2BD8     		bhi	.L198
 1992              		.loc 1 347 0 is_stmt 0 discriminator 2
 1993 001a A3F13A02 		sub	r2, r3, #58
 1994 001e D2B2     		uxtb	r2, r2
 1995 0020 062A     		cmp	r2, #6
 1996 0022 29D9     		bls	.L199
 342:TinyBasic.c   ****   int num = 0;
 1997              		.loc 1 342 0 is_stmt 1
 1998 0024 10B4     		push	{r4}
 1999              		.cfi_def_cfa_offset 4
 2000              		.cfi_offset 4, -4
 2001              		.loc 1 347 0
 2002 0026 0022     		movs	r2, #0
 2003 0028 1BE0     		b	.L191
 2004              	.LVL234:
 2005              	.L196:
 348:TinyBasic.c   ****   while ((ndigs--) >0) {                 /* only get requested digits */
 349:TinyBasic.c   ****     if (ch<'0' || ch>'F') return num;              /* not a hex digit */
 2006              		.loc 1 349 0
 2007 002a A3F13001 		sub	r1, r3, #48
 2008 002e C9B2     		uxtb	r1, r1
 2009 0030 1629     		cmp	r1, #22
 2010 0032 01D9     		bls	.L192
 2011              		.loc 1 349 0 is_stmt 0 discriminator 1
 2012 0034 1046     		mov	r0, r2
 2013              	.LVL235:
 2014 0036 22E0     		b	.L189
 2015              	.LVL236:
 2016              	.L192:
 350:TinyBasic.c   ****     if (ch>='A') num = num*16-55+((int)ch);      /* A-F */
 2017              		.loc 1 350 0 is_stmt 1
 2018 0038 402B     		cmp	r3, #64
 2019 003a 03D9     		bls	.L193
 2020              		.loc 1 350 0 is_stmt 0 discriminator 1
 2021 003c 03EB0212 		add	r2, r3, r2, lsl #4
ARM GAS  C:\Users\doug_000\AppData\Local\Temp\ccbaKQF3.s 			page 43


 2022              	.LVL237:
 2023 0040 373A     		subs	r2, r2, #55
 2024              	.LVL238:
 2025 0042 07E0     		b	.L194
 2026              	.L193:
 351:TinyBasic.c   ****     else if (ch<='9') num = num*16-48+((int)ch); /* 0-9 */
 2027              		.loc 1 351 0 is_stmt 1
 2028 0044 392B     		cmp	r3, #57
 2029 0046 03D8     		bhi	.L195
 2030              		.loc 1 351 0 is_stmt 0 discriminator 1
 2031 0048 033A     		subs	r2, r2, #3
 2032              	.LVL239:
 2033 004a 03EB0212 		add	r2, r3, r2, lsl #4
 2034              	.LVL240:
 2035 004e 01E0     		b	.L194
 2036              	.L195:
 352:TinyBasic.c   ****       else return num;          /* something in between, i.e. not hex */
 2037              		.loc 1 352 0 is_stmt 1
 2038 0050 1046     		mov	r0, r2
 2039              	.LVL241:
 2040 0052 14E0     		b	.L189
 2041              	.LVL242:
 2042              	.L194:
 353:TinyBasic.c   ****     ch = DeCaps[((int)*txt++)&127];}
 2043              		.loc 1 353 0
 2044 0054 0378     		ldrb	r3, [r0]	@ zero_extendqisi2
 2045              	.LVL243:
 2046 0056 03F07F03 		and	r3, r3, #127
 2047 005a 0A49     		ldr	r1, .L202
 2048 005c CB5C     		ldrb	r3, [r1, r3]	@ zero_extendqisi2
 2049              	.LVL244:
 348:TinyBasic.c   ****     if (ch<'0' || ch>'F') return num;              /* not a hex digit */
 2050              		.loc 1 348 0
 2051 005e 2146     		mov	r1, r4
 2052              		.loc 1 353 0
 2053 0060 0130     		adds	r0, r0, #1
 2054              	.LVL245:
 2055              	.L191:
 348:TinyBasic.c   ****     if (ch<'0' || ch>'F') return num;              /* not a hex digit */
 2056              		.loc 1 348 0
 2057 0062 4C1E     		subs	r4, r1, #1
 2058              	.LVL246:
 2059 0064 0029     		cmp	r1, #0
 2060 0066 E0DC     		bgt	.L196
 354:TinyBasic.c   ****   return num;} /* ~DeHex */
 2061              		.loc 1 354 0
 2062 0068 1046     		mov	r0, r2
 2063              	.LVL247:
 2064 006a 08E0     		b	.L189
 2065              	.LVL248:
 2066              	.L197:
 2067              		.cfi_def_cfa_offset 0
 2068              		.cfi_restore 4
 346:TinyBasic.c   ****   if (ch>'F' || ch>'9' && ch<'A') return -1;               /* not hex */
 2069              		.loc 1 346 0
 2070 006c 4FF0FF30 		mov	r0, #-1
 2071              	.LVL249:
ARM GAS  C:\Users\doug_000\AppData\Local\Temp\ccbaKQF3.s 			page 44


 2072 0070 7047     		bx	lr
 2073              	.LVL250:
 2074              	.L198:
 347:TinyBasic.c   ****   while ((ndigs--) >0) {                 /* only get requested digits */
 2075              		.loc 1 347 0
 2076 0072 4FF0FF30 		mov	r0, #-1
 2077              	.LVL251:
 2078 0076 7047     		bx	lr
 2079              	.LVL252:
 2080              	.L199:
 2081 0078 4FF0FF30 		mov	r0, #-1
 2082              	.LVL253:
 2083 007c 7047     		bx	lr
 2084              	.LVL254:
 2085              	.L189:
 2086              		.cfi_def_cfa_offset 4
 2087              		.cfi_offset 4, -4
 2088              		.loc 1 354 0
 2089 007e 5DF8044B 		ldr	r4, [sp], #4
 2090              		.cfi_restore 4
 2091              		.cfi_def_cfa_offset 0
 2092              	.LVL255:
 2093 0082 7047     		bx	lr
 2094              	.L203:
 2095              		.align	2
 2096              	.L202:
 2097 0084 00000000 		.word	DeCaps
 2098              		.cfi_endproc
 2099              	.LFE26:
 2100              		.size	DeHex, .-DeHex
 2101              		.section	.text.SkipTo,"ax",%progbits
 2102              		.align	2
 2103              		.global	SkipTo
 2104              		.thumb
 2105              		.thumb_func
 2106              		.type	SkipTo, %function
 2107              	SkipTo:
 2108              	.LFB27:
 355:TinyBasic.c   **** 
 356:TinyBasic.c   **** int SkipTo(int here, char fch) {     /* search for'd past next marker */
 2109              		.loc 1 356 0
 2110              		.cfi_startproc
 2111              		@ args = 0, pretend = 0, frame = 0
 2112              		@ frame_needed = 0, uses_anonymous_args = 0
 2113              		@ link register save eliminated.
 2114              	.LVL256:
 2115 0000 0346     		mov	r3, r0
 2116 0002 00E0     		b	.L207
 2117              	.LVL257:
 2118              	.L208:
 2119              	.LBB2:
 357:TinyBasic.c   ****   while (true) {
 358:TinyBasic.c   ****     char ch = (char)Core[here++];                /* look at next char */
 2120              		.loc 1 358 0
 2121 0004 0346     		mov	r3, r0
 2122              	.LVL258:
 2123              	.L207:
ARM GAS  C:\Users\doug_000\AppData\Local\Temp\ccbaKQF3.s 			page 45


 2124 0006 581C     		adds	r0, r3, #1
 2125              	.LVL259:
 2126 0008 034A     		ldr	r2, .L209
 2127 000a D25C     		ldrb	r2, [r2, r3]	@ zero_extendqisi2
 2128              	.LVL260:
 359:TinyBasic.c   ****     if (ch == fch) return here;                             /* got it */
 2129              		.loc 1 359 0
 2130 000c 8A42     		cmp	r2, r1
 2131 000e 02D0     		beq	.L206
 360:TinyBasic.c   ****     if (ch == '\0') return --here;}} /* ~SkipTo */
 2132              		.loc 1 360 0
 2133 0010 002A     		cmp	r2, #0
 2134 0012 F7D1     		bne	.L208
 2135              	.LVL261:
 2136              		.loc 1 360 0 is_stmt 0 discriminator 1
 2137 0014 1846     		mov	r0, r3
 2138              	.LVL262:
 2139              	.L206:
 2140              	.LBE2:
 2141              		.loc 1 360 0
 2142 0016 7047     		bx	lr
 2143              	.L210:
 2144              		.align	2
 2145              	.L209:
 2146 0018 00000000 		.word	Core
 2147              		.cfi_endproc
 2148              	.LFE27:
 2149              		.size	SkipTo, .-SkipTo
 2150              		.section	.text.FindLine,"ax",%progbits
 2151              		.align	2
 2152              		.global	FindLine
 2153              		.thumb
 2154              		.thumb_func
 2155              		.type	FindLine, %function
 2156              	FindLine:
 2157              	.LFB28:
 361:TinyBasic.c   **** 
 362:TinyBasic.c   **** int FindLine(int theLine) {         /* find theLine in TB source code */
 2158              		.loc 1 362 0 is_stmt 1
 2159              		.cfi_startproc
 2160              		@ args = 0, pretend = 0, frame = 0
 2161              		@ frame_needed = 0, uses_anonymous_args = 0
 2162              	.LVL263:
 2163 0000 38B5     		push	{r3, r4, r5, lr}
 2164              		.cfi_def_cfa_offset 16
 2165              		.cfi_offset 3, -16
 2166              		.cfi_offset 4, -12
 2167              		.cfi_offset 5, -8
 2168              		.cfi_offset 14, -4
 2169 0002 0546     		mov	r5, r0
 363:TinyBasic.c   ****   int ix;
 364:TinyBasic.c   ****   int here = Peek2(UserProg);                       /* start at front */
 2170              		.loc 1 364 0
 2171 0004 2020     		movs	r0, #32
 2172              	.LVL264:
 2173 0006 FFF7FEFF 		bl	Peek2
 2174              	.LVL265:
ARM GAS  C:\Users\doug_000\AppData\Local\Temp\ccbaKQF3.s 			page 46


 2175 000a 0446     		mov	r4, r0
 2176              	.LVL266:
 2177              	.L214:
 365:TinyBasic.c   ****   while (true) {
 366:TinyBasic.c   ****     ix = Peek2(here++);
 2178              		.loc 1 366 0
 2179 000c 2046     		mov	r0, r4
 2180 000e FFF7FEFF 		bl	Peek2
 2181              	.LVL267:
 367:TinyBasic.c   ****     if (theLine<=ix || ix==0) return --here;  /* found it or overshot */
 2182              		.loc 1 367 0
 2183 0012 8542     		cmp	r5, r0
 2184 0014 06DD     		ble	.L215
 2185              		.loc 1 367 0 is_stmt 0 discriminator 2
 2186 0016 28B1     		cbz	r0, .L215
 2187              	.LVL268:
 368:TinyBasic.c   ****     here = SkipTo(++here, '\r');}         /* skip to end of this line */
 2188              		.loc 1 368 0 is_stmt 1
 2189 0018 A01C     		adds	r0, r4, #2
 2190              	.LVL269:
 2191 001a 0D21     		movs	r1, #13
 2192 001c FFF7FEFF 		bl	SkipTo
 2193              	.LVL270:
 2194 0020 0446     		mov	r4, r0
 2195              	.LVL271:
 2196 0022 F3E7     		b	.L214
 2197              	.LVL272:
 2198              	.L215:
 369:TinyBasic.c   ****   } /* ~FindLine */
 2199              		.loc 1 369 0
 2200 0024 2046     		mov	r0, r4
 2201              	.LVL273:
 2202 0026 38BD     		pop	{r3, r4, r5, pc}
 2203              		.cfi_endproc
 2204              	.LFE28:
 2205              		.size	FindLine, .-FindLine
 2206              		.section	.text.GoToLino,"ax",%progbits
 2207              		.align	2
 2208              		.global	GoToLino
 2209              		.thumb
 2210              		.thumb_func
 2211              		.type	GoToLino, %function
 2212              	GoToLino:
 2213              	.LFB29:
 370:TinyBasic.c   **** 
 371:TinyBasic.c   **** void GoToLino(void) {     /* find line # Lino and set BP to its front */
 2214              		.loc 1 371 0
 2215              		.cfi_startproc
 2216              		@ args = 0, pretend = 0, frame = 0
 2217              		@ frame_needed = 0, uses_anonymous_args = 0
 2218 0000 38B5     		push	{r3, r4, r5, lr}
 2219              		.cfi_def_cfa_offset 16
 2220              		.cfi_offset 3, -16
 2221              		.cfi_offset 4, -12
 2222              		.cfi_offset 5, -8
 2223              		.cfi_offset 14, -4
 372:TinyBasic.c   ****   int here;
ARM GAS  C:\Users\doug_000\AppData\Local\Temp\ccbaKQF3.s 			page 47


 373:TinyBasic.c   ****   if (Lino <= 0) {              /* Lino=0 is just command line (OK).. */
 2224              		.loc 1 373 0
 2225 0002 194B     		ldr	r3, .L224
 2226 0004 1868     		ldr	r0, [r3]
 2227 0006 0028     		cmp	r0, #0
 2228 0008 06DC     		bgt	.L218
 374:TinyBasic.c   ****     BP = InLine;
 2229              		.loc 1 374 0
 2230 000a 3022     		movs	r2, #48
 2231 000c 174B     		ldr	r3, .L224+4
 2232 000e 1A60     		str	r2, [r3]
 375:TinyBasic.c   ****     if (DEBUGON>0) LogIt(0);
 2233              		.loc 1 375 0
 2234 0010 0020     		movs	r0, #0
 2235 0012 FFF7FEFF 		bl	LogIt
 2236              	.LVL274:
 2237 0016 38BD     		pop	{r3, r4, r5, pc}
 2238              	.L218:
 376:TinyBasic.c   ****     return;}
 377:TinyBasic.c   ****   if (DEBUGON>0) LogIt(Lino);
 2239              		.loc 1 377 0 discriminator 1
 2240 0018 FFF7FEFF 		bl	LogIt
 2241              	.LVL275:
 378:TinyBasic.c   ****   if (Debugging>0) {OutStr(" [#"); OutInt(Lino); OutStr("]");}
 2242              		.loc 1 378 0 discriminator 1
 2243 001c 144B     		ldr	r3, .L224+8
 2244 001e 1B69     		ldr	r3, [r3, #16]
 2245 0020 002B     		cmp	r3, #0
 2246 0022 09DD     		ble	.L220
 2247 0024 1348     		ldr	r0, .L224+12
 2248 0026 FFF7FEFF 		bl	OutStr
 2249              	.LVL276:
 2250 002a 0F4B     		ldr	r3, .L224
 2251 002c 1868     		ldr	r0, [r3]
 2252 002e FFF7FEFF 		bl	OutInt
 2253              	.LVL277:
 2254 0032 1148     		ldr	r0, .L224+16
 2255 0034 FFF7FEFF 		bl	OutStr
 2256              	.LVL278:
 2257              	.L220:
 379:TinyBasic.c   ****   BP = FindLine(Lino);                  /* otherwise try to find it.. */
 2258              		.loc 1 379 0
 2259 0038 0B4B     		ldr	r3, .L224
 2260 003a 1D68     		ldr	r5, [r3]
 2261 003c 2846     		mov	r0, r5
 2262 003e FFF7FEFF 		bl	FindLine
 2263              	.LVL279:
 380:TinyBasic.c   ****   here = Peek2(BP++);
 2264              		.loc 1 380 0
 2265 0042 441C     		adds	r4, r0, #1
 2266 0044 094B     		ldr	r3, .L224+4
 2267 0046 1C60     		str	r4, [r3]
 2268 0048 FFF7FEFF 		bl	Peek2
 2269              	.LVL280:
 381:TinyBasic.c   ****   if (here==0) TBerror();               /* ran off the end, error off */
 2270              		.loc 1 381 0
 2271 004c 10B9     		cbnz	r0, .L221
ARM GAS  C:\Users\doug_000\AppData\Local\Temp\ccbaKQF3.s 			page 48


 2272              		.loc 1 381 0 is_stmt 0 discriminator 1
 2273 004e FFF7FEFF 		bl	TBerror
 2274              	.LVL281:
 2275 0052 38BD     		pop	{r3, r4, r5, pc}
 2276              	.LVL282:
 2277              	.L221:
 382:TinyBasic.c   ****   else if (Lino != here) TBerror();                      /* not there */
 2278              		.loc 1 382 0 is_stmt 1
 2279 0054 8542     		cmp	r5, r0
 2280 0056 02D0     		beq	.L222
 2281              		.loc 1 382 0 is_stmt 0 discriminator 1
 2282 0058 FFF7FEFF 		bl	TBerror
 2283              	.LVL283:
 2284 005c 38BD     		pop	{r3, r4, r5, pc}
 2285              	.LVL284:
 2286              	.L222:
 383:TinyBasic.c   ****     else BP++;} /* ~GoToLino */                             /* got it */
 2287              		.loc 1 383 0 is_stmt 1
 2288 005e 0134     		adds	r4, r4, #1
 2289 0060 024B     		ldr	r3, .L224+4
 2290 0062 1C60     		str	r4, [r3]
 2291 0064 38BD     		pop	{r3, r4, r5, pc}
 2292              	.L225:
 2293 0066 00BF     		.align	2
 2294              	.L224:
 2295 0068 00000000 		.word	Lino
 2296 006c 00000000 		.word	BP
 2297 0070 00000000 		.word	.LANCHOR0
 2298 0074 AC000000 		.word	.LC23
 2299 0078 10000000 		.word	.LC3
 2300              		.cfi_endproc
 2301              	.LFE29:
 2302              		.size	GoToLino, .-GoToLino
 2303              		.section	.text.ListIt,"ax",%progbits
 2304              		.align	2
 2305              		.global	ListIt
 2306              		.thumb
 2307              		.thumb_func
 2308              		.type	ListIt, %function
 2309              	ListIt:
 2310              	.LFB30:
 384:TinyBasic.c   **** 
 385:TinyBasic.c   **** void ListIt(int frm, int too) {            /* list the stored program */
 2311              		.loc 1 385 0
 2312              		.cfi_startproc
 2313              		@ args = 0, pretend = 0, frame = 0
 2314              		@ frame_needed = 0, uses_anonymous_args = 0
 2315              	.LVL285:
 2316 0000 F8B5     		push	{r3, r4, r5, r6, r7, lr}
 2317              		.cfi_def_cfa_offset 24
 2318              		.cfi_offset 3, -24
 2319              		.cfi_offset 4, -20
 2320              		.cfi_offset 5, -16
 2321              		.cfi_offset 6, -12
 2322              		.cfi_offset 7, -8
 2323              		.cfi_offset 14, -4
 386:TinyBasic.c   ****   char ch;
ARM GAS  C:\Users\doug_000\AppData\Local\Temp\ccbaKQF3.s 			page 49


 387:TinyBasic.c   ****   int here;
 388:TinyBasic.c   ****   if (frm==0) {           /* 0,0 defaults to all; n,0 defaults to n,n */
 2324              		.loc 1 388 0
 2325 0002 18B1     		cbz	r0, .L232
 2326 0004 0F46     		mov	r7, r1
 2327 0006 0346     		mov	r3, r0
 389:TinyBasic.c   ****     too = 65535;
 390:TinyBasic.c   ****     frm = 1;}
 391:TinyBasic.c   ****   else if (too==0) too = frm;
 2328              		.loc 1 391 0
 2329 0008 21B1     		cbz	r1, .L233
 2330 000a 04E0     		b	.L227
 2331              	.L232:
 389:TinyBasic.c   ****     too = 65535;
 2332              		.loc 1 389 0
 2333 000c 4FF6FF77 		movw	r7, #65535
 390:TinyBasic.c   ****   else if (too==0) too = frm;
 2334              		.loc 1 390 0
 2335 0010 0123     		movs	r3, #1
 2336 0012 00E0     		b	.L227
 2337              	.L233:
 2338              		.loc 1 391 0
 2339 0014 0746     		mov	r7, r0
 2340              	.L227:
 2341              	.LVL286:
 392:TinyBasic.c   ****   here = FindLine(frm);                   /* try to find first line.. */
 2342              		.loc 1 392 0
 2343 0016 1846     		mov	r0, r3
 2344 0018 FFF7FEFF 		bl	FindLine
 2345              	.LVL287:
 2346 001c 0646     		mov	r6, r0
 2347              	.LVL288:
 393:TinyBasic.c   ****   while (!StopIt()) {
 2348              		.loc 1 393 0
 2349 001e 14E0     		b	.L228
 2350              	.LVL289:
 2351              	.L231:
 394:TinyBasic.c   ****     frm = Peek2(here++);             /* get this line's # to print it */
 2352              		.loc 1 394 0
 2353 0020 3046     		mov	r0, r6
 2354 0022 FFF7FEFF 		bl	Peek2
 2355              	.LVL290:
 395:TinyBasic.c   ****     if (frm>too || frm==0) break;
 2356              		.loc 1 395 0
 2357 0026 B842     		cmp	r0, r7
 2358 0028 13DC     		bgt	.L226
 2359              		.loc 1 395 0 is_stmt 0 discriminator 1
 2360 002a 90B1     		cbz	r0, .L226
 396:TinyBasic.c   ****     here++;
 2361              		.loc 1 396 0 is_stmt 1
 2362 002c B41C     		adds	r4, r6, #2
 2363              	.LVL291:
 397:TinyBasic.c   ****     OutInt(frm);
 2364              		.loc 1 397 0
 2365 002e FFF7FEFF 		bl	OutInt
 2366              	.LVL292:
 398:TinyBasic.c   ****     Ouch(' ');
ARM GAS  C:\Users\doug_000\AppData\Local\Temp\ccbaKQF3.s 			page 50


 2367              		.loc 1 398 0
 2368 0032 2020     		movs	r0, #32
 2369 0034 FFF7FEFF 		bl	Ouch
 2370              	.LVL293:
 2371              	.L230:
 399:TinyBasic.c   ****     do {                                            /* print the text */
 400:TinyBasic.c   ****       ch = (char)Core[here++];
 2372              		.loc 1 400 0 discriminator 1
 2373 0038 661C     		adds	r6, r4, #1
 2374              	.LVL294:
 2375 003a 064B     		ldr	r3, .L235
 2376 003c 1D5D     		ldrb	r5, [r3, r4]	@ zero_extendqisi2
 2377              	.LVL295:
 401:TinyBasic.c   ****       Ouch(ch);}
 2378              		.loc 1 401 0 discriminator 1
 2379 003e 2846     		mov	r0, r5
 2380 0040 FFF7FEFF 		bl	Ouch
 2381              	.LVL296:
 400:TinyBasic.c   ****       Ouch(ch);}
 2382              		.loc 1 400 0 discriminator 1
 2383 0044 3446     		mov	r4, r6
 402:TinyBasic.c   ****       while (ch>'\r');}} /* ~ListIt */
 2384              		.loc 1 402 0 discriminator 1
 2385 0046 0D2D     		cmp	r5, #13
 2386 0048 F6D8     		bhi	.L230
 2387              	.LVL297:
 2388              	.L228:
 393:TinyBasic.c   ****     frm = Peek2(here++);             /* get this line's # to print it */
 2389              		.loc 1 393 0
 2390 004a FFF7FEFF 		bl	StopIt
 2391              	.LVL298:
 2392 004e 0028     		cmp	r0, #0
 2393 0050 E6D0     		beq	.L231
 2394              	.LVL299:
 2395              	.L226:
 2396 0052 F8BD     		pop	{r3, r4, r5, r6, r7, pc}
 2397              	.LVL300:
 2398              	.L236:
 2399              		.align	2
 2400              	.L235:
 2401 0054 00000000 		.word	Core
 2402              		.cfi_endproc
 2403              	.LFE30:
 2404              		.size	ListIt, .-ListIt
 2405              		.section	.text.ConvtIL,"ax",%progbits
 2406              		.align	2
 2407              		.global	ConvtIL
 2408              		.thumb
 2409              		.thumb_func
 2410              		.type	ConvtIL, %function
 2411              	ConvtIL:
 2412              	.LFB31:
 403:TinyBasic.c   **** 
 404:TinyBasic.c   **** void ConvtIL(char* txt) {                 /* convert & load TBIL code */
 2413              		.loc 1 404 0
 2414              		.cfi_startproc
 2415              		@ args = 0, pretend = 0, frame = 0
ARM GAS  C:\Users\doug_000\AppData\Local\Temp\ccbaKQF3.s 			page 51


 2416              		@ frame_needed = 0, uses_anonymous_args = 0
 2417              	.LVL301:
 2418 0000 38B5     		push	{r3, r4, r5, lr}
 2419              		.cfi_def_cfa_offset 16
 2420              		.cfi_offset 3, -16
 2421              		.cfi_offset 4, -12
 2422              		.cfi_offset 5, -8
 2423              		.cfi_offset 14, -4
 2424 0002 0546     		mov	r5, r0
 405:TinyBasic.c   ****   int valu;
 406:TinyBasic.c   ****   ILend = ILfront+2;
 2425              		.loc 1 406 0
 2426 0004 1C4C     		ldr	r4, .L247
 2427 0006 4FF49071 		mov	r1, #288
 2428 000a 2160     		str	r1, [r4]
 407:TinyBasic.c   ****   Poke2(ILfront,ILend);    /* initialize pointers as promised in TBEK */
 2429              		.loc 1 407 0
 2430 000c 4FF48F70 		mov	r0, #286
 2431              	.LVL302:
 2432 0010 FFF7FEFF 		bl	Poke2
 2433              	.LVL303:
 408:TinyBasic.c   ****   Poke2(ColdGo+1,ILend);
 2434              		.loc 1 408 0
 2435 0014 40F20110 		movw	r0, #257
 2436 0018 2168     		ldr	r1, [r4]
 2437 001a FFF7FEFF 		bl	Poke2
 2438              	.LVL304:
 409:TinyBasic.c   ****   Core[ILend] = (aByte)BadOp;   /* illegal op, in case nothing loaded */
 2439              		.loc 1 409 0
 2440 001e 2368     		ldr	r3, [r4]
 2441 0020 0F21     		movs	r1, #15
 2442 0022 164A     		ldr	r2, .L247+4
 2443 0024 D154     		strb	r1, [r2, r3]
 410:TinyBasic.c   ****   if (txt == NULL) return;
 2444              		.loc 1 410 0
 2445 0026 E5B9     		cbnz	r5, .L239
 2446 0028 38BD     		pop	{r3, r4, r5, pc}
 2447              	.LVL305:
 2448              	.L240:
 411:TinyBasic.c   ****   while (*txt != '\0') {                            /* get the data.. */
 412:TinyBasic.c   ****     while (*txt > '\r') txt++;               /* (no code on 1st line) */
 2449              		.loc 1 412 0 discriminator 2
 2450 002a 0135     		adds	r5, r5, #1
 2451              	.LVL306:
 2452              	.L245:
 2453              		.loc 1 412 0 is_stmt 0 discriminator 1
 2454 002c 2B78     		ldrb	r3, [r5]	@ zero_extendqisi2
 2455 002e 0D2B     		cmp	r3, #13
 2456 0030 FBD8     		bhi	.L240
 413:TinyBasic.c   ****     if (*txt++ == '\0') break;                      /* no code at all */
 2457              		.loc 1 413 0 is_stmt 1
 2458 0032 6C1C     		adds	r4, r5, #1
 2459              	.LVL307:
 2460 0034 0BB9     		cbnz	r3, .L242
 2461 0036 17E0     		b	.L241
 2462              	.L243:
 414:TinyBasic.c   ****     while (*txt > ' ') txt++;                    /* skip over address */
ARM GAS  C:\Users\doug_000\AppData\Local\Temp\ccbaKQF3.s 			page 52


 2463              		.loc 1 414 0 discriminator 2
 2464 0038 0134     		adds	r4, r4, #1
 2465              	.LVL308:
 2466              	.L242:
 2467              		.loc 1 414 0 is_stmt 0 discriminator 1
 2468 003a 2378     		ldrb	r3, [r4]	@ zero_extendqisi2
 2469 003c 202B     		cmp	r3, #32
 2470 003e FBD8     		bhi	.L243
 415:TinyBasic.c   ****     if (*txt++ == '\0') break;
 2471              		.loc 1 415 0 is_stmt 1
 2472 0040 0134     		adds	r4, r4, #1
 2473              	.LVL309:
 2474 0042 8BB1     		cbz	r3, .L241
 2475              	.L244:
 416:TinyBasic.c   ****     while (true) {
 417:TinyBasic.c   ****       valu = DeHex(txt++, 2);                           /* get a byte */
 2476              		.loc 1 417 0
 2477 0044 651C     		adds	r5, r4, #1
 2478              	.LVL310:
 2479 0046 2046     		mov	r0, r4
 2480 0048 0221     		movs	r1, #2
 2481 004a FFF7FEFF 		bl	DeHex
 2482              	.LVL311:
 418:TinyBasic.c   ****       if (valu<0) break;                      /* no more on this line */
 2483              		.loc 1 418 0
 2484 004e 0028     		cmp	r0, #0
 2485 0050 07DB     		blt	.L239
 419:TinyBasic.c   ****       Core[ILend++] = (aByte)valu;      /* insert this byte into code */
 2486              		.loc 1 419 0
 2487 0052 094A     		ldr	r2, .L247
 2488 0054 1368     		ldr	r3, [r2]
 2489 0056 591C     		adds	r1, r3, #1
 2490 0058 1160     		str	r1, [r2]
 2491 005a 084A     		ldr	r2, .L247+4
 2492 005c D054     		strb	r0, [r2, r3]
 420:TinyBasic.c   ****       txt++;}}
 2493              		.loc 1 420 0
 2494 005e 0234     		adds	r4, r4, #2
 2495              	.LVL312:
 2496 0060 F0E7     		b	.L244
 2497              	.LVL313:
 2498              	.L239:
 411:TinyBasic.c   ****     while (*txt > '\r') txt++;               /* (no code on 1st line) */
 2499              		.loc 1 411 0
 2500 0062 2B78     		ldrb	r3, [r5]	@ zero_extendqisi2
 2501 0064 002B     		cmp	r3, #0
 2502 0066 E1D1     		bne	.L245
 2503              	.LVL314:
 2504              	.L241:
 421:TinyBasic.c   ****   XQhere = 0;                        /* requires new XQ to initialize */
 2505              		.loc 1 421 0
 2506 0068 0023     		movs	r3, #0
 2507 006a 054A     		ldr	r2, .L247+8
 2508 006c 1360     		str	r3, [r2]
 422:TinyBasic.c   ****   Core[ILend] = 0;} /* ~ConvtIL */
 2509              		.loc 1 422 0
 2510 006e 024A     		ldr	r2, .L247
ARM GAS  C:\Users\doug_000\AppData\Local\Temp\ccbaKQF3.s 			page 53


 2511 0070 1268     		ldr	r2, [r2]
 2512 0072 0249     		ldr	r1, .L247+4
 2513 0074 8B54     		strb	r3, [r1, r2]
 2514 0076 38BD     		pop	{r3, r4, r5, pc}
 2515              	.L248:
 2516              		.align	2
 2517              	.L247:
 2518 0078 00000000 		.word	ILend
 2519 007c 00000000 		.word	Core
 2520 0080 00000000 		.word	XQhere
 2521              		.cfi_endproc
 2522              	.LFE31:
 2523              		.size	ConvtIL, .-ConvtIL
 2524              		.section	.text.LineSwap,"ax",%progbits
 2525              		.align	2
 2526              		.global	LineSwap
 2527              		.thumb
 2528              		.thumb_func
 2529              		.type	LineSwap, %function
 2530              	LineSwap:
 2531              	.LFB32:
 423:TinyBasic.c   **** 
 424:TinyBasic.c   **** void LineSwap(int here) {   /* swap SvPt/BP if here is not in InLine  */
 2532              		.loc 1 424 0
 2533              		.cfi_startproc
 2534              		@ args = 0, pretend = 0, frame = 0
 2535              		@ frame_needed = 0, uses_anonymous_args = 0
 2536              		@ link register save eliminated.
 2537              	.LVL315:
 425:TinyBasic.c   ****   if (here<InLine || here>=InLend) {
 2538              		.loc 1 425 0
 2539 0000 2F28     		cmp	r0, #47
 2540 0002 03DD     		ble	.L250
 2541              		.loc 1 425 0 is_stmt 0 discriminator 1
 2542 0004 074B     		ldr	r3, .L253
 2543 0006 1B68     		ldr	r3, [r3]
 2544 0008 9842     		cmp	r0, r3
 2545 000a 06DB     		blt	.L251
 2546              	.L250:
 426:TinyBasic.c   ****     here = SvPt;
 2547              		.loc 1 426 0 is_stmt 1
 2548 000c 064A     		ldr	r2, .L253+4
 2549 000e 1168     		ldr	r1, [r2]
 2550              	.LVL316:
 427:TinyBasic.c   ****     SvPt = BP;
 2551              		.loc 1 427 0
 2552 0010 064B     		ldr	r3, .L253+8
 2553 0012 1868     		ldr	r0, [r3]
 2554 0014 1060     		str	r0, [r2]
 428:TinyBasic.c   ****     BP = here;}
 2555              		.loc 1 428 0
 2556 0016 1960     		str	r1, [r3]
 2557 0018 7047     		bx	lr
 2558              	.LVL317:
 2559              	.L251:
 429:TinyBasic.c   ****   else SvPt = BP;} /* ~LineSwap */
 2560              		.loc 1 429 0
ARM GAS  C:\Users\doug_000\AppData\Local\Temp\ccbaKQF3.s 			page 54


 2561 001a 044B     		ldr	r3, .L253+8
 2562 001c 1A68     		ldr	r2, [r3]
 2563 001e 024B     		ldr	r3, .L253+4
 2564 0020 1A60     		str	r2, [r3]
 2565 0022 7047     		bx	lr
 2566              	.L254:
 2567              		.align	2
 2568              	.L253:
 2569 0024 00000000 		.word	InLend
 2570 0028 00000000 		.word	SvPt
 2571 002c 00000000 		.word	BP
 2572              		.cfi_endproc
 2573              	.LFE32:
 2574              		.size	LineSwap, .-LineSwap
 2575              		.section	.text.Interp,"ax",%progbits
 2576              		.align	2
 2577              		.global	Interp
 2578              		.thumb
 2579              		.thumb_func
 2580              		.type	Interp, %function
 2581              	Interp:
 2582              	.LFB33:
 430:TinyBasic.c   **** 
 431:TinyBasic.c   **** /************************** Main Interpreter **************************/
 432:TinyBasic.c   **** 
 433:TinyBasic.c   **** void Interp(void) {
 2583              		.loc 1 433 0
 2584              		.cfi_startproc
 2585              		@ args = 0, pretend = 0, frame = 0
 2586              		@ frame_needed = 0, uses_anonymous_args = 0
 2587 0000 2DE9F041 		push	{r4, r5, r6, r7, r8, lr}
 2588              		.cfi_def_cfa_offset 24
 2589              		.cfi_offset 4, -24
 2590              		.cfi_offset 5, -20
 2591              		.cfi_offset 6, -16
 2592              		.cfi_offset 7, -12
 2593              		.cfi_offset 8, -8
 2594              		.cfi_offset 14, -4
 434:TinyBasic.c   ****   char ch;    /* comments from TinyBasic Experimenter's Kit, pp.15-21 */
 435:TinyBasic.c   ****   int op, ix, here, chpt;                                    /* temps */
 436:TinyBasic.c   ****   Broken = false;          /* initialize this for possible later test */
 2595              		.loc 1 436 0
 2596 0004 0022     		movs	r2, #0
 2597 0006 B94B     		ldr	r3, .L396
 2598 0008 9A60     		str	r2, [r3, #8]
 2599              	.L256:
 437:TinyBasic.c   ****   while (true) {
 438:TinyBasic.c   ****     if (StopIt()) {
 2600              		.loc 1 438 0
 2601 000a FFF7FEFF 		bl	StopIt
 2602              	.LVL318:
 2603 000e 48B1     		cbz	r0, .L258
 439:TinyBasic.c   ****       Broken = false;
 2604              		.loc 1 439 0
 2605 0010 0022     		movs	r2, #0
 2606 0012 B64B     		ldr	r3, .L396
 2607 0014 9A60     		str	r2, [r3, #8]
ARM GAS  C:\Users\doug_000\AppData\Local\Temp\ccbaKQF3.s 			page 55


 440:TinyBasic.c   ****       OutLn();
 2608              		.loc 1 440 0
 2609 0016 FFF7FEFF 		bl	OutLn
 2610              	.LVL319:
 441:TinyBasic.c   ****       OutStr("*** User Break ***");
 2611              		.loc 1 441 0
 2612 001a B548     		ldr	r0, .L396+4
 2613 001c FFF7FEFF 		bl	OutStr
 2614              	.LVL320:
 442:TinyBasic.c   ****       TBerror();}
 2615              		.loc 1 442 0
 2616 0020 FFF7FEFF 		bl	TBerror
 2617              	.LVL321:
 2618              	.L258:
 443:TinyBasic.c   ****     if (ILPC==0) {
 2619              		.loc 1 443 0
 2620 0024 B34B     		ldr	r3, .L396+8
 2621 0026 1B68     		ldr	r3, [r3]
 2622 0028 CBB9     		cbnz	r3, .L259
 444:TinyBasic.c   ****       ILPC = Peek2(ILfront);
 2623              		.loc 1 444 0
 2624 002a 4FF48F70 		mov	r0, #286
 2625 002e FFF7FEFF 		bl	Peek2
 2626              	.LVL322:
 2627 0032 B04B     		ldr	r3, .L396+8
 2628 0034 1860     		str	r0, [r3]
 445:TinyBasic.c   ****       if (DEBUGON>0) LogIt(-ILPC);
 2629              		.loc 1 445 0
 2630 0036 4042     		negs	r0, r0
 2631 0038 FFF7FEFF 		bl	LogIt
 2632              	.LVL323:
 446:TinyBasic.c   ****       if (Debugging>0) {
 2633              		.loc 1 446 0
 2634 003c AB4B     		ldr	r3, .L396
 2635 003e 1B69     		ldr	r3, [r3, #16]
 2636 0040 002B     		cmp	r3, #0
 2637 0042 0CDD     		ble	.L259
 447:TinyBasic.c   ****         OutLn(); OutStr("[IL="); OutHex(ILPC,4); OutStr("]");}}
 2638              		.loc 1 447 0
 2639 0044 FFF7FEFF 		bl	OutLn
 2640              	.LVL324:
 2641 0048 AB48     		ldr	r0, .L396+12
 2642 004a FFF7FEFF 		bl	OutStr
 2643              	.LVL325:
 2644 004e A94B     		ldr	r3, .L396+8
 2645 0050 1868     		ldr	r0, [r3]
 2646 0052 0421     		movs	r1, #4
 2647 0054 FFF7FEFF 		bl	OutHex
 2648              	.LVL326:
 2649 0058 A848     		ldr	r0, .L396+16
 2650 005a FFF7FEFF 		bl	OutStr
 2651              	.LVL327:
 2652              	.L259:
 448:TinyBasic.c   ****     if (DEBUGON>0) if (Watcher>0) {             /* check watchpoint.. */
 2653              		.loc 1 448 0 discriminator 1
 2654 005e A34B     		ldr	r3, .L396
 2655 0060 5A69     		ldr	r2, [r3, #20]
ARM GAS  C:\Users\doug_000\AppData\Local\Temp\ccbaKQF3.s 			page 56


 2656 0062 002A     		cmp	r2, #0
 2657 0064 29DD     		ble	.L260
 449:TinyBasic.c   ****       if (((Watchee<0) && (Watchee+256+(int)Core[Watcher]) !=0)
 2658              		.loc 1 449 0
 2659 0066 A64B     		ldr	r3, .L396+20
 2660 0068 1B68     		ldr	r3, [r3]
 2661 006a 002B     		cmp	r3, #0
 2662 006c 05DA     		bge	.L261
 2663              		.loc 1 449 0 is_stmt 0 discriminator 1
 2664 006e 03F58071 		add	r1, r3, #256
 2665 0072 A448     		ldr	r0, .L396+24
 2666 0074 805C     		ldrb	r0, [r0, r2]	@ zero_extendqisi2
 2667 0076 C142     		cmn	r1, r0
 2668 0078 05D1     		bne	.L262
 2669              	.L261:
 450:TinyBasic.c   ****           || ((Watchee >= 0) && (Watchee==(int)Core[Watcher]))) {
 2670              		.loc 1 450 0 is_stmt 1
 2671 007a 002B     		cmp	r3, #0
 2672 007c 1DDB     		blt	.L260
 2673              		.loc 1 450 0 is_stmt 0 discriminator 1
 2674 007e A149     		ldr	r1, .L396+24
 2675 0080 8A5C     		ldrb	r2, [r1, r2]	@ zero_extendqisi2
 2676 0082 9342     		cmp	r3, r2
 2677 0084 19D1     		bne	.L260
 2678              	.L262:
 451:TinyBasic.c   ****         OutLn();
 2679              		.loc 1 451 0 is_stmt 1
 2680 0086 FFF7FEFF 		bl	OutLn
 2681              	.LVL328:
 452:TinyBasic.c   ****         OutStr("*** Watched ");
 2682              		.loc 1 452 0
 2683 008a 9F48     		ldr	r0, .L396+28
 2684 008c FFF7FEFF 		bl	OutStr
 2685              	.LVL329:
 453:TinyBasic.c   ****         OutHex(Watcher,4);
 2686              		.loc 1 453 0
 2687 0090 964C     		ldr	r4, .L396
 2688 0092 6069     		ldr	r0, [r4, #20]
 2689 0094 0421     		movs	r1, #4
 2690 0096 FFF7FEFF 		bl	OutHex
 2691              	.LVL330:
 454:TinyBasic.c   ****         OutStr(" = ");
 2692              		.loc 1 454 0
 2693 009a 9C48     		ldr	r0, .L396+32
 2694 009c FFF7FEFF 		bl	OutStr
 2695              	.LVL331:
 455:TinyBasic.c   ****         OutInt((int)Core[Watcher]);
 2696              		.loc 1 455 0
 2697 00a0 6369     		ldr	r3, [r4, #20]
 2698 00a2 984A     		ldr	r2, .L396+24
 2699 00a4 D05C     		ldrb	r0, [r2, r3]	@ zero_extendqisi2
 2700 00a6 FFF7FEFF 		bl	OutInt
 2701              	.LVL332:
 456:TinyBasic.c   ****         OutStr(" *** ");
 2702              		.loc 1 456 0
 2703 00aa 9948     		ldr	r0, .L396+36
 2704 00ac FFF7FEFF 		bl	OutStr
ARM GAS  C:\Users\doug_000\AppData\Local\Temp\ccbaKQF3.s 			page 57


 2705              	.LVL333:
 457:TinyBasic.c   ****         Watcher = 0;
 2706              		.loc 1 457 0
 2707 00b0 0023     		movs	r3, #0
 2708 00b2 6361     		str	r3, [r4, #20]
 458:TinyBasic.c   ****         TBerror();
 2709              		.loc 1 458 0
 2710 00b4 FFF7FEFF 		bl	TBerror
 2711              	.LVL334:
 459:TinyBasic.c   ****         continue;}}
 2712              		.loc 1 459 0
 2713 00b8 A7E7     		b	.L256
 2714              	.L260:
 460:TinyBasic.c   ****     op = (int)Core[ILPC++];
 2715              		.loc 1 460 0
 2716 00ba 8E4A     		ldr	r2, .L396+8
 2717 00bc 1368     		ldr	r3, [r2]
 2718 00be 591C     		adds	r1, r3, #1
 2719 00c0 1160     		str	r1, [r2]
 2720 00c2 904A     		ldr	r2, .L396+24
 2721 00c4 D45C     		ldrb	r4, [r2, r3]	@ zero_extendqisi2
 2722              	.LVL335:
 461:TinyBasic.c   ****       if (Debugging>0) {
 2723              		.loc 1 461 0
 2724 00c6 894B     		ldr	r3, .L396
 2725 00c8 1B69     		ldr	r3, [r3, #16]
 2726 00ca 002B     		cmp	r3, #0
 2727 00cc 19DD     		ble	.L263
 462:TinyBasic.c   ****         OutLn(); OutStr("[IL+"); OutHex(ILPC-Peek2(ILfront)-1,3);
 2728              		.loc 1 462 0
 2729 00ce FFF7FEFF 		bl	OutLn
 2730              	.LVL336:
 2731 00d2 9048     		ldr	r0, .L396+40
 2732 00d4 FFF7FEFF 		bl	OutStr
 2733              	.LVL337:
 2734 00d8 864B     		ldr	r3, .L396+8
 2735 00da 1D68     		ldr	r5, [r3]
 2736 00dc 4FF48F70 		mov	r0, #286
 2737 00e0 FFF7FEFF 		bl	Peek2
 2738              	.LVL338:
 2739 00e4 281A     		subs	r0, r5, r0
 2740 00e6 0138     		subs	r0, r0, #1
 2741 00e8 0321     		movs	r1, #3
 2742 00ea FFF7FEFF 		bl	OutHex
 2743              	.LVL339:
 463:TinyBasic.c   ****         OutStr("="); OutHex(op,2); OutStr("]");}
 2744              		.loc 1 463 0
 2745 00ee 8A48     		ldr	r0, .L396+44
 2746 00f0 FFF7FEFF 		bl	OutStr
 2747              	.LVL340:
 2748 00f4 2046     		mov	r0, r4
 2749 00f6 0221     		movs	r1, #2
 2750 00f8 FFF7FEFF 		bl	OutHex
 2751              	.LVL341:
 2752 00fc 7F48     		ldr	r0, .L396+16
 2753 00fe FFF7FEFF 		bl	OutStr
 2754              	.LVL342:
ARM GAS  C:\Users\doug_000\AppData\Local\Temp\ccbaKQF3.s 			page 58


 2755              	.L263:
 464:TinyBasic.c   ****     switch (op>>5) {
 2756              		.loc 1 464 0
 2757 0102 6311     		asrs	r3, r4, #5
 2758 0104 023B     		subs	r3, r3, #2
 2759 0106 052B     		cmp	r3, #5
 2760 0108 07D8     		bhi	.L264
 2761 010a DFE813F0 		tbh	[pc, r3, lsl #1]
 2762              	.L266:
 2763 010e AC04     		.2byte	(.L265-.L266)/2
 2764 0110 AC04     		.2byte	(.L265-.L266)/2
 2765 0112 B704     		.2byte	(.L267-.L266)/2
 2766 0114 F504     		.2byte	(.L268-.L266)/2
 2767 0116 2505     		.2byte	(.L269-.L266)/2
 2768 0118 7705     		.2byte	(.L270-.L266)/2
 2769              		.p2align 1
 2770              	.L264:
 465:TinyBasic.c   ****     default: switch (op) {
 2771              		.loc 1 465 0
 2772 011a 631E     		subs	r3, r4, #1
 2773 011c 3E2B     		cmp	r3, #62
 2774 011e 3FF674AF 		bhi	.L256
 2775 0122 01A2     		adr	r2, .L272
 2776 0124 52F823F0 		ldr	pc, [r2, r3, lsl #2]
 2777              		.p2align 2
 2778              	.L272:
 2779 0128 2D020000 		.word	.L271+1
 2780 012c 2D020000 		.word	.L271+1
 2781 0130 2D020000 		.word	.L271+1
 2782 0134 2D020000 		.word	.L271+1
 2783 0138 2D020000 		.word	.L271+1
 2784 013c 2D020000 		.word	.L271+1
 2785 0140 2D020000 		.word	.L271+1
 2786 0144 0B000000 		.word	.L256+1
 2787 0148 59020000 		.word	.L273+1
 2788 014c 6B020000 		.word	.L274+1
 2789 0150 83020000 		.word	.L275+1
 2790 0154 9F020000 		.word	.L276+1
 2791 0158 0B000000 		.word	.L256+1
 2792 015c 0B000000 		.word	.L256+1
 2793 0160 25020000 		.word	.L277+1
 2794 0164 B3020000 		.word	.L278+1
 2795 0168 BD020000 		.word	.L279+1
 2796 016c C7020000 		.word	.L280+1
 2797 0170 29030000 		.word	.L281+1
 2798 0174 73030000 		.word	.L282+1
 2799 0178 7D030000 		.word	.L283+1
 2800 017c 95030000 		.word	.L284+1
 2801 0180 B9030000 		.word	.L285+1
 2802 0184 CF030000 		.word	.L286+1
 2803 0188 EB030000 		.word	.L287+1
 2804 018c 07040000 		.word	.L288+1
 2805 0190 25040000 		.word	.L289+1
 2806 0194 4B040000 		.word	.L290+1
 2807 0198 91040000 		.word	.L291+1
 2808 019c 0B000000 		.word	.L256+1
 2809 01a0 03050000 		.word	.L386+1
ARM GAS  C:\Users\doug_000\AppData\Local\Temp\ccbaKQF3.s 			page 59


 2810 01a4 25050000 		.word	.L293+1
 2811 01a8 39050000 		.word	.L294+1
 2812 01ac 5B050000 		.word	.L295+1
 2813 01b0 6F050000 		.word	.L296+1
 2814 01b4 77050000 		.word	.L297+1
 2815 01b8 0B000000 		.word	.L256+1
 2816 01bc 0B000000 		.word	.L256+1
 2817 01c0 93050000 		.word	.L298+1
 2818 01c4 0B000000 		.word	.L256+1
 2819 01c8 0B000000 		.word	.L256+1
 2820 01cc 69060000 		.word	.L299+1
 2821 01d0 6D070000 		.word	.L300+1
 2822 01d4 8B070000 		.word	.L301+1
 2823 01d8 D3070000 		.word	.L302+1
 2824 01dc E7070000 		.word	.L303+1
 2825 01e0 D5090000 		.word	.L304+1
 2826 01e4 0F0A0000 		.word	.L305+1
 2827 01e8 0F0A0000 		.word	.L305+1
 2828 01ec 0F0A0000 		.word	.L305+1
 2829 01f0 0F0A0000 		.word	.L305+1
 2830 01f4 0F0A0000 		.word	.L305+1
 2831 01f8 0F0A0000 		.word	.L305+1
 2832 01fc 0F0A0000 		.word	.L305+1
 2833 0200 0F0A0000 		.word	.L305+1
 2834 0204 430A0000 		.word	.L306+1
 2835 0208 430A0000 		.word	.L306+1
 2836 020c 430A0000 		.word	.L306+1
 2837 0210 430A0000 		.word	.L306+1
 2838 0214 430A0000 		.word	.L306+1
 2839 0218 430A0000 		.word	.L306+1
 2840 021c 430A0000 		.word	.L306+1
 2841 0220 430A0000 		.word	.L306+1
 2842              		.p2align 1
 2843              	.L277:
 466:TinyBasic.c   ****       case 15:
 467:TinyBasic.c   ****         TBerror();
 2844              		.loc 1 467 0
 2845 0224 FFF7FEFF 		bl	TBerror
 2846              	.LVL343:
 468:TinyBasic.c   ****         return;
 2847              		.loc 1 468 0
 2848 0228 BDE8F081 		pop	{r4, r5, r6, r7, r8, pc}
 2849              	.LVL344:
 2850              	.L271:
 469:TinyBasic.c   **** 
 470:TinyBasic.c   **** /* SX n    00-07   Stack Exchange. */
 471:TinyBasic.c   **** /*                 Exchange the top byte of computational stack with  */
 472:TinyBasic.c   **** /* that "n" bytes into the stack. The top/left byte of the stack is   */
 473:TinyBasic.c   **** /* considered to be byte 0, so SX 0 does nothing.                     */
 474:TinyBasic.c   ****       case 1: case 2: case 3: case 4: case 5: case 6: case 7:
 475:TinyBasic.c   ****         if (ExpnTop+op>=ExpnStk) {       /* swap is below stack depth */
 2851              		.loc 1 475 0
 2852 022c 3B4B     		ldr	r3, .L396+48
 2853 022e 1A68     		ldr	r2, [r3]
 2854 0230 1444     		add	r4, r4, r2
 2855              	.LVL345:
 2856 0232 7F2C     		cmp	r4, #127
ARM GAS  C:\Users\doug_000\AppData\Local\Temp\ccbaKQF3.s 			page 60


 2857 0234 03DD     		ble	.L308
 476:TinyBasic.c   ****           TBerror();
 2858              		.loc 1 476 0
 2859 0236 FFF7FEFF 		bl	TBerror
 2860              	.LVL346:
 477:TinyBasic.c   ****           return;}
 2861              		.loc 1 477 0
 2862 023a BDE8F081 		pop	{r4, r5, r6, r7, r8, pc}
 2863              	.L308:
 478:TinyBasic.c   ****         ix = (int)Core[ExpnTop];
 2864              		.loc 1 478 0
 2865 023e 314B     		ldr	r3, .L396+24
 2866 0240 995C     		ldrb	r1, [r3, r2]	@ zero_extendqisi2
 2867              	.LVL347:
 479:TinyBasic.c   ****         Core[ExpnTop] = Core[ExpnTop+op];
 2868              		.loc 1 479 0
 2869 0242 185D     		ldrb	r0, [r3, r4]	@ zero_extendqisi2
 2870 0244 9854     		strb	r0, [r3, r2]
 480:TinyBasic.c   ****         Core[ExpnTop+op] = (aByte)ix;
 2871              		.loc 1 480 0
 2872 0246 1955     		strb	r1, [r3, r4]
 481:TinyBasic.c   ****         if (Debugging>0) ShowExSt();
 2873              		.loc 1 481 0
 2874 0248 284B     		ldr	r3, .L396
 2875 024a 1B69     		ldr	r3, [r3, #16]
 2876 024c 002B     		cmp	r3, #0
 2877 024e 7FF7DCAE 		ble	.L256
 2878              		.loc 1 481 0 is_stmt 0 discriminator 1
 2879 0252 FFF7FEFF 		bl	ShowExSt
 2880              	.LVL348:
 2881 0256 D8E6     		b	.L256
 2882              	.LVL349:
 2883              	.L273:
 482:TinyBasic.c   ****         break;
 483:TinyBasic.c   **** 
 484:TinyBasic.c   **** /* LB n    09nn    Push Literal Byte onto Stack.                      */
 485:TinyBasic.c   **** /*                 This adds one byte to the expression stack, which  */
 486:TinyBasic.c   **** /* is the second byte of the instruction. An error stop will occur if */
 487:TinyBasic.c   **** /* the stack overflows. */
 488:TinyBasic.c   ****       case 9:
 489:TinyBasic.c   ****         PushExBy((int)Core[ILPC++]);                  /* push IL byte */
 2884              		.loc 1 489 0 is_stmt 1
 2885 0258 264A     		ldr	r2, .L396+8
 2886 025a 1368     		ldr	r3, [r2]
 2887 025c 591C     		adds	r1, r3, #1
 2888 025e 1160     		str	r1, [r2]
 2889 0260 284A     		ldr	r2, .L396+24
 2890 0262 D05C     		ldrb	r0, [r2, r3]	@ zero_extendqisi2
 2891 0264 FFF7FEFF 		bl	PushExBy
 2892              	.LVL350:
 490:TinyBasic.c   ****         break;
 2893              		.loc 1 490 0
 2894 0268 CFE6     		b	.L256
 2895              	.L274:
 491:TinyBasic.c   **** 
 492:TinyBasic.c   **** /* LN n    0Annnn  Push Literal Number.                               */
 493:TinyBasic.c   **** /*                 This adds the following two bytes to the           */
ARM GAS  C:\Users\doug_000\AppData\Local\Temp\ccbaKQF3.s 			page 61


 494:TinyBasic.c   **** /* computational stack, as a 16-bit number. Stack overflow results in */
 495:TinyBasic.c   **** /* an error stop. Numbers are assumed to be Big-Endian.               */
 496:TinyBasic.c   ****       case 10:
 497:TinyBasic.c   ****         PushExInt(Peek2(ILPC++));              /* get next 2 IL bytes */
 2896              		.loc 1 497 0
 2897 026a 224C     		ldr	r4, .L396+8
 2898              	.LVL351:
 2899 026c 2068     		ldr	r0, [r4]
 2900 026e 431C     		adds	r3, r0, #1
 2901              	.LVL352:
 2902 0270 2360     		str	r3, [r4]
 2903 0272 FFF7FEFF 		bl	Peek2
 2904              	.LVL353:
 2905 0276 FFF7FEFF 		bl	PushExInt
 2906              	.LVL354:
 498:TinyBasic.c   ****         ILPC++;
 2907              		.loc 1 498 0
 2908 027a 2368     		ldr	r3, [r4]
 2909 027c 0133     		adds	r3, r3, #1
 2910 027e 2360     		str	r3, [r4]
 499:TinyBasic.c   ****         break;
 2911              		.loc 1 499 0
 2912 0280 C3E6     		b	.L256
 2913              	.LVL355:
 2914              	.L275:
 500:TinyBasic.c   **** 
 501:TinyBasic.c   **** /* DS      0B      Duplicate Top Number (two bytes) on Stack.         */
 502:TinyBasic.c   **** /*                 An error stop will occur if there are less than 2  */
 503:TinyBasic.c   **** /* bytes (1 int) on the expression stack or if the stack overflows.   */
 504:TinyBasic.c   ****       case 11:
 505:TinyBasic.c   ****         op = ExpnTop;
 2915              		.loc 1 505 0
 2916 0282 264B     		ldr	r3, .L396+48
 2917 0284 1C68     		ldr	r4, [r3]
 2918              	.LVL356:
 506:TinyBasic.c   ****         ix = PopExInt();
 2919              		.loc 1 506 0
 2920 0286 FFF7FEFF 		bl	PopExInt
 2921              	.LVL357:
 507:TinyBasic.c   ****         if (ILPC == 0) break;                            /* underflow */
 2922              		.loc 1 507 0
 2923 028a 1A4B     		ldr	r3, .L396+8
 2924 028c 1B68     		ldr	r3, [r3]
 2925 028e 002B     		cmp	r3, #0
 2926 0290 3FF4BBAE 		beq	.L256
 508:TinyBasic.c   ****         ExpnTop = op;
 2927              		.loc 1 508 0
 2928 0294 214B     		ldr	r3, .L396+48
 2929 0296 1C60     		str	r4, [r3]
 509:TinyBasic.c   ****         PushExInt(ix);
 2930              		.loc 1 509 0
 2931 0298 FFF7FEFF 		bl	PushExInt
 2932              	.LVL358:
 510:TinyBasic.c   ****         break;
 2933              		.loc 1 510 0
 2934 029c B5E6     		b	.L256
 2935              	.L276:
ARM GAS  C:\Users\doug_000\AppData\Local\Temp\ccbaKQF3.s 			page 62


 511:TinyBasic.c   **** 
 512:TinyBasic.c   **** /* SP      0C      Stack Pop.                                         */
 513:TinyBasic.c   **** /*                 The top two bytes are removed from the expression  */
 514:TinyBasic.c   **** /* stack and discarded. Underflow results in an error stop.           */
 515:TinyBasic.c   ****       case 12:
 516:TinyBasic.c   ****         ix = PopExInt();
 2936              		.loc 1 516 0
 2937 029e FFF7FEFF 		bl	PopExInt
 2938              	.LVL359:
 517:TinyBasic.c   ****           if (Debugging>0) ShowExSt();
 2939              		.loc 1 517 0
 2940 02a2 124B     		ldr	r3, .L396
 2941 02a4 1B69     		ldr	r3, [r3, #16]
 2942 02a6 002B     		cmp	r3, #0
 2943 02a8 7FF7AFAE 		ble	.L256
 2944              		.loc 1 517 0 is_stmt 0 discriminator 1
 2945 02ac FFF7FEFF 		bl	ShowExSt
 2946              	.LVL360:
 2947 02b0 ABE6     		b	.L256
 2948              	.L278:
 518:TinyBasic.c   ****         break;
 519:TinyBasic.c   **** 
 520:TinyBasic.c   **** /* SB      10      Save BASIC Pointer.                                */
 521:TinyBasic.c   **** /*                 If BASIC pointer is pointing into the input line   */
 522:TinyBasic.c   **** /* buffer, it is copied to the Saved Pointer; otherwise the two       */
 523:TinyBasic.c   **** /* pointers are exchanged.                                            */
 524:TinyBasic.c   ****       case 16:
 525:TinyBasic.c   ****         LineSwap(BP);
 2949              		.loc 1 525 0 is_stmt 1
 2950 02b2 1B4B     		ldr	r3, .L396+52
 2951 02b4 1868     		ldr	r0, [r3]
 2952 02b6 FFF7FEFF 		bl	LineSwap
 2953              	.LVL361:
 526:TinyBasic.c   ****         break;
 2954              		.loc 1 526 0
 2955 02ba A6E6     		b	.L256
 2956              	.L279:
 527:TinyBasic.c   **** 
 528:TinyBasic.c   **** /* RB      11      Restore BASIC Pointer.                             */
 529:TinyBasic.c   **** /*                 If the Saved Pointer points into the input line    */
 530:TinyBasic.c   **** /* buffer, it is replaced by the value in the BASIC pointer;          */
 531:TinyBasic.c   **** /* otherwise the two pointers are exchanged.                          */
 532:TinyBasic.c   ****       case 17:
 533:TinyBasic.c   ****         LineSwap(SvPt);
 2957              		.loc 1 533 0
 2958 02bc 194B     		ldr	r3, .L396+56
 2959 02be 1868     		ldr	r0, [r3]
 2960 02c0 FFF7FEFF 		bl	LineSwap
 2961              	.LVL362:
 534:TinyBasic.c   ****         break;
 2962              		.loc 1 534 0
 2963 02c4 A1E6     		b	.L256
 2964              	.L280:
 535:TinyBasic.c   **** 
 536:TinyBasic.c   **** /* FV      12      Fetch Variable.                                    */
 537:TinyBasic.c   **** /*                 The top byte of the computational stack is used to */
 538:TinyBasic.c   **** /* index into Page 00. It is replaced by the two bytes fetched. Error */
ARM GAS  C:\Users\doug_000\AppData\Local\Temp\ccbaKQF3.s 			page 63


 539:TinyBasic.c   **** /* stops occur with stack overflow or underflow.                      */
 540:TinyBasic.c   ****       case 18:
 541:TinyBasic.c   ****         op = PopExBy();
 2965              		.loc 1 541 0
 2966 02c6 FFF7FEFF 		bl	PopExBy
 2967              	.LVL363:
 2968 02ca 0446     		mov	r4, r0
 2969              	.LVL364:
 542:TinyBasic.c   ****         if (ILPC != 0) PushExInt(Peek2(op));
 2970              		.loc 1 542 0
 2971 02cc 094B     		ldr	r3, .L396+8
 2972 02ce 1B68     		ldr	r3, [r3]
 2973 02d0 1BB1     		cbz	r3, .L309
 2974              		.loc 1 542 0 is_stmt 0 discriminator 1
 2975 02d2 FFF7FEFF 		bl	Peek2
 2976              	.LVL365:
 2977 02d6 FFF7FEFF 		bl	PushExInt
 2978              	.LVL366:
 2979              	.L309:
 543:TinyBasic.c   ****           if (Debugging>1) ShowVars(op);
 2980              		.loc 1 543 0 is_stmt 1
 2981 02da 044B     		ldr	r3, .L396
 2982 02dc 1B69     		ldr	r3, [r3, #16]
 2983 02de 012B     		cmp	r3, #1
 2984 02e0 7FF793AE 		ble	.L256
 2985              		.loc 1 543 0 is_stmt 0 discriminator 1
 2986 02e4 2046     		mov	r0, r4
 2987 02e6 FFF7FEFF 		bl	ShowVars
 2988              	.LVL367:
 2989 02ea 8EE6     		b	.L256
 2990              	.L397:
 2991              		.align	2
 2992              	.L396:
 2993 02ec 00000000 		.word	.LANCHOR0
 2994 02f0 B0000000 		.word	.LC24
 2995 02f4 00000000 		.word	ILPC
 2996 02f8 C4000000 		.word	.LC25
 2997 02fc 10000000 		.word	.LC3
 2998 0300 00000000 		.word	Watchee
 2999 0304 00000000 		.word	Core
 3000 0308 CC000000 		.word	.LC26
 3001 030c DC000000 		.word	.LC27
 3002 0310 E0000000 		.word	.LC28
 3003 0314 E8000000 		.word	.LC29
 3004 0318 28000000 		.word	.LC7
 3005 031c 00000000 		.word	ExpnTop
 3006 0320 00000000 		.word	BP
 3007 0324 00000000 		.word	SvPt
 3008              	.L281:
 544:TinyBasic.c   ****         break;
 545:TinyBasic.c   **** 
 546:TinyBasic.c   **** /* SV      13      Store Variable.                                    */
 547:TinyBasic.c   **** /*                 The top two bytes of the computational stack are   */
 548:TinyBasic.c   **** /* stored into memory at the Page 00 address specified by the third   */
 549:TinyBasic.c   **** /* byte on the stack. All three bytes are deleted from the stack.     */
 550:TinyBasic.c   **** /* Underflow results in an error stop.                                */
 551:TinyBasic.c   ****       case 19:
ARM GAS  C:\Users\doug_000\AppData\Local\Temp\ccbaKQF3.s 			page 64


 552:TinyBasic.c   ****         ix = PopExInt();
 3009              		.loc 1 552 0 is_stmt 1
 3010 0328 FFF7FEFF 		bl	PopExInt
 3011              	.LVL368:
 3012 032c 0446     		mov	r4, r0
 3013              	.LVL369:
 553:TinyBasic.c   ****         op = PopExBy();
 3014              		.loc 1 553 0
 3015 032e FFF7FEFF 		bl	PopExBy
 3016              	.LVL370:
 3017 0332 0546     		mov	r5, r0
 3018              	.LVL371:
 554:TinyBasic.c   ****         if (ILPC == 0) break;
 3019              		.loc 1 554 0
 3020 0334 AE4B     		ldr	r3, .L398
 3021 0336 1B68     		ldr	r3, [r3]
 3022 0338 002B     		cmp	r3, #0
 3023 033a 3FF466AE 		beq	.L256
 555:TinyBasic.c   ****         Poke2(op,ix);
 3024              		.loc 1 555 0
 3025 033e 2146     		mov	r1, r4
 3026 0340 FFF7FEFF 		bl	Poke2
 3027              	.LVL372:
 556:TinyBasic.c   ****           if (DEBUGON>0) LogIt((ix&0xFFFF)+((op-256)<<16));
 3028              		.loc 1 556 0
 3029 0344 A4B2     		uxth	r4, r4
 3030              	.LVL373:
 3031 0346 A5F58070 		sub	r0, r5, #256
 3032 034a 04EB0040 		add	r0, r4, r0, lsl #16
 3033 034e FFF7FEFF 		bl	LogIt
 3034              	.LVL374:
 557:TinyBasic.c   ****           if (Debugging>0) {ShowVars(op); if (Debugging>1) ShowExSt();}
 3035              		.loc 1 557 0
 3036 0352 A84B     		ldr	r3, .L398+4
 3037 0354 1B69     		ldr	r3, [r3, #16]
 3038 0356 002B     		cmp	r3, #0
 3039 0358 7FF757AE 		ble	.L256
 3040              		.loc 1 557 0 is_stmt 0 discriminator 1
 3041 035c 2846     		mov	r0, r5
 3042 035e FFF7FEFF 		bl	ShowVars
 3043              	.LVL375:
 3044 0362 A44B     		ldr	r3, .L398+4
 3045 0364 1B69     		ldr	r3, [r3, #16]
 3046 0366 012B     		cmp	r3, #1
 3047 0368 7FF74FAE 		ble	.L256
 3048              		.loc 1 557 0 discriminator 2
 3049 036c FFF7FEFF 		bl	ShowExSt
 3050              	.LVL376:
 3051 0370 4BE6     		b	.L256
 3052              	.LVL377:
 3053              	.L282:
 558:TinyBasic.c   ****         break;
 559:TinyBasic.c   **** 
 560:TinyBasic.c   **** /* GS      14      GOSUB Save.                                        */
 561:TinyBasic.c   **** /*                 The current BASIC line number is pushed            */
 562:TinyBasic.c   **** /* onto the BASIC region of the control stack. It is essential that   */
 563:TinyBasic.c   **** /* the IL stack be empty for this to work properly but no check is    */
ARM GAS  C:\Users\doug_000\AppData\Local\Temp\ccbaKQF3.s 			page 65


 564:TinyBasic.c   **** /* made for that condition. An error stop occurs on stack overflow.   */
 565:TinyBasic.c   ****       case 20:
 566:TinyBasic.c   ****         PushSub(Lino);                   /* push line # (possibly =0) */
 3054              		.loc 1 566 0 is_stmt 1
 3055 0372 A14B     		ldr	r3, .L398+8
 3056 0374 1868     		ldr	r0, [r3]
 3057 0376 FFF7FEFF 		bl	PushSub
 3058              	.LVL378:
 567:TinyBasic.c   ****         break;
 3059              		.loc 1 567 0
 3060 037a 46E6     		b	.L256
 3061              	.L283:
 568:TinyBasic.c   **** 
 569:TinyBasic.c   **** /* RS      15      Restore Saved Line.                                */
 570:TinyBasic.c   **** /*                 Pop the top two bytes off the BASIC region of the  */
 571:TinyBasic.c   **** /* control stack, making them the current line number. Set the BASIC  */
 572:TinyBasic.c   **** /* pointer at the beginning of that line. Note that this is the line  */
 573:TinyBasic.c   **** /* containing the GOSUB which caused the line number to be saved. As  */
 574:TinyBasic.c   **** /* with the GS opcode, it is essential that the IL region of the      */
 575:TinyBasic.c   **** /* control stack be empty. If the line number popped off the stack    */
 576:TinyBasic.c   **** /* does not correspond to a line in the BASIC program an error stop   */
 577:TinyBasic.c   **** /* occurs. An error stop also results from stack underflow.           */
 578:TinyBasic.c   ****       case 21:
 579:TinyBasic.c   ****         Lino = PopSub();         /* get line # (possibly =0) from pop */
 3062              		.loc 1 579 0
 3063 037c FFF7FEFF 		bl	PopSub
 3064              	.LVL379:
 3065 0380 9D4B     		ldr	r3, .L398+8
 3066 0382 1860     		str	r0, [r3]
 580:TinyBasic.c   ****         if (ILPC != 0) GoToLino() ;             /* stops run if error */
 3067              		.loc 1 580 0
 3068 0384 9A4B     		ldr	r3, .L398
 3069 0386 1B68     		ldr	r3, [r3]
 3070 0388 002B     		cmp	r3, #0
 3071 038a 3FF43EAE 		beq	.L256
 3072              		.loc 1 580 0 is_stmt 0 discriminator 1
 3073 038e FFF7FEFF 		bl	GoToLino
 3074              	.LVL380:
 3075 0392 3AE6     		b	.L256
 3076              	.L284:
 581:TinyBasic.c   ****         break;
 582:TinyBasic.c   **** 
 583:TinyBasic.c   **** /* GO      16      GOTO.                                              */
 584:TinyBasic.c   **** /*                 Make current the BASIC line whose line number is   */
 585:TinyBasic.c   **** /* equal to the value of the top two bytes in the expression stack.   */
 586:TinyBasic.c   **** /* That is, the top two bytes are popped off the computational stack, */
 587:TinyBasic.c   **** /* and the BASIC program is searched until a matching line number is  */
 588:TinyBasic.c   **** /* found. The BASIC pointer is then positioned at the beginning of    */
 589:TinyBasic.c   **** /* that line and the RUN mode flag is turned on. Stack underflow and  */
 590:TinyBasic.c   **** /* non-existent BASIC line result in error stops.                     */
 591:TinyBasic.c   ****       case 22:
 592:TinyBasic.c   ****         ILPC = XQhere;                /* the IL assumes an implied NX */
 3077              		.loc 1 592 0 is_stmt 1
 3078 0394 994B     		ldr	r3, .L398+12
 3079 0396 1868     		ldr	r0, [r3]
 3080 0398 954C     		ldr	r4, .L398
 3081              	.LVL381:
ARM GAS  C:\Users\doug_000\AppData\Local\Temp\ccbaKQF3.s 			page 66


 3082 039a 2060     		str	r0, [r4]
 593:TinyBasic.c   ****         if (DEBUGON>0) LogIt(-ILPC);
 3083              		.loc 1 593 0
 3084 039c 4042     		negs	r0, r0
 3085 039e FFF7FEFF 		bl	LogIt
 3086              	.LVL382:
 594:TinyBasic.c   ****         Lino = PopExInt();
 3087              		.loc 1 594 0
 3088 03a2 FFF7FEFF 		bl	PopExInt
 3089              	.LVL383:
 3090 03a6 944B     		ldr	r3, .L398+8
 3091 03a8 1860     		str	r0, [r3]
 595:TinyBasic.c   ****         if (ILPC != 0) GoToLino() ;             /* stops run if error */
 3092              		.loc 1 595 0
 3093 03aa 2368     		ldr	r3, [r4]
 3094 03ac 002B     		cmp	r3, #0
 3095 03ae 3FF42CAE 		beq	.L256
 3096              		.loc 1 595 0 is_stmt 0 discriminator 1
 3097 03b2 FFF7FEFF 		bl	GoToLino
 3098              	.LVL384:
 3099 03b6 28E6     		b	.L256
 3100              	.LVL385:
 3101              	.L285:
 596:TinyBasic.c   ****         break;
 597:TinyBasic.c   **** 
 598:TinyBasic.c   **** /* NE      17      Negate (two's complement).                         */
 599:TinyBasic.c   **** /*                 The number in the top two bytes of the expression  */
 600:TinyBasic.c   **** /* stack is replaced with its negative.                               */
 601:TinyBasic.c   ****       case 23:
 602:TinyBasic.c   ****         ix = PopExInt();
 3102              		.loc 1 602 0 is_stmt 1
 3103 03b8 FFF7FEFF 		bl	PopExInt
 3104              	.LVL386:
 603:TinyBasic.c   ****         if (ILPC != 0) PushExInt(-ix);
 3105              		.loc 1 603 0
 3106 03bc 8C4B     		ldr	r3, .L398
 3107 03be 1B68     		ldr	r3, [r3]
 3108 03c0 002B     		cmp	r3, #0
 3109 03c2 3FF422AE 		beq	.L256
 3110              		.loc 1 603 0 is_stmt 0 discriminator 1
 3111 03c6 4042     		negs	r0, r0
 3112              	.LVL387:
 3113 03c8 FFF7FEFF 		bl	PushExInt
 3114              	.LVL388:
 3115 03cc 1DE6     		b	.L256
 3116              	.L286:
 604:TinyBasic.c   ****         break;
 605:TinyBasic.c   **** 
 606:TinyBasic.c   **** /* AD      18      Add.                                               */
 607:TinyBasic.c   **** /*                 Add the two numbers represented by the top four    */
 608:TinyBasic.c   **** /* bytes of the expression stack, and replace them with the two-byte  */
 609:TinyBasic.c   **** /* sum. Stack underflow results in an error stop.                     */
 610:TinyBasic.c   ****       case 24:
 611:TinyBasic.c   ****         ix = PopExInt();
 3117              		.loc 1 611 0 is_stmt 1
 3118 03ce FFF7FEFF 		bl	PopExInt
 3119              	.LVL389:
ARM GAS  C:\Users\doug_000\AppData\Local\Temp\ccbaKQF3.s 			page 67


 3120 03d2 0446     		mov	r4, r0
 3121              	.LVL390:
 612:TinyBasic.c   ****         op = PopExInt();
 3122              		.loc 1 612 0
 3123 03d4 FFF7FEFF 		bl	PopExInt
 3124              	.LVL391:
 613:TinyBasic.c   ****         if (ILPC != 0) PushExInt(op+ix);
 3125              		.loc 1 613 0
 3126 03d8 854B     		ldr	r3, .L398
 3127 03da 1B68     		ldr	r3, [r3]
 3128 03dc 002B     		cmp	r3, #0
 3129 03de 3FF414AE 		beq	.L256
 3130              		.loc 1 613 0 is_stmt 0 discriminator 1
 3131 03e2 2044     		add	r0, r0, r4
 3132              	.LVL392:
 3133 03e4 FFF7FEFF 		bl	PushExInt
 3134              	.LVL393:
 3135 03e8 0FE6     		b	.L256
 3136              	.LVL394:
 3137              	.L287:
 614:TinyBasic.c   ****         break;
 615:TinyBasic.c   **** 
 616:TinyBasic.c   **** /* SU      19      Subtract.                                          */
 617:TinyBasic.c   **** /*                 Subtract the two-byte number on the top of the     */
 618:TinyBasic.c   **** /* expression stack from the next two bytes and replace the 4 bytes   */
 619:TinyBasic.c   **** /* with the two-byte difference.                                      */
 620:TinyBasic.c   ****       case 25:
 621:TinyBasic.c   ****         ix = PopExInt();
 3138              		.loc 1 621 0 is_stmt 1
 3139 03ea FFF7FEFF 		bl	PopExInt
 3140              	.LVL395:
 3141 03ee 0446     		mov	r4, r0
 3142              	.LVL396:
 622:TinyBasic.c   ****         op = PopExInt();
 3143              		.loc 1 622 0
 3144 03f0 FFF7FEFF 		bl	PopExInt
 3145              	.LVL397:
 623:TinyBasic.c   ****         if (ILPC != 0) PushExInt(op-ix);
 3146              		.loc 1 623 0
 3147 03f4 7E4B     		ldr	r3, .L398
 3148 03f6 1B68     		ldr	r3, [r3]
 3149 03f8 002B     		cmp	r3, #0
 3150 03fa 3FF406AE 		beq	.L256
 3151              		.loc 1 623 0 is_stmt 0 discriminator 1
 3152 03fe 001B     		subs	r0, r0, r4
 3153              	.LVL398:
 3154 0400 FFF7FEFF 		bl	PushExInt
 3155              	.LVL399:
 3156 0404 01E6     		b	.L256
 3157              	.LVL400:
 3158              	.L288:
 624:TinyBasic.c   ****         break;
 625:TinyBasic.c   **** 
 626:TinyBasic.c   **** /* MP      1A      Multiply.                                          */
 627:TinyBasic.c   **** /*                 Multiply the two numbers represented by the top 4  */
 628:TinyBasic.c   **** /* bytes of the computational stack, and replace them with the least  */
 629:TinyBasic.c   **** /* significant 16 bits of the product. Stack underflow is possible.   */
ARM GAS  C:\Users\doug_000\AppData\Local\Temp\ccbaKQF3.s 			page 68


 630:TinyBasic.c   ****       case 26:
 631:TinyBasic.c   ****         ix = PopExInt();
 3159              		.loc 1 631 0 is_stmt 1
 3160 0406 FFF7FEFF 		bl	PopExInt
 3161              	.LVL401:
 3162 040a 0446     		mov	r4, r0
 3163              	.LVL402:
 632:TinyBasic.c   ****         op = PopExInt();
 3164              		.loc 1 632 0
 3165 040c FFF7FEFF 		bl	PopExInt
 3166              	.LVL403:
 633:TinyBasic.c   ****         if (ILPC != 0) PushExInt(op*ix);
 3167              		.loc 1 633 0
 3168 0410 774B     		ldr	r3, .L398
 3169 0412 1B68     		ldr	r3, [r3]
 3170 0414 002B     		cmp	r3, #0
 3171 0416 3FF4F8AD 		beq	.L256
 3172              		.loc 1 633 0 is_stmt 0 discriminator 1
 3173 041a 04FB00F0 		mul	r0, r4, r0
 3174              	.LVL404:
 3175 041e FFF7FEFF 		bl	PushExInt
 3176              	.LVL405:
 3177 0422 F2E5     		b	.L256
 3178              	.LVL406:
 3179              	.L289:
 634:TinyBasic.c   ****         break;
 635:TinyBasic.c   **** 
 636:TinyBasic.c   **** /* DV      1B      Divide.                                            */
 637:TinyBasic.c   **** /*                 Divide the number represented by the top two bytes */
 638:TinyBasic.c   **** /* of the computational stack into that represented by the next two.  */
 639:TinyBasic.c   **** /* Replace the 4 bytes with the quotient and discard the remainder.   */
 640:TinyBasic.c   **** /* This is a signed (two's complement) integer divide, resulting in a */
 641:TinyBasic.c   **** /* signed integer quotient. Stack underflow or attempted division by  */
 642:TinyBasic.c   **** /* zero result in an error stop. */
 643:TinyBasic.c   ****       case 27:
 644:TinyBasic.c   ****         ix = PopExInt();
 3180              		.loc 1 644 0 is_stmt 1
 3181 0424 FFF7FEFF 		bl	PopExInt
 3182              	.LVL407:
 3183 0428 0446     		mov	r4, r0
 3184              	.LVL408:
 645:TinyBasic.c   ****         op = PopExInt();
 3185              		.loc 1 645 0
 3186 042a FFF7FEFF 		bl	PopExInt
 3187              	.LVL409:
 646:TinyBasic.c   ****         if (ix == 0) TBerror();                      /* divide by 0.. */
 3188              		.loc 1 646 0
 3189 042e 14B9     		cbnz	r4, .L310
 3190              		.loc 1 646 0 is_stmt 0 discriminator 1
 3191 0430 FFF7FEFF 		bl	TBerror
 3192              	.LVL410:
 3193 0434 E9E5     		b	.L256
 3194              	.LVL411:
 3195              	.L310:
 647:TinyBasic.c   ****         else if (ILPC != 0) PushExInt(op/ix);
 3196              		.loc 1 647 0 is_stmt 1
 3197 0436 6E4B     		ldr	r3, .L398
ARM GAS  C:\Users\doug_000\AppData\Local\Temp\ccbaKQF3.s 			page 69


 3198 0438 1B68     		ldr	r3, [r3]
 3199 043a 002B     		cmp	r3, #0
 3200 043c 3FF4E5AD 		beq	.L256
 3201              		.loc 1 647 0 is_stmt 0 discriminator 1
 3202 0440 90FBF4F0 		sdiv	r0, r0, r4
 3203              	.LVL412:
 3204 0444 FFF7FEFF 		bl	PushExInt
 3205              	.LVL413:
 3206 0448 DFE5     		b	.L256
 3207              	.LVL414:
 3208              	.L290:
 648:TinyBasic.c   ****         break;
 649:TinyBasic.c   **** 
 650:TinyBasic.c   **** /* CP      1C      Compare.                                           */
 651:TinyBasic.c   **** /*                 The number in the top two bytes of the expression  */
 652:TinyBasic.c   **** /* stack is compared to (subtracted from) the number in the 4th and   */
 653:TinyBasic.c   **** /* fifth bytes of the stack, and the result is determined to be       */
 654:TinyBasic.c   **** /* Greater, Equal, or Less. The low three bits of the third byte mask */
 655:TinyBasic.c   **** /* a conditional skip in the IL program to test these conditions; if  */
 656:TinyBasic.c   **** /* the result corresponds to a one bit, the next byte of the IL code  */
 657:TinyBasic.c   **** /* is skipped and not executed. The three bits correspond to the      */
 658:TinyBasic.c   **** /* conditions as follows:                                             */
 659:TinyBasic.c   **** /*         bit 0   Result is Less                                     */
 660:TinyBasic.c   **** /*         bit 1   Result is Equal                                    */
 661:TinyBasic.c   **** /*         bit 2   Result is Greater                                  */
 662:TinyBasic.c   **** /* Whether the skip is taken or not, all five bytes are deleted from  */
 663:TinyBasic.c   **** /* the stack. This is a signed (two's complement) comparison so that  */
 664:TinyBasic.c   **** /* any positive number is greater than any negative number. Multiple  */
 665:TinyBasic.c   **** /* conditions, such as greater-than-or-equal or unequal (i.e.greater- */
 666:TinyBasic.c   **** /* than-or-less-than), may be tested by forming the condition mask    */
 667:TinyBasic.c   **** /* byte of the sum of the respective bits. In particular, a mask byte */
 668:TinyBasic.c   **** /* of 7 will force an unconditional skip and a mask byte of 0 will    */
 669:TinyBasic.c   **** /* force no skip. The other 5 bits of the control byte are ignored.   */
 670:TinyBasic.c   **** /* Stack underflow results in an error stop.                          */
 671:TinyBasic.c   ****       case 28:
 672:TinyBasic.c   ****         ix = PopExInt();
 3209              		.loc 1 672 0 is_stmt 1
 3210 044a FFF7FEFF 		bl	PopExInt
 3211              	.LVL415:
 3212 044e 0446     		mov	r4, r0
 3213              	.LVL416:
 673:TinyBasic.c   ****         op = PopExBy();
 3214              		.loc 1 673 0
 3215 0450 FFF7FEFF 		bl	PopExBy
 3216              	.LVL417:
 3217 0454 0546     		mov	r5, r0
 3218              	.LVL418:
 674:TinyBasic.c   ****         ix = PopExInt()-ix;                         /* <0 or =0 or >0 */
 3219              		.loc 1 674 0
 3220 0456 FFF7FEFF 		bl	PopExInt
 3221              	.LVL419:
 3222 045a 001B     		subs	r0, r0, r4
 3223              	.LVL420:
 675:TinyBasic.c   ****         if (ILPC == 0) return;                         /* underflow.. */
 3224              		.loc 1 675 0
 3225 045c 644B     		ldr	r3, .L398
 3226 045e 1B68     		ldr	r3, [r3]
ARM GAS  C:\Users\doug_000\AppData\Local\Temp\ccbaKQF3.s 			page 70


 3227 0460 002B     		cmp	r3, #0
 3228 0462 00F0E783 		beq	.L255
 676:TinyBasic.c   ****         if (ix<0) ix = 1;
 3229              		.loc 1 676 0
 3230 0466 0028     		cmp	r0, #0
 3231 0468 02DB     		blt	.L387
 677:TinyBasic.c   ****         else if (ix>0) ix = 4;              /* choose the bit to test */
 3232              		.loc 1 677 0
 3233 046a 03DD     		ble	.L388
 3234 046c 0422     		movs	r2, #4
 3235 046e 02E0     		b	.L311
 3236              	.L387:
 676:TinyBasic.c   ****         if (ix<0) ix = 1;
 3237              		.loc 1 676 0
 3238 0470 0122     		movs	r2, #1
 3239 0472 00E0     		b	.L311
 3240              	.L388:
 678:TinyBasic.c   ****           else ix = 2;
 3241              		.loc 1 678 0
 3242 0474 0222     		movs	r2, #2
 3243              	.L311:
 3244              	.LVL421:
 679:TinyBasic.c   ****         if ((ix&op)>0) ILPC++;           /* skip next IL op if bit =1 */
 3245              		.loc 1 679 0
 3246 0476 2A42     		tst	r2, r5
 3247 0478 02D0     		beq	.L312
 3248              		.loc 1 679 0 is_stmt 0 discriminator 1
 3249 047a 0133     		adds	r3, r3, #1
 3250 047c 5C4A     		ldr	r2, .L398
 3251              	.LVL422:
 3252 047e 1360     		str	r3, [r2]
 3253              	.L312:
 680:TinyBasic.c   ****           if (Debugging>0) ShowExSt();
 3254              		.loc 1 680 0 is_stmt 1
 3255 0480 5C4B     		ldr	r3, .L398+4
 3256 0482 1B69     		ldr	r3, [r3, #16]
 3257 0484 002B     		cmp	r3, #0
 3258 0486 7FF7C0AD 		ble	.L256
 3259              		.loc 1 680 0 is_stmt 0 discriminator 1
 3260 048a FFF7FEFF 		bl	ShowExSt
 3261              	.LVL423:
 3262 048e BCE5     		b	.L256
 3263              	.LVL424:
 3264              	.L291:
 681:TinyBasic.c   ****         break;
 682:TinyBasic.c   **** 
 683:TinyBasic.c   **** /* NX      1D      Next BASIC Statement.                              */
 684:TinyBasic.c   **** /*                 Advance to next line in the BASIC program, if in   */
 685:TinyBasic.c   **** /* RUN mode, or restart the IL program if in the command mode. The    */
 686:TinyBasic.c   **** /* remainder of the current line is ignored. In the Run mode if there */
 687:TinyBasic.c   **** /* is another line it becomes current with the pointer positioned at  */
 688:TinyBasic.c   **** /* its beginning. At this time, if the Break condition returns true,  */
 689:TinyBasic.c   **** /* execution is aborted and the IL program is restarted after         */
 690:TinyBasic.c   **** /* printing an error message. Otherwise IL execution proceeds from    */
 691:TinyBasic.c   **** /* the saved IL address (see the XQ instruction). If there are no     */
 692:TinyBasic.c   **** /* more BASIC statements in the program an error stop occurs.         */
 693:TinyBasic.c   ****       case 29:
ARM GAS  C:\Users\doug_000\AppData\Local\Temp\ccbaKQF3.s 			page 71


 694:TinyBasic.c   ****         if (Lino == 0) ILPC = 0;
 3265              		.loc 1 694 0 is_stmt 1
 3266 0490 594B     		ldr	r3, .L398+8
 3267 0492 1B68     		ldr	r3, [r3]
 3268 0494 1BB9     		cbnz	r3, .L313
 3269              		.loc 1 694 0 is_stmt 0 discriminator 1
 3270 0496 0022     		movs	r2, #0
 3271 0498 554B     		ldr	r3, .L398
 3272 049a 1A60     		str	r2, [r3]
 3273 049c 18E0     		b	.L314
 3274              	.L313:
 695:TinyBasic.c   ****         else {
 696:TinyBasic.c   ****           BP = SkipTo(BP, '\r');          /* skip to end of this line */
 3275              		.loc 1 696 0 is_stmt 1
 3276 049e 584D     		ldr	r5, .L398+16
 3277 04a0 2868     		ldr	r0, [r5]
 3278 04a2 0D21     		movs	r1, #13
 3279 04a4 FFF7FEFF 		bl	SkipTo
 3280              	.LVL425:
 697:TinyBasic.c   ****           Lino = Peek2(BP++);                           /* get line # */
 3281              		.loc 1 697 0
 3282 04a8 441C     		adds	r4, r0, #1
 3283              	.LVL426:
 3284 04aa 2C60     		str	r4, [r5]
 3285 04ac FFF7FEFF 		bl	Peek2
 3286              	.LVL427:
 3287 04b0 514B     		ldr	r3, .L398+8
 3288 04b2 1860     		str	r0, [r3]
 698:TinyBasic.c   ****           if (Lino==0) {                           /* ran off the end */
 3289              		.loc 1 698 0
 3290 04b4 10B9     		cbnz	r0, .L315
 699:TinyBasic.c   ****             TBerror();
 3291              		.loc 1 699 0
 3292 04b6 FFF7FEFF 		bl	TBerror
 3293              	.LVL428:
 700:TinyBasic.c   ****             break;}
 3294              		.loc 1 700 0
 3295 04ba A6E5     		b	.L256
 3296              	.L315:
 701:TinyBasic.c   ****           else BP++;
 3297              		.loc 1 701 0
 3298 04bc 0134     		adds	r4, r4, #1
 3299 04be 504B     		ldr	r3, .L398+16
 3300 04c0 1C60     		str	r4, [r3]
 702:TinyBasic.c   ****           ILPC = XQhere;          /* restart at saved IL address (XQ) */
 3301              		.loc 1 702 0
 3302 04c2 4E4B     		ldr	r3, .L398+12
 3303 04c4 1868     		ldr	r0, [r3]
 3304 04c6 4A4B     		ldr	r3, .L398
 3305 04c8 1860     		str	r0, [r3]
 703:TinyBasic.c   ****           if (DEBUGON>0) LogIt(-ILPC);}
 3306              		.loc 1 703 0
 3307 04ca 4042     		negs	r0, r0
 3308 04cc FFF7FEFF 		bl	LogIt
 3309              	.LVL429:
 3310              	.L314:
 704:TinyBasic.c   ****         if (DEBUGON>0) LogIt(Lino);
ARM GAS  C:\Users\doug_000\AppData\Local\Temp\ccbaKQF3.s 			page 72


 3311              		.loc 1 704 0 discriminator 1
 3312 04d0 494B     		ldr	r3, .L398+8
 3313 04d2 1868     		ldr	r0, [r3]
 3314 04d4 FFF7FEFF 		bl	LogIt
 3315              	.LVL430:
 705:TinyBasic.c   ****         if (Debugging>0) {OutStr(" [#"); OutInt(Lino); OutStr("]");}
 3316              		.loc 1 705 0 discriminator 1
 3317 04d8 464B     		ldr	r3, .L398+4
 3318 04da 1B69     		ldr	r3, [r3, #16]
 3319 04dc 002B     		cmp	r3, #0
 3320 04de 7FF794AD 		ble	.L256
 3321 04e2 4848     		ldr	r0, .L398+20
 3322 04e4 FFF7FEFF 		bl	OutStr
 3323              	.LVL431:
 3324 04e8 434B     		ldr	r3, .L398+8
 3325 04ea 1868     		ldr	r0, [r3]
 3326 04ec FFF7FEFF 		bl	OutInt
 3327              	.LVL432:
 3328 04f0 4548     		ldr	r0, .L398+24
 3329 04f2 FFF7FEFF 		bl	OutStr
 3330              	.LVL433:
 3331 04f6 88E5     		b	.L256
 3332              	.LVL434:
 3333              	.L316:
 706:TinyBasic.c   ****         break;
 707:TinyBasic.c   **** 
 708:TinyBasic.c   **** /* LS      1F      List The Program.                                  */
 709:TinyBasic.c   **** /*                 The expression stack is assumed to have two 2-byte */
 710:TinyBasic.c   **** /* numbers. The top number is the line number of the last line to be  */
 711:TinyBasic.c   **** /* listed, and the next is the line number of the first line to be    */
 712:TinyBasic.c   **** /* listed. If the specified line numbers do not exist in the program, */
 713:TinyBasic.c   **** /* the next available line (i.e. with the next higher line number) is */
 714:TinyBasic.c   **** /* assumed instead in each case. If the last line to be listed comes  */
 715:TinyBasic.c   **** /* before the first, no lines are listed. If Break condition comes    */
 716:TinyBasic.c   **** /* true during a List operation, the remainder of the listing is      */
 717:TinyBasic.c   **** /* aborted. Zero is not a valid line number, and an error stop occurs */
 718:TinyBasic.c   **** /* if either line number specification is zero. The line number       */
 719:TinyBasic.c   **** /* specifications are deleted from the stack.                         */
 720:TinyBasic.c   ****       case 31:
 721:TinyBasic.c   ****         op = 0;
 722:TinyBasic.c   ****         ix = 0;          /* The IL seems to assume we can handle zero */
 723:TinyBasic.c   ****         while (ExpnTop<ExpnStk) {   /* or more numbers, so get them.. */
 724:TinyBasic.c   ****           op = ix;
 725:TinyBasic.c   ****           ix = PopExInt();}       /* get final line #, then initial.. */
 3334              		.loc 1 725 0
 3335 04f8 FFF7FEFF 		bl	PopExInt
 3336              	.LVL435:
 724:TinyBasic.c   ****           ix = PopExInt();}       /* get final line #, then initial.. */
 3337              		.loc 1 724 0
 3338 04fc 2146     		mov	r1, r4
 3339              		.loc 1 725 0
 3340 04fe 0446     		mov	r4, r0
 3341              	.LVL436:
 3342 0500 01E0     		b	.L292
 3343              	.LVL437:
 3344              	.L386:
 465:TinyBasic.c   ****       case 15:
ARM GAS  C:\Users\doug_000\AppData\Local\Temp\ccbaKQF3.s 			page 73


 3345              		.loc 1 465 0
 3346 0502 0024     		movs	r4, #0
 3347              	.LVL438:
 3348 0504 2146     		mov	r1, r4
 3349              	.LVL439:
 3350              	.L292:
 723:TinyBasic.c   ****           op = ix;
 3351              		.loc 1 723 0
 3352 0506 414B     		ldr	r3, .L398+28
 3353 0508 1B68     		ldr	r3, [r3]
 3354 050a 7F2B     		cmp	r3, #127
 3355 050c F4DD     		ble	.L316
 726:TinyBasic.c   ****         if (op<0 || ix<0) TBerror();
 3356              		.loc 1 726 0
 3357 050e 0029     		cmp	r1, #0
 3358 0510 01DB     		blt	.L317
 3359              		.loc 1 726 0 is_stmt 0 discriminator 2
 3360 0512 002C     		cmp	r4, #0
 3361 0514 02DA     		bge	.L318
 3362              	.L317:
 3363              		.loc 1 726 0 discriminator 3
 3364 0516 FFF7FEFF 		bl	TBerror
 3365              	.LVL440:
 3366 051a 76E5     		b	.L256
 3367              	.LVL441:
 3368              	.L318:
 727:TinyBasic.c   ****           else ListIt(ix,op);
 3369              		.loc 1 727 0 is_stmt 1
 3370 051c 2046     		mov	r0, r4
 3371 051e FFF7FEFF 		bl	ListIt
 3372              	.LVL442:
 3373 0522 72E5     		b	.L256
 3374              	.LVL443:
 3375              	.L293:
 728:TinyBasic.c   ****         break;
 729:TinyBasic.c   **** 
 730:TinyBasic.c   **** /* PN      20      Print Number.                                      */
 731:TinyBasic.c   **** /*                 The number represented by the top two bytes of the */
 732:TinyBasic.c   **** /* expression stack is printed in decimal with leading zero           */
 733:TinyBasic.c   **** /* suppression. If it is negative, it is preceded by a minus sign     */
 734:TinyBasic.c   **** /* and the magnitude is printed. Stack underflow is possible.         */
 735:TinyBasic.c   ****       case 32:
 736:TinyBasic.c   ****         ix = PopExInt();
 3376              		.loc 1 736 0
 3377 0524 FFF7FEFF 		bl	PopExInt
 3378              	.LVL444:
 737:TinyBasic.c   ****         if (ILPC != 0) OutInt(ix);
 3379              		.loc 1 737 0
 3380 0528 314B     		ldr	r3, .L398
 3381 052a 1B68     		ldr	r3, [r3]
 3382 052c 002B     		cmp	r3, #0
 3383 052e 3FF46CAD 		beq	.L256
 3384              		.loc 1 737 0 is_stmt 0 discriminator 1
 3385 0532 FFF7FEFF 		bl	OutInt
 3386              	.LVL445:
 3387 0536 68E5     		b	.L256
 3388              	.L294:
ARM GAS  C:\Users\doug_000\AppData\Local\Temp\ccbaKQF3.s 			page 74


 738:TinyBasic.c   ****         break;
 739:TinyBasic.c   **** 
 740:TinyBasic.c   **** /* PQ      21      Print BASIC String.                                */
 741:TinyBasic.c   **** /*                 The ASCII characters beginning with the current    */
 742:TinyBasic.c   **** /* position of BASIC pointer are printed on the console. The string   */
 743:TinyBasic.c   **** /* to be printed is terminated by quotation mark ("), and the BASIC   */
 744:TinyBasic.c   **** /* pointer is left at the character following the terminal quote. An  */
 745:TinyBasic.c   **** /* error stop occurs if a carriage return is imbedded in the string.  */
 746:TinyBasic.c   ****       case 33:
 747:TinyBasic.c   ****         while (true) {
 748:TinyBasic.c   ****           ch = (char)Core[BP++];
 3389              		.loc 1 748 0 is_stmt 1
 3390 0538 314A     		ldr	r2, .L398+16
 3391 053a 1368     		ldr	r3, [r2]
 3392 053c 591C     		adds	r1, r3, #1
 3393 053e 1160     		str	r1, [r2]
 3394 0540 334A     		ldr	r2, .L398+32
 3395 0542 D05C     		ldrb	r0, [r2, r3]	@ zero_extendqisi2
 3396              	.LVL446:
 749:TinyBasic.c   ****           if (ch=='\"') break;                 /* done on final quote */
 3397              		.loc 1 749 0
 3398 0544 2228     		cmp	r0, #34
 3399 0546 3FF460AD 		beq	.L256
 750:TinyBasic.c   ****           if (ch<' ') {      /* error if return or other control char */
 3400              		.loc 1 750 0
 3401 054a 1F28     		cmp	r0, #31
 3402 054c 02D8     		bhi	.L319
 751:TinyBasic.c   ****             TBerror();
 3403              		.loc 1 751 0
 3404 054e FFF7FEFF 		bl	TBerror
 3405              	.LVL447:
 752:TinyBasic.c   ****             break;}
 3406              		.loc 1 752 0
 3407 0552 5AE5     		b	.L256
 3408              	.LVL448:
 3409              	.L319:
 753:TinyBasic.c   ****           Ouch(ch);}                                      /* print it */
 3410              		.loc 1 753 0
 3411 0554 FFF7FEFF 		bl	Ouch
 3412              	.LVL449:
 3413 0558 EEE7     		b	.L294
 3414              	.L295:
 754:TinyBasic.c   ****         break;
 755:TinyBasic.c   **** 
 756:TinyBasic.c   **** /* PT      22      Print Tab.                                         */
 757:TinyBasic.c   **** /*                 Print one or more spaces on the console, ending at */
 758:TinyBasic.c   **** /* the next multiple of eight character positions (from the left      */
 759:TinyBasic.c   **** /* margin).                                                           */
 760:TinyBasic.c   ****       case 34:
 761:TinyBasic.c   ****         do {Ouch(' ');} while (Core[TabHere]%8>0);
 3415              		.loc 1 761 0 discriminator 1
 3416 055a 2020     		movs	r0, #32
 3417 055c FFF7FEFF 		bl	Ouch
 3418              	.LVL450:
 3419 0560 2B4B     		ldr	r3, .L398+32
 3420 0562 93F8BF30 		ldrb	r3, [r3, #191]	@ zero_extendqisi2
 3421 0566 13F0070F 		tst	r3, #7
ARM GAS  C:\Users\doug_000\AppData\Local\Temp\ccbaKQF3.s 			page 75


 3422 056a F6D1     		bne	.L295
 3423 056c 4DE5     		b	.L256
 3424              	.L296:
 762:TinyBasic.c   ****         break;
 763:TinyBasic.c   **** 
 764:TinyBasic.c   **** /* NL      23      New Line.                                          */
 765:TinyBasic.c   **** /*                 Output a carriage-return-linefeed sequence to the  */
 766:TinyBasic.c   **** /* console.                                                           */
 767:TinyBasic.c   ****       case 35:
 768:TinyBasic.c   ****         Ouch('\r');
 3425              		.loc 1 768 0
 3426 056e 0D20     		movs	r0, #13
 3427 0570 FFF7FEFF 		bl	Ouch
 3428              	.LVL451:
 769:TinyBasic.c   ****         break;
 3429              		.loc 1 769 0
 3430 0574 49E5     		b	.L256
 3431              	.LVL452:
 3432              	.L297:
 770:TinyBasic.c   **** 
 771:TinyBasic.c   **** /* PC "xxxx"  24xxxxxxXx   Print Literal String.                      */
 772:TinyBasic.c   **** /*                         The ASCII string follows opcode and its    */
 773:TinyBasic.c   **** /* last byte has the most significant bit set to one.                 */
 774:TinyBasic.c   ****       case 36:
 775:TinyBasic.c   ****         do {
 776:TinyBasic.c   ****           ix = (int)Core[ILPC++];
 3433              		.loc 1 776 0 discriminator 1
 3434 0576 1E4A     		ldr	r2, .L398
 3435 0578 1368     		ldr	r3, [r2]
 3436 057a 591C     		adds	r1, r3, #1
 3437 057c 1160     		str	r1, [r2]
 3438 057e 244A     		ldr	r2, .L398+32
 3439 0580 D45C     		ldrb	r4, [r2, r3]	@ zero_extendqisi2
 3440              	.LVL453:
 777:TinyBasic.c   ****           Ouch((char)(ix&127));          /* strip high bit for output */
 3441              		.loc 1 777 0 discriminator 1
 3442 0582 04F07F00 		and	r0, r4, #127
 3443 0586 FFF7FEFF 		bl	Ouch
 3444              	.LVL454:
 778:TinyBasic.c   ****           } while ((ix&128)==0);
 3445              		.loc 1 778 0 discriminator 1
 3446 058a 14F0800F 		tst	r4, #128
 3447 058e F2D0     		beq	.L297
 3448 0590 3BE5     		b	.L256
 3449              	.LVL455:
 3450              	.L298:
 779:TinyBasic.c   ****         break;
 780:TinyBasic.c   **** 
 781:TinyBasic.c   **** /* GL      27      Get Input Line.                                    */
 782:TinyBasic.c   **** /*                 ASCII characters are accepted from console input   */
 783:TinyBasic.c   **** /* to fill the line buffer. If the line length exceeds the available  */
 784:TinyBasic.c   **** /* space, the excess characters are ignored and bell characters are   */
 785:TinyBasic.c   **** /* output. The line is terminated by a carriage return. On completing */
 786:TinyBasic.c   **** /* one line of input, the BASIC pointer is set to point to the first  */
 787:TinyBasic.c   **** /* character in the input line buffer, and a carriage-return-linefeed */
 788:TinyBasic.c   **** /* sequence is [not] output.                                          */
 789:TinyBasic.c   ****       case 39:
ARM GAS  C:\Users\doug_000\AppData\Local\Temp\ccbaKQF3.s 			page 76


 790:TinyBasic.c   ****         InLend = InLine;
 3451              		.loc 1 790 0
 3452 0592 3022     		movs	r2, #48
 3453 0594 1F4B     		ldr	r3, .L398+36
 3454 0596 1A60     		str	r2, [r3]
 3455              	.L320:
 791:TinyBasic.c   ****         while (true) {               /* read input line characters... */
 792:TinyBasic.c   ****           ch = Inch();
 3456              		.loc 1 792 0
 3457 0598 FFF7FEFF 		bl	Inch
 3458              	.LVL456:
 793:TinyBasic.c   ****           if (ch=='\r') break;                     /* end of the line */
 3459              		.loc 1 793 0
 3460 059c 0D28     		cmp	r0, #13
 3461 059e 4ED0     		beq	.L327
 794:TinyBasic.c   ****           else if (ch=='\t') {
 3462              		.loc 1 794 0
 3463 05a0 0928     		cmp	r0, #9
 3464 05a2 07D1     		bne	.L322
 795:TinyBasic.c   ****             Debugging = (Debugging+DEBUGON)&1;  /* maybe toggle debug */
 3465              		.loc 1 795 0
 3466 05a4 134A     		ldr	r2, .L398+4
 3467 05a6 1369     		ldr	r3, [r2, #16]
 3468 05a8 0133     		adds	r3, r3, #1
 3469 05aa 03F00103 		and	r3, r3, #1
 3470 05ae 1361     		str	r3, [r2, #16]
 3471              	.LVL457:
 796:TinyBasic.c   ****             ch = ' ';}                       /* convert tabs to space */
 3472              		.loc 1 796 0
 3473 05b0 2020     		movs	r0, #32
 3474 05b2 35E0     		b	.L323
 3475              	.LVL458:
 3476              	.L322:
 797:TinyBasic.c   ****           else if (ch==(char)Core[BScode]) {        /* backspace code */
 3477              		.loc 1 797 0
 3478 05b4 164B     		ldr	r3, .L398+32
 3479 05b6 93F80F31 		ldrb	r3, [r3, #271]	@ zero_extendqisi2
 3480 05ba 8342     		cmp	r3, r0
 3481 05bc 0BD1     		bne	.L324
 798:TinyBasic.c   ****             if (InLend>InLine) InLend--;    /* assume console already */
 3482              		.loc 1 798 0
 3483 05be 154B     		ldr	r3, .L398+36
 3484 05c0 1B68     		ldr	r3, [r3]
 3485 05c2 302B     		cmp	r3, #48
 3486 05c4 03DD     		ble	.L325
 3487              		.loc 1 798 0 is_stmt 0 discriminator 1
 3488 05c6 013B     		subs	r3, r3, #1
 3489 05c8 124A     		ldr	r2, .L398+36
 3490 05ca 1360     		str	r3, [r2]
 3491 05cc 28E0     		b	.L323
 3492              	.L325:
 799:TinyBasic.c   ****             else {   /* backing up over front of line: just kill it.. */
 800:TinyBasic.c   ****               Ouch('\r');
 3493              		.loc 1 800 0 is_stmt 1
 3494 05ce 0D20     		movs	r0, #13
 3495              	.LVL459:
 3496 05d0 FFF7FEFF 		bl	Ouch
ARM GAS  C:\Users\doug_000\AppData\Local\Temp\ccbaKQF3.s 			page 77


 3497              	.LVL460:
 801:TinyBasic.c   ****               break;}}
 3498              		.loc 1 801 0
 3499 05d4 33E0     		b	.L327
 3500              	.LVL461:
 3501              	.L324:
 802:TinyBasic.c   ****           else if (ch==(char)Core[CanCode]) {     /* cancel this line */
 3502              		.loc 1 802 0
 3503 05d6 0E4B     		ldr	r3, .L398+32
 3504 05d8 93F81031 		ldrb	r3, [r3, #272]	@ zero_extendqisi2
 3505 05dc 8342     		cmp	r3, r0
 3506 05de 1BD1     		bne	.L326
 803:TinyBasic.c   ****             InLend = InLine;
 3507              		.loc 1 803 0
 3508 05e0 3022     		movs	r2, #48
 3509 05e2 0C4B     		ldr	r3, .L398+36
 3510 05e4 1A60     		str	r2, [r3]
 804:TinyBasic.c   ****             Ouch('\r');                /* also start a new input line */
 3511              		.loc 1 804 0
 3512 05e6 0D20     		movs	r0, #13
 3513              	.LVL462:
 3514 05e8 FFF7FEFF 		bl	Ouch
 3515              	.LVL463:
 805:TinyBasic.c   ****             break;}
 3516              		.loc 1 805 0
 3517 05ec 27E0     		b	.L327
 3518              	.L399:
 3519 05ee 00BF     		.align	2
 3520              	.L398:
 3521 05f0 00000000 		.word	ILPC
 3522 05f4 00000000 		.word	.LANCHOR0
 3523 05f8 00000000 		.word	Lino
 3524 05fc 00000000 		.word	XQhere
 3525 0600 00000000 		.word	BP
 3526 0604 AC000000 		.word	.LC23
 3527 0608 10000000 		.word	.LC3
 3528 060c 00000000 		.word	ExpnTop
 3529 0610 00000000 		.word	Core
 3530 0614 00000000 		.word	InLend
 3531              	.LVL464:
 3532              	.L326:
 806:TinyBasic.c   ****           else if (ch<' ') continue;   /* ignore non-ASCII & controls */
 3533              		.loc 1 806 0
 3534 0618 1F28     		cmp	r0, #31
 3535 061a BDD9     		bls	.L320
 807:TinyBasic.c   ****           else if (ch>'~') continue;
 3536              		.loc 1 807 0
 3537 061c 7E28     		cmp	r0, #126
 3538 061e BBD8     		bhi	.L320
 3539              	.LVL465:
 3540              	.L323:
 808:TinyBasic.c   ****           if (InLend>ExpnTop-2) continue;    /* discard overrun chars */
 3541              		.loc 1 808 0
 3542 0620 9C4B     		ldr	r3, .L400
 3543 0622 1B68     		ldr	r3, [r3]
 3544 0624 023B     		subs	r3, r3, #2
 3545 0626 9C4A     		ldr	r2, .L400+4
ARM GAS  C:\Users\doug_000\AppData\Local\Temp\ccbaKQF3.s 			page 78


 3546 0628 1268     		ldr	r2, [r2]
 3547 062a 9342     		cmp	r3, r2
 3548 062c B4DB     		blt	.L320
 809:TinyBasic.c   ****           Core[InLend++] = (aByte)ch;}  /* insert this char in buffer */
 3549              		.loc 1 809 0
 3550 062e 511C     		adds	r1, r2, #1
 3551 0630 994B     		ldr	r3, .L400+4
 3552 0632 1960     		str	r1, [r3]
 3553 0634 994B     		ldr	r3, .L400+8
 3554 0636 9854     		strb	r0, [r3, r2]
 3555 0638 AEE7     		b	.L320
 3556              	.LVL466:
 3557              	.L330:
 810:TinyBasic.c   ****         while (InLend>InLine && Core[InLend-1] == ' ')
 811:TinyBasic.c   ****           InLend--;                  /* delete excess trailing spaces */
 3558              		.loc 1 811 0
 3559 063a 974B     		ldr	r3, .L400+4
 3560 063c 1A60     		str	r2, [r3]
 3561              	.L327:
 810:TinyBasic.c   ****         while (InLend>InLine && Core[InLend-1] == ' ')
 3562              		.loc 1 810 0
 3563 063e 964B     		ldr	r3, .L400+4
 3564 0640 1B68     		ldr	r3, [r3]
 3565 0642 302B     		cmp	r3, #48
 3566 0644 04DD     		ble	.L329
 810:TinyBasic.c   ****         while (InLend>InLine && Core[InLend-1] == ' ')
 3567              		.loc 1 810 0 is_stmt 0 discriminator 1
 3568 0646 5A1E     		subs	r2, r3, #1
 3569 0648 9449     		ldr	r1, .L400+8
 3570 064a 895C     		ldrb	r1, [r1, r2]	@ zero_extendqisi2
 3571 064c 2029     		cmp	r1, #32
 3572 064e F4D0     		beq	.L330
 3573              	.L329:
 812:TinyBasic.c   ****         Core[InLend++] = (aByte) '\r';  /* insert final return & null */
 3574              		.loc 1 812 0 is_stmt 1
 3575 0650 5A1C     		adds	r2, r3, #1
 3576 0652 9149     		ldr	r1, .L400+4
 3577 0654 0A60     		str	r2, [r1]
 3578 0656 9149     		ldr	r1, .L400+8
 3579 0658 0D20     		movs	r0, #13
 3580 065a C854     		strb	r0, [r1, r3]
 813:TinyBasic.c   ****         Core[InLend] = 0;
 3581              		.loc 1 813 0
 3582 065c 0023     		movs	r3, #0
 3583 065e 8B54     		strb	r3, [r1, r2]
 814:TinyBasic.c   ****         BP = InLine;
 3584              		.loc 1 814 0
 3585 0660 3022     		movs	r2, #48
 3586 0662 8F4B     		ldr	r3, .L400+12
 3587 0664 1A60     		str	r2, [r3]
 815:TinyBasic.c   ****         break;
 3588              		.loc 1 815 0
 3589 0666 D0E4     		b	.L256
 3590              	.L299:
 816:TinyBasic.c   **** 
 817:TinyBasic.c   **** /* IL      2A      Insert BASIC Line.                                 */
 818:TinyBasic.c   **** /*                 Beginning with the current position of the BASIC   */
ARM GAS  C:\Users\doug_000\AppData\Local\Temp\ccbaKQF3.s 			page 79


 819:TinyBasic.c   **** /* pointer and continuing to the [end of it], the line is inserted    */
 820:TinyBasic.c   **** /* into the BASIC program space; for a line number, the top two bytes */
 821:TinyBasic.c   **** /* of the expression stack are used. If this number matches a line    */
 822:TinyBasic.c   **** /* already in the program it is deleted and the new one replaces it.  */
 823:TinyBasic.c   **** /* If the new line consists of only a carriage return, it is not      */
 824:TinyBasic.c   **** /* inserted, though any previous line with the same number will have  */
 825:TinyBasic.c   **** /* been deleted. The lines are maintained in the program space sorted */
 826:TinyBasic.c   **** /* by line number. If the new line to be inserted is a different size */
 827:TinyBasic.c   **** /* than the old line being replaced, the remainder of the program is  */
 828:TinyBasic.c   **** /* shifted over to make room or to close up the gap as necessary. If  */
 829:TinyBasic.c   **** /* there is insufficient memory to fit in the new line, the program   */
 830:TinyBasic.c   **** /* space is unchanged and an error stop occurs (with the IL address   */
 831:TinyBasic.c   **** /* decremented). A normal error stop occurs on expression stack       */
 832:TinyBasic.c   **** /* underflow or if the number is zero, which is not a valid line      */
 833:TinyBasic.c   **** /* number. After completing the insertion, the IL program is          */
 834:TinyBasic.c   **** /* restarted in the command mode.                                     */
 835:TinyBasic.c   ****       case 42:
 836:TinyBasic.c   ****         Lino = PopExInt();                              /* get line # */
 3591              		.loc 1 836 0
 3592 0668 FFF7FEFF 		bl	PopExInt
 3593              	.LVL467:
 3594 066c 0646     		mov	r6, r0
 3595 066e 8D4B     		ldr	r3, .L400+16
 3596 0670 1860     		str	r0, [r3]
 837:TinyBasic.c   ****         if (Lino <= 0) {          /* don't insert line #0 or negative */
 3597              		.loc 1 837 0
 3598 0672 0028     		cmp	r0, #0
 3599 0674 0ADC     		bgt	.L331
 838:TinyBasic.c   ****           if (ILPC != 0) TBerror();
 3600              		.loc 1 838 0
 3601 0676 8C4B     		ldr	r3, .L400+20
 3602 0678 1B68     		ldr	r3, [r3]
 3603 067a 002B     		cmp	r3, #0
 3604 067c 00F0DA82 		beq	.L255
 3605              		.loc 1 838 0 is_stmt 0 discriminator 1
 3606 0680 FFF7FEFF 		bl	TBerror
 3607              	.LVL468:
 839:TinyBasic.c   ****             else return;
 840:TinyBasic.c   ****           break;}
 3608              		.loc 1 840 0 is_stmt 1 discriminator 1
 3609 0684 C1E4     		b	.L256
 3610              	.L332:
 841:TinyBasic.c   ****         while (((char)Core[BP]) == ' ') BP++;  /* skip leading spaces */
 3611              		.loc 1 841 0 discriminator 2
 3612 0686 0133     		adds	r3, r3, #1
 3613 0688 854A     		ldr	r2, .L400+12
 3614 068a 1360     		str	r3, [r2]
 3615              	.L331:
 3616              		.loc 1 841 0 is_stmt 0 discriminator 1
 3617 068c 844B     		ldr	r3, .L400+12
 3618 068e 1B68     		ldr	r3, [r3]
 3619 0690 824A     		ldr	r2, .L400+8
 3620 0692 D25C     		ldrb	r2, [r2, r3]	@ zero_extendqisi2
 3621 0694 202A     		cmp	r2, #32
 3622 0696 F6D0     		beq	.L332
 842:TinyBasic.c   ****         if (((char)Core[BP]) == '\r') ix = 0;       /* nothing to add */
 3623              		.loc 1 842 0 is_stmt 1
ARM GAS  C:\Users\doug_000\AppData\Local\Temp\ccbaKQF3.s 			page 80


 3624 0698 0D2A     		cmp	r2, #13
 3625 069a 04D0     		beq	.L389
 843:TinyBasic.c   ****           else ix = InLend-BP+2;         /* the size of the insertion */
 3626              		.loc 1 843 0
 3627 069c 7E4A     		ldr	r2, .L400+4
 3628 069e 1468     		ldr	r4, [r2]
 3629              	.LVL469:
 3630 06a0 E31A     		subs	r3, r4, r3
 3631 06a2 9C1C     		adds	r4, r3, #2
 3632              	.LVL470:
 3633 06a4 00E0     		b	.L333
 3634              	.LVL471:
 3635              	.L389:
 842:TinyBasic.c   ****         if (((char)Core[BP]) == '\r') ix = 0;       /* nothing to add */
 3636              		.loc 1 842 0
 3637 06a6 0024     		movs	r4, #0
 3638              	.LVL472:
 3639              	.L333:
 844:TinyBasic.c   ****         op = 0;         /* this will be the number of bytes to delete */
 845:TinyBasic.c   ****         chpt = FindLine(Lino);             /* try to find this line.. */
 3640              		.loc 1 845 0
 3641 06a8 3046     		mov	r0, r6
 3642 06aa FFF7FEFF 		bl	FindLine
 3643              	.LVL473:
 3644 06ae 0546     		mov	r5, r0
 3645              	.LVL474:
 846:TinyBasic.c   ****         if (Peek2(chpt) == Lino)       /* there is a line to delete.. */
 3646              		.loc 1 846 0
 3647 06b0 FFF7FEFF 		bl	Peek2
 3648              	.LVL475:
 3649 06b4 8642     		cmp	r6, r0
 3650 06b6 05D1     		bne	.L390
 847:TinyBasic.c   ****           op = (SkipTo(chpt+2, '\r')-chpt);
 3651              		.loc 1 847 0
 3652 06b8 A81C     		adds	r0, r5, #2
 3653 06ba 0D21     		movs	r1, #13
 3654 06bc FFF7FEFF 		bl	SkipTo
 3655              	.LVL476:
 3656 06c0 401B     		subs	r0, r0, r5
 3657              	.LVL477:
 3658 06c2 00E0     		b	.L334
 3659              	.LVL478:
 3660              	.L390:
 844:TinyBasic.c   ****         op = 0;         /* this will be the number of bytes to delete */
 3661              		.loc 1 844 0
 3662 06c4 0020     		movs	r0, #0
 3663              	.LVL479:
 3664              	.L334:
 848:TinyBasic.c   ****         if (ix == 0) if (op==0) {  /* nothing to add nor delete; done */
 3665              		.loc 1 848 0
 3666 06c6 24B9     		cbnz	r4, .L335
 3667              		.loc 1 848 0 is_stmt 0 discriminator 1
 3668 06c8 18B9     		cbnz	r0, .L335
 849:TinyBasic.c   ****           Lino = 0;
 3669              		.loc 1 849 0 is_stmt 1
 3670 06ca 0022     		movs	r2, #0
 3671 06cc 754B     		ldr	r3, .L400+16
ARM GAS  C:\Users\doug_000\AppData\Local\Temp\ccbaKQF3.s 			page 81


 3672 06ce 1A60     		str	r2, [r3]
 850:TinyBasic.c   ****           break;}
 3673              		.loc 1 850 0
 3674 06d0 9BE4     		b	.L256
 3675              	.L335:
 851:TinyBasic.c   ****         op = ix-op;      /* = how many more bytes to add or (-)delete */
 3676              		.loc 1 851 0
 3677 06d2 211A     		subs	r1, r4, r0
 3678              	.LVL480:
 852:TinyBasic.c   ****         if (SrcEnd+op>=SubStk) {                         /* too big.. */
 3679              		.loc 1 852 0
 3680 06d4 754B     		ldr	r3, .L400+24
 3681 06d6 1B68     		ldr	r3, [r3]
 3682 06d8 0B44     		add	r3, r3, r1
 3683 06da 754A     		ldr	r2, .L400+28
 3684 06dc 1268     		ldr	r2, [r2]
 3685 06de 9342     		cmp	r3, r2
 3686 06e0 02DB     		blt	.L336
 853:TinyBasic.c   ****           TBerror();
 3687              		.loc 1 853 0
 3688 06e2 FFF7FEFF 		bl	TBerror
 3689              	.LVL481:
 854:TinyBasic.c   ****           break;}
 3690              		.loc 1 854 0
 3691 06e6 90E4     		b	.L256
 3692              	.LVL482:
 3693              	.L336:
 855:TinyBasic.c   ****         SrcEnd = SrcEnd+op;                               /* new size */
 3694              		.loc 1 855 0
 3695 06e8 704A     		ldr	r2, .L400+24
 3696 06ea 1360     		str	r3, [r2]
 856:TinyBasic.c   ****         if (op>0) for (here=SrcEnd; (here--)>chpt+ix; )
 3697              		.loc 1 856 0
 3698 06ec 0029     		cmp	r1, #0
 3699 06ee 05DC     		bgt	.L337
 3700 06f0 09E0     		b	.L393
 3701              	.LVL483:
 3702              	.L339:
 857:TinyBasic.c   ****           Core[here] = Core[here-op];  /* shift backend over to right */
 3703              		.loc 1 857 0
 3704 06f2 501A     		subs	r0, r2, r1
 3705 06f4 694B     		ldr	r3, .L400+8
 3706 06f6 185C     		ldrb	r0, [r3, r0]	@ zero_extendqisi2
 3707 06f8 9854     		strb	r0, [r3, r2]
 856:TinyBasic.c   ****         if (op>0) for (here=SrcEnd; (here--)>chpt+ix; )
 3708              		.loc 1 856 0
 3709 06fa 1346     		mov	r3, r2
 3710              	.LVL484:
 3711              	.L337:
 856:TinyBasic.c   ****         if (op>0) for (here=SrcEnd; (here--)>chpt+ix; )
 3712              		.loc 1 856 0 is_stmt 0 discriminator 2
 3713 06fc 5A1E     		subs	r2, r3, #1
 3714              	.LVL485:
 3715 06fe 2819     		adds	r0, r5, r4
 3716 0700 8342     		cmp	r3, r0
 3717 0702 F6DC     		bgt	.L339
 3718 0704 0AE0     		b	.L340
ARM GAS  C:\Users\doug_000\AppData\Local\Temp\ccbaKQF3.s 			page 82


 3719              	.LVL486:
 3720              	.L393:
 858:TinyBasic.c   ****         else if (op<0) for (here=chpt+ix; here<SrcEnd; here++)
 3721              		.loc 1 858 0 is_stmt 1
 3722 0706 0029     		cmp	r1, #0
 3723 0708 08DA     		bge	.L340
 3724              		.loc 1 858 0 is_stmt 0 discriminator 1
 3725 070a 2A19     		adds	r2, r5, r4
 3726              	.LVL487:
 3727 070c 04E0     		b	.L341
 3728              	.L342:
 859:TinyBasic.c   ****           Core[here] = Core[here-op];   /* shift it left to close gap */
 3729              		.loc 1 859 0 is_stmt 1 discriminator 4
 3730 070e 571A     		subs	r7, r2, r1
 3731 0710 6248     		ldr	r0, .L400+8
 3732 0712 C75D     		ldrb	r7, [r0, r7]	@ zero_extendqisi2
 3733 0714 8754     		strb	r7, [r0, r2]
 858:TinyBasic.c   ****         else if (op<0) for (here=chpt+ix; here<SrcEnd; here++)
 3734              		.loc 1 858 0 discriminator 4
 3735 0716 0132     		adds	r2, r2, #1
 3736              	.LVL488:
 3737              	.L341:
 858:TinyBasic.c   ****         else if (op<0) for (here=chpt+ix; here<SrcEnd; here++)
 3738              		.loc 1 858 0 is_stmt 0 discriminator 2
 3739 0718 9A42     		cmp	r2, r3
 3740 071a F8DB     		blt	.L342
 3741              	.LVL489:
 3742              	.L340:
 860:TinyBasic.c   ****         if (ix>0) Poke2(chpt++,Lino);        /* insert the new line # */
 3743              		.loc 1 860 0 is_stmt 1
 3744 071c 002C     		cmp	r4, #0
 3745 071e 0FDD     		ble	.L344
 3746              		.loc 1 860 0 is_stmt 0 discriminator 1
 3747 0720 6F1C     		adds	r7, r5, #1
 3748              	.LVL490:
 3749 0722 2846     		mov	r0, r5
 3750 0724 3146     		mov	r1, r6
 3751              	.LVL491:
 3752 0726 FFF7FEFF 		bl	Poke2
 3753              	.LVL492:
 3754 072a 3D46     		mov	r5, r7
 3755 072c 08E0     		b	.L344
 3756              	.LVL493:
 3757              	.L345:
 861:TinyBasic.c   ****         while (ix>2) {                       /* insert the new line.. */
 862:TinyBasic.c   ****           Core[++chpt] = Core[BP++];
 3758              		.loc 1 862 0 is_stmt 1
 3759 072e 0135     		adds	r5, r5, #1
 3760              	.LVL494:
 3761 0730 5B4B     		ldr	r3, .L400+12
 3762 0732 1A68     		ldr	r2, [r3]
 3763 0734 511C     		adds	r1, r2, #1
 3764 0736 1960     		str	r1, [r3]
 3765 0738 584B     		ldr	r3, .L400+8
 3766 073a 9A5C     		ldrb	r2, [r3, r2]	@ zero_extendqisi2
 3767 073c 5A55     		strb	r2, [r3, r5]
 863:TinyBasic.c   ****           ix--;}
ARM GAS  C:\Users\doug_000\AppData\Local\Temp\ccbaKQF3.s 			page 83


 3768              		.loc 1 863 0
 3769 073e 013C     		subs	r4, r4, #1
 3770              	.LVL495:
 3771              	.L344:
 861:TinyBasic.c   ****         while (ix>2) {                       /* insert the new line.. */
 3772              		.loc 1 861 0
 3773 0740 022C     		cmp	r4, #2
 3774 0742 F4DC     		bgt	.L345
 864:TinyBasic.c   ****         Poke2(EndProg,SrcEnd);
 3775              		.loc 1 864 0
 3776 0744 2420     		movs	r0, #36
 3777 0746 594B     		ldr	r3, .L400+24
 3778 0748 1968     		ldr	r1, [r3]
 3779 074a FFF7FEFF 		bl	Poke2
 3780              	.LVL496:
 865:TinyBasic.c   ****         ILPC = 0;
 3781              		.loc 1 865 0
 3782 074e 0023     		movs	r3, #0
 3783 0750 554A     		ldr	r2, .L400+20
 3784 0752 1360     		str	r3, [r2]
 866:TinyBasic.c   ****         Lino = 0;
 3785              		.loc 1 866 0
 3786 0754 534A     		ldr	r2, .L400+16
 3787 0756 1360     		str	r3, [r2]
 867:TinyBasic.c   ****           if (Debugging>0) ListIt(0,0);
 3788              		.loc 1 867 0
 3789 0758 564B     		ldr	r3, .L400+32
 3790 075a 1B69     		ldr	r3, [r3, #16]
 3791 075c 002B     		cmp	r3, #0
 3792 075e 7FF754AC 		ble	.L256
 3793              		.loc 1 867 0 is_stmt 0 discriminator 1
 3794 0762 0020     		movs	r0, #0
 3795 0764 0146     		mov	r1, r0
 3796 0766 FFF7FEFF 		bl	ListIt
 3797              	.LVL497:
 3798 076a 4EE4     		b	.L256
 3799              	.LVL498:
 3800              	.L300:
 868:TinyBasic.c   ****         break;
 869:TinyBasic.c   **** 
 870:TinyBasic.c   **** /* MT      2B      Mark the BASIC program space Empty.                */
 871:TinyBasic.c   **** /*                 Also clears the BASIC region of the control stack  */
 872:TinyBasic.c   **** /* and restart the IL program in the command mode. The memory bounds  */
 873:TinyBasic.c   **** /* and stack pointers are reset by this instruction to signify empty  */
 874:TinyBasic.c   **** /* program space, and the line number of the first line is set to 0,  */
 875:TinyBasic.c   **** /* which is the indication of the end of the program.                 */
 876:TinyBasic.c   ****       case 43:
 877:TinyBasic.c   ****         ColdStart();
 3801              		.loc 1 877 0 is_stmt 1
 3802 076c FFF7FEFF 		bl	ColdStart
 3803              	.LVL499:
 878:TinyBasic.c   ****           if (Debugging>0) {ShowSubs(); ShowExSt(); ShowVars(0);}
 3804              		.loc 1 878 0
 3805 0770 504B     		ldr	r3, .L400+32
 3806 0772 1B69     		ldr	r3, [r3, #16]
 3807 0774 002B     		cmp	r3, #0
 3808 0776 7FF748AC 		ble	.L256
ARM GAS  C:\Users\doug_000\AppData\Local\Temp\ccbaKQF3.s 			page 84


 3809              		.loc 1 878 0 is_stmt 0 discriminator 1
 3810 077a FFF7FEFF 		bl	ShowSubs
 3811              	.LVL500:
 3812 077e FFF7FEFF 		bl	ShowExSt
 3813              	.LVL501:
 3814 0782 0020     		movs	r0, #0
 3815 0784 FFF7FEFF 		bl	ShowVars
 3816              	.LVL502:
 3817 0788 3FE4     		b	.L256
 3818              	.L301:
 879:TinyBasic.c   ****         break;
 880:TinyBasic.c   **** 
 881:TinyBasic.c   **** /* XQ      2C      Execute.                                           */
 882:TinyBasic.c   **** /*                 Turns on RUN mode. This instruction also saves     */
 883:TinyBasic.c   **** /* the current value of the IL program counter for use of the NX      */
 884:TinyBasic.c   **** /* instruction, and sets the BASIC pointer to the beginning of the    */
 885:TinyBasic.c   **** /* BASIC program space. An error stop occurs if there is no BASIC     */
 886:TinyBasic.c   **** /* program. This instruction must be executed at least once before    */
 887:TinyBasic.c   **** /* the first execution of a NX instruction.                           */
 888:TinyBasic.c   ****       case 44:
 889:TinyBasic.c   ****         XQhere = ILPC;
 3819              		.loc 1 889 0 is_stmt 1
 3820 078a 474B     		ldr	r3, .L400+20
 3821 078c 1A68     		ldr	r2, [r3]
 3822 078e 4A4B     		ldr	r3, .L400+36
 3823 0790 1A60     		str	r2, [r3]
 890:TinyBasic.c   ****         BP = Peek2(UserProg);
 3824              		.loc 1 890 0
 3825 0792 2020     		movs	r0, #32
 3826 0794 FFF7FEFF 		bl	Peek2
 3827              	.LVL503:
 3828 0798 414D     		ldr	r5, .L400+12
 891:TinyBasic.c   ****         Lino = Peek2(BP++);
 3829              		.loc 1 891 0
 3830 079a 441C     		adds	r4, r0, #1
 3831              	.LVL504:
 3832 079c 2C60     		str	r4, [r5]
 3833 079e FFF7FEFF 		bl	Peek2
 3834              	.LVL505:
 3835 07a2 404B     		ldr	r3, .L400+16
 3836 07a4 1860     		str	r0, [r3]
 892:TinyBasic.c   ****         BP++;
 3837              		.loc 1 892 0
 3838 07a6 0134     		adds	r4, r4, #1
 3839 07a8 2C60     		str	r4, [r5]
 893:TinyBasic.c   ****         if (Lino == 0) TBerror();
 3840              		.loc 1 893 0
 3841 07aa 10B9     		cbnz	r0, .L346
 3842              		.loc 1 893 0 is_stmt 0 discriminator 1
 3843 07ac FFF7FEFF 		bl	TBerror
 3844              	.LVL506:
 3845 07b0 2BE4     		b	.L256
 3846              	.L346:
 894:TinyBasic.c   ****         else if (Debugging>0)
 3847              		.loc 1 894 0 is_stmt 1
 3848 07b2 404B     		ldr	r3, .L400+32
 3849 07b4 1B69     		ldr	r3, [r3, #16]
ARM GAS  C:\Users\doug_000\AppData\Local\Temp\ccbaKQF3.s 			page 85


 3850 07b6 002B     		cmp	r3, #0
 3851 07b8 7FF727AC 		ble	.L256
 895:TinyBasic.c   ****           {OutStr(" [#"); OutInt(Lino); OutStr("]");}
 3852              		.loc 1 895 0
 3853 07bc 3F48     		ldr	r0, .L400+40
 3854 07be FFF7FEFF 		bl	OutStr
 3855              	.LVL507:
 3856 07c2 384B     		ldr	r3, .L400+16
 3857 07c4 1868     		ldr	r0, [r3]
 3858 07c6 FFF7FEFF 		bl	OutInt
 3859              	.LVL508:
 3860 07ca 3D48     		ldr	r0, .L400+44
 3861 07cc FFF7FEFF 		bl	OutStr
 3862              	.LVL509:
 3863 07d0 1BE4     		b	.L256
 3864              	.LVL510:
 3865              	.L302:
 896:TinyBasic.c   ****         break;
 897:TinyBasic.c   **** 
 898:TinyBasic.c   **** /* WS      2D      Stop.                                              */
 899:TinyBasic.c   **** /*                 Stop execution and restart the IL program in the   */
 900:TinyBasic.c   **** /* command mode. The entire control stack (including BASIC region)    */
 901:TinyBasic.c   **** /* is also vacated by this instruction. This instruction effectively  */
 902:TinyBasic.c   **** /* jumps to the Warm Start entry of the ML interpreter.               */
 903:TinyBasic.c   ****       case 45:
 904:TinyBasic.c   ****         WarmStart();
 3866              		.loc 1 904 0
 3867 07d2 FFF7FEFF 		bl	WarmStart
 3868              	.LVL511:
 905:TinyBasic.c   ****           if (Debugging>0) ShowSubs();
 3869              		.loc 1 905 0
 3870 07d6 374B     		ldr	r3, .L400+32
 3871 07d8 1B69     		ldr	r3, [r3, #16]
 3872 07da 002B     		cmp	r3, #0
 3873 07dc 7FF715AC 		ble	.L256
 3874              		.loc 1 905 0 is_stmt 0 discriminator 1
 3875 07e0 FFF7FEFF 		bl	ShowSubs
 3876              	.LVL512:
 3877 07e4 11E4     		b	.L256
 3878              	.L303:
 906:TinyBasic.c   ****         break;
 907:TinyBasic.c   **** 
 908:TinyBasic.c   **** /* US      2E      Machine Language Subroutine Call.                  */
 909:TinyBasic.c   **** /*                 The top six bytes of the expression stack contain  */
 910:TinyBasic.c   **** /* 3 numbers with the following interpretations: The top number is    */
 911:TinyBasic.c   **** /* loaded into the A (or A and B) register; the next number is loaded */
 912:TinyBasic.c   **** /* into 16 bits of Index register; the third number is interpreted as */
 913:TinyBasic.c   **** /* the address of a machine language subroutine to be called. These   */
 914:TinyBasic.c   **** /* six bytes on the expression stack are replaced with the 16-bit     */
 915:TinyBasic.c   **** /* result returned by the subroutine. Stack underflow results in an   */
 916:TinyBasic.c   **** /* error stop.                                                        */
 917:TinyBasic.c   ****       case 46:
 918:TinyBasic.c   ****         Poke2(LinoCore,Lino);    /* bring these memory locations up.. */
 3879              		.loc 1 918 0 is_stmt 1
 3880 07e6 2820     		movs	r0, #40
 3881 07e8 2E4B     		ldr	r3, .L400+16
 3882 07ea 1968     		ldr	r1, [r3]
ARM GAS  C:\Users\doug_000\AppData\Local\Temp\ccbaKQF3.s 			page 86


 3883 07ec FFF7FEFF 		bl	Poke2
 3884              	.LVL513:
 919:TinyBasic.c   ****         Poke2(ILPCcore,ILPC);      /* ..to date, in case user looks.. */
 3885              		.loc 1 919 0
 3886 07f0 DFF8B480 		ldr	r8, .L400+20
 3887 07f4 2A20     		movs	r0, #42
 3888 07f6 D8F80010 		ldr	r1, [r8]
 3889 07fa FFF7FEFF 		bl	Poke2
 3890              	.LVL514:
 920:TinyBasic.c   ****         Poke2(BPcore,BP);
 3891              		.loc 1 920 0
 3892 07fe 2C20     		movs	r0, #44
 3893 0800 274B     		ldr	r3, .L400+12
 3894 0802 1968     		ldr	r1, [r3]
 3895 0804 FFF7FEFF 		bl	Poke2
 3896              	.LVL515:
 921:TinyBasic.c   ****         Poke2(SvPtCore,SvPt);
 3897              		.loc 1 921 0
 3898 0808 2E20     		movs	r0, #46
 3899 080a 2E4B     		ldr	r3, .L400+48
 3900 080c 1968     		ldr	r1, [r3]
 3901 080e FFF7FEFF 		bl	Poke2
 3902              	.LVL516:
 922:TinyBasic.c   ****         ix = PopExInt()&0xFFFF;                            /* datum A */
 3903              		.loc 1 922 0
 3904 0812 FFF7FEFF 		bl	PopExInt
 3905              	.LVL517:
 3906 0816 0446     		mov	r4, r0
 3907              	.LVL518:
 3908 0818 85B2     		uxth	r5, r0
 3909              	.LVL519:
 923:TinyBasic.c   ****         here = PopExInt()&0xFFFF;                          /* datum X */
 3910              		.loc 1 923 0
 3911 081a FFF7FEFF 		bl	PopExInt
 3912              	.LVL520:
 3913 081e 86B2     		uxth	r6, r0
 3914              	.LVL521:
 924:TinyBasic.c   ****         op = PopExInt()&0xFFFF;            /* nominal machine address */
 3915              		.loc 1 924 0
 3916 0820 FFF7FEFF 		bl	PopExInt
 3917              	.LVL522:
 3918 0824 87B2     		uxth	r7, r0
 3919              	.LVL523:
 925:TinyBasic.c   ****         if (ILPC == 0) break;
 3920              		.loc 1 925 0
 3921 0826 D8F80030 		ldr	r3, [r8]
 3922 082a 002B     		cmp	r3, #0
 3923 082c 3FF4EDAB 		beq	.L256
 926:TinyBasic.c   ****         if (op>=Peek2(ILfront) && op<ILend) { /* call IL subroutine.. */
 3924              		.loc 1 926 0
 3925 0830 4FF48F70 		mov	r0, #286
 3926 0834 FFF7FEFF 		bl	Peek2
 3927              	.LVL524:
 3928 0838 B842     		cmp	r0, r7
 3929 083a 14DC     		bgt	.L347
 3930              		.loc 1 926 0 is_stmt 0 discriminator 1
 3931 083c 224B     		ldr	r3, .L400+52
ARM GAS  C:\Users\doug_000\AppData\Local\Temp\ccbaKQF3.s 			page 87


 3932 083e 1B68     		ldr	r3, [r3]
 3933 0840 9F42     		cmp	r7, r3
 3934 0842 10DA     		bge	.L347
 927:TinyBasic.c   ****           PushExInt(here);
 3935              		.loc 1 927 0 is_stmt 1
 3936 0844 3046     		mov	r0, r6
 3937 0846 FFF7FEFF 		bl	PushExInt
 3938              	.LVL525:
 928:TinyBasic.c   ****           PushExInt(ix);
 3939              		.loc 1 928 0
 3940 084a 2846     		mov	r0, r5
 3941 084c FFF7FEFF 		bl	PushExInt
 3942              	.LVL526:
 929:TinyBasic.c   ****           PushSub(ILPC);                      /* push return location */
 3943              		.loc 1 929 0
 3944 0850 D8F80000 		ldr	r0, [r8]
 3945 0854 FFF7FEFF 		bl	PushSub
 3946              	.LVL527:
 930:TinyBasic.c   ****           ILPC = op;
 3947              		.loc 1 930 0
 3948 0858 C8F80070 		str	r7, [r8]
 931:TinyBasic.c   ****           if (DEBUGON>0) LogIt(-ILPC);
 3949              		.loc 1 931 0
 3950 085c 7842     		negs	r0, r7
 3951 085e FFF7FEFF 		bl	LogIt
 3952              	.LVL528:
 3953 0862 FFF7D2BB 		b	.L256
 3954              	.L347:
 932:TinyBasic.c   ****           break;}
 933:TinyBasic.c   ****         switch (op) {
 3955              		.loc 1 933 0
 3956 0866 A7F1FF03 		sub	r3, r7, #255
 3957 086a 1C2B     		cmp	r3, #28
 3958 086c 00F2AE80 		bhi	.L348
 3959 0870 DFE803F0 		tbb	[pc, r3]
 3960              	.L350:
 3961 0874 2C       		.byte	(.L349-.L350)/2
 3962 0875 4F       		.byte	(.L351-.L350)/2
 3963 0876 AC       		.byte	(.L348-.L350)/2
 3964 0877 AC       		.byte	(.L348-.L350)/2
 3965 0878 53       		.byte	(.L352-.L350)/2
 3966 0879 AC       		.byte	(.L348-.L350)/2
 3967 087a AC       		.byte	(.L348-.L350)/2
 3968 087b 57       		.byte	(.L353-.L350)/2
 3969 087c AC       		.byte	(.L348-.L350)/2
 3970 087d AC       		.byte	(.L348-.L350)/2
 3971 087e 5D       		.byte	(.L354-.L350)/2
 3972 087f AC       		.byte	(.L348-.L350)/2
 3973 0880 AC       		.byte	(.L348-.L350)/2
 3974 0881 66       		.byte	(.L355-.L350)/2
 3975 0882 AC       		.byte	(.L348-.L350)/2
 3976 0883 AC       		.byte	(.L348-.L350)/2
 3977 0884 AC       		.byte	(.L348-.L350)/2
 3978 0885 AC       		.byte	(.L348-.L350)/2
 3979 0886 9B       		.byte	(.L356-.L350)/2
 3980 0887 AC       		.byte	(.L348-.L350)/2
 3981 0888 AC       		.byte	(.L348-.L350)/2
ARM GAS  C:\Users\doug_000\AppData\Local\Temp\ccbaKQF3.s 			page 88


 3982 0889 6C       		.byte	(.L357-.L350)/2
 3983 088a 72       		.byte	(.L358-.L350)/2
 3984 088b AC       		.byte	(.L348-.L350)/2
 3985 088c AC       		.byte	(.L348-.L350)/2
 3986 088d 79       		.byte	(.L359-.L350)/2
 3987 088e AC       		.byte	(.L348-.L350)/2
 3988 088f AC       		.byte	(.L348-.L350)/2
 3989 0890 A4       		.byte	(.L360-.L350)/2
 3990 0891 00       		.p2align 1
 3991              	.L401:
 3992 0892 00BF     		.align	2
 3993              	.L400:
 3994 0894 00000000 		.word	ExpnTop
 3995 0898 00000000 		.word	InLend
 3996 089c 00000000 		.word	Core
 3997 08a0 00000000 		.word	BP
 3998 08a4 00000000 		.word	Lino
 3999 08a8 00000000 		.word	ILPC
 4000 08ac 00000000 		.word	SrcEnd
 4001 08b0 00000000 		.word	SubStk
 4002 08b4 00000000 		.word	.LANCHOR0
 4003 08b8 00000000 		.word	XQhere
 4004 08bc AC000000 		.word	.LC23
 4005 08c0 10000000 		.word	.LC3
 4006 08c4 00000000 		.word	SvPt
 4007 08c8 00000000 		.word	ILend
 4008              	.L349:
 934:TinyBasic.c   ****         case WachPoint:    /* we only do a few predefined functions.. */
 935:TinyBasic.c   ****           Watcher = here;
 4009              		.loc 1 935 0
 4010 08cc B74B     		ldr	r3, .L402
 4011 08ce 5E61     		str	r6, [r3, #20]
 936:TinyBasic.c   ****           if (ix>32767) ix = -(int)Core[here]-256;
 4012              		.loc 1 936 0
 4013 08d0 B5F5004F 		cmp	r5, #32768
 4014 08d4 05DB     		blt	.L361
 4015              		.loc 1 936 0 is_stmt 0 discriminator 1
 4016 08d6 B64B     		ldr	r3, .L402+4
 4017 08d8 9D5D     		ldrb	r5, [r3, r6]	@ zero_extendqisi2
 4018              	.LVL529:
 4019 08da C5F1FF25 		rsb	r5, r5, #-16711936
 4020 08de 05F57F05 		add	r5, r5, #16711680
 4021              	.LVL530:
 4022              	.L361:
 937:TinyBasic.c   ****           Watchee = ix;
 4023              		.loc 1 937 0 is_stmt 1
 4024 08e2 B44B     		ldr	r3, .L402+8
 4025 08e4 1D60     		str	r5, [r3]
 938:TinyBasic.c   ****           if (Debugging>0) {
 4026              		.loc 1 938 0
 4027 08e6 B14B     		ldr	r3, .L402
 4028 08e8 1B69     		ldr	r3, [r3, #16]
 4029 08ea 002B     		cmp	r3, #0
 4030 08ec 0BDD     		ble	.L362
 939:TinyBasic.c   ****             OutLn(); OutStr("[** Watch "); OutHex(here,4); OutStr("]");}
 4031              		.loc 1 939 0
 4032 08ee FFF7FEFF 		bl	OutLn
ARM GAS  C:\Users\doug_000\AppData\Local\Temp\ccbaKQF3.s 			page 89


 4033              	.LVL531:
 4034 08f2 B148     		ldr	r0, .L402+12
 4035 08f4 FFF7FEFF 		bl	OutStr
 4036              	.LVL532:
 4037 08f8 3046     		mov	r0, r6
 4038 08fa 0421     		movs	r1, #4
 4039 08fc FFF7FEFF 		bl	OutHex
 4040              	.LVL533:
 4041 0900 AE48     		ldr	r0, .L402+16
 4042 0902 FFF7FEFF 		bl	OutStr
 4043              	.LVL534:
 4044              	.L362:
 940:TinyBasic.c   ****           PushExInt((int)Core[here]);
 4045              		.loc 1 940 0
 4046 0906 AA4B     		ldr	r3, .L402+4
 4047 0908 985D     		ldrb	r0, [r3, r6]	@ zero_extendqisi2
 4048 090a FFF7FEFF 		bl	PushExInt
 4049              	.LVL535:
 941:TinyBasic.c   ****           break;
 4050              		.loc 1 941 0
 4051 090e FFF77CBB 		b	.L256
 4052              	.L351:
 942:TinyBasic.c   ****         case ColdGo:
 943:TinyBasic.c   ****           ColdStart();
 4053              		.loc 1 943 0
 4054 0912 FFF7FEFF 		bl	ColdStart
 4055              	.LVL536:
 944:TinyBasic.c   ****           break;
 4056              		.loc 1 944 0
 4057 0916 FFF778BB 		b	.L256
 4058              	.L352:
 945:TinyBasic.c   ****         case WarmGo:
 946:TinyBasic.c   ****           WarmStart();
 4059              		.loc 1 946 0
 4060 091a FFF7FEFF 		bl	WarmStart
 4061              	.LVL537:
 947:TinyBasic.c   ****           break;
 4062              		.loc 1 947 0
 4063 091e FFF774BB 		b	.L256
 4064              	.L353:
 948:TinyBasic.c   ****         case InchSub:
 949:TinyBasic.c   ****           PushExInt((int)Inch());
 4065              		.loc 1 949 0
 4066 0922 FFF7FEFF 		bl	Inch
 4067              	.LVL538:
 4068 0926 FFF7FEFF 		bl	PushExInt
 4069              	.LVL539:
 950:TinyBasic.c   ****           break;
 4070              		.loc 1 950 0
 4071 092a FFF76EBB 		b	.L256
 4072              	.L354:
 951:TinyBasic.c   ****         case OutchSub:
 952:TinyBasic.c   ****           Ouch((char)(ix&127));
 4073              		.loc 1 952 0
 4074 092e 05F07F00 		and	r0, r5, #127
 4075 0932 FFF7FEFF 		bl	Ouch
 4076              	.LVL540:
ARM GAS  C:\Users\doug_000\AppData\Local\Temp\ccbaKQF3.s 			page 90


 953:TinyBasic.c   ****           PushExInt(0);
 4077              		.loc 1 953 0
 4078 0936 0020     		movs	r0, #0
 4079 0938 FFF7FEFF 		bl	PushExInt
 4080              	.LVL541:
 954:TinyBasic.c   ****           break;
 4081              		.loc 1 954 0
 4082 093c FFF765BB 		b	.L256
 4083              	.L355:
 955:TinyBasic.c   ****         case BreakSub:
 956:TinyBasic.c   ****           PushExInt(StopIt());
 4084              		.loc 1 956 0
 4085 0940 FFF7FEFF 		bl	StopIt
 4086              	.LVL542:
 4087 0944 FFF7FEFF 		bl	PushExInt
 4088              	.LVL543:
 957:TinyBasic.c   ****           break;
 4089              		.loc 1 957 0
 4090 0948 FFF75FBB 		b	.L256
 4091              	.L357:
 958:TinyBasic.c   ****         case PeekSub:
 959:TinyBasic.c   ****           PushExInt((int)Core[here]);
 4092              		.loc 1 959 0
 4093 094c 984B     		ldr	r3, .L402+4
 4094 094e 985D     		ldrb	r0, [r3, r6]	@ zero_extendqisi2
 4095 0950 FFF7FEFF 		bl	PushExInt
 4096              	.LVL544:
 960:TinyBasic.c   ****           break;
 4097              		.loc 1 960 0
 4098 0954 FFF759BB 		b	.L256
 4099              	.L358:
 961:TinyBasic.c   ****         case Peek2Sub:
 962:TinyBasic.c   ****           PushExInt(Peek2(here));
 4100              		.loc 1 962 0
 4101 0958 3046     		mov	r0, r6
 4102 095a FFF7FEFF 		bl	Peek2
 4103              	.LVL545:
 4104 095e FFF7FEFF 		bl	PushExInt
 4105              	.LVL546:
 963:TinyBasic.c   ****           break;
 4106              		.loc 1 963 0
 4107 0962 FFF752BB 		b	.L256
 4108              	.L359:
 964:TinyBasic.c   ****         case PokeSub:
 965:TinyBasic.c   ****           ix = ix&0xFF;
 4109              		.loc 1 965 0
 4110 0966 E4B2     		uxtb	r4, r4
 4111              	.LVL547:
 966:TinyBasic.c   ****           Core[here] = (aByte)ix;
 4112              		.loc 1 966 0
 4113 0968 914B     		ldr	r3, .L402+4
 4114 096a 9C55     		strb	r4, [r3, r6]
 967:TinyBasic.c   ****           PushExInt(ix);
 4115              		.loc 1 967 0
 4116 096c 2046     		mov	r0, r4
 4117 096e FFF7FEFF 		bl	PushExInt
 4118              	.LVL548:
ARM GAS  C:\Users\doug_000\AppData\Local\Temp\ccbaKQF3.s 			page 91


 968:TinyBasic.c   ****           if (DEBUGON>0) LogIt(((ix+256)<<16)+here);
 4119              		.loc 1 968 0
 4120 0972 04F58070 		add	r0, r4, #256
 4121 0976 06EB0040 		add	r0, r6, r0, lsl #16
 4122 097a FFF7FEFF 		bl	LogIt
 4123              	.LVL549:
 969:TinyBasic.c   ****           Lino = Peek2(LinoCore);         /* restore these pointers.. */
 4124              		.loc 1 969 0
 4125 097e 2820     		movs	r0, #40
 4126 0980 FFF7FEFF 		bl	Peek2
 4127              	.LVL550:
 4128 0984 8E4B     		ldr	r3, .L402+20
 4129 0986 1860     		str	r0, [r3]
 970:TinyBasic.c   ****           ILPC = Peek2(ILPCcore);    /* ..in case user changed them.. */
 4130              		.loc 1 970 0
 4131 0988 2A20     		movs	r0, #42
 4132 098a FFF7FEFF 		bl	Peek2
 4133              	.LVL551:
 4134 098e 8D4B     		ldr	r3, .L402+24
 4135 0990 1860     		str	r0, [r3]
 971:TinyBasic.c   ****           BP = Peek2(BPcore);
 4136              		.loc 1 971 0
 4137 0992 2C20     		movs	r0, #44
 4138 0994 FFF7FEFF 		bl	Peek2
 4139              	.LVL552:
 4140 0998 8B4B     		ldr	r3, .L402+28
 4141 099a 1860     		str	r0, [r3]
 972:TinyBasic.c   ****           SvPt = Peek2(SvPtCore);
 4142              		.loc 1 972 0
 4143 099c 2E20     		movs	r0, #46
 4144 099e FFF7FEFF 		bl	Peek2
 4145              	.LVL553:
 4146 09a2 8A4B     		ldr	r3, .L402+32
 4147 09a4 1860     		str	r0, [r3]
 973:TinyBasic.c   ****           break;
 4148              		.loc 1 973 0
 4149 09a6 FFF730BB 		b	.L256
 4150              	.LVL554:
 4151              	.L356:
 974:TinyBasic.c   ****         case DumpSub:
 975:TinyBasic.c   ****           ShoMemDump(here,ix);
 4152              		.loc 1 975 0
 4153 09aa 3046     		mov	r0, r6
 4154 09ac 2946     		mov	r1, r5
 4155 09ae FFF7FEFF 		bl	ShoMemDump
 4156              	.LVL555:
 976:TinyBasic.c   ****           PushExInt(here+ix);
 4157              		.loc 1 976 0
 4158 09b2 7019     		adds	r0, r6, r5
 4159 09b4 FFF7FEFF 		bl	PushExInt
 4160              	.LVL556:
 977:TinyBasic.c   ****           break;
 4161              		.loc 1 977 0
 4162 09b8 FFF727BB 		b	.L256
 4163              	.L360:
 978:TinyBasic.c   ****         case TrLogSub:
 979:TinyBasic.c   ****           ShowLog();
ARM GAS  C:\Users\doug_000\AppData\Local\Temp\ccbaKQF3.s 			page 92


 4164              		.loc 1 979 0
 4165 09bc FFF7FEFF 		bl	ShowLog
 4166              	.LVL557:
 980:TinyBasic.c   ****           PushExInt(LogHere);
 4167              		.loc 1 980 0
 4168 09c0 7A4B     		ldr	r3, .L402
 4169 09c2 D868     		ldr	r0, [r3, #12]
 4170 09c4 FFF7FEFF 		bl	PushExInt
 4171              	.LVL558:
 981:TinyBasic.c   ****           break;
 4172              		.loc 1 981 0
 4173 09c8 FFF71FBB 		b	.L256
 4174              	.L348:
 982:TinyBasic.c   ****         default: TBerror();}
 4175              		.loc 1 982 0
 4176 09cc FFF7FEFF 		bl	TBerror
 4177              	.LVL559:
 4178 09d0 FFF71BBB 		b	.L256
 4179              	.LVL560:
 4180              	.L304:
 983:TinyBasic.c   ****         break;
 984:TinyBasic.c   **** 
 985:TinyBasic.c   **** /* RT      2F      IL Subroutine Return.                              */
 986:TinyBasic.c   **** /*                 The IL control stack is popped to give the address */
 987:TinyBasic.c   **** /* of the next IL instruction. An error stop occurs if the entire     */
 988:TinyBasic.c   **** /* control stack (IL and BASIC) is empty.                             */
 989:TinyBasic.c   ****       case 47:
 990:TinyBasic.c   ****         ix = PopSub();                         /* get return from pop */
 4181              		.loc 1 990 0
 4182 09d4 FFF7FEFF 		bl	PopSub
 4183              	.LVL561:
 4184 09d8 0446     		mov	r4, r0
 4185              	.LVL562:
 991:TinyBasic.c   ****         if (ix<Peek2(ILfront) || ix>=ILend) TBerror();
 4186              		.loc 1 991 0
 4187 09da 4FF48F70 		mov	r0, #286
 4188              	.LVL563:
 4189 09de FFF7FEFF 		bl	Peek2
 4190              	.LVL564:
 4191 09e2 A042     		cmp	r0, r4
 4192 09e4 03DC     		bgt	.L363
 4193              		.loc 1 991 0 is_stmt 0 discriminator 2
 4194 09e6 7A4B     		ldr	r3, .L402+36
 4195 09e8 1B68     		ldr	r3, [r3]
 4196 09ea 9C42     		cmp	r4, r3
 4197 09ec 03DB     		blt	.L364
 4198              	.L363:
 4199              		.loc 1 991 0 discriminator 3
 4200 09ee FFF7FEFF 		bl	TBerror
 4201              	.LVL565:
 4202 09f2 FFF70ABB 		b	.L256
 4203              	.L364:
 992:TinyBasic.c   ****         else if (ILPC != 0) {
 4204              		.loc 1 992 0 is_stmt 1
 4205 09f6 734B     		ldr	r3, .L402+24
 4206 09f8 1B68     		ldr	r3, [r3]
 4207 09fa 002B     		cmp	r3, #0
ARM GAS  C:\Users\doug_000\AppData\Local\Temp\ccbaKQF3.s 			page 93


 4208 09fc 3FF405AB 		beq	.L256
 993:TinyBasic.c   ****           ILPC = ix;
 4209              		.loc 1 993 0
 4210 0a00 704B     		ldr	r3, .L402+24
 4211 0a02 1C60     		str	r4, [r3]
 994:TinyBasic.c   ****           if (DEBUGON>0) LogIt(-ILPC);}
 4212              		.loc 1 994 0
 4213 0a04 6042     		negs	r0, r4
 4214 0a06 FFF7FEFF 		bl	LogIt
 4215              	.LVL566:
 4216 0a0a FFF7FEBA 		b	.L256
 4217              	.LVL567:
 4218              	.L305:
 995:TinyBasic.c   ****         break;
 996:TinyBasic.c   **** 
 997:TinyBasic.c   **** /* JS a    3000-37FF       IL Subroutine Call.                        */
 998:TinyBasic.c   **** /*                         The least significant eleven bits of this  */
 999:TinyBasic.c   **** /* 2-byte instruction are added to the base address of the IL program */
1000:TinyBasic.c   **** /* to become address of the next instruction. The previous contents   */
1001:TinyBasic.c   **** /* of the IL program counter are pushed onto the IL region of the     */
1002:TinyBasic.c   **** /* control stack. Stack overflow results in an error stop.            */
1003:TinyBasic.c   ****       case 48: case 49: case 50: case 51: case 52: case 53: case 54: case 55:
1004:TinyBasic.c   ****         PushSub(ILPC+1);                /* push return location there */
 4219              		.loc 1 1004 0
 4220 0a0e 6D4C     		ldr	r4, .L402+24
 4221              	.LVL568:
 4222 0a10 2068     		ldr	r0, [r4]
 4223 0a12 0130     		adds	r0, r0, #1
 4224 0a14 FFF7FEFF 		bl	PushSub
 4225              	.LVL569:
1005:TinyBasic.c   ****         if (ILPC == 0) break;
 4226              		.loc 1 1005 0
 4227 0a18 2068     		ldr	r0, [r4]
 4228 0a1a 0028     		cmp	r0, #0
 4229 0a1c 3FF4F5AA 		beq	.L256
1006:TinyBasic.c   ****         ILPC = (Peek2(ILPC-1)&0x7FF)+Peek2(ILfront);
 4230              		.loc 1 1006 0
 4231 0a20 0138     		subs	r0, r0, #1
 4232 0a22 FFF7FEFF 		bl	Peek2
 4233              	.LVL570:
 4234 0a26 C0F30A04 		ubfx	r4, r0, #0, #11
 4235 0a2a 4FF48F70 		mov	r0, #286
 4236 0a2e FFF7FEFF 		bl	Peek2
 4237              	.LVL571:
 4238 0a32 2044     		add	r0, r0, r4
 4239 0a34 634B     		ldr	r3, .L402+24
 4240 0a36 1860     		str	r0, [r3]
1007:TinyBasic.c   ****         if (DEBUGON>0) LogIt(-ILPC);
 4241              		.loc 1 1007 0
 4242 0a38 4042     		negs	r0, r0
 4243 0a3a FFF7FEFF 		bl	LogIt
 4244              	.LVL572:
 4245 0a3e FFF7E4BA 		b	.L256
 4246              	.LVL573:
 4247              	.L306:
1008:TinyBasic.c   ****         break;
1009:TinyBasic.c   **** 
ARM GAS  C:\Users\doug_000\AppData\Local\Temp\ccbaKQF3.s 			page 94


1010:TinyBasic.c   **** /* J a     3800-3FFF       Jump.                                      */
1011:TinyBasic.c   **** /*                         The low eleven bits of this 2-byte         */
1012:TinyBasic.c   **** /* instruction are added to the IL program base address to determine  */
1013:TinyBasic.c   **** /* the address of the next IL instruction. The previous contents of   */
1014:TinyBasic.c   **** /* the IL program counter is lost. */
1015:TinyBasic.c   ****       case 56: case 57: case 58: case 59: case 60: case 61: case 62: case 63:
1016:TinyBasic.c   ****         ILPC = (Peek2(ILPC-1)&0x7FF)+Peek2(ILfront);
 4248              		.loc 1 1016 0
 4249 0a42 604D     		ldr	r5, .L402+24
 4250 0a44 2868     		ldr	r0, [r5]
 4251 0a46 0138     		subs	r0, r0, #1
 4252 0a48 FFF7FEFF 		bl	Peek2
 4253              	.LVL574:
 4254 0a4c C0F30A04 		ubfx	r4, r0, #0, #11
 4255              	.LVL575:
 4256 0a50 4FF48F70 		mov	r0, #286
 4257 0a54 FFF7FEFF 		bl	Peek2
 4258              	.LVL576:
 4259 0a58 2044     		add	r0, r0, r4
 4260 0a5a 2860     		str	r0, [r5]
1017:TinyBasic.c   ****         if (DEBUGON>0) LogIt(-ILPC);
 4261              		.loc 1 1017 0
 4262 0a5c 4042     		negs	r0, r0
 4263 0a5e FFF7FEFF 		bl	LogIt
 4264              	.LVL577:
 4265 0a62 FFF7D2BA 		b	.L256
 4266              	.LVL578:
 4267              	.L265:
1018:TinyBasic.c   ****         break;
1019:TinyBasic.c   **** 
1020:TinyBasic.c   **** /* NO      08      No Operation.                                      */
1021:TinyBasic.c   **** /*                 This may be used as a space filler (such as to     */
1022:TinyBasic.c   **** /* ignore a skip).                                                    */
1023:TinyBasic.c   ****       default: break;} /* last of inner switch cases */
1024:TinyBasic.c   ****       break; /* end of outer switch cases 0,1 */
1025:TinyBasic.c   **** 
1026:TinyBasic.c   **** /* BR a    40-7F   Relative Branch.                                   */
1027:TinyBasic.c   **** /*                 The low six bits of this instruction opcode are    */
1028:TinyBasic.c   **** /* added algebraically to the current value of the IL program counter */
1029:TinyBasic.c   **** /* to give the address of the next IL instruction. Bit 5 of opcode is */
1030:TinyBasic.c   **** /* the sign, with + signified by 1, - by 0. The range of this branch  */
1031:TinyBasic.c   **** /* is +/-31 bytes from address of the byte following the opcode. An   */
1032:TinyBasic.c   **** /* offset of zero (i.e. opcode 60) results in an error stop. The      */
1033:TinyBasic.c   **** /* branch operation is unconditional.                                 */
1034:TinyBasic.c   ****       case 2: case 3:
1035:TinyBasic.c   ****         ILPC = ILPC+op-96;
 4268              		.loc 1 1035 0
 4269 0a66 574A     		ldr	r2, .L402+24
 4270 0a68 1368     		ldr	r3, [r2]
 4271 0a6a 2344     		add	r3, r3, r4
 4272 0a6c A3F16000 		sub	r0, r3, #96
 4273 0a70 1060     		str	r0, [r2]
1036:TinyBasic.c   ****         if (DEBUGON>0) LogIt(-ILPC);
 4274              		.loc 1 1036 0
 4275 0a72 4042     		negs	r0, r0
 4276 0a74 FFF7FEFF 		bl	LogIt
 4277              	.LVL579:
ARM GAS  C:\Users\doug_000\AppData\Local\Temp\ccbaKQF3.s 			page 95


 4278 0a78 FFF7C7BA 		b	.L256
 4279              	.L267:
1037:TinyBasic.c   ****         break;
1038:TinyBasic.c   **** 
1039:TinyBasic.c   **** /* BC a "xxx"   80xxxxXx-9FxxxxXx  String Match Branch.               */
1040:TinyBasic.c   **** /*                                 The ASCII character string in IL   */
1041:TinyBasic.c   **** /* following this opcode is compared to the string beginning with the */
1042:TinyBasic.c   **** /* current position of the BASIC pointer, ignoring blanks in BASIC    */
1043:TinyBasic.c   **** /* program. The comparison continues until either a mismatch, or an   */
1044:TinyBasic.c   **** /* IL byte is reached with the most significant bit set to one. This  */
1045:TinyBasic.c   **** /* is the last byte of the string in the IL, compared as a 7-bit      */
1046:TinyBasic.c   **** /* character; if equal, the BASIC pointer is positioned after the     */
1047:TinyBasic.c   **** /* last matching character in the BASIC program and the IL continues  */
1048:TinyBasic.c   **** /* with the next instruction in sequence. Otherwise the BASIC pointer */
1049:TinyBasic.c   **** /* is not altered and the low five bits of the Branch opcode are      */
1050:TinyBasic.c   **** /* added to the IL program counter to form the address of the next    */
1051:TinyBasic.c   **** /* IL instruction. If the strings do not match and the branch offset  */
1052:TinyBasic.c   **** /* is zero an error stop occurs.                                      */
1053:TinyBasic.c   ****       case 4:
1054:TinyBasic.c   ****         if (op==128) here = 0;                /* to error if no match */
 4280              		.loc 1 1054 0
 4281 0a7c 802C     		cmp	r4, #128
 4282 0a7e 04D0     		beq	.L391
1055:TinyBasic.c   ****           else here = ILPC+op-128;
 4283              		.loc 1 1055 0
 4284 0a80 504B     		ldr	r3, .L402+24
 4285 0a82 1B68     		ldr	r3, [r3]
 4286 0a84 1C44     		add	r4, r4, r3
 4287              	.LVL580:
 4288 0a86 803C     		subs	r4, r4, #128
 4289              	.LVL581:
 4290 0a88 00E0     		b	.L365
 4291              	.LVL582:
 4292              	.L391:
1054:TinyBasic.c   ****           else here = ILPC+op-128;
 4293              		.loc 1 1054 0
 4294 0a8a 0024     		movs	r4, #0
 4295              	.LVL583:
 4296              	.L365:
1056:TinyBasic.c   ****         chpt = BP;
 4297              		.loc 1 1056 0
 4298 0a8c 4E4B     		ldr	r3, .L402+28
 4299 0a8e 1D68     		ldr	r5, [r3]
 4300              	.LVL584:
1057:TinyBasic.c   ****         ix = 0;
 4301              		.loc 1 1057 0
 4302 0a90 0021     		movs	r1, #0
1058:TinyBasic.c   ****         while ((ix&128)==0) {
 4303              		.loc 1 1058 0
 4304 0a92 21E0     		b	.L366
 4305              	.LVL585:
 4306              	.L367:
1059:TinyBasic.c   ****           while (((char)Core[BP]) == ' ') BP++;   /* skip over spaces */
 4307              		.loc 1 1059 0 discriminator 2
 4308 0a94 0133     		adds	r3, r3, #1
 4309 0a96 4C4A     		ldr	r2, .L402+28
 4310 0a98 1360     		str	r3, [r2]
ARM GAS  C:\Users\doug_000\AppData\Local\Temp\ccbaKQF3.s 			page 96


 4311              	.L370:
 4312              		.loc 1 1059 0 is_stmt 0 discriminator 1
 4313 0a9a 4B4B     		ldr	r3, .L402+28
 4314 0a9c 1B68     		ldr	r3, [r3]
 4315 0a9e 444A     		ldr	r2, .L402+4
 4316 0aa0 D25C     		ldrb	r2, [r2, r3]	@ zero_extendqisi2
 4317 0aa2 202A     		cmp	r2, #32
 4318 0aa4 F6D0     		beq	.L367
1060:TinyBasic.c   ****           ix = (int)Core[ILPC++];
 4319              		.loc 1 1060 0 is_stmt 1
 4320 0aa6 4748     		ldr	r0, .L402+24
 4321 0aa8 0168     		ldr	r1, [r0]
 4322              	.LVL586:
 4323 0aaa 4E1C     		adds	r6, r1, #1
 4324 0aac 0660     		str	r6, [r0]
 4325 0aae 4048     		ldr	r0, .L402+4
 4326 0ab0 415C     		ldrb	r1, [r0, r1]	@ zero_extendqisi2
 4327              	.LVL587:
1061:TinyBasic.c   ****           if (((char)(ix&127)) != DeCaps[((int)Core[BP++])&127]) {
 4328              		.loc 1 1061 0
 4329 0ab2 01F07F00 		and	r0, r1, #127
 4330 0ab6 0133     		adds	r3, r3, #1
 4331 0ab8 434E     		ldr	r6, .L402+28
 4332 0aba 3360     		str	r3, [r6]
 4333 0abc 02F07F02 		and	r2, r2, #127
 4334 0ac0 444B     		ldr	r3, .L402+40
 4335 0ac2 9B5C     		ldrb	r3, [r3, r2]	@ zero_extendqisi2
 4336 0ac4 9842     		cmp	r0, r3
 4337 0ac6 07D0     		beq	.L366
1062:TinyBasic.c   ****             BP = chpt;         /* back up to front of string in Basic */
 4338              		.loc 1 1062 0
 4339 0ac8 3560     		str	r5, [r6]
1063:TinyBasic.c   ****             if (here==0) TBerror();
 4340              		.loc 1 1063 0
 4341 0aca 14B9     		cbnz	r4, .L368
 4342              		.loc 1 1063 0 is_stmt 0 discriminator 1
 4343 0acc FFF7FEFF 		bl	TBerror
 4344              	.LVL588:
 4345 0ad0 05E0     		b	.L369
 4346              	.LVL589:
 4347              	.L368:
1064:TinyBasic.c   ****               else ILPC = here;                 /* jump forward in IL */
 4348              		.loc 1 1064 0 is_stmt 1
 4349 0ad2 3C4B     		ldr	r3, .L402+24
 4350 0ad4 1C60     		str	r4, [r3]
 4351 0ad6 02E0     		b	.L369
 4352              	.LVL590:
 4353              	.L366:
1058:TinyBasic.c   ****           while (((char)Core[BP]) == ' ') BP++;   /* skip over spaces */
 4354              		.loc 1 1058 0
 4355 0ad8 11F0800F 		tst	r1, #128
 4356 0adc DDD0     		beq	.L370
 4357              	.LVL591:
 4358              	.L369:
1065:TinyBasic.c   ****             break;}}
1066:TinyBasic.c   ****         if (DEBUGON>0) if (ILPC>0) LogIt(-ILPC);
 4359              		.loc 1 1066 0 discriminator 1
ARM GAS  C:\Users\doug_000\AppData\Local\Temp\ccbaKQF3.s 			page 97


 4360 0ade 394B     		ldr	r3, .L402+24
 4361 0ae0 1868     		ldr	r0, [r3]
 4362 0ae2 0028     		cmp	r0, #0
 4363 0ae4 7FF791AA 		ble	.L256
 4364              		.loc 1 1066 0 is_stmt 0 discriminator 2
 4365 0ae8 4042     		negs	r0, r0
 4366 0aea FFF7FEFF 		bl	LogIt
 4367              	.LVL592:
 4368 0aee FFF78CBA 		b	.L256
 4369              	.LVL593:
 4370              	.L371:
1067:TinyBasic.c   ****         break;
1068:TinyBasic.c   **** 
1069:TinyBasic.c   **** /* BV a    A0-BF   Branch if Not Variable.                            */
1070:TinyBasic.c   **** /*                 If the next non-blank character pointed to by the  */
1071:TinyBasic.c   **** /* BASIC pointer is a capital letter, its ASCII code is [doubled and] */
1072:TinyBasic.c   **** /* pushed onto the expression stack and the IL program advances to    */
1073:TinyBasic.c   **** /* next instruction in sequence, leaving the BASIC pointer positioned */
1074:TinyBasic.c   **** /* after the letter; if not a letter the branch is taken and BASIC    */
1075:TinyBasic.c   **** /* pointer is left pointing to that character. An error stop occurs   */
1076:TinyBasic.c   **** /* if the next character is not a letter and the offset of the branch */
1077:TinyBasic.c   **** /* is zero, or on stack overflow.                                     */
1078:TinyBasic.c   ****       case 5:
1079:TinyBasic.c   ****         while (((char)Core[BP]) == ' ') BP++;     /* skip over spaces */
 4371              		.loc 1 1079 0 is_stmt 1 discriminator 2
 4372 0af2 0133     		adds	r3, r3, #1
 4373 0af4 344A     		ldr	r2, .L402+28
 4374 0af6 1360     		str	r3, [r2]
 4375              	.L268:
 4376              		.loc 1 1079 0 is_stmt 0 discriminator 1
 4377 0af8 334B     		ldr	r3, .L402+28
 4378 0afa 1B68     		ldr	r3, [r3]
 4379 0afc 2C4A     		ldr	r2, .L402+4
 4380 0afe D25C     		ldrb	r2, [r2, r3]	@ zero_extendqisi2
 4381 0b00 202A     		cmp	r2, #32
 4382 0b02 F6D0     		beq	.L371
 4383              	.LVL594:
1080:TinyBasic.c   ****         ch = (char)Core[BP];
1081:TinyBasic.c   ****         if (ch >= 'A' && ch <= 'Z' || ch >= 'a' && ch <= 'z')
 4384              		.loc 1 1081 0 is_stmt 1
 4385 0b04 A2F14101 		sub	r1, r2, #65
 4386 0b08 C9B2     		uxtb	r1, r1
 4387 0b0a 1929     		cmp	r1, #25
 4388 0b0c 04D9     		bls	.L372
 4389              		.loc 1 1081 0 is_stmt 0 discriminator 1
 4390 0b0e A2F16101 		sub	r1, r2, #97
 4391 0b12 C9B2     		uxtb	r1, r1
 4392 0b14 1929     		cmp	r1, #25
 4393 0b16 08D8     		bhi	.L373
 4394              	.L372:
1082:TinyBasic.c   ****           PushExBy((((int)Core[BP++])&0x5F)*2);
 4395              		.loc 1 1082 0 is_stmt 1
 4396 0b18 0133     		adds	r3, r3, #1
 4397 0b1a 2B49     		ldr	r1, .L402+28
 4398 0b1c 0B60     		str	r3, [r1]
 4399 0b1e 02F05F00 		and	r0, r2, #95
 4400 0b22 4000     		lsls	r0, r0, #1
ARM GAS  C:\Users\doug_000\AppData\Local\Temp\ccbaKQF3.s 			page 98


 4401 0b24 FFF7FEFF 		bl	PushExBy
 4402              	.LVL595:
 4403 0b28 09E0     		b	.L374
 4404              	.LVL596:
 4405              	.L373:
1083:TinyBasic.c   ****         else if (op==160) TBerror();           /* error if not letter */
 4406              		.loc 1 1083 0
 4407 0b2a A02C     		cmp	r4, #160
 4408 0b2c 02D1     		bne	.L375
 4409              		.loc 1 1083 0 is_stmt 0 discriminator 1
 4410 0b2e FFF7FEFF 		bl	TBerror
 4411              	.LVL597:
 4412 0b32 04E0     		b	.L374
 4413              	.LVL598:
 4414              	.L375:
1084:TinyBasic.c   ****           else ILPC = ILPC+op-160;
 4415              		.loc 1 1084 0 is_stmt 1
 4416 0b34 234A     		ldr	r2, .L402+24
 4417              	.LVL599:
 4418 0b36 1368     		ldr	r3, [r2]
 4419              	.LVL600:
 4420 0b38 2344     		add	r3, r3, r4
 4421 0b3a A03B     		subs	r3, r3, #160
 4422 0b3c 1360     		str	r3, [r2]
 4423              	.LVL601:
 4424              	.L374:
1085:TinyBasic.c   ****         if (DEBUGON>0) if (ILPC>0) LogIt(-ILPC);
 4425              		.loc 1 1085 0 discriminator 1
 4426 0b3e 214B     		ldr	r3, .L402+24
 4427 0b40 1868     		ldr	r0, [r3]
 4428 0b42 0028     		cmp	r0, #0
 4429 0b44 7FF761AA 		ble	.L256
 4430              		.loc 1 1085 0 is_stmt 0 discriminator 2
 4431 0b48 4042     		negs	r0, r0
 4432 0b4a FFF7FEFF 		bl	LogIt
 4433              	.LVL602:
 4434 0b4e FFF75CBA 		b	.L256
 4435              	.L376:
1086:TinyBasic.c   ****         break;
1087:TinyBasic.c   **** 
1088:TinyBasic.c   **** /* BN a    C0-DF   Branch if Not a Number.                            */
1089:TinyBasic.c   **** /*                 If the next non-blank character pointed to by the  */
1090:TinyBasic.c   **** /* BASIC pointer is not a decimal digit, the low five bits of the     */
1091:TinyBasic.c   **** /* opcode are added to the IL program counter, or if zero an error    */
1092:TinyBasic.c   **** /* stop occurs. If the next character is a digit, then it and all     */
1093:TinyBasic.c   **** /* decimal digits following it (ignoring blanks) are converted to a   */
1094:TinyBasic.c   **** /* 16-bit binary number which is pushed onto the expression stack. In */
1095:TinyBasic.c   **** /* either case the BASIC pointer is positioned at the next character  */
1096:TinyBasic.c   **** /* which is neither blank nor digit. Stack overflow will result in an */
1097:TinyBasic.c   **** /* error stop.                                                        */
1098:TinyBasic.c   ****       case 6:
1099:TinyBasic.c   ****         while (((char)Core[BP]) == ' ') BP++;     /* skip over spaces */
 4436              		.loc 1 1099 0 is_stmt 1 discriminator 2
 4437 0b52 0133     		adds	r3, r3, #1
 4438 0b54 1C4A     		ldr	r2, .L402+28
 4439 0b56 1360     		str	r3, [r2]
 4440              	.L269:
ARM GAS  C:\Users\doug_000\AppData\Local\Temp\ccbaKQF3.s 			page 99


 4441              		.loc 1 1099 0 is_stmt 0 discriminator 1
 4442 0b58 1B4B     		ldr	r3, .L402+28
 4443 0b5a 1B68     		ldr	r3, [r3]
 4444 0b5c 144A     		ldr	r2, .L402+4
 4445 0b5e D25C     		ldrb	r2, [r2, r3]	@ zero_extendqisi2
 4446 0b60 202A     		cmp	r2, #32
 4447 0b62 F6D0     		beq	.L376
 4448              	.LVL603:
1100:TinyBasic.c   ****         ch = (char)Core[BP];
1101:TinyBasic.c   ****         if (ch >= '0' && ch <= '9') {
 4449              		.loc 1 1101 0 is_stmt 1
 4450 0b64 A2F13003 		sub	r3, r2, #48
 4451 0b68 DBB2     		uxtb	r3, r3
 4452 0b6a 092B     		cmp	r3, #9
 4453 0b6c 18D8     		bhi	.L394
 4454 0b6e 0020     		movs	r0, #0
 4455              	.LVL604:
 4456              	.L377:
1102:TinyBasic.c   ****           op = 0;
1103:TinyBasic.c   ****           while (true) {
1104:TinyBasic.c   ****             here = (int)Core[BP++];
 4457              		.loc 1 1104 0
 4458 0b70 154B     		ldr	r3, .L402+28
 4459 0b72 1A68     		ldr	r2, [r3]
 4460 0b74 511C     		adds	r1, r2, #1
 4461 0b76 1960     		str	r1, [r3]
 4462 0b78 0D4B     		ldr	r3, .L402+4
 4463 0b7a 9B5C     		ldrb	r3, [r3, r2]	@ zero_extendqisi2
 4464              	.LVL605:
1105:TinyBasic.c   ****             if (here==32) continue;               /* skip over spaces */
 4465              		.loc 1 1105 0
 4466 0b7c 202B     		cmp	r3, #32
 4467 0b7e F7D0     		beq	.L377
1106:TinyBasic.c   ****             if (here<48 || here>57) break;     /* not a decimal digit */
 4468              		.loc 1 1106 0
 4469 0b80 A3F13001 		sub	r1, r3, #48
 4470 0b84 0929     		cmp	r1, #9
 4471 0b86 06D8     		bhi	.L380
1107:TinyBasic.c   ****             op = op*10+here-48;}                 /* insert into value */
 4472              		.loc 1 1107 0
 4473 0b88 00EB8000 		add	r0, r0, r0, lsl #2
 4474              	.LVL606:
 4475 0b8c 03EB4003 		add	r3, r3, r0, lsl #1
 4476              	.LVL607:
 4477 0b90 A3F13000 		sub	r0, r3, #48
 4478              	.LVL608:
 4479 0b94 ECE7     		b	.L377
 4480              	.LVL609:
 4481              	.L380:
1108:TinyBasic.c   ****           BP--;                             /* back up over non-digit */
 4482              		.loc 1 1108 0
 4483 0b96 0C4B     		ldr	r3, .L402+28
 4484              	.LVL610:
 4485 0b98 1A60     		str	r2, [r3]
1109:TinyBasic.c   ****           PushExInt(op);}
 4486              		.loc 1 1109 0
 4487 0b9a FFF7FEFF 		bl	PushExInt
ARM GAS  C:\Users\doug_000\AppData\Local\Temp\ccbaKQF3.s 			page 100


 4488              	.LVL611:
 4489 0b9e 20E0     		b	.L381
 4490              	.LVL612:
 4491              	.L394:
1110:TinyBasic.c   ****         else if (op==192) TBerror();             /* error if no digit */
 4492              		.loc 1 1110 0
 4493 0ba0 C02C     		cmp	r4, #192
 4494 0ba2 19D1     		bne	.L382
 4495              		.loc 1 1110 0 is_stmt 0 discriminator 1
 4496 0ba4 FFF7FEFF 		bl	TBerror
 4497              	.LVL613:
 4498 0ba8 1BE0     		b	.L381
 4499              	.L403:
 4500 0baa 00BF     		.align	2
 4501              	.L402:
 4502 0bac 00000000 		.word	.LANCHOR0
 4503 0bb0 00000000 		.word	Core
 4504 0bb4 00000000 		.word	Watchee
 4505 0bb8 F0000000 		.word	.LC30
 4506 0bbc 10000000 		.word	.LC3
 4507 0bc0 00000000 		.word	Lino
 4508 0bc4 00000000 		.word	ILPC
 4509 0bc8 00000000 		.word	BP
 4510 0bcc 00000000 		.word	SvPt
 4511 0bd0 00000000 		.word	ILend
 4512 0bd4 00000000 		.word	DeCaps
 4513              	.LVL614:
 4514              	.L382:
1111:TinyBasic.c   ****           else ILPC = ILPC+op-192;
 4515              		.loc 1 1111 0 is_stmt 1
 4516 0bd8 174A     		ldr	r2, .L404
 4517              	.LVL615:
 4518 0bda 1368     		ldr	r3, [r2]
 4519 0bdc 2344     		add	r3, r3, r4
 4520 0bde C03B     		subs	r3, r3, #192
 4521 0be0 1360     		str	r3, [r2]
 4522              	.LVL616:
 4523              	.L381:
1112:TinyBasic.c   ****         if (DEBUGON>0) if (ILPC>0) LogIt(-ILPC);
 4524              		.loc 1 1112 0 discriminator 1
 4525 0be2 154B     		ldr	r3, .L404
 4526 0be4 1868     		ldr	r0, [r3]
 4527 0be6 0028     		cmp	r0, #0
 4528 0be8 7FF70FAA 		ble	.L256
 4529              		.loc 1 1112 0 is_stmt 0 discriminator 2
 4530 0bec 4042     		negs	r0, r0
 4531 0bee FFF7FEFF 		bl	LogIt
 4532              	.LVL617:
 4533 0bf2 FFF70ABA 		b	.L256
 4534              	.LVL618:
 4535              	.L383:
1113:TinyBasic.c   ****         break;
1114:TinyBasic.c   **** 
1115:TinyBasic.c   **** /* BE a    E0-FF   Branch if Not Endline.                             */
1116:TinyBasic.c   **** /*                 If the next non-blank character pointed to by the  */
1117:TinyBasic.c   **** /* BASIC pointer is a carriage return, the IL program advances to the */
1118:TinyBasic.c   **** /* next instruction in sequence; otherwise the low five bits of the   */
ARM GAS  C:\Users\doug_000\AppData\Local\Temp\ccbaKQF3.s 			page 101


1119:TinyBasic.c   **** /* opcode (if not 0) are added to the IL program counter to form the  */
1120:TinyBasic.c   **** /* address of next IL instruction. In either case the BASIC pointer   */
1121:TinyBasic.c   **** /* is left pointing to the first non-blank character; this            */
1122:TinyBasic.c   **** /* instruction will not pass over the carriage return, which must     */
1123:TinyBasic.c   **** /* remain for testing by the NX instruction. As with the other        */
1124:TinyBasic.c   **** /* conditional branches, the branch may only advance the IL program   */
1125:TinyBasic.c   **** /* counter from 1 to 31 bytes; an offset of zero results in an error  */
1126:TinyBasic.c   **** /* stop.                                                              */
1127:TinyBasic.c   ****       case 7:
1128:TinyBasic.c   ****         while (((char)Core[BP]) == ' ') BP++;     /* skip over spaces */
 4536              		.loc 1 1128 0 is_stmt 1 discriminator 2
 4537 0bf6 0133     		adds	r3, r3, #1
 4538 0bf8 104A     		ldr	r2, .L404+4
 4539 0bfa 1360     		str	r3, [r2]
 4540              	.L270:
 4541              		.loc 1 1128 0 is_stmt 0 discriminator 1
 4542 0bfc 0F4B     		ldr	r3, .L404+4
 4543 0bfe 1B68     		ldr	r3, [r3]
 4544 0c00 0F4A     		ldr	r2, .L404+8
 4545 0c02 D25C     		ldrb	r2, [r2, r3]	@ zero_extendqisi2
 4546 0c04 202A     		cmp	r2, #32
 4547 0c06 F6D0     		beq	.L383
1129:TinyBasic.c   ****         if (((char)Core[BP]) == '\r') ;
 4548              		.loc 1 1129 0 is_stmt 1
 4549 0c08 0D2A     		cmp	r2, #13
 4550 0c0a 09D0     		beq	.L384
1130:TinyBasic.c   ****         else if (op==224) TBerror();            /* error if no offset */
 4551              		.loc 1 1130 0
 4552 0c0c E02C     		cmp	r4, #224
 4553 0c0e 02D1     		bne	.L385
 4554              		.loc 1 1130 0 is_stmt 0 discriminator 1
 4555 0c10 FFF7FEFF 		bl	TBerror
 4556              	.LVL619:
 4557 0c14 04E0     		b	.L384
 4558              	.L385:
1131:TinyBasic.c   ****           else ILPC = ILPC+op-224;
 4559              		.loc 1 1131 0 is_stmt 1
 4560 0c16 084A     		ldr	r2, .L404
 4561 0c18 1368     		ldr	r3, [r2]
 4562 0c1a 2344     		add	r3, r3, r4
 4563 0c1c E03B     		subs	r3, r3, #224
 4564 0c1e 1360     		str	r3, [r2]
 4565              	.L384:
1132:TinyBasic.c   ****         if (DEBUGON>0) if (ILPC>0) LogIt(-ILPC);
 4566              		.loc 1 1132 0 discriminator 1
 4567 0c20 054B     		ldr	r3, .L404
 4568 0c22 1868     		ldr	r0, [r3]
 4569 0c24 0028     		cmp	r0, #0
 4570 0c26 7FF7F0A9 		ble	.L256
 4571              		.loc 1 1132 0 is_stmt 0 discriminator 2
 4572 0c2a 4042     		negs	r0, r0
 4573 0c2c FFF7FEFF 		bl	LogIt
 4574              	.LVL620:
 4575 0c30 FFF7EBB9 		b	.L256
 4576              	.LVL621:
 4577              	.L255:
 4578 0c34 BDE8F081 		pop	{r4, r5, r6, r7, r8, pc}
ARM GAS  C:\Users\doug_000\AppData\Local\Temp\ccbaKQF3.s 			page 102


 4579              	.L405:
 4580              		.align	2
 4581              	.L404:
 4582 0c38 00000000 		.word	ILPC
 4583 0c3c 00000000 		.word	BP
 4584 0c40 00000000 		.word	Core
 4585              		.cfi_endproc
 4586              	.LFE33:
 4587              		.size	Interp, .-Interp
 4588              		.section	.text.DefaultIL,"ax",%progbits
 4589              		.align	2
 4590              		.global	DefaultIL
 4591              		.thumb
