ARM GAS  C:\Users\doug_000\AppData\Local\Temp\ccbaKQF3.s 			page 1


   1              		.syntax unified
   2              		.cpu cortex-m3
   3              		.fpu softvfp
   4              		.eabi_attribute 20, 1
   5              		.eabi_attribute 21, 1
   6              		.eabi_attribute 23, 3
   7              		.eabi_attribute 24, 1
   8              		.eabi_attribute 25, 1
   9              		.eabi_attribute 26, 1
  10              		.eabi_attribute 30, 1
  11              		.eabi_attribute 34, 1
  12              		.eabi_attribute 18, 4
  13              		.thumb
  14              		.file	"TinyBasic.c"
  15              		.text
  16              	.Ltext0:
  17              		.cfi_sections	.debug_frame
  18              		.section	.text.CfileRead,"ax",%progbits
  19              		.align	2
  20              		.global	CfileRead
  21              		.thumb
  22              		.thumb_func
  23              		.type	CfileRead, %function
  24              	CfileRead:
  25              	.LFB0:
  26              		.file 1 "TinyBasic.c"
   1:TinyBasic.c   **** /* Tiny Basic Intermediate Language Interpreter -- 2004 July 19 */
   2:TinyBasic.c   **** 
   3:TinyBasic.c   **** #include <stdio.h>
   4:TinyBasic.c   **** #include <string.h>
   5:TinyBasic.c   **** #include <stdlib.h>  /* added 08 Oct 31 */
   6:TinyBasic.c   **** 
   7:TinyBasic.c   **** /* Default input/output file names, if defined (omit otherwise)... */
   8:TinyBasic.c   **** #define DefaultInputFile "TBasm.txt"
   9:TinyBasic.c   **** #define DefaultOutputFile "TBout.txt"
  10:TinyBasic.c   **** 
  11:TinyBasic.c   **** /* File input/output function macros (adjust for C++ framework) */
  12:TinyBasic.c   **** #define FileType           FILE*
  13:TinyBasic.c   **** #define IoFileClose(fi)    fclose(fi)
  14:TinyBasic.c   **** #define InFileChar(fi)     CfileRead(fi)
  15:TinyBasic.c   **** #define OutFileChar(fi,ch) fputc(ch,fi)
  16:TinyBasic.c   **** #define ScreenChar(ch)     putchar(ch)
  17:TinyBasic.c   **** #define KeyInChar          (char)getchar()
  18:TinyBasic.c   **** #define NeedsEcho          false
  19:TinyBasic.c   **** #define BreakTest          Broken
  20:TinyBasic.c   **** 
  21:TinyBasic.c   **** /* File input/output function macros (Qt examples:) */
  22:TinyBasic.c   **** /* #define FileType           QFile* */
  23:TinyBasic.c   **** /* #define IoFileClose(fi)    fi->close() */
  24:TinyBasic.c   **** /* #define InFileChar(fi)     (fi->atEnd()?'\0':fi->getch()) */
  25:TinyBasic.c   **** /* #define OutFileChar(fi,ch) fi->putch(ch) */
  26:TinyBasic.c   **** 
  27:TinyBasic.c   **** char CfileRead(FileType fi) {   /* C file reader, returns '\0' on eof */
  27              		.loc 1 27 0
  28              		.cfi_startproc
  29              		@ args = 0, pretend = 0, frame = 0
  30              		@ frame_needed = 0, uses_anonymous_args = 0
ARM GAS  C:\Users\doug_000\AppData\Local\Temp\ccbaKQF3.s 			page 2


  31              	.LVL0:
  32 0000 08B5     		push	{r3, lr}
  33              		.cfi_def_cfa_offset 8
  34              		.cfi_offset 3, -8
  35              		.cfi_offset 14, -4
  28:TinyBasic.c   ****   int chn = fgetc(fi);
  36              		.loc 1 28 0
  37 0002 FFF7FEFF 		bl	fgetc
  38              	.LVL1:
  29:TinyBasic.c   ****   if (chn == EOF) return '\0';
  39              		.loc 1 29 0
  40 0006 B0F1FF3F 		cmp	r0, #-1
  41 000a 01D0     		beq	.L3
  30:TinyBasic.c   ****   return (char)chn;} /* ~CfileRead */
  42              		.loc 1 30 0
  43 000c C0B2     		uxtb	r0, r0
  44              	.LVL2:
  45 000e 08BD     		pop	{r3, pc}
  46              	.LVL3:
  47              	.L3:
  29:TinyBasic.c   ****   if (chn == EOF) return '\0';
  48              		.loc 1 29 0
  49 0010 0020     		movs	r0, #0
  50              	.LVL4:
  51              		.loc 1 30 0
  52 0012 08BD     		pop	{r3, pc}
  53              		.cfi_endproc
  54              	.LFE0:
  55              		.size	CfileRead, .-CfileRead
  56              		.section	.text.Poke2,"ax",%progbits
  57              		.align	2
  58              		.global	Poke2
  59              		.thumb
  60              		.thumb_func
  61              		.type	Poke2, %function
  62              	Poke2:
  63              	.LFB1:
  31:TinyBasic.c   **** 
  32:TinyBasic.c   **** /* Constants: */
  33:TinyBasic.c   **** 
  34:TinyBasic.c   **** #define aByte unsigned char
  35:TinyBasic.c   **** //#define CoreTop 65536 /* Core size */
  36:TinyBasic.c   **** #define CoreTop 16384 /* Core size */
  37:TinyBasic.c   **** #define UserProg 32   /* Core address of front of Basic program */
  38:TinyBasic.c   **** #define EndUser 34    /* Core address of end of stack/user space */
  39:TinyBasic.c   **** #define EndProg 36    /* Core address of end of Basic program */
  40:TinyBasic.c   **** #define GoStkTop 38   /* Core address of Gosub stack top */
  41:TinyBasic.c   **** #define LinoCore 40   /* Core address of "Current BASIC line number" */
  42:TinyBasic.c   **** #define ILPCcore 42   /* Core address of "IL Program Counter" */
  43:TinyBasic.c   **** #define BPcore 44     /* Core address of "Basic Pointer" */
  44:TinyBasic.c   **** #define SvPtCore 46   /* Core address of "Saved Pointer" */
  45:TinyBasic.c   **** #define InLine 48     /* Core address of input line */
  46:TinyBasic.c   **** #define ExpnStk 128   /* Core address of expression stack (empty) */
  47:TinyBasic.c   **** #define TabHere 191   /* Core address of output line size, for tabs */
  48:TinyBasic.c   **** #define WachPoint 255 /* Core address of debug watchpoint USR */
  49:TinyBasic.c   **** #define ColdGo 256    /* Core address of nominal restart USR */
  50:TinyBasic.c   **** #define WarmGo 259    /* Core address of nominal warm start USR */
ARM GAS  C:\Users\doug_000\AppData\Local\Temp\ccbaKQF3.s 			page 3


  51:TinyBasic.c   **** #define InchSub 262   /* Core address of nominal char input USR */
  52:TinyBasic.c   **** #define OutchSub 265  /* Core address of nominal char output USR */
  53:TinyBasic.c   **** #define BreakSub 268  /* Core address of nominal break test USR */
  54:TinyBasic.c   **** #define DumpSub 273   /* Core address of debug core dump USR */
  55:TinyBasic.c   **** #define PeekSub 276   /* Core address of nominal byte peek USR */
  56:TinyBasic.c   **** #define Peek2Sub 277  /* Core address of nominal 2-byte peek USR */
  57:TinyBasic.c   **** #define PokeSub 280   /* Core address of nominal byte poke USR */
  58:TinyBasic.c   **** #define TrLogSub 283  /* Core address of debug trace log USR */
  59:TinyBasic.c   **** #define BScode 271    /* Core address of backspace code */
  60:TinyBasic.c   **** #define CanCode 272   /* Core address of line cancel code */
  61:TinyBasic.c   **** #define ILfront 286   /* Core address of IL code address */
  62:TinyBasic.c   **** #define BadOp 15      /* illegal op, default IL code */
  63:TinyBasic.c   ****   /* Pascal habits die hard.. */
  64:TinyBasic.c   **** #define true 1
  65:TinyBasic.c   **** #define false 0
  66:TinyBasic.c   **** 
  67:TinyBasic.c   **** /* debugging stuff... */
  68:TinyBasic.c   **** #define DEBUGON 1     /* 1 enables \t Debugging toggle, 0 disables */
  69:TinyBasic.c   **** #define LOGSIZE 4096  /* how much to log */
  70:TinyBasic.c   **** static int Debugging = 0;    /* >0 enables debug code */
  71:TinyBasic.c   **** int DebugLog[LOGSIZE];       /* quietly logs recent activity */
  72:TinyBasic.c   **** int LogHere = 0;             /* current index in DebugLog */
  73:TinyBasic.c   **** int Watcher = 0, Watchee;    /* memory watchpoint */
  74:TinyBasic.c   **** 
  75:TinyBasic.c   **** /* Static/global data: */
  76:TinyBasic.c   **** aByte Core[CoreTop];    /* everything goes in here */
  77:TinyBasic.c   **** aByte DeCaps[128];      /* capitalization table */
  78:TinyBasic.c   **** int Lino, ILPC;         /* current line #, IL program counter */
  79:TinyBasic.c   **** int BP, SvPt;           /* current, saved TB parse pointer */
  80:TinyBasic.c   **** int SubStk, ExpnTop;    /* stack pointers */
  81:TinyBasic.c   **** int InLend, SrcEnd;     /* current input line & TB source end */
  82:TinyBasic.c   **** int UserEnd;
  83:TinyBasic.c   **** int ILend, XQhere;      /* end of IL code, start of execute loop */
  84:TinyBasic.c   **** int Broken = false;     /* =true to stop execution or listing */
  85:TinyBasic.c   **** FileType inFile = NULL; /* from option '-i' or user menu/button */
  86:TinyBasic.c   **** FileType oFile = NULL;  /* from option '-o' or user menu/button */
  87:TinyBasic.c   **** 
  88:TinyBasic.c   **** /************************* Memory Utilities.. *************************/
  89:TinyBasic.c   **** 
  90:TinyBasic.c   **** void Poke2(int loc, int valu) {         /* store integer as two bytes */
  64              		.loc 1 90 0
  65              		.cfi_startproc
  66              		@ args = 0, pretend = 0, frame = 0
  67              		@ frame_needed = 0, uses_anonymous_args = 0
  68              		@ link register save eliminated.
  69              	.LVL5:
  91:TinyBasic.c   ****   Core[loc] = (aByte)((valu>>8)&255);         /* nominally Big-Endian */
  70              		.loc 1 91 0
  71 0000 C1F30722 		ubfx	r2, r1, #8, #8
  72 0004 024B     		ldr	r3, .L6
  73 0006 1A54     		strb	r2, [r3, r0]
  92:TinyBasic.c   ****   Core[loc+1] = (aByte)(valu&255);} /* ~Poke2 */
  74              		.loc 1 92 0
  75 0008 0130     		adds	r0, r0, #1
  76              	.LVL6:
  77 000a 1954     		strb	r1, [r3, r0]
  78 000c 7047     		bx	lr
ARM GAS  C:\Users\doug_000\AppData\Local\Temp\ccbaKQF3.s 			page 4


  79              	.L7:
  80 000e 00BF     		.align	2
  81              	.L6:
  82 0010 00000000 		.word	Core
  83              		.cfi_endproc
  84              	.LFE1:
  85              		.size	Poke2, .-Poke2
  86              		.section	.text.Peek2,"ax",%progbits
  87              		.align	2
  88              		.global	Peek2
  89              		.thumb
  90              		.thumb_func
  91              		.type	Peek2, %function
  92              	Peek2:
  93              	.LFB2:
  93:TinyBasic.c   **** 
  94:TinyBasic.c   **** int Peek2(int loc) {                  /* fetch integer from two bytes */
  94              		.loc 1 94 0
  95              		.cfi_startproc
  96              		@ args = 0, pretend = 0, frame = 0
  97              		@ frame_needed = 0, uses_anonymous_args = 0
  98              		@ link register save eliminated.
  99              	.LVL7:
  95:TinyBasic.c   ****   return ((int)Core[loc])*256 + ((int)Core[loc+1]);} /* ~Peek2 */
 100              		.loc 1 95 0
 101 0000 034B     		ldr	r3, .L9
 102 0002 1A5C     		ldrb	r2, [r3, r0]	@ zero_extendqisi2
 103 0004 0130     		adds	r0, r0, #1
 104              	.LVL8:
 105 0006 185C     		ldrb	r0, [r3, r0]	@ zero_extendqisi2
 106              	.LVL9:
 107 0008 00EB0220 		add	r0, r0, r2, lsl #8
 108 000c 7047     		bx	lr
 109              	.L10:
 110 000e 00BF     		.align	2
 111              	.L9:
 112 0010 00000000 		.word	Core
 113              		.cfi_endproc
 114              	.LFE2:
 115              		.size	Peek2, .-Peek2
 116              		.section	.text.Ouch,"ax",%progbits
 117              		.align	2
 118              		.global	Ouch
 119              		.thumb
 120              		.thumb_func
 121              		.type	Ouch, %function
 122              	Ouch:
 123              	.LFB3:
  96:TinyBasic.c   **** 
  97:TinyBasic.c   **** /************************** I/O Utilities... **************************/
  98:TinyBasic.c   **** 
  99:TinyBasic.c   **** void Ouch(char ch) {                         /* output char to stdout */
 124              		.loc 1 99 0
 125              		.cfi_startproc
 126              		@ args = 0, pretend = 0, frame = 0
 127              		@ frame_needed = 0, uses_anonymous_args = 0
 128              	.LVL10:
ARM GAS  C:\Users\doug_000\AppData\Local\Temp\ccbaKQF3.s 			page 5


 129 0000 10B5     		push	{r4, lr}
 130              		.cfi_def_cfa_offset 8
 131              		.cfi_offset 4, -8
 132              		.cfi_offset 14, -4
 133 0002 0446     		mov	r4, r0
 100:TinyBasic.c   ****   if (oFile != NULL) {                   /* there is an output file.. */
 134              		.loc 1 100 0
 135 0004 3A4B     		ldr	r3, .L25
 136 0006 1968     		ldr	r1, [r3]
 137 0008 49B1     		cbz	r1, .L12
 101:TinyBasic.c   ****     if (ch>=' ') OutFileChar(oFile,ch);
 138              		.loc 1 101 0
 139 000a 1F28     		cmp	r0, #31
 140 000c 02D9     		bls	.L13
 141              		.loc 1 101 0 is_stmt 0 discriminator 1
 142 000e FFF7FEFF 		bl	fputc
 143              	.LVL11:
 144 0012 04E0     		b	.L12
 145              	.LVL12:
 146              	.L13:
 102:TinyBasic.c   ****     else if (ch == '\r') OutFileChar(oFile,'\n');}
 147              		.loc 1 102 0 is_stmt 1
 148 0014 0D28     		cmp	r0, #13
 149 0016 02D1     		bne	.L12
 150              		.loc 1 102 0 is_stmt 0 discriminator 1
 151 0018 0A20     		movs	r0, #10
 152              	.LVL13:
 153 001a FFF7FEFF 		bl	fputc
 154              	.LVL14:
 155              	.L12:
 103:TinyBasic.c   ****   if (ch=='\r') {
 156              		.loc 1 103 0 is_stmt 1
 157 001e 0D2C     		cmp	r4, #13
 158 0020 30D1     		bne	.L14
 104:TinyBasic.c   ****     Core[TabHere] = 0;         /* keep count of how long this line is */
 159              		.loc 1 104 0
 160 0022 0022     		movs	r2, #0
 161 0024 334B     		ldr	r3, .L25+4
 162 0026 83F8BF20 		strb	r2, [r3, #191]
 105:TinyBasic.c   ****     ScreenChar('\n');}
 163              		.loc 1 105 0
 164 002a 334B     		ldr	r3, .L25+8
 165 002c 1868     		ldr	r0, [r3]
 166 002e 8268     		ldr	r2, [r0, #8]
 167 0030 9368     		ldr	r3, [r2, #8]
 168 0032 013B     		subs	r3, r3, #1
 169 0034 9360     		str	r3, [r2, #8]
 170 0036 002B     		cmp	r3, #0
 171 0038 19DA     		bge	.L15
 172              		.loc 1 105 0 is_stmt 0 discriminator 1
 173 003a 8268     		ldr	r2, [r0, #8]
 174 003c 9168     		ldr	r1, [r2, #8]
 175 003e 9369     		ldr	r3, [r2, #24]
 176 0040 9942     		cmp	r1, r3
 177 0042 10DB     		blt	.L16
 178              		.loc 1 105 0 discriminator 3
 179 0044 1368     		ldr	r3, [r2]
ARM GAS  C:\Users\doug_000\AppData\Local\Temp\ccbaKQF3.s 			page 6


 180 0046 0A22     		movs	r2, #10
 181 0048 1A70     		strb	r2, [r3]
 182 004a 2B4B     		ldr	r3, .L25+8
 183 004c 1868     		ldr	r0, [r3]
 184 004e 8268     		ldr	r2, [r0, #8]
 185 0050 1368     		ldr	r3, [r2]
 186 0052 1978     		ldrb	r1, [r3]	@ zero_extendqisi2
 187 0054 0A29     		cmp	r1, #10
 188 0056 02D0     		beq	.L17
 189              		.loc 1 105 0 discriminator 5
 190 0058 0133     		adds	r3, r3, #1
 191 005a 1360     		str	r3, [r2]
 192 005c 10BD     		pop	{r4, pc}
 193              	.L17:
 194              		.loc 1 105 0 discriminator 6
 195 005e 0A21     		movs	r1, #10
 196 0060 FFF7FEFF 		bl	__swbuf_r
 197              	.LVL15:
 198 0064 10BD     		pop	{r4, pc}
 199              	.L16:
 200              		.loc 1 105 0 discriminator 4
 201 0066 0A21     		movs	r1, #10
 202 0068 FFF7FEFF 		bl	__swbuf_r
 203              	.LVL16:
 204 006c 10BD     		pop	{r4, pc}
 205              	.L15:
 206              		.loc 1 105 0 discriminator 2
 207 006e 8368     		ldr	r3, [r0, #8]
 208 0070 1B68     		ldr	r3, [r3]
 209 0072 0A22     		movs	r2, #10
 210 0074 1A70     		strb	r2, [r3]
 211 0076 204B     		ldr	r3, .L25+8
 212 0078 1B68     		ldr	r3, [r3]
 213 007a 9A68     		ldr	r2, [r3, #8]
 214 007c 1368     		ldr	r3, [r2]
 215 007e 0133     		adds	r3, r3, #1
 216 0080 1360     		str	r3, [r2]
 217 0082 10BD     		pop	{r4, pc}
 218              	.L14:
 106:TinyBasic.c   ****   else if (ch>=' ') if (ch<='~') {  /* ignore non-print control chars */
 219              		.loc 1 106 0 is_stmt 1
 220 0084 1F2C     		cmp	r4, #31
 221 0086 31D9     		bls	.L11
 222              		.loc 1 106 0 is_stmt 0 discriminator 1
 223 0088 7E2C     		cmp	r4, #126
 224 008a 2FD8     		bhi	.L11
 107:TinyBasic.c   ****     Core[TabHere]++;
 225              		.loc 1 107 0 is_stmt 1
 226 008c 194A     		ldr	r2, .L25+4
 227 008e 92F8BF30 		ldrb	r3, [r2, #191]	@ zero_extendqisi2
 228 0092 0133     		adds	r3, r3, #1
 229 0094 82F8BF30 		strb	r3, [r2, #191]
 108:TinyBasic.c   ****     ScreenChar(ch);}} /* ~Ouch */
 230              		.loc 1 108 0
 231 0098 174B     		ldr	r3, .L25+8
 232 009a 1868     		ldr	r0, [r3]
 233 009c 8268     		ldr	r2, [r0, #8]
ARM GAS  C:\Users\doug_000\AppData\Local\Temp\ccbaKQF3.s 			page 7


 234 009e 9368     		ldr	r3, [r2, #8]
 235 00a0 013B     		subs	r3, r3, #1
 236 00a2 9360     		str	r3, [r2, #8]
 237 00a4 002B     		cmp	r3, #0
 238 00a6 18DA     		bge	.L20
 239              		.loc 1 108 0 is_stmt 0 discriminator 1
 240 00a8 8268     		ldr	r2, [r0, #8]
 241 00aa 9168     		ldr	r1, [r2, #8]
 242 00ac 9369     		ldr	r3, [r2, #24]
 243 00ae 9942     		cmp	r1, r3
 244 00b0 0FDB     		blt	.L21
 245              		.loc 1 108 0 discriminator 3
 246 00b2 1368     		ldr	r3, [r2]
 247 00b4 1C70     		strb	r4, [r3]
 248 00b6 104B     		ldr	r3, .L25+8
 249 00b8 1868     		ldr	r0, [r3]
 250 00ba 8268     		ldr	r2, [r0, #8]
 251 00bc 1368     		ldr	r3, [r2]
 252 00be 1978     		ldrb	r1, [r3]	@ zero_extendqisi2
 253 00c0 0A29     		cmp	r1, #10
 254 00c2 02D0     		beq	.L22
 255              		.loc 1 108 0 discriminator 5
 256 00c4 0133     		adds	r3, r3, #1
 257 00c6 1360     		str	r3, [r2]
 258 00c8 10BD     		pop	{r4, pc}
 259              	.L22:
 260              		.loc 1 108 0 discriminator 6
 261 00ca 0A21     		movs	r1, #10
 262 00cc FFF7FEFF 		bl	__swbuf_r
 263              	.LVL17:
 264 00d0 10BD     		pop	{r4, pc}
 265              	.L21:
 266              		.loc 1 108 0 discriminator 4
 267 00d2 2146     		mov	r1, r4
 268 00d4 FFF7FEFF 		bl	__swbuf_r
 269              	.LVL18:
 270 00d8 10BD     		pop	{r4, pc}
 271              	.L20:
 272              		.loc 1 108 0 discriminator 2
 273 00da 8368     		ldr	r3, [r0, #8]
 274 00dc 1B68     		ldr	r3, [r3]
 275 00de 1C70     		strb	r4, [r3]
 276 00e0 054B     		ldr	r3, .L25+8
 277 00e2 1B68     		ldr	r3, [r3]
 278 00e4 9A68     		ldr	r2, [r3, #8]
 279 00e6 1368     		ldr	r3, [r2]
 280 00e8 0133     		adds	r3, r3, #1
 281 00ea 1360     		str	r3, [r2]
 282              	.L11:
 283 00ec 10BD     		pop	{r4, pc}
 284              	.L26:
 285 00ee 00BF     		.align	2
 286              	.L25:
 287 00f0 00000000 		.word	.LANCHOR0
 288 00f4 00000000 		.word	Core
 289 00f8 00000000 		.word	_impure_ptr
 290              		.cfi_endproc
ARM GAS  C:\Users\doug_000\AppData\Local\Temp\ccbaKQF3.s 			page 8


 291              	.LFE3:
 292              		.size	Ouch, .-Ouch
 293              		.section	.text.Inch,"ax",%progbits
 294              		.align	2
 295              		.global	Inch
 296              		.thumb
 297              		.thumb_func
 298              		.type	Inch, %function
 299              	Inch:
 300              	.LFB4:
 109:TinyBasic.c   **** 
 110:TinyBasic.c   **** char Inch(void) {          /* read input character from stdin or file */
 301              		.loc 1 110 0 is_stmt 1
 302              		.cfi_startproc
 303              		@ args = 0, pretend = 0, frame = 0
 304              		@ frame_needed = 0, uses_anonymous_args = 0
 305 0000 10B5     		push	{r4, lr}
 306              		.cfi_def_cfa_offset 8
 307              		.cfi_offset 4, -8
 308              		.cfi_offset 14, -4
 111:TinyBasic.c   ****   char ch;
 112:TinyBasic.c   ****   if (inFile != NULL) {        /* there is a file to get input from.. */
 309              		.loc 1 112 0
 310 0002 1C4B     		ldr	r3, .L38
 311 0004 5868     		ldr	r0, [r3, #4]
 312 0006 90B1     		cbz	r0, .L28
 113:TinyBasic.c   ****     ch = InFileChar(inFile);
 313              		.loc 1 113 0
 314 0008 FFF7FEFF 		bl	CfileRead
 315              	.LVL19:
 316 000c 0446     		mov	r4, r0
 317              	.LVL20:
 114:TinyBasic.c   ****     if (ch == '\n') ch = '\r';
 318              		.loc 1 114 0
 319 000e 0A28     		cmp	r0, #10
 320 0010 00D1     		bne	.L29
 321 0012 0D24     		movs	r4, #13
 322              	.L29:
 323              	.LVL21:
 115:TinyBasic.c   ****     if (ch == '\0') {          /* switch over to console input at eof */
 324              		.loc 1 115 0
 325 0014 34B9     		cbnz	r4, .L30
 116:TinyBasic.c   ****       IoFileClose(inFile);
 326              		.loc 1 116 0
 327 0016 174C     		ldr	r4, .L38
 328              	.LVL22:
 329 0018 6068     		ldr	r0, [r4, #4]
 330 001a FFF7FEFF 		bl	fclose
 331              	.LVL23:
 117:TinyBasic.c   ****       inFile = NULL;}
 332              		.loc 1 117 0
 333 001e 0023     		movs	r3, #0
 334 0020 6360     		str	r3, [r4, #4]
 335 0022 04E0     		b	.L28
 336              	.LVL24:
 337              	.L30:
 118:TinyBasic.c   ****     else {
ARM GAS  C:\Users\doug_000\AppData\Local\Temp\ccbaKQF3.s 			page 9


 119:TinyBasic.c   ****       Ouch(ch);         /* echo input to screen (but not output file) */
 338              		.loc 1 119 0
 339 0024 2046     		mov	r0, r4
 340 0026 FFF7FEFF 		bl	Ouch
 341              	.LVL25:
 120:TinyBasic.c   ****       return ch;}}
 342              		.loc 1 120 0
 343 002a 2046     		mov	r0, r4
 344 002c 10BD     		pop	{r4, pc}
 345              	.LVL26:
 346              	.L28:
 121:TinyBasic.c   ****   ch = KeyInChar;                             /* get input from stdin */
 347              		.loc 1 121 0
 348 002e 124B     		ldr	r3, .L38+4
 349 0030 1A68     		ldr	r2, [r3]
 350 0032 5168     		ldr	r1, [r2, #4]
 351 0034 4B68     		ldr	r3, [r1, #4]
 352 0036 013B     		subs	r3, r3, #1
 353 0038 4B60     		str	r3, [r1, #4]
 354 003a 002B     		cmp	r3, #0
 355 003c 05DA     		bge	.L32
 356              		.loc 1 121 0 is_stmt 0 discriminator 1
 357 003e 1046     		mov	r0, r2
 358 0040 5168     		ldr	r1, [r2, #4]
 359 0042 FFF7FEFF 		bl	__srget_r
 360              	.LVL27:
 361 0046 C4B2     		uxtb	r4, r0
 362 0048 04E0     		b	.L33
 363              	.L32:
 364              		.loc 1 121 0 discriminator 2
 365 004a 5268     		ldr	r2, [r2, #4]
 366 004c 1368     		ldr	r3, [r2]
 367 004e 591C     		adds	r1, r3, #1
 368 0050 1160     		str	r1, [r2]
 369 0052 1C78     		ldrb	r4, [r3]	@ zero_extendqisi2
 370              	.L33:
 371              	.LVL28:
 122:TinyBasic.c   ****   if (NeedsEcho) ScreenChar(ch);   /* alternative input may need this */
 123:TinyBasic.c   ****   if (oFile != NULL) OutFileChar(oFile,ch); /* echo it to output file */
 372              		.loc 1 123 0 is_stmt 1 discriminator 4
 373 0054 074B     		ldr	r3, .L38
 374 0056 1968     		ldr	r1, [r3]
 375 0058 11B1     		cbz	r1, .L34
 376              		.loc 1 123 0 is_stmt 0 discriminator 1
 377 005a 2046     		mov	r0, r4
 378 005c FFF7FEFF 		bl	fputc
 379              	.LVL29:
 380              	.L34:
 124:TinyBasic.c   ****   if (ch == '\n') {
 381              		.loc 1 124 0 is_stmt 1
 382 0060 0A2C     		cmp	r4, #10
 383 0062 04D1     		bne	.L35
 384              	.LVL30:
 125:TinyBasic.c   ****     ch = '\r';                     /* convert line end to TB standard */
 126:TinyBasic.c   ****     Core[TabHere] = 0;}                          /* reset tab counter */
 385              		.loc 1 126 0
 386 0064 0022     		movs	r2, #0
ARM GAS  C:\Users\doug_000\AppData\Local\Temp\ccbaKQF3.s 			page 10


 387 0066 054B     		ldr	r3, .L38+8
 388 0068 83F8BF20 		strb	r2, [r3, #191]
 125:TinyBasic.c   ****     ch = '\r';                     /* convert line end to TB standard */
 389              		.loc 1 125 0
 390 006c 0D24     		movs	r4, #13
 391              	.LVL31:
 392              	.L35:
 127:TinyBasic.c   ****   return ch;} /* ~Inch */
 393              		.loc 1 127 0
 394 006e 2046     		mov	r0, r4
 395 0070 10BD     		pop	{r4, pc}
 396              	.LVL32:
 397              	.L39:
 398 0072 00BF     		.align	2
 399              	.L38:
 400 0074 00000000 		.word	.LANCHOR0
 401 0078 00000000 		.word	_impure_ptr
 402 007c 00000000 		.word	Core
 403              		.cfi_endproc
 404              	.LFE4:
 405              		.size	Inch, .-Inch
 406              		.section	.text.StopIt,"ax",%progbits
 407              		.align	2
 408              		.global	StopIt
 409              		.thumb
 410              		.thumb_func
 411              		.type	StopIt, %function
 412              	StopIt:
 413              	.LFB5:
 128:TinyBasic.c   **** 
 129:TinyBasic.c   **** int StopIt(void) {return BreakTest;}   /* ~StopIt, .. not implemented */
 414              		.loc 1 129 0
 415              		.cfi_startproc
 416              		@ args = 0, pretend = 0, frame = 0
 417              		@ frame_needed = 0, uses_anonymous_args = 0
 418              		@ link register save eliminated.
 419              		.loc 1 129 0
 420 0000 014B     		ldr	r3, .L41
 421 0002 9868     		ldr	r0, [r3, #8]
 422 0004 7047     		bx	lr
 423              	.L42:
 424 0006 00BF     		.align	2
 425              	.L41:
 426 0008 00000000 		.word	.LANCHOR0
 427              		.cfi_endproc
 428              	.LFE5:
 429              		.size	StopIt, .-StopIt
 430              		.section	.text.OutStr,"ax",%progbits
 431              		.align	2
 432              		.global	OutStr
 433              		.thumb
 434              		.thumb_func
 435              		.type	OutStr, %function
 436              	OutStr:
 437              	.LFB6:
 130:TinyBasic.c   **** 
 131:TinyBasic.c   **** void OutStr(char* theMsg) {         /* output a string to the console */
ARM GAS  C:\Users\doug_000\AppData\Local\Temp\ccbaKQF3.s 			page 11


 438              		.loc 1 131 0
 439              		.cfi_startproc
 440              		@ args = 0, pretend = 0, frame = 0
 441              		@ frame_needed = 0, uses_anonymous_args = 0
 442              	.LVL33:
 443 0000 10B5     		push	{r4, lr}
 444              		.cfi_def_cfa_offset 8
 445              		.cfi_offset 4, -8
 446              		.cfi_offset 14, -4
 447 0002 0446     		mov	r4, r0
 132:TinyBasic.c   ****   while (*theMsg != '\0') Ouch(*theMsg++);} /* ~OutStr */
 448              		.loc 1 132 0
 449 0004 02E0     		b	.L44
 450              	.LVL34:
 451              	.L45:
 452              		.loc 1 132 0 is_stmt 0 discriminator 2
 453 0006 0134     		adds	r4, r4, #1
 454              	.LVL35:
 455 0008 FFF7FEFF 		bl	Ouch
 456              	.LVL36:
 457              	.L44:
 458              		.loc 1 132 0 discriminator 1
 459 000c 2078     		ldrb	r0, [r4]	@ zero_extendqisi2
 460 000e 0028     		cmp	r0, #0
 461 0010 F9D1     		bne	.L45
 462              		.loc 1 132 0
 463 0012 10BD     		pop	{r4, pc}
 464              		.cfi_endproc
 465              	.LFE6:
 466              		.size	OutStr, .-OutStr
 467              		.section	.text.OutLn,"ax",%progbits
 468              		.align	2
 469              		.global	OutLn
 470              		.thumb
 471              		.thumb_func
 472              		.type	OutLn, %function
 473              	OutLn:
 474              	.LFB7:
 133:TinyBasic.c   **** 
 134:TinyBasic.c   **** void OutLn(void) {            /* terminate output line to the console */
 475              		.loc 1 134 0 is_stmt 1
 476              		.cfi_startproc
 477              		@ args = 0, pretend = 0, frame = 0
 478              		@ frame_needed = 0, uses_anonymous_args = 0
 479 0000 08B5     		push	{r3, lr}
 480              		.cfi_def_cfa_offset 8
 481              		.cfi_offset 3, -8
 482              		.cfi_offset 14, -4
 135:TinyBasic.c   ****   OutStr("\r");} /* ~OutLn */
 483              		.loc 1 135 0
 484 0002 0248     		ldr	r0, .L49
 485 0004 FFF7FEFF 		bl	OutStr
 486              	.LVL37:
 487 0008 08BD     		pop	{r3, pc}
 488              	.L50:
 489 000a 00BF     		.align	2
 490              	.L49:
ARM GAS  C:\Users\doug_000\AppData\Local\Temp\ccbaKQF3.s 			page 12


 491 000c 00000000 		.word	.LC0
 492              		.cfi_endproc
 493              	.LFE7:
 494              		.size	OutLn, .-OutLn
 495              		.section	.text.OutInt,"ax",%progbits
 496              		.align	2
 497              		.global	OutInt
 498              		.thumb
 499              		.thumb_func
 500              		.type	OutInt, %function
 501              	OutInt:
 502              	.LFB8:
 136:TinyBasic.c   **** 
 137:TinyBasic.c   **** void OutInt(int theNum) {           /* output a number to the console */
 503              		.loc 1 137 0
 504              		.cfi_startproc
 505              		@ args = 0, pretend = 0, frame = 0
 506              		@ frame_needed = 0, uses_anonymous_args = 0
 507              	.LVL38:
 508 0000 10B5     		push	{r4, lr}
 509              		.cfi_def_cfa_offset 8
 510              		.cfi_offset 4, -8
 511              		.cfi_offset 14, -4
 138:TinyBasic.c   ****   if (theNum<0) {
 512              		.loc 1 138 0
 513 0002 041E     		subs	r4, r0, #0
 514 0004 03DA     		bge	.L52
 139:TinyBasic.c   ****     Ouch('-');
 515              		.loc 1 139 0
 516 0006 2D20     		movs	r0, #45
 517              	.LVL39:
 518 0008 FFF7FEFF 		bl	Ouch
 519              	.LVL40:
 140:TinyBasic.c   ****     theNum = -theNum;}
 520              		.loc 1 140 0
 521 000c 6442     		negs	r4, r4
 522              	.LVL41:
 523              	.L52:
 141:TinyBasic.c   ****   if (theNum>9) OutInt(theNum/10);
 524              		.loc 1 141 0
 525 000e 092C     		cmp	r4, #9
 526 0010 07DD     		ble	.L53
 527              		.loc 1 141 0 is_stmt 0 discriminator 1
 528 0012 0B4B     		ldr	r3, .L55
 529 0014 83FB0423 		smull	r2, r3, r3, r4
 530 0018 E017     		asrs	r0, r4, #31
 531 001a C0EBA300 		rsb	r0, r0, r3, asr #2
 532 001e FFF7FEFF 		bl	OutInt
 533              	.LVL42:
 534              	.L53:
 142:TinyBasic.c   ****   Ouch((char)(theNum%10+48));} /* ~OutInt */
 535              		.loc 1 142 0 is_stmt 1
 536 0022 0748     		ldr	r0, .L55
 537 0024 80FB0430 		smull	r3, r0, r0, r4
 538 0028 E317     		asrs	r3, r4, #31
 539 002a C3EBA000 		rsb	r0, r3, r0, asr #2
 540 002e 00EB8000 		add	r0, r0, r0, lsl #2
ARM GAS  C:\Users\doug_000\AppData\Local\Temp\ccbaKQF3.s 			page 13


 541 0032 4000     		lsls	r0, r0, #1
 542 0034 201A     		subs	r0, r4, r0
 543 0036 3030     		adds	r0, r0, #48
 544 0038 C0B2     		uxtb	r0, r0
 545 003a FFF7FEFF 		bl	Ouch
 546              	.LVL43:
 547 003e 10BD     		pop	{r4, pc}
 548              	.LVL44:
 549              	.L56:
 550              		.align	2
 551              	.L55:
 552 0040 67666666 		.word	1717986919
 553              		.cfi_endproc
 554              	.LFE8:
 555              		.size	OutInt, .-OutInt
 556              		.section	.text.OutHex,"ax",%progbits
 557              		.align	2
 558              		.global	OutHex
 559              		.thumb
 560              		.thumb_func
 561              		.type	OutHex, %function
 562              	OutHex:
 563              	.LFB9:
 143:TinyBasic.c   **** 
 144:TinyBasic.c   **** /*********************** Debugging Utilities... ***********************/
 145:TinyBasic.c   **** 
 146:TinyBasic.c   **** void OutHex(int num, int nd) {  /* output a hex number to the console */
 564              		.loc 1 146 0
 565              		.cfi_startproc
 566              		@ args = 0, pretend = 0, frame = 0
 567              		@ frame_needed = 0, uses_anonymous_args = 0
 568              	.LVL45:
 569 0000 10B5     		push	{r4, lr}
 570              		.cfi_def_cfa_offset 8
 571              		.cfi_offset 4, -8
 572              		.cfi_offset 14, -4
 573 0002 0446     		mov	r4, r0
 147:TinyBasic.c   ****   if (nd>1) OutHex(num>>4, nd-1);
 574              		.loc 1 147 0
 575 0004 0129     		cmp	r1, #1
 576 0006 03DD     		ble	.L58
 577              		.loc 1 147 0 is_stmt 0 discriminator 1
 578 0008 0011     		asrs	r0, r0, #4
 579              	.LVL46:
 580 000a 0139     		subs	r1, r1, #1
 581              	.LVL47:
 582 000c FFF7FEFF 		bl	OutHex
 583              	.LVL48:
 584              	.L58:
 148:TinyBasic.c   ****   num = num&15;
 585              		.loc 1 148 0 is_stmt 1
 586 0010 04F00F00 		and	r0, r4, #15
 587              	.LVL49:
 149:TinyBasic.c   ****   if (num>9) Ouch((char)(num+55));
 588              		.loc 1 149 0
 589 0014 0928     		cmp	r0, #9
 590 0016 03DD     		ble	.L59
ARM GAS  C:\Users\doug_000\AppData\Local\Temp\ccbaKQF3.s 			page 14


 591              		.loc 1 149 0 is_stmt 0 discriminator 1
 592 0018 3730     		adds	r0, r0, #55
 593              	.LVL50:
 594 001a FFF7FEFF 		bl	Ouch
 595              	.LVL51:
 596 001e 10BD     		pop	{r4, pc}
 597              	.LVL52:
 598              	.L59:
 150:TinyBasic.c   ****     else Ouch((char)(num+48));} /* ~OutHex */
 599              		.loc 1 150 0 is_stmt 1
 600 0020 3030     		adds	r0, r0, #48
 601              	.LVL53:
 602 0022 FFF7FEFF 		bl	Ouch
 603              	.LVL54:
 604 0026 10BD     		pop	{r4, pc}
 605              		.cfi_endproc
 606              	.LFE9:
 607              		.size	OutHex, .-OutHex
 608              		.section	.text.ShowSubs,"ax",%progbits
 609              		.align	2
 610              		.global	ShowSubs
 611              		.thumb
 612              		.thumb_func
 613              		.type	ShowSubs, %function
 614              	ShowSubs:
 615              	.LFB10:
 151:TinyBasic.c   **** 
 152:TinyBasic.c   **** void ShowSubs(void) {       /* display subroutine stack for debugging */
 616              		.loc 1 152 0
 617              		.cfi_startproc
 618              		@ args = 0, pretend = 0, frame = 0
 619              		@ frame_needed = 0, uses_anonymous_args = 0
 620 0000 10B5     		push	{r4, lr}
 621              		.cfi_def_cfa_offset 8
 622              		.cfi_offset 4, -8
 623              		.cfi_offset 14, -4
 153:TinyBasic.c   ****   int ix;
 154:TinyBasic.c   ****   OutLn(); OutStr(" [Stk "); OutHex(SubStk,5);
 624              		.loc 1 154 0
 625 0002 FFF7FEFF 		bl	OutLn
 626              	.LVL55:
 627 0006 0D48     		ldr	r0, .L66
 628 0008 FFF7FEFF 		bl	OutStr
 629              	.LVL56:
 630 000c 0C4C     		ldr	r4, .L66+4
 631 000e 2068     		ldr	r0, [r4]
 632 0010 0521     		movs	r1, #5
 633 0012 FFF7FEFF 		bl	OutHex
 634              	.LVL57:
 155:TinyBasic.c   ****   for (ix=SubStk; ix<UserEnd; ix++) {
 635              		.loc 1 155 0
 636 0016 2468     		ldr	r4, [r4]
 637              	.LVL58:
 638 0018 08E0     		b	.L63
 639              	.L64:
 156:TinyBasic.c   ****     OutStr(" ");
 640              		.loc 1 156 0 discriminator 3
ARM GAS  C:\Users\doug_000\AppData\Local\Temp\ccbaKQF3.s 			page 15


 641 001a 0A48     		ldr	r0, .L66+8
 642 001c FFF7FEFF 		bl	OutStr
 643              	.LVL59:
 157:TinyBasic.c   ****     OutInt(Peek2(ix++));}
 644              		.loc 1 157 0 discriminator 3
 645 0020 2046     		mov	r0, r4
 646 0022 FFF7FEFF 		bl	Peek2
 647              	.LVL60:
 648 0026 FFF7FEFF 		bl	OutInt
 649              	.LVL61:
 155:TinyBasic.c   ****   for (ix=SubStk; ix<UserEnd; ix++) {
 650              		.loc 1 155 0 discriminator 3
 651 002a 0234     		adds	r4, r4, #2
 652              	.LVL62:
 653              	.L63:
 155:TinyBasic.c   ****   for (ix=SubStk; ix<UserEnd; ix++) {
 654              		.loc 1 155 0 is_stmt 0 discriminator 1
 655 002c 064B     		ldr	r3, .L66+12
 656 002e 1B68     		ldr	r3, [r3]
 657 0030 9C42     		cmp	r4, r3
 658 0032 F2DB     		blt	.L64
 158:TinyBasic.c   ****   OutStr("]");} /* ~ShowSubs */
 659              		.loc 1 158 0 is_stmt 1
 660 0034 0548     		ldr	r0, .L66+16
 661 0036 FFF7FEFF 		bl	OutStr
 662              	.LVL63:
 663 003a 10BD     		pop	{r4, pc}
 664              	.LVL64:
 665              	.L67:
 666              		.align	2
 667              	.L66:
 668 003c 04000000 		.word	.LC1
 669 0040 00000000 		.word	SubStk
 670 0044 0C000000 		.word	.LC2
 671 0048 00000000 		.word	UserEnd
 672 004c 10000000 		.word	.LC3
 673              		.cfi_endproc
 674              	.LFE10:
 675              		.size	ShowSubs, .-ShowSubs
 676              		.section	.text.ShowExSt,"ax",%progbits
 677              		.align	2
 678              		.global	ShowExSt
 679              		.thumb
 680              		.thumb_func
 681              		.type	ShowExSt, %function
 682              	ShowExSt:
 683              	.LFB11:
 159:TinyBasic.c   **** 
 160:TinyBasic.c   **** void ShowExSt(void) {       /* display expression stack for debugging */
 684              		.loc 1 160 0
 685              		.cfi_startproc
 686              		@ args = 0, pretend = 0, frame = 0
 687              		@ frame_needed = 0, uses_anonymous_args = 0
 688 0000 10B5     		push	{r4, lr}
 689              		.cfi_def_cfa_offset 8
 690              		.cfi_offset 4, -8
 691              		.cfi_offset 14, -4
ARM GAS  C:\Users\doug_000\AppData\Local\Temp\ccbaKQF3.s 			page 16


 161:TinyBasic.c   ****   int ix;
 162:TinyBasic.c   ****   OutLn(); OutStr(" [Exp "); OutHex(ExpnTop,3);
 692              		.loc 1 162 0
 693 0002 FFF7FEFF 		bl	OutLn
 694              	.LVL65:
 695 0006 1448     		ldr	r0, .L75
 696 0008 FFF7FEFF 		bl	OutStr
 697              	.LVL66:
 698 000c 134C     		ldr	r4, .L75+4
 699 000e 2068     		ldr	r0, [r4]
 700 0010 0321     		movs	r1, #3
 701 0012 FFF7FEFF 		bl	OutHex
 702              	.LVL67:
 163:TinyBasic.c   ****   if ((ExpnTop&1)==0) for (ix=ExpnTop; ix<ExpnStk; ix++) {
 703              		.loc 1 163 0
 704 0016 2468     		ldr	r4, [r4]
 705 0018 14F0010F 		tst	r4, #1
 706 001c 0AD0     		beq	.L69
 707 001e 14E0     		b	.L70
 708              	.LVL68:
 709              	.L71:
 164:TinyBasic.c   ****     OutStr(" ");
 710              		.loc 1 164 0 discriminator 4
 711 0020 0F48     		ldr	r0, .L75+8
 712 0022 FFF7FEFF 		bl	OutStr
 713              	.LVL69:
 165:TinyBasic.c   ****     OutInt((int)((short)Peek2(ix++)));}
 714              		.loc 1 165 0 discriminator 4
 715 0026 2046     		mov	r0, r4
 716 0028 FFF7FEFF 		bl	Peek2
 717              	.LVL70:
 718 002c 00B2     		sxth	r0, r0
 719 002e FFF7FEFF 		bl	OutInt
 720              	.LVL71:
 163:TinyBasic.c   ****   if ((ExpnTop&1)==0) for (ix=ExpnTop; ix<ExpnStk; ix++) {
 721              		.loc 1 163 0 discriminator 4
 722 0032 0234     		adds	r4, r4, #2
 723              	.LVL72:
 724              	.L69:
 163:TinyBasic.c   ****   if ((ExpnTop&1)==0) for (ix=ExpnTop; ix<ExpnStk; ix++) {
 725              		.loc 1 163 0 is_stmt 0 discriminator 2
 726 0034 7F2C     		cmp	r4, #127
 727 0036 F3DD     		ble	.L71
 728 0038 09E0     		b	.L72
 729              	.L73:
 166:TinyBasic.c   ****   else for (ix=ExpnTop; ix<ExpnStk; ix++) {
 167:TinyBasic.c   ****     OutStr(".");
 730              		.loc 1 167 0 is_stmt 1 discriminator 3
 731 003a 0A48     		ldr	r0, .L75+12
 732 003c FFF7FEFF 		bl	OutStr
 733              	.LVL73:
 168:TinyBasic.c   ****     OutInt((int)Core[ix]);}
 734              		.loc 1 168 0 discriminator 3
 735 0040 094B     		ldr	r3, .L75+16
 736 0042 185D     		ldrb	r0, [r3, r4]	@ zero_extendqisi2
 737 0044 FFF7FEFF 		bl	OutInt
 738              	.LVL74:
ARM GAS  C:\Users\doug_000\AppData\Local\Temp\ccbaKQF3.s 			page 17


 166:TinyBasic.c   ****   else for (ix=ExpnTop; ix<ExpnStk; ix++) {
 739              		.loc 1 166 0 discriminator 3
 740 0048 0134     		adds	r4, r4, #1
 741              	.LVL75:
 742              	.L70:
 166:TinyBasic.c   ****   else for (ix=ExpnTop; ix<ExpnStk; ix++) {
 743              		.loc 1 166 0 is_stmt 0 discriminator 1
 744 004a 7F2C     		cmp	r4, #127
 745 004c F5DD     		ble	.L73
 746              	.L72:
 169:TinyBasic.c   ****   OutStr("]");} /* ~ShowExSt */
 747              		.loc 1 169 0 is_stmt 1
 748 004e 0748     		ldr	r0, .L75+20
 749 0050 FFF7FEFF 		bl	OutStr
 750              	.LVL76:
 751 0054 10BD     		pop	{r4, pc}
 752              	.LVL77:
 753              	.L76:
 754 0056 00BF     		.align	2
 755              	.L75:
 756 0058 14000000 		.word	.LC4
 757 005c 00000000 		.word	ExpnTop
 758 0060 0C000000 		.word	.LC2
 759 0064 1C000000 		.word	.LC5
 760 0068 00000000 		.word	Core
 761 006c 10000000 		.word	.LC3
 762              		.cfi_endproc
 763              	.LFE11:
 764              		.size	ShowExSt, .-ShowExSt
 765              		.section	.text.ShowVars,"ax",%progbits
 766              		.align	2
 767              		.global	ShowVars
 768              		.thumb
 769              		.thumb_func
 770              		.type	ShowVars, %function
 771              	ShowVars:
 772              	.LFB12:
 170:TinyBasic.c   **** 
 171:TinyBasic.c   **** void ShowVars(int whom) {               /* display vars for debugging */
 773              		.loc 1 171 0
 774              		.cfi_startproc
 775              		@ args = 0, pretend = 0, frame = 0
 776              		@ frame_needed = 0, uses_anonymous_args = 0
 777              	.LVL78:
 778 0000 F8B5     		push	{r3, r4, r5, r6, r7, lr}
 779              		.cfi_def_cfa_offset 24
 780              		.cfi_offset 3, -24
 781              		.cfi_offset 4, -20
 782              		.cfi_offset 5, -16
 783              		.cfi_offset 6, -12
 784              		.cfi_offset 7, -8
 785              		.cfi_offset 14, -4
 786              	.LVL79:
 172:TinyBasic.c   ****   int ix, valu = 1, prior = 1;
 173:TinyBasic.c   ****   if (whom==0) whom = 26; else {
 787              		.loc 1 173 0
 788 0002 18B1     		cbz	r0, .L83
ARM GAS  C:\Users\doug_000\AppData\Local\Temp\ccbaKQF3.s 			page 18


 174:TinyBasic.c   ****     whom = (whom>>1)&31;             /* whom is a specified var, or 0 */
 789              		.loc 1 174 0
 790 0004 C0F34407 		ubfx	r7, r0, #1, #5
 791              	.LVL80:
 175:TinyBasic.c   ****     valu = whom;}
 792              		.loc 1 175 0
 793 0008 3C46     		mov	r4, r7
 794 000a 01E0     		b	.L78
 795              	.LVL81:
 796              	.L83:
 172:TinyBasic.c   ****   int ix, valu = 1, prior = 1;
 797              		.loc 1 172 0
 798 000c 0124     		movs	r4, #1
 173:TinyBasic.c   ****     whom = (whom>>1)&31;             /* whom is a specified var, or 0 */
 799              		.loc 1 173 0
 800 000e 1A27     		movs	r7, #26
 801              	.LVL82:
 802              	.L78:
 176:TinyBasic.c   ****   OutLn(); OutStr("  [Vars");
 803              		.loc 1 176 0
 804 0010 FFF7FEFF 		bl	OutLn
 805              	.LVL83:
 806 0014 1148     		ldr	r0, .L85
 807 0016 FFF7FEFF 		bl	OutStr
 808              	.LVL84:
 172:TinyBasic.c   ****   if (whom==0) whom = 26; else {
 809              		.loc 1 172 0
 810 001a 0126     		movs	r6, #1
 177:TinyBasic.c   ****   for (ix=valu; ix<=whom; ix++) {  /* all non-zero vars, or else whom */
 811              		.loc 1 177 0
 812 001c 17E0     		b	.L79
 813              	.LVL85:
 814              	.L82:
 178:TinyBasic.c   ****     valu = (int)((short)Peek2(ix*2+ExpnStk));
 815              		.loc 1 178 0
 816 001e 04F14000 		add	r0, r4, #64
 817 0022 4000     		lsls	r0, r0, #1
 818 0024 FFF7FEFF 		bl	Peek2
 819              	.LVL86:
 820 0028 05B2     		sxth	r5, r0
 821              	.LVL87:
 179:TinyBasic.c   ****     if (valu==0) if (prior==0) continue;          /* omit multiple 0s */
 822              		.loc 1 179 0
 823 002a 05B9     		cbnz	r5, .L80
 824              		.loc 1 179 0 is_stmt 0 discriminator 1
 825 002c 76B1     		cbz	r6, .L81
 826              	.L80:
 827              	.LVL88:
 180:TinyBasic.c   ****     prior = valu;
 181:TinyBasic.c   ****     OutStr(" ");
 828              		.loc 1 181 0 is_stmt 1
 829 002e 0C48     		ldr	r0, .L85+4
 830 0030 FFF7FEFF 		bl	OutStr
 831              	.LVL89:
 182:TinyBasic.c   ****     Ouch((char)(ix+64));                             /* show var name */
 832              		.loc 1 182 0
 833 0034 04F14000 		add	r0, r4, #64
ARM GAS  C:\Users\doug_000\AppData\Local\Temp\ccbaKQF3.s 			page 19


 834 0038 C0B2     		uxtb	r0, r0
 835 003a FFF7FEFF 		bl	Ouch
 836              	.LVL90:
 183:TinyBasic.c   ****     OutStr("=");
 837              		.loc 1 183 0
 838 003e 0948     		ldr	r0, .L85+8
 839 0040 FFF7FEFF 		bl	OutStr
 840              	.LVL91:
 184:TinyBasic.c   ****     OutInt(valu);}
 841              		.loc 1 184 0
 842 0044 2846     		mov	r0, r5
 843 0046 FFF7FEFF 		bl	OutInt
 844              	.LVL92:
 180:TinyBasic.c   ****     OutStr(" ");
 845              		.loc 1 180 0
 846 004a 2E46     		mov	r6, r5
 847              	.LVL93:
 848              	.L81:
 177:TinyBasic.c   ****     valu = (int)((short)Peek2(ix*2+ExpnStk));
 849              		.loc 1 177 0 discriminator 2
 850 004c 0134     		adds	r4, r4, #1
 851              	.LVL94:
 852              	.L79:
 177:TinyBasic.c   ****     valu = (int)((short)Peek2(ix*2+ExpnStk));
 853              		.loc 1 177 0 is_stmt 0 discriminator 1
 854 004e BC42     		cmp	r4, r7
 855 0050 E5DD     		ble	.L82
 185:TinyBasic.c   ****   OutStr("]");} /* ~ShowVars */
 856              		.loc 1 185 0 is_stmt 1
 857 0052 0548     		ldr	r0, .L85+12
 858 0054 FFF7FEFF 		bl	OutStr
 859              	.LVL95:
 860 0058 F8BD     		pop	{r3, r4, r5, r6, r7, pc}
 861              	.LVL96:
 862              	.L86:
 863 005a 00BF     		.align	2
 864              	.L85:
 865 005c 20000000 		.word	.LC6
 866 0060 0C000000 		.word	.LC2
 867 0064 28000000 		.word	.LC7
 868 0068 10000000 		.word	.LC3
 869              		.cfi_endproc
 870              	.LFE12:
 871              		.size	ShowVars, .-ShowVars
 872              		.section	.text.ShoMemDump,"ax",%progbits
 873              		.align	2
 874              		.global	ShoMemDump
 875              		.thumb
 876              		.thumb_func
 877              		.type	ShoMemDump, %function
 878              	ShoMemDump:
 879              	.LFB13:
 186:TinyBasic.c   **** 
 187:TinyBasic.c   **** void ShoMemDump(int here, int nlocs) {     /* display hex memory dump */
 880              		.loc 1 187 0
 881              		.cfi_startproc
 882              		@ args = 0, pretend = 0, frame = 0
ARM GAS  C:\Users\doug_000\AppData\Local\Temp\ccbaKQF3.s 			page 20


 883              		@ frame_needed = 0, uses_anonymous_args = 0
 884              	.LVL97:
 885 0000 2DE9F041 		push	{r4, r5, r6, r7, r8, lr}
 886              		.cfi_def_cfa_offset 24
 887              		.cfi_offset 4, -24
 888              		.cfi_offset 5, -20
 889              		.cfi_offset 6, -16
 890              		.cfi_offset 7, -12
 891              		.cfi_offset 8, -8
 892              		.cfi_offset 14, -4
 893 0004 0546     		mov	r5, r0
 894 0006 0F46     		mov	r7, r1
 188:TinyBasic.c   ****   int temp, thar = here&-16;
 895              		.loc 1 188 0
 896 0008 20F00F08 		bic	r8, r0, #15
 897              	.LVL98:
 189:TinyBasic.c   ****   while (nlocs>0) {
 898              		.loc 1 189 0
 899 000c 56E0     		b	.L88
 900              	.LVL99:
 901              	.L104:
 190:TinyBasic.c   ****     temp = thar;
 191:TinyBasic.c   ****     OutLn();
 902              		.loc 1 191 0
 903 000e FFF7FEFF 		bl	OutLn
 904              	.LVL100:
 192:TinyBasic.c   ****     OutHex(here,4);
 905              		.loc 1 192 0
 906 0012 2846     		mov	r0, r5
 907 0014 0421     		movs	r1, #4
 908 0016 FFF7FEFF 		bl	OutHex
 909              	.LVL101:
 193:TinyBasic.c   ****     OutStr(": ");
 910              		.loc 1 193 0
 911 001a 2B48     		ldr	r0, .L107
 912 001c FFF7FEFF 		bl	OutStr
 913              	.LVL102:
 194:TinyBasic.c   ****     while (thar<here) {OutStr("   "); thar++;}
 914              		.loc 1 194 0
 915 0020 4446     		mov	r4, r8
 916 0022 03E0     		b	.L89
 917              	.LVL103:
 918              	.L90:
 919              		.loc 1 194 0 is_stmt 0 discriminator 2
 920 0024 2948     		ldr	r0, .L107+4
 921 0026 FFF7FEFF 		bl	OutStr
 922              	.LVL104:
 923 002a 0134     		adds	r4, r4, #1
 924              	.LVL105:
 925              	.L89:
 926              		.loc 1 194 0 discriminator 1
 927 002c AC42     		cmp	r4, r5
 928 002e F9DB     		blt	.L90
 929 0030 00E0     		b	.L93
 930              	.LVL106:
 931              	.L105:
 195:TinyBasic.c   ****     do {
ARM GAS  C:\Users\doug_000\AppData\Local\Temp\ccbaKQF3.s 			page 21


 196:TinyBasic.c   ****       OutStr(" ");
 197:TinyBasic.c   ****       if (nlocs-- >0) OutHex(Core[here],2);
 932              		.loc 1 197 0 is_stmt 1
 933 0032 3746     		mov	r7, r6
 934              	.LVL107:
 935              	.L93:
 196:TinyBasic.c   ****       if (nlocs-- >0) OutHex(Core[here],2);
 936              		.loc 1 196 0
 937 0034 2648     		ldr	r0, .L107+8
 938 0036 FFF7FEFF 		bl	OutStr
 939              	.LVL108:
 940              		.loc 1 197 0
 941 003a 7E1E     		subs	r6, r7, #1
 942              	.LVL109:
 943 003c 002F     		cmp	r7, #0
 944 003e 05DD     		ble	.L91
 945              		.loc 1 197 0 is_stmt 0 discriminator 1
 946 0040 244B     		ldr	r3, .L107+12
 947 0042 585D     		ldrb	r0, [r3, r5]	@ zero_extendqisi2
 948 0044 0221     		movs	r1, #2
 949 0046 FFF7FEFF 		bl	OutHex
 950              	.LVL110:
 951 004a 02E0     		b	.L92
 952              	.L91:
 198:TinyBasic.c   ****         else OutStr("  ");}
 953              		.loc 1 198 0 is_stmt 1
 954 004c 2248     		ldr	r0, .L107+16
 955 004e FFF7FEFF 		bl	OutStr
 956              	.LVL111:
 957              	.L92:
 199:TinyBasic.c   ****       while (++here%16 !=0);
 958              		.loc 1 199 0
 959 0052 0135     		adds	r5, r5, #1
 960              	.LVL112:
 961 0054 15F00F0F 		tst	r5, #15
 962 0058 EBD1     		bne	.L105
 200:TinyBasic.c   ****     OutStr("  ");
 963              		.loc 1 200 0
 964 005a 1F48     		ldr	r0, .L107+16
 965 005c FFF7FEFF 		bl	OutStr
 966              	.LVL113:
 201:TinyBasic.c   ****     while (temp<thar) {OutStr(" "); temp++;}
 967              		.loc 1 201 0
 968 0060 04E0     		b	.L94
 969              	.L95:
 970              		.loc 1 201 0 is_stmt 0 discriminator 2
 971 0062 1B48     		ldr	r0, .L107+8
 972 0064 FFF7FEFF 		bl	OutStr
 973              	.LVL114:
 974 0068 08F10108 		add	r8, r8, #1
 975              	.LVL115:
 976              	.L94:
 977              		.loc 1 201 0 discriminator 1
 978 006c A045     		cmp	r8, r4
 979 006e F8DB     		blt	.L95
 980 0070 20E0     		b	.L96
 981              	.LVL116:
ARM GAS  C:\Users\doug_000\AppData\Local\Temp\ccbaKQF3.s 			page 22


 982              	.L103:
 202:TinyBasic.c   ****     while (thar<here) {
 203:TinyBasic.c   ****       if (nlocs<0) if ((thar&15) >= nlocs+16) break;
 983              		.loc 1 203 0 is_stmt 1
 984 0072 002E     		cmp	r6, #0
 985 0074 05DA     		bge	.L97
 986              		.loc 1 203 0 is_stmt 0 discriminator 1
 987 0076 04F00F03 		and	r3, r4, #15
 988 007a 07F10F02 		add	r2, r7, #15
 989 007e 9342     		cmp	r3, r2
 990 0080 1ADA     		bge	.L98
 991              	.L97:
 204:TinyBasic.c   ****       temp = Core[thar++];
 992              		.loc 1 204 0 is_stmt 1
 993 0082 04F10108 		add	r8, r4, #1
 994              	.LVL117:
 995 0086 134B     		ldr	r3, .L107+12
 996 0088 185D     		ldrb	r0, [r3, r4]	@ zero_extendqisi2
 997              	.LVL118:
 205:TinyBasic.c   ****       if (temp == (int)'\r') Ouch('\\');
 998              		.loc 1 205 0
 999 008a 0D28     		cmp	r0, #13
 1000 008c 03D1     		bne	.L99
 1001              		.loc 1 205 0 is_stmt 0 discriminator 1
 1002 008e 5C20     		movs	r0, #92
 1003              	.LVL119:
 1004 0090 FFF7FEFF 		bl	Ouch
 1005              	.LVL120:
 1006 0094 0DE0     		b	.L100
 1007              	.LVL121:
 1008              	.L99:
 206:TinyBasic.c   ****       else if (temp<32) Ouch('`');
 1009              		.loc 1 206 0 is_stmt 1
 1010 0096 1F28     		cmp	r0, #31
 1011 0098 03DC     		bgt	.L101
 1012              		.loc 1 206 0 is_stmt 0 discriminator 1
 1013 009a 6020     		movs	r0, #96
 1014              	.LVL122:
 1015 009c FFF7FEFF 		bl	Ouch
 1016              	.LVL123:
 1017 00a0 07E0     		b	.L100
 1018              	.LVL124:
 1019              	.L101:
 207:TinyBasic.c   ****       else if (temp>126) Ouch('~');
 1020              		.loc 1 207 0 is_stmt 1
 1021 00a2 7E28     		cmp	r0, #126
 1022 00a4 03DD     		ble	.L102
 1023              		.loc 1 207 0 is_stmt 0 discriminator 1
 1024 00a6 7E20     		movs	r0, #126
 1025              	.LVL125:
 1026 00a8 FFF7FEFF 		bl	Ouch
 1027              	.LVL126:
 1028 00ac 01E0     		b	.L100
 1029              	.LVL127:
 1030              	.L102:
 208:TinyBasic.c   ****         else Ouch((char)temp);}}
 1031              		.loc 1 208 0 is_stmt 1
ARM GAS  C:\Users\doug_000\AppData\Local\Temp\ccbaKQF3.s 			page 23


 1032 00ae FFF7FEFF 		bl	Ouch
 1033              	.LVL128:
 1034              	.L100:
 197:TinyBasic.c   ****         else OutStr("  ");}
 1035              		.loc 1 197 0
 1036 00b2 4446     		mov	r4, r8
 1037              	.LVL129:
 1038              	.L96:
 202:TinyBasic.c   ****       if (nlocs<0) if ((thar&15) >= nlocs+16) break;
 1039              		.loc 1 202 0
 1040 00b4 AC42     		cmp	r4, r5
 1041 00b6 DCDB     		blt	.L103
 1042              	.L98:
 197:TinyBasic.c   ****         else OutStr("  ");}
 1043              		.loc 1 197 0
 1044 00b8 A046     		mov	r8, r4
 1045 00ba 3746     		mov	r7, r6
 1046              	.LVL130:
 1047              	.L88:
 189:TinyBasic.c   ****     temp = thar;
 1048              		.loc 1 189 0
 1049 00bc 002F     		cmp	r7, #0
 1050 00be A6DC     		bgt	.L104
 209:TinyBasic.c   ****   OutLn();} /* ~ShoMemDump */
 1051              		.loc 1 209 0
 1052 00c0 FFF7FEFF 		bl	OutLn
 1053              	.LVL131:
 1054 00c4 BDE8F081 		pop	{r4, r5, r6, r7, r8, pc}
 1055              	.LVL132:
 1056              	.L108:
 1057              		.align	2
 1058              	.L107:
 1059 00c8 2C000000 		.word	.LC8
 1060 00cc 30000000 		.word	.LC9
 1061 00d0 0C000000 		.word	.LC2
 1062 00d4 00000000 		.word	Core
 1063 00d8 34000000 		.word	.LC10
 1064              		.cfi_endproc
 1065              	.LFE13:
 1066              		.size	ShoMemDump, .-ShoMemDump
 1067              		.section	.text.ShoLogVal,"ax",%progbits
 1068              		.align	2
 1069              		.global	ShoLogVal
 1070              		.thumb
 1071              		.thumb_func
 1072              		.type	ShoLogVal, %function
 1073              	ShoLogVal:
 1074              	.LFB14:
 210:TinyBasic.c   **** 
 211:TinyBasic.c   **** void ShoLogVal(int item) {   /* format & output one activity log item */
 1075              		.loc 1 211 0
 1076              		.cfi_startproc
 1077              		@ args = 0, pretend = 0, frame = 0
 1078              		@ frame_needed = 0, uses_anonymous_args = 0
 1079              	.LVL133:
 1080 0000 10B5     		push	{r4, lr}
 1081              		.cfi_def_cfa_offset 8
ARM GAS  C:\Users\doug_000\AppData\Local\Temp\ccbaKQF3.s 			page 24


 1082              		.cfi_offset 4, -8
 1083              		.cfi_offset 14, -4
 212:TinyBasic.c   ****   int valu = DebugLog[item];
 1084              		.loc 1 212 0
 1085 0002 254B     		ldr	r3, .L116
 1086 0004 53F82040 		ldr	r4, [r3, r0, lsl #2]
 1087              	.LVL134:
 213:TinyBasic.c   ****   OutLn();
 1088              		.loc 1 213 0
 1089 0008 FFF7FEFF 		bl	OutLn
 1090              	.LVL135:
 214:TinyBasic.c   ****   if (valu < -65536) {                         /* store to a variable */
 1091              		.loc 1 214 0
 1092 000c 14F5803F 		cmn	r4, #65536
 1093 0010 0FDA     		bge	.L110
 215:TinyBasic.c   ****     Ouch((char)(((valu>>17)&31)+64));
 1094              		.loc 1 215 0
 1095 0012 C4F34440 		ubfx	r0, r4, #17, #5
 1096 0016 4030     		adds	r0, r0, #64
 1097 0018 FFF7FEFF 		bl	Ouch
 1098              	.LVL136:
 216:TinyBasic.c   ****     OutStr("=");
 1099              		.loc 1 216 0
 1100 001c 1F48     		ldr	r0, .L116+4
 1101 001e FFF7FEFF 		bl	OutStr
 1102              	.LVL137:
 217:TinyBasic.c   ****     OutInt((valu&0x7FFF)-(valu&0x8000));}
 1103              		.loc 1 217 0
 1104 0022 C4F30E00 		ubfx	r0, r4, #0, #15
 1105 0026 04F40044 		and	r4, r4, #32768
 1106              	.LVL138:
 1107 002a 001B     		subs	r0, r0, r4
 1108 002c FFF7FEFF 		bl	OutInt
 1109              	.LVL139:
 1110 0030 10BD     		pop	{r4, pc}
 1111              	.LVL140:
 1112              	.L110:
 218:TinyBasic.c   ****   else if (valu < -32768) {                                /* error # */
 1113              		.loc 1 218 0
 1114 0032 14F5004F 		cmn	r4, #32768
 1115 0036 07DA     		bge	.L112
 219:TinyBasic.c   ****     OutStr("Err ");
 1116              		.loc 1 219 0
 1117 0038 1948     		ldr	r0, .L116+8
 1118 003a FFF7FEFF 		bl	OutStr
 1119              	.LVL141:
 220:TinyBasic.c   ****     OutInt(-valu-32768);}
 1120              		.loc 1 220 0
 1121 003e 1948     		ldr	r0, .L116+12
 1122 0040 001B     		subs	r0, r0, r4
 1123 0042 FFF7FEFF 		bl	OutInt
 1124              	.LVL142:
 1125 0046 10BD     		pop	{r4, pc}
 1126              	.LVL143:
 1127              	.L112:
 221:TinyBasic.c   ****   else if (valu<0) {                 /* only logs IL sequence changes */
 1128              		.loc 1 221 0
ARM GAS  C:\Users\doug_000\AppData\Local\Temp\ccbaKQF3.s 			page 25


 1129 0048 002C     		cmp	r4, #0
 1130 004a 0CDA     		bge	.L113
 222:TinyBasic.c   ****     OutStr("  IL+");
 1131              		.loc 1 222 0
 1132 004c 1648     		ldr	r0, .L116+16
 1133 004e FFF7FEFF 		bl	OutStr
 1134              	.LVL144:
 223:TinyBasic.c   ****     OutHex(-Peek2(ILfront)-valu,3);}
 1135              		.loc 1 223 0
 1136 0052 4FF48F70 		mov	r0, #286
 1137 0056 FFF7FEFF 		bl	Peek2
 1138              	.LVL145:
 1139 005a 4042     		negs	r0, r0
 1140 005c 001B     		subs	r0, r0, r4
 1141 005e 0321     		movs	r1, #3
 1142 0060 FFF7FEFF 		bl	OutHex
 1143              	.LVL146:
 1144 0064 10BD     		pop	{r4, pc}
 1145              	.LVL147:
 1146              	.L113:
 224:TinyBasic.c   ****   else if (valu<65536) {                          /* TinyBasic line # */
 1147              		.loc 1 224 0
 1148 0066 B4F5803F 		cmp	r4, #65536
 1149 006a 06DA     		bge	.L114
 225:TinyBasic.c   ****     OutStr("#");
 1150              		.loc 1 225 0
 1151 006c 0F48     		ldr	r0, .L116+20
 1152 006e FFF7FEFF 		bl	OutStr
 1153              	.LVL148:
 226:TinyBasic.c   ****     OutInt(valu);}
 1154              		.loc 1 226 0
 1155 0072 2046     		mov	r0, r4
 1156 0074 FFF7FEFF 		bl	OutInt
 1157              	.LVL149:
 1158 0078 10BD     		pop	{r4, pc}
 1159              	.LVL150:
 1160              	.L114:
 227:TinyBasic.c   ****   else {                                          /* poke memory byte */
 228:TinyBasic.c   ****     OutStr("!");
 1161              		.loc 1 228 0
 1162 007a 0D48     		ldr	r0, .L116+24
 1163 007c FFF7FEFF 		bl	OutStr
 1164              	.LVL151:
 229:TinyBasic.c   ****     OutHex(valu,4);
 1165              		.loc 1 229 0
 1166 0080 2046     		mov	r0, r4
 1167 0082 0421     		movs	r1, #4
 1168 0084 FFF7FEFF 		bl	OutHex
 1169              	.LVL152:
 230:TinyBasic.c   ****     OutStr("=");
 1170              		.loc 1 230 0
 1171 0088 0448     		ldr	r0, .L116+4
 1172 008a FFF7FEFF 		bl	OutStr
 1173              	.LVL153:
 231:TinyBasic.c   ****     OutInt(valu>>16);}} /* ~ShoLogVal */
 1174              		.loc 1 231 0
 1175 008e 2014     		asrs	r0, r4, #16
ARM GAS  C:\Users\doug_000\AppData\Local\Temp\ccbaKQF3.s 			page 26


 1176 0090 FFF7FEFF 		bl	OutInt
 1177              	.LVL154:
 1178 0094 10BD     		pop	{r4, pc}
 1179              	.LVL155:
 1180              	.L117:
 1181 0096 00BF     		.align	2
 1182              	.L116:
 1183 0098 00000000 		.word	DebugLog
 1184 009c 28000000 		.word	.LC7
 1185 00a0 38000000 		.word	.LC11
 1186 00a4 0080FFFF 		.word	-32768
 1187 00a8 40000000 		.word	.LC12
 1188 00ac 48000000 		.word	.LC13
 1189 00b0 4C000000 		.word	.LC14
 1190              		.cfi_endproc
 1191              	.LFE14:
 1192              		.size	ShoLogVal, .-ShoLogVal
 1193              		.section	.text.ShowLog,"ax",%progbits
 1194              		.align	2
 1195              		.global	ShowLog
 1196              		.thumb
 1197              		.thumb_func
 1198              		.type	ShowLog, %function
 1199              	ShowLog:
 1200              	.LFB15:
 232:TinyBasic.c   **** 
 233:TinyBasic.c   **** void ShowLog(void) {            /* display activity log for debugging */
 1201              		.loc 1 233 0
 1202              		.cfi_startproc
 1203              		@ args = 0, pretend = 0, frame = 0
 1204              		@ frame_needed = 0, uses_anonymous_args = 0
 1205 0000 10B5     		push	{r4, lr}
 1206              		.cfi_def_cfa_offset 8
 1207              		.cfi_offset 4, -8
 1208              		.cfi_offset 14, -4
 234:TinyBasic.c   ****   int ix;
 235:TinyBasic.c   ****   OutLn();
 1209              		.loc 1 235 0
 1210 0002 FFF7FEFF 		bl	OutLn
 1211              	.LVL156:
 236:TinyBasic.c   ****   OutStr("*** Activity Log @ ");
 1212              		.loc 1 236 0
 1213 0006 1648     		ldr	r0, .L125
 1214 0008 FFF7FEFF 		bl	OutStr
 1215              	.LVL157:
 237:TinyBasic.c   ****   OutInt(LogHere);
 1216              		.loc 1 237 0
 1217 000c 154C     		ldr	r4, .L125+4
 1218 000e E068     		ldr	r0, [r4, #12]
 1219 0010 FFF7FEFF 		bl	OutInt
 1220              	.LVL158:
 238:TinyBasic.c   ****   OutStr(" ***");
 1221              		.loc 1 238 0
 1222 0014 1448     		ldr	r0, .L125+8
 1223 0016 FFF7FEFF 		bl	OutStr
 1224              	.LVL159:
 239:TinyBasic.c   ****   if (LogHere >= LOGSIZE)   /* circular, show only last 4K activities */
ARM GAS  C:\Users\doug_000\AppData\Local\Temp\ccbaKQF3.s 			page 27


 1225              		.loc 1 239 0
 1226 001a E468     		ldr	r4, [r4, #12]
 1227 001c B4F5805F 		cmp	r4, #4096
 1228 0020 09DB     		blt	.L119
 240:TinyBasic.c   ****     for (ix=(LogHere&(LOGSIZE-1)); ix<LOGSIZE; ix++) ShoLogVal(ix);
 1229              		.loc 1 240 0
 1230 0022 C4F30B04 		ubfx	r4, r4, #0, #12
 1231              	.LVL160:
 1232 0026 03E0     		b	.L120
 1233              	.L121:
 1234              		.loc 1 240 0 is_stmt 0 discriminator 3
 1235 0028 2046     		mov	r0, r4
 1236 002a FFF7FEFF 		bl	ShoLogVal
 1237              	.LVL161:
 1238 002e 0134     		adds	r4, r4, #1
 1239              	.LVL162:
 1240              	.L120:
 1241              		.loc 1 240 0 discriminator 1
 1242 0030 B4F5805F 		cmp	r4, #4096
 1243 0034 F8DB     		blt	.L121
 1244              	.LVL163:
 1245              	.L119:
 233:TinyBasic.c   ****   int ix;
 1246              		.loc 1 233 0 is_stmt 1 discriminator 1
 1247 0036 0024     		movs	r4, #0
 1248 0038 03E0     		b	.L122
 1249              	.LVL164:
 1250              	.L123:
 241:TinyBasic.c   ****   for (ix=0; ix<(LogHere&(LOGSIZE-1)); ix++) ShoLogVal(ix);
 1251              		.loc 1 241 0 discriminator 3
 1252 003a 2046     		mov	r0, r4
 1253 003c FFF7FEFF 		bl	ShoLogVal
 1254              	.LVL165:
 1255 0040 0134     		adds	r4, r4, #1
 1256              	.LVL166:
 1257              	.L122:
 1258              		.loc 1 241 0 is_stmt 0 discriminator 1
 1259 0042 084B     		ldr	r3, .L125+4
 1260 0044 DB68     		ldr	r3, [r3, #12]
 1261 0046 C3F30B03 		ubfx	r3, r3, #0, #12
 1262 004a A342     		cmp	r3, r4
 1263 004c F5DC     		bgt	.L123
 242:TinyBasic.c   ****   OutLn();
 1264              		.loc 1 242 0 is_stmt 1
 1265 004e FFF7FEFF 		bl	OutLn
 1266              	.LVL167:
 243:TinyBasic.c   ****   OutStr("*****");
 1267              		.loc 1 243 0
 1268 0052 0648     		ldr	r0, .L125+12
 1269 0054 FFF7FEFF 		bl	OutStr
 1270              	.LVL168:
 244:TinyBasic.c   ****   OutLn();} /* ~ShowLog */
 1271              		.loc 1 244 0
 1272 0058 FFF7FEFF 		bl	OutLn
 1273              	.LVL169:
 1274 005c 10BD     		pop	{r4, pc}
 1275              	.LVL170:
ARM GAS  C:\Users\doug_000\AppData\Local\Temp\ccbaKQF3.s 			page 28


 1276              	.L126:
 1277 005e 00BF     		.align	2
 1278              	.L125:
 1279 0060 50000000 		.word	.LC15
 1280 0064 00000000 		.word	.LANCHOR0
 1281 0068 64000000 		.word	.LC16
 1282 006c 6C000000 		.word	.LC17
 1283              		.cfi_endproc
 1284              	.LFE15:
 1285              		.size	ShowLog, .-ShowLog
 1286              		.section	.text.LogIt,"ax",%progbits
 1287              		.align	2
 1288              		.global	LogIt
 1289              		.thumb
 1290              		.thumb_func
 1291              		.type	LogIt, %function
 1292              	LogIt:
 1293              	.LFB16:
 245:TinyBasic.c   **** 
 246:TinyBasic.c   **** void LogIt(int valu) {          /* insert this valu into activity log */
 1294              		.loc 1 246 0
 1295              		.cfi_startproc
 1296              		@ args = 0, pretend = 0, frame = 0
 1297              		@ frame_needed = 0, uses_anonymous_args = 0
 1298              		@ link register save eliminated.
 1299              	.LVL171:
 247:TinyBasic.c   ****   DebugLog[(LogHere++)&(LOGSIZE-1)] = valu;}
 1300              		.loc 1 247 0
 1301 0000 044A     		ldr	r2, .L128
 1302 0002 D368     		ldr	r3, [r2, #12]
 1303 0004 591C     		adds	r1, r3, #1
 1304 0006 D160     		str	r1, [r2, #12]
 1305 0008 C3F30B03 		ubfx	r3, r3, #0, #12
 1306 000c 024A     		ldr	r2, .L128+4
 1307 000e 42F82300 		str	r0, [r2, r3, lsl #2]
 1308 0012 7047     		bx	lr
 1309              	.L129:
 1310              		.align	2
 1311              	.L128:
 1312 0014 00000000 		.word	.LANCHOR0
 1313 0018 00000000 		.word	DebugLog
 1314              		.cfi_endproc
 1315              	.LFE16:
 1316              		.size	LogIt, .-LogIt
 1317              		.section	.text.WarmStart,"ax",%progbits
 1318              		.align	2
 1319              		.global	WarmStart
 1320              		.thumb
 1321              		.thumb_func
 1322              		.type	WarmStart, %function
 1323              	WarmStart:
 1324              	.LFB17:
 248:TinyBasic.c   **** 
 249:TinyBasic.c   **** /************************ Utility functions... ************************/
 250:TinyBasic.c   **** 
 251:TinyBasic.c   **** void WarmStart(void) {                 /* initialize existing program */
 1325              		.loc 1 251 0
ARM GAS  C:\Users\doug_000\AppData\Local\Temp\ccbaKQF3.s 			page 29


 1326              		.cfi_startproc
 1327              		@ args = 0, pretend = 0, frame = 0
 1328              		@ frame_needed = 0, uses_anonymous_args = 0
 1329 0000 08B5     		push	{r3, lr}
 1330              		.cfi_def_cfa_offset 8
 1331              		.cfi_offset 3, -8
 1332              		.cfi_offset 14, -4
 252:TinyBasic.c   ****   UserEnd = Peek2(EndUser);
 1333              		.loc 1 252 0
 1334 0002 2220     		movs	r0, #34
 1335 0004 FFF7FEFF 		bl	Peek2
 1336              	.LVL172:
 1337 0008 0146     		mov	r1, r0
 1338 000a 0E4B     		ldr	r3, .L132
 1339 000c 1860     		str	r0, [r3]
 253:TinyBasic.c   ****   SubStk = UserEnd;            /* empty subroutine, expression stacks */
 1340              		.loc 1 253 0
 1341 000e 0E4B     		ldr	r3, .L132+4
 1342 0010 1860     		str	r0, [r3]
 254:TinyBasic.c   ****   Poke2(GoStkTop,SubStk);
 1343              		.loc 1 254 0
 1344 0012 2620     		movs	r0, #38
 1345 0014 FFF7FEFF 		bl	Poke2
 1346              	.LVL173:
 255:TinyBasic.c   ****   ExpnTop = ExpnStk;
 1347              		.loc 1 255 0
 1348 0018 8022     		movs	r2, #128
 1349 001a 0C4B     		ldr	r3, .L132+8
 1350 001c 1A60     		str	r2, [r3]
 256:TinyBasic.c   ****   Lino = 0;                                        /* not in any line */
 1351              		.loc 1 256 0
 1352 001e 0023     		movs	r3, #0
 1353 0020 0B4A     		ldr	r2, .L132+12
 1354 0022 1360     		str	r3, [r2]
 257:TinyBasic.c   ****   ILPC = 0;                                      /* start IL at front */
 1355              		.loc 1 257 0
 1356 0024 0B4A     		ldr	r2, .L132+16
 1357 0026 1360     		str	r3, [r2]
 258:TinyBasic.c   ****   SvPt = InLine;
 1358              		.loc 1 258 0
 1359 0028 3022     		movs	r2, #48
 1360 002a 0B49     		ldr	r1, .L132+20
 1361 002c 0A60     		str	r2, [r1]
 259:TinyBasic.c   ****   BP = InLine;
 1362              		.loc 1 259 0
 1363 002e 0B49     		ldr	r1, .L132+24
 1364 0030 0A60     		str	r2, [r1]
 260:TinyBasic.c   ****   Core[BP] = 0;
 1365              		.loc 1 260 0
 1366 0032 0B49     		ldr	r1, .L132+28
 1367 0034 81F83030 		strb	r3, [r1, #48]
 261:TinyBasic.c   ****   Core[TabHere] = 0;
 1368              		.loc 1 261 0
 1369 0038 81F8BF30 		strb	r3, [r1, #191]
 262:TinyBasic.c   ****   InLend = InLine;} /* ~WarmStart */
 1370              		.loc 1 262 0
 1371 003c 094B     		ldr	r3, .L132+32
ARM GAS  C:\Users\doug_000\AppData\Local\Temp\ccbaKQF3.s 			page 30


 1372 003e 1A60     		str	r2, [r3]
 1373 0040 08BD     		pop	{r3, pc}
 1374              	.L133:
 1375 0042 00BF     		.align	2
 1376              	.L132:
 1377 0044 00000000 		.word	UserEnd
 1378 0048 00000000 		.word	SubStk
 1379 004c 00000000 		.word	ExpnTop
 1380 0050 00000000 		.word	Lino
 1381 0054 00000000 		.word	ILPC
 1382 0058 00000000 		.word	SvPt
 1383 005c 00000000 		.word	BP
 1384 0060 00000000 		.word	Core
 1385 0064 00000000 		.word	InLend
 1386              		.cfi_endproc
 1387              	.LFE17:
 1388              		.size	WarmStart, .-WarmStart
 1389              		.section	.text.ColdStart,"ax",%progbits
 1390              		.align	2
 1391              		.global	ColdStart
 1392              		.thumb
 1393              		.thumb_func
 1394              		.type	ColdStart, %function
 1395              	ColdStart:
 1396              	.LFB18:
 263:TinyBasic.c   **** 
 264:TinyBasic.c   **** void ColdStart(void) {                 /* initialize program to empty */
 1397              		.loc 1 264 0
 1398              		.cfi_startproc
 1399              		@ args = 0, pretend = 0, frame = 0
 1400              		@ frame_needed = 0, uses_anonymous_args = 0
 1401 0000 10B5     		push	{r4, lr}
 1402              		.cfi_def_cfa_offset 8
 1403              		.cfi_offset 4, -8
 1404              		.cfi_offset 14, -4
 265:TinyBasic.c   ****   if (Peek2(ILfront) != ILfront+2) ILend = Peek2(ILfront)+0x800;
 1405              		.loc 1 265 0
 1406 0002 4FF48F70 		mov	r0, #286
 1407 0006 FFF7FEFF 		bl	Peek2
 1408              	.LVL174:
 1409 000a B0F5907F 		cmp	r0, #288
 1410 000e 03D0     		beq	.L135
 1411              		.loc 1 265 0 is_stmt 0 discriminator 1
 1412 0010 00F50060 		add	r0, r0, #2048
 1413 0014 104B     		ldr	r3, .L137
 1414 0016 1860     		str	r0, [r3]
 1415              	.L135:
 266:TinyBasic.c   ****   Poke2(UserProg,(ILend+255)&-256);   /* start Basic shortly after IL */
 1416              		.loc 1 266 0 is_stmt 1
 1417 0018 0F4B     		ldr	r3, .L137
 1418 001a 1968     		ldr	r1, [r3]
 1419 001c FF31     		adds	r1, r1, #255
 1420 001e 2020     		movs	r0, #32
 1421 0020 21F0FF01 		bic	r1, r1, #255
 1422 0024 FFF7FEFF 		bl	Poke2
 1423              	.LVL175:
 267:TinyBasic.c   ****   if (CoreTop>65535) {
ARM GAS  C:\Users\doug_000\AppData\Local\Temp\ccbaKQF3.s 			page 31


 268:TinyBasic.c   ****     Poke2(EndUser,65534);
 269:TinyBasic.c   ****     Poke2(65534,0xDEAD);}
 270:TinyBasic.c   ****   else Poke2(EndUser,CoreTop);
 1424              		.loc 1 270 0
 1425 0028 2220     		movs	r0, #34
 1426 002a 4FF48041 		mov	r1, #16384
 1427 002e FFF7FEFF 		bl	Poke2
 1428              	.LVL176:
 271:TinyBasic.c   ****   WarmStart();
 1429              		.loc 1 271 0
 1430 0032 FFF7FEFF 		bl	WarmStart
 1431              	.LVL177:
 272:TinyBasic.c   ****   SrcEnd = Peek2(UserProg);
 1432              		.loc 1 272 0
 1433 0036 2020     		movs	r0, #32
 1434 0038 FFF7FEFF 		bl	Peek2
 1435              	.LVL178:
 1436 003c 074C     		ldr	r4, .L137+4
 273:TinyBasic.c   ****   Poke2(SrcEnd++,0);
 1437              		.loc 1 273 0
 1438 003e 431C     		adds	r3, r0, #1
 1439 0040 2360     		str	r3, [r4]
 1440 0042 0021     		movs	r1, #0
 1441 0044 FFF7FEFF 		bl	Poke2
 1442              	.LVL179:
 274:TinyBasic.c   ****   Poke2(EndProg,++SrcEnd);} /* ~ColdStart */
 1443              		.loc 1 274 0
 1444 0048 2168     		ldr	r1, [r4]
 1445 004a 0131     		adds	r1, r1, #1
 1446 004c 2160     		str	r1, [r4]
 1447 004e 2420     		movs	r0, #36
 1448 0050 FFF7FEFF 		bl	Poke2
 1449              	.LVL180:
 1450 0054 10BD     		pop	{r4, pc}
 1451              	.L138:
 1452 0056 00BF     		.align	2
 1453              	.L137:
 1454 0058 00000000 		.word	ILend
 1455 005c 00000000 		.word	SrcEnd
 1456              		.cfi_endproc
 1457              	.LFE18:
 1458              		.size	ColdStart, .-ColdStart
 1459              		.section	.text.TBerror,"ax",%progbits
 1460              		.align	2
 1461              		.global	TBerror
 1462              		.thumb
 1463              		.thumb_func
 1464              		.type	TBerror, %function
 1465              	TBerror:
 1466              	.LFB19:
 275:TinyBasic.c   **** 
 276:TinyBasic.c   **** void TBerror(void) {                      /* report interpreter error */
 1467              		.loc 1 276 0
 1468              		.cfi_startproc
 1469              		@ args = 0, pretend = 0, frame = 0
 1470              		@ frame_needed = 0, uses_anonymous_args = 0
 277:TinyBasic.c   ****   if (ILPC == 0) return;                       /* already reported it */
ARM GAS  C:\Users\doug_000\AppData\Local\Temp\ccbaKQF3.s 			page 32


 1471              		.loc 1 277 0
 1472 0000 304B     		ldr	r3, .L145
 1473 0002 1B68     		ldr	r3, [r3]
 1474 0004 002B     		cmp	r3, #0
 1475 0006 5CD0     		beq	.L144
 276:TinyBasic.c   ****   if (ILPC == 0) return;                       /* already reported it */
 1476              		.loc 1 276 0
 1477 0008 10B5     		push	{r4, lr}
 1478              		.cfi_def_cfa_offset 8
 1479              		.cfi_offset 4, -8
 1480              		.cfi_offset 14, -4
 278:TinyBasic.c   ****   OutLn();
 1481              		.loc 1 278 0
 1482 000a FFF7FEFF 		bl	OutLn
 1483              	.LVL181:
 279:TinyBasic.c   ****   LogIt(-ILPC-32768);
 1484              		.loc 1 279 0
 1485 000e 2D4C     		ldr	r4, .L145
 1486 0010 2368     		ldr	r3, [r4]
 1487 0012 2D48     		ldr	r0, .L145+4
 1488 0014 C01A     		subs	r0, r0, r3
 1489 0016 FFF7FEFF 		bl	LogIt
 1490              	.LVL182:
 280:TinyBasic.c   ****   OutStr("Tiny Basic error #");          /* IL address is the error # */
 1491              		.loc 1 280 0
 1492 001a 2C48     		ldr	r0, .L145+8
 1493 001c FFF7FEFF 		bl	OutStr
 1494              	.LVL183:
 281:TinyBasic.c   ****   OutInt(ILPC-Peek2(ILfront));
 1495              		.loc 1 281 0
 1496 0020 2468     		ldr	r4, [r4]
 1497 0022 4FF48F70 		mov	r0, #286
 1498 0026 FFF7FEFF 		bl	Peek2
 1499              	.LVL184:
 1500 002a 201A     		subs	r0, r4, r0
 1501 002c FFF7FEFF 		bl	OutInt
 1502              	.LVL185:
 282:TinyBasic.c   ****   if (Lino>0) {                          /* Lino=0 if in command line */
 1503              		.loc 1 282 0
 1504 0030 274B     		ldr	r3, .L145+12
 1505 0032 1B68     		ldr	r3, [r3]
 1506 0034 002B     		cmp	r3, #0
 1507 0036 06DD     		ble	.L141
 283:TinyBasic.c   ****     OutStr(" at line ");
 1508              		.loc 1 283 0
 1509 0038 2648     		ldr	r0, .L145+16
 1510 003a FFF7FEFF 		bl	OutStr
 1511              	.LVL186:
 284:TinyBasic.c   ****     OutInt(Lino);}
 1512              		.loc 1 284 0
 1513 003e 244B     		ldr	r3, .L145+12
 1514 0040 1868     		ldr	r0, [r3]
 1515 0042 FFF7FEFF 		bl	OutInt
 1516              	.LVL187:
 1517              	.L141:
 285:TinyBasic.c   ****   OutLn();
 1518              		.loc 1 285 0
ARM GAS  C:\Users\doug_000\AppData\Local\Temp\ccbaKQF3.s 			page 33


 1519 0046 FFF7FEFF 		bl	OutLn
 1520              	.LVL188:
 286:TinyBasic.c   ****   if (Debugging>0) {                /* some extra info if debugging.. */
 1521              		.loc 1 286 0
 1522 004a 234B     		ldr	r3, .L145+20
 1523 004c 1B69     		ldr	r3, [r3, #16]
 1524 004e 002B     		cmp	r3, #0
 1525 0050 2BDD     		ble	.L142
 287:TinyBasic.c   ****     ShowSubs();
 1526              		.loc 1 287 0
 1527 0052 FFF7FEFF 		bl	ShowSubs
 1528              	.LVL189:
 288:TinyBasic.c   ****     ShowExSt();
 1529              		.loc 1 288 0
 1530 0056 FFF7FEFF 		bl	ShowExSt
 1531              	.LVL190:
 289:TinyBasic.c   ****     ShowVars(0);
 1532              		.loc 1 289 0
 1533 005a 0020     		movs	r0, #0
 1534 005c FFF7FEFF 		bl	ShowVars
 1535              	.LVL191:
 290:TinyBasic.c   ****     OutStr(" [BP=");
 1536              		.loc 1 290 0
 1537 0060 1E48     		ldr	r0, .L145+24
 1538 0062 FFF7FEFF 		bl	OutStr
 1539              	.LVL192:
 291:TinyBasic.c   ****     OutHex(BP,4);
 1540              		.loc 1 291 0
 1541 0066 1E4C     		ldr	r4, .L145+28
 1542 0068 2068     		ldr	r0, [r4]
 1543 006a 0421     		movs	r1, #4
 1544 006c FFF7FEFF 		bl	OutHex
 1545              	.LVL193:
 292:TinyBasic.c   ****     OutStr(", TB@");
 1546              		.loc 1 292 0
 1547 0070 1C48     		ldr	r0, .L145+32
 1548 0072 FFF7FEFF 		bl	OutStr
 1549              	.LVL194:
 293:TinyBasic.c   ****     OutHex(Peek2(UserProg),4);
 1550              		.loc 1 293 0
 1551 0076 2020     		movs	r0, #32
 1552 0078 FFF7FEFF 		bl	Peek2
 1553              	.LVL195:
 1554 007c 0421     		movs	r1, #4
 1555 007e FFF7FEFF 		bl	OutHex
 1556              	.LVL196:
 294:TinyBasic.c   ****     OutStr(", IL@");
 1557              		.loc 1 294 0
 1558 0082 1948     		ldr	r0, .L145+36
 1559 0084 FFF7FEFF 		bl	OutStr
 1560              	.LVL197:
 295:TinyBasic.c   ****     OutHex(Peek2(ILfront),4);
 1561              		.loc 1 295 0
 1562 0088 4FF48F70 		mov	r0, #286
 1563 008c FFF7FEFF 		bl	Peek2
 1564              	.LVL198:
 1565 0090 0421     		movs	r1, #4
ARM GAS  C:\Users\doug_000\AppData\Local\Temp\ccbaKQF3.s 			page 34


 1566 0092 FFF7FEFF 		bl	OutHex
 1567              	.LVL199:
 296:TinyBasic.c   ****     OutStr("]");
 1568              		.loc 1 296 0
 1569 0096 1548     		ldr	r0, .L145+40
 1570 0098 FFF7FEFF 		bl	OutStr
 1571              	.LVL200:
 297:TinyBasic.c   ****     ShoMemDump((BP-30)&-16,64);}
 1572              		.loc 1 297 0
 1573 009c 2068     		ldr	r0, [r4]
 1574 009e 1E38     		subs	r0, r0, #30
 1575 00a0 20F00F00 		bic	r0, r0, #15
 1576 00a4 4021     		movs	r1, #64
 1577 00a6 FFF7FEFF 		bl	ShoMemDump
 1578              	.LVL201:
 1579              	.L142:
 298:TinyBasic.c   ****   Lino = 0;                           /* restart interpreter at front */
 1580              		.loc 1 298 0
 1581 00aa 0023     		movs	r3, #0
 1582 00ac 084A     		ldr	r2, .L145+12
 1583 00ae 1360     		str	r3, [r2]
 299:TinyBasic.c   ****   ExpnTop = ExpnStk;                   /* with empty expression stack */
 1584              		.loc 1 299 0
 1585 00b0 8021     		movs	r1, #128
 1586 00b2 0F4A     		ldr	r2, .L145+44
 1587 00b4 1160     		str	r1, [r2]
 300:TinyBasic.c   ****   ILPC = 0;       /* cheap error test; interp reloads it from ILfront */
 1588              		.loc 1 300 0
 1589 00b6 034A     		ldr	r2, .L145
 1590 00b8 1360     		str	r3, [r2]
 301:TinyBasic.c   ****   BP = InLine;} /* ~TBerror */
 1591              		.loc 1 301 0
 1592 00ba 3022     		movs	r2, #48
 1593 00bc 084B     		ldr	r3, .L145+28
 1594 00be 1A60     		str	r2, [r3]
 1595 00c0 10BD     		pop	{r4, pc}
 1596              	.L144:
 1597              		.cfi_def_cfa_offset 0
 1598              		.cfi_restore 4
 1599              		.cfi_restore 14
 1600 00c2 7047     		bx	lr
 1601              	.L146:
 1602              		.align	2
 1603              	.L145:
 1604 00c4 00000000 		.word	ILPC
 1605 00c8 0080FFFF 		.word	-32768
 1606 00cc 74000000 		.word	.LC18
 1607 00d0 00000000 		.word	Lino
 1608 00d4 88000000 		.word	.LC19
 1609 00d8 00000000 		.word	.LANCHOR0
 1610 00dc 94000000 		.word	.LC20
 1611 00e0 00000000 		.word	BP
 1612 00e4 9C000000 		.word	.LC21
 1613 00e8 A4000000 		.word	.LC22
 1614 00ec 10000000 		.word	.LC3
 1615 00f0 00000000 		.word	ExpnTop
 1616              		.cfi_endproc
ARM GAS  C:\Users\doug_000\AppData\Local\Temp\ccbaKQF3.s 			page 35


 1617              	.LFE19:
 1618              		.size	TBerror, .-TBerror
 1619              		.section	.text.PushSub,"ax",%progbits
 1620              		.align	2
 1621              		.global	PushSub
 1622              		.thumb
 1623              		.thumb_func
 1624              		.type	PushSub, %function
 1625              	PushSub:
 1626              	.LFB20:
 302:TinyBasic.c   **** 
 303:TinyBasic.c   **** void PushSub(int valu) {               /* push value onto Gosub stack */
 1627              		.loc 1 303 0
 1628              		.cfi_startproc
 1629              		@ args = 0, pretend = 0, frame = 0
 1630              		@ frame_needed = 0, uses_anonymous_args = 0
 1631              	.LVL202:
 1632 0000 38B5     		push	{r3, r4, r5, lr}
 1633              		.cfi_def_cfa_offset 16
 1634              		.cfi_offset 3, -16
 1635              		.cfi_offset 4, -12
 1636              		.cfi_offset 5, -8
 1637              		.cfi_offset 14, -4
 304:TinyBasic.c   ****   if (SubStk<=SrcEnd) TBerror(); /* overflow: bumped into program end */
 1638              		.loc 1 304 0
 1639 0002 0D4B     		ldr	r3, .L152
 1640 0004 1968     		ldr	r1, [r3]
 1641 0006 0D4B     		ldr	r3, .L152+4
 1642 0008 1B68     		ldr	r3, [r3]
 1643 000a 9942     		cmp	r1, r3
 1644 000c 02DC     		bgt	.L148
 1645              		.loc 1 304 0 is_stmt 0 discriminator 1
 1646 000e FFF7FEFF 		bl	TBerror
 1647              	.LVL203:
 1648 0012 0AE0     		b	.L149
 1649              	.LVL204:
 1650              	.L148:
 1651 0014 0446     		mov	r4, r0
 305:TinyBasic.c   ****   else {
 306:TinyBasic.c   ****     SubStk = SubStk-2;
 1652              		.loc 1 306 0 is_stmt 1
 1653 0016 0239     		subs	r1, r1, #2
 1654 0018 074D     		ldr	r5, .L152
 1655 001a 2960     		str	r1, [r5]
 307:TinyBasic.c   ****     Poke2(GoStkTop,SubStk);
 1656              		.loc 1 307 0
 1657 001c 2620     		movs	r0, #38
 1658              	.LVL205:
 1659 001e FFF7FEFF 		bl	Poke2
 1660              	.LVL206:
 308:TinyBasic.c   ****     Poke2(SubStk,valu);}
 1661              		.loc 1 308 0
 1662 0022 2868     		ldr	r0, [r5]
 1663 0024 2146     		mov	r1, r4
 1664 0026 FFF7FEFF 		bl	Poke2
 1665              	.LVL207:
 1666              	.L149:
ARM GAS  C:\Users\doug_000\AppData\Local\Temp\ccbaKQF3.s 			page 36


 309:TinyBasic.c   ****   if (Debugging>0) ShowSubs();} /* ~PushSub */
 1667              		.loc 1 309 0
 1668 002a 054B     		ldr	r3, .L152+8
 1669 002c 1B69     		ldr	r3, [r3, #16]
 1670 002e 002B     		cmp	r3, #0
 1671 0030 01DD     		ble	.L147
 1672              		.loc 1 309 0 is_stmt 0 discriminator 1
 1673 0032 FFF7FEFF 		bl	ShowSubs
 1674              	.LVL208:
 1675              	.L147:
 1676 0036 38BD     		pop	{r3, r4, r5, pc}
 1677              	.L153:
 1678              		.align	2
 1679              	.L152:
 1680 0038 00000000 		.word	SubStk
 1681 003c 00000000 		.word	SrcEnd
 1682 0040 00000000 		.word	.LANCHOR0
 1683              		.cfi_endproc
 1684              	.LFE20:
 1685              		.size	PushSub, .-PushSub
 1686              		.section	.text.PopSub,"ax",%progbits
 1687              		.align	2
 1688              		.global	PopSub
 1689              		.thumb
 1690              		.thumb_func
 1691              		.type	PopSub, %function
 1692              	PopSub:
 1693              	.LFB21:
 310:TinyBasic.c   **** 
 311:TinyBasic.c   **** int PopSub(void) {                       /* pop value off Gosub stack */
 1694              		.loc 1 311 0 is_stmt 1
 1695              		.cfi_startproc
 1696              		@ args = 0, pretend = 0, frame = 0
 1697              		@ frame_needed = 0, uses_anonymous_args = 0
 1698 0000 10B5     		push	{r4, lr}
 1699              		.cfi_def_cfa_offset 8
 1700              		.cfi_offset 4, -8
 1701              		.cfi_offset 14, -4
 312:TinyBasic.c   ****   if (SubStk>=Peek2(EndUser)-1) {   /* underflow (nothing in stack).. */
 1702              		.loc 1 312 0
 1703 0002 2220     		movs	r0, #34
 1704 0004 FFF7FEFF 		bl	Peek2
 1705              	.LVL209:
 1706 0008 0138     		subs	r0, r0, #1
 1707 000a 0D4B     		ldr	r3, .L159
 1708 000c 1B68     		ldr	r3, [r3]
 1709 000e 9842     		cmp	r0, r3
 1710 0010 04DC     		bgt	.L155
 313:TinyBasic.c   ****     TBerror();
 1711              		.loc 1 313 0
 1712 0012 FFF7FEFF 		bl	TBerror
 1713              	.LVL210:
 314:TinyBasic.c   ****     return -1;}
 1714              		.loc 1 314 0
 1715 0016 4FF0FF30 		mov	r0, #-1
 1716 001a 10BD     		pop	{r4, pc}
 1717              	.L155:
ARM GAS  C:\Users\doug_000\AppData\Local\Temp\ccbaKQF3.s 			page 37


 315:TinyBasic.c   ****   else {
 316:TinyBasic.c   ****       if (Debugging>1) ShowSubs();
 1718              		.loc 1 316 0
 1719 001c 094B     		ldr	r3, .L159+4
 1720 001e 1B69     		ldr	r3, [r3, #16]
 1721 0020 012B     		cmp	r3, #1
 1722 0022 01DD     		ble	.L157
 1723              		.loc 1 316 0 is_stmt 0 discriminator 1
 1724 0024 FFF7FEFF 		bl	ShowSubs
 1725              	.LVL211:
 1726              	.L157:
 317:TinyBasic.c   ****     SubStk = SubStk+2;
 1727              		.loc 1 317 0 is_stmt 1
 1728 0028 054C     		ldr	r4, .L159
 1729 002a 2168     		ldr	r1, [r4]
 1730 002c 0231     		adds	r1, r1, #2
 1731 002e 2160     		str	r1, [r4]
 318:TinyBasic.c   ****     Poke2(GoStkTop,SubStk);
 1732              		.loc 1 318 0
 1733 0030 2620     		movs	r0, #38
 1734 0032 FFF7FEFF 		bl	Poke2
 1735              	.LVL212:
 319:TinyBasic.c   ****     return Peek2(SubStk-2);}} /* ~PopSub */
 1736              		.loc 1 319 0
 1737 0036 2068     		ldr	r0, [r4]
 1738 0038 0238     		subs	r0, r0, #2
 1739 003a FFF7FEFF 		bl	Peek2
 1740              	.LVL213:
 1741 003e 10BD     		pop	{r4, pc}
 1742              	.L160:
 1743              		.align	2
 1744              	.L159:
 1745 0040 00000000 		.word	SubStk
 1746 0044 00000000 		.word	.LANCHOR0
 1747              		.cfi_endproc
 1748              	.LFE21:
 1749              		.size	PopSub, .-PopSub
 1750              		.section	.text.PushExBy,"ax",%progbits
 1751              		.align	2
 1752              		.global	PushExBy
 1753              		.thumb
 1754              		.thumb_func
 1755              		.type	PushExBy, %function
 1756              	PushExBy:
 1757              	.LFB22:
 320:TinyBasic.c   **** 
 321:TinyBasic.c   **** void PushExBy(int valu) {          /* push byte onto expression stack */
 1758              		.loc 1 321 0
 1759              		.cfi_startproc
 1760              		@ args = 0, pretend = 0, frame = 0
 1761              		@ frame_needed = 0, uses_anonymous_args = 0
 1762              	.LVL214:
 1763 0000 08B5     		push	{r3, lr}
 1764              		.cfi_def_cfa_offset 8
 1765              		.cfi_offset 3, -8
 1766              		.cfi_offset 14, -4
 322:TinyBasic.c   ****   if (ExpnTop<=InLend) TBerror(); /* overflow: bumped into input line */
ARM GAS  C:\Users\doug_000\AppData\Local\Temp\ccbaKQF3.s 			page 38


 1767              		.loc 1 322 0
 1768 0002 0A4B     		ldr	r3, .L166
 1769 0004 1B68     		ldr	r3, [r3]
 1770 0006 0A4A     		ldr	r2, .L166+4
 1771 0008 1268     		ldr	r2, [r2]
 1772 000a 9342     		cmp	r3, r2
 1773 000c 02DC     		bgt	.L162
 1774              		.loc 1 322 0 is_stmt 0 discriminator 1
 1775 000e FFF7FEFF 		bl	TBerror
 1776              	.LVL215:
 1777 0012 04E0     		b	.L163
 1778              	.LVL216:
 1779              	.L162:
 323:TinyBasic.c   ****     else Core[--ExpnTop] = (aByte)(valu&255);
 1780              		.loc 1 323 0 is_stmt 1
 1781 0014 013B     		subs	r3, r3, #1
 1782 0016 054A     		ldr	r2, .L166
 1783 0018 1360     		str	r3, [r2]
 1784 001a 064A     		ldr	r2, .L166+8
 1785 001c D054     		strb	r0, [r2, r3]
 1786              	.LVL217:
 1787              	.L163:
 324:TinyBasic.c   ****   if (Debugging>0) ShowExSt();} /* ~PushExBy */
 1788              		.loc 1 324 0
 1789 001e 064B     		ldr	r3, .L166+12
 1790 0020 1B69     		ldr	r3, [r3, #16]
 1791 0022 002B     		cmp	r3, #0
 1792 0024 01DD     		ble	.L161
 1793              		.loc 1 324 0 is_stmt 0 discriminator 1
 1794 0026 FFF7FEFF 		bl	ShowExSt
 1795              	.LVL218:
 1796              	.L161:
 1797 002a 08BD     		pop	{r3, pc}
 1798              	.L167:
 1799              		.align	2
 1800              	.L166:
 1801 002c 00000000 		.word	ExpnTop
 1802 0030 00000000 		.word	InLend
 1803 0034 00000000 		.word	Core
 1804 0038 00000000 		.word	.LANCHOR0
 1805              		.cfi_endproc
 1806              	.LFE22:
 1807              		.size	PushExBy, .-PushExBy
 1808              		.section	.text.PopExBy,"ax",%progbits
 1809              		.align	2
 1810              		.global	PopExBy
 1811              		.thumb
 1812              		.thumb_func
 1813              		.type	PopExBy, %function
 1814              	PopExBy:
 1815              	.LFB23:
 325:TinyBasic.c   **** 
 326:TinyBasic.c   **** int PopExBy(void) {                  /* pop byte off expression stack */
 1816              		.loc 1 326 0 is_stmt 1
 1817              		.cfi_startproc
 1818              		@ args = 0, pretend = 0, frame = 0
 1819              		@ frame_needed = 0, uses_anonymous_args = 0
ARM GAS  C:\Users\doug_000\AppData\Local\Temp\ccbaKQF3.s 			page 39


 1820 0000 08B5     		push	{r3, lr}
 1821              		.cfi_def_cfa_offset 8
 1822              		.cfi_offset 3, -8
 1823              		.cfi_offset 14, -4
 327:TinyBasic.c   ****   if (ExpnTop<ExpnStk) return (int)Core[ExpnTop++];
 1824              		.loc 1 327 0
 1825 0002 074B     		ldr	r3, .L172
 1826 0004 1B68     		ldr	r3, [r3]
 1827 0006 7F2B     		cmp	r3, #127
 1828 0008 05DC     		bgt	.L169
 1829              		.loc 1 327 0 is_stmt 0 discriminator 1
 1830 000a 591C     		adds	r1, r3, #1
 1831 000c 044A     		ldr	r2, .L172
 1832 000e 1160     		str	r1, [r2]
 1833 0010 044A     		ldr	r2, .L172+4
 1834 0012 D05C     		ldrb	r0, [r2, r3]	@ zero_extendqisi2
 1835 0014 08BD     		pop	{r3, pc}
 1836              	.L169:
 328:TinyBasic.c   ****   TBerror();                          /* underflow (nothing in stack) */
 1837              		.loc 1 328 0 is_stmt 1
 1838 0016 FFF7FEFF 		bl	TBerror
 1839              	.LVL219:
 329:TinyBasic.c   ****   return -1;} /* ~PopExBy */
 1840              		.loc 1 329 0
 1841 001a 4FF0FF30 		mov	r0, #-1
 1842 001e 08BD     		pop	{r3, pc}
 1843              	.L173:
 1844              		.align	2
 1845              	.L172:
 1846 0020 00000000 		.word	ExpnTop
 1847 0024 00000000 		.word	Core
 1848              		.cfi_endproc
 1849              	.LFE23:
 1850              		.size	PopExBy, .-PopExBy
 1851              		.section	.text.PushExInt,"ax",%progbits
 1852              		.align	2
 1853              		.global	PushExInt
 1854              		.thumb
 1855              		.thumb_func
 1856              		.type	PushExInt, %function
 1857              	PushExInt:
 1858              	.LFB24:
 330:TinyBasic.c   **** 
 331:TinyBasic.c   **** void PushExInt(int valu) {      /* push integer onto expression stack */
 1859              		.loc 1 331 0
 1860              		.cfi_startproc
 1861              		@ args = 0, pretend = 0, frame = 0
 1862              		@ frame_needed = 0, uses_anonymous_args = 0
 1863              	.LVL220:
 1864 0000 08B5     		push	{r3, lr}
 1865              		.cfi_def_cfa_offset 8
 1866              		.cfi_offset 3, -8
 1867              		.cfi_offset 14, -4
 1868 0002 0146     		mov	r1, r0
 332:TinyBasic.c   ****   ExpnTop = ExpnTop-2;
 1869              		.loc 1 332 0
 1870 0004 094B     		ldr	r3, .L179
ARM GAS  C:\Users\doug_000\AppData\Local\Temp\ccbaKQF3.s 			page 40


 1871 0006 1868     		ldr	r0, [r3]
 1872              	.LVL221:
 1873 0008 0238     		subs	r0, r0, #2
 1874 000a 1860     		str	r0, [r3]
 333:TinyBasic.c   ****   if (ExpnTop<InLend) TBerror();  /* overflow: bumped into input line */
 1875              		.loc 1 333 0
 1876 000c 084B     		ldr	r3, .L179+4
 1877 000e 1B68     		ldr	r3, [r3]
 1878 0010 9842     		cmp	r0, r3
 1879 0012 02DA     		bge	.L175
 1880              		.loc 1 333 0 is_stmt 0 discriminator 1
 1881 0014 FFF7FEFF 		bl	TBerror
 1882              	.LVL222:
 1883 0018 01E0     		b	.L176
 1884              	.LVL223:
 1885              	.L175:
 334:TinyBasic.c   ****     else Poke2(ExpnTop,valu);
 1886              		.loc 1 334 0 is_stmt 1
 1887 001a FFF7FEFF 		bl	Poke2
 1888              	.LVL224:
 1889              	.L176:
 335:TinyBasic.c   ****   if (Debugging>0) ShowExSt();} /* ~PushExInt */
 1890              		.loc 1 335 0
 1891 001e 054B     		ldr	r3, .L179+8
 1892 0020 1B69     		ldr	r3, [r3, #16]
 1893 0022 002B     		cmp	r3, #0
 1894 0024 01DD     		ble	.L174
 1895              		.loc 1 335 0 is_stmt 0 discriminator 1
 1896 0026 FFF7FEFF 		bl	ShowExSt
 1897              	.LVL225:
 1898              	.L174:
 1899 002a 08BD     		pop	{r3, pc}
 1900              	.L180:
 1901              		.align	2
 1902              	.L179:
 1903 002c 00000000 		.word	ExpnTop
 1904 0030 00000000 		.word	InLend
 1905 0034 00000000 		.word	.LANCHOR0
 1906              		.cfi_endproc
 1907              	.LFE24:
 1908              		.size	PushExInt, .-PushExInt
 1909              		.section	.text.PopExInt,"ax",%progbits
 1910              		.align	2
 1911              		.global	PopExInt
 1912              		.thumb
 1913              		.thumb_func
 1914              		.type	PopExInt, %function
 1915              	PopExInt:
 1916              	.LFB25:
 336:TinyBasic.c   **** 
 337:TinyBasic.c   **** int PopExInt(void) {              /* pop integer off expression stack */
 1917              		.loc 1 337 0 is_stmt 1
 1918              		.cfi_startproc
 1919              		@ args = 0, pretend = 0, frame = 0
 1920              		@ frame_needed = 0, uses_anonymous_args = 0
 1921 0000 08B5     		push	{r3, lr}
 1922              		.cfi_def_cfa_offset 8
ARM GAS  C:\Users\doug_000\AppData\Local\Temp\ccbaKQF3.s 			page 41


 1923              		.cfi_offset 3, -8
 1924              		.cfi_offset 14, -4
 338:TinyBasic.c   ****   if (++ExpnTop<ExpnStk) return (int)((short)Peek2((ExpnTop++)-1));
 1925              		.loc 1 338 0
 1926 0002 084A     		ldr	r2, .L185
 1927 0004 1068     		ldr	r0, [r2]
 1928 0006 431C     		adds	r3, r0, #1
 1929 0008 1360     		str	r3, [r2]
 1930 000a 7F2B     		cmp	r3, #127
 1931 000c 05DC     		bgt	.L182
 1932              		.loc 1 338 0 is_stmt 0 discriminator 1
 1933 000e 831C     		adds	r3, r0, #2
 1934 0010 1360     		str	r3, [r2]
 1935 0012 FFF7FEFF 		bl	Peek2
 1936              	.LVL226:
 1937 0016 00B2     		sxth	r0, r0
 1938 0018 08BD     		pop	{r3, pc}
 1939              	.L182:
 339:TinyBasic.c   ****   TBerror();    /* underflow (nothing in stack) */
 1940              		.loc 1 339 0 is_stmt 1
 1941 001a FFF7FEFF 		bl	TBerror
 1942              	.LVL227:
 340:TinyBasic.c   ****   return -1;} /* ~PopExInt */
 1943              		.loc 1 340 0
 1944 001e 4FF0FF30 		mov	r0, #-1
 1945 0022 08BD     		pop	{r3, pc}
 1946              	.L186:
 1947              		.align	2
 1948              	.L185:
 1949 0024 00000000 		.word	ExpnTop
 1950              		.cfi_endproc
 1951              	.LFE25:
 1952              		.size	PopExInt, .-PopExInt
 1953              		.section	.text.DeHex,"ax",%progbits
 1954              		.align	2
 1955              		.global	DeHex
 1956              		.thumb
 1957              		.thumb_func
 1958              		.type	DeHex, %function
 1959              	DeHex:
 1960              	.LFB26:
 341:TinyBasic.c   **** 
 342:TinyBasic.c   **** int DeHex(char* txt, int ndigs) {                /* decode hex -> int */
 1961              		.loc 1 342 0
 1962              		.cfi_startproc
 1963              		@ args = 0, pretend = 0, frame = 0
 1964              		@ frame_needed = 0, uses_anonymous_args = 0
 1965              		@ link register save eliminated.
 1966              	.LVL228:
 343:TinyBasic.c   ****   int num = 0;
 344:TinyBasic.c   ****   char ch = ' ';
 1967              		.loc 1 344 0
 1968 0000 2023     		movs	r3, #32
 345:TinyBasic.c   ****   while (ch<'0')                              /* first skip to num... */
 1969              		.loc 1 345 0
 1970 0002 06E0     		b	.L188
 1971              	.LVL229:
ARM GAS  C:\Users\doug_000\AppData\Local\Temp\ccbaKQF3.s 			page 42


 1972              	.L190:
 346:TinyBasic.c   ****     if (ch == '\0') return -1; else ch = DeCaps[((int)*txt++)&127];
 1973              		.loc 1 346 0
 1974 0004 93B3     		cbz	r3, .L197
 1975              	.LVL230:
 1976              		.loc 1 346 0 is_stmt 0 discriminator 2
 1977 0006 0378     		ldrb	r3, [r0]	@ zero_extendqisi2
 1978              	.LVL231:
 1979 0008 03F07F03 		and	r3, r3, #127
 1980 000c 1D4A     		ldr	r2, .L202
 1981 000e D35C     		ldrb	r3, [r2, r3]	@ zero_extendqisi2
 1982              	.LVL232:
 1983 0010 0130     		adds	r0, r0, #1
 1984              	.LVL233:
 1985              	.L188:
 345:TinyBasic.c   ****   while (ch<'0')                              /* first skip to num... */
 1986              		.loc 1 345 0 is_stmt 1
 1987 0012 2F2B     		cmp	r3, #47
 1988 0014 F6D9     		bls	.L190
 347:TinyBasic.c   ****   if (ch>'F' || ch>'9' && ch<'A') return -1;               /* not hex */
 1989              		.loc 1 347 0
 1990 0016 462B     		cmp	r3, #70
 1991 0018 2BD8     		bhi	.L198
 1992              		.loc 1 347 0 is_stmt 0 discriminator 2
 1993 001a A3F13A02 		sub	r2, r3, #58
 1994 001e D2B2     		uxtb	r2, r2
 1995 0020 062A     		cmp	r2, #6
 1996 0022 29D9     		bls	.L199
 342:TinyBasic.c   ****   int num = 0;
 1997              		.loc 1 342 0 is_stmt 1
 1998 0024 10B4     		push	{r4}
 1999              		.cfi_def_cfa_offset 4
 2000              		.cfi_offset 4, -4
 2001              		.loc 1 347 0
 2002 0026 0022     		movs	r2, #0
 2003 0028 1BE0     		b	.L191
 2004              	.LVL234:
 2005              	.L196:
 348:TinyBasic.c   ****   while ((ndigs--) >0) {                 /* only get requested digits */
 349:TinyBasic.c   ****     if (ch<'0' || ch>'F') return num;              /* not a hex digit */
 2006              		.loc 1 349 0
 2007 002a A3F13001 		sub	r1, r3, #48
 2008 002e C9B2     		uxtb	r1, r1
 2009 0030 1629     		cmp	r1, #22
 2010 0032 01D9     		bls	.L192
 2011              		.loc 1 349 0 is_stmt 0 discriminator 1
 2012 0034 1046     		mov	r0, r2
 2013              	.LVL235:
 2014 0036 22E0     		b	.L189
 2015              	.LVL236:
 2016              	.L192:
 350:TinyBasic.c   ****     if (ch>='A') num = num*16-55+((int)ch);      /* A-F */
 2017              		.loc 1 350 0 is_stmt 1
 2018 0038 402B     		cmp	r3, #64
 2019 003a 03D9     		bls	.L193
 2020              		.loc 1 350 0 is_stmt 0 discriminator 1
 2021 003c 03EB0212 		add	r2, r3, r2, lsl #4
ARM GAS  C:\Users\doug_000\AppData\Local\Temp\ccbaKQF3.s 			page 43


 2022              	.LVL237:
 2023 0040 373A     		subs	r2, r2, #55
 2024              	.LVL238:
 2025 0042 07E0     		b	.L194
 2026              	.L193:
 351:TinyBasic.c   ****     else if (ch<='9') num = num*16-48+((int)ch); /* 0-9 */
 2027              		.loc 1 351 0 is_stmt 1
 2028 0044 392B     		cmp	r3, #57
 2029 0046 03D8     		bhi	.L195
 2030              		.loc 1 351 0 is_stmt 0 discriminator 1
 2031 0048 033A     		subs	r2, r2, #3
 2032              	.LVL239:
 2033 004a 03EB0212 		add	r2, r3, r2, lsl #4
 2034              	.LVL240:
 2035 004e 01E0     		b	.L194
 2036              	.L195:
 352:TinyBasic.c   ****       else return num;          /* something in between, i.e. not hex */
 2037              		.loc 1 352 0 is_stmt 1
 2038 0050 1046     		mov	r0, r2
 2039              	.LVL241:
 2040 0052 14E0     		b	.L189
 2041              	.LVL242:
 2042              	.L194:
 353:TinyBasic.c   ****     ch = DeCaps[((int)*txt++)&127];}
 2043              		.loc 1 353 0
 2044 0054 0378     		ldrb	r3, [r0]	@ zero_extendqisi2
 2045              	.LVL243:
 2046 0056 03F07F03 		and	r3, r3, #127
 2047 005a 0A49     		ldr	r1, .L202
 2048 005c CB5C     		ldrb	r3, [r1, r3]	@ zero_extendqisi2
 2049              	.LVL244:
 348:TinyBasic.c   ****     if (ch<'0' || ch>'F') return num;              /* not a hex digit */
 2050              		.loc 1 348 0
 2051 005e 2146     		mov	r1, r4
 2052              		.loc 1 353 0
 2053 0060 0130     		adds	r0, r0, #1
 2054              	.LVL245:
 2055              	.L191:
 348:TinyBasic.c   ****     if (ch<'0' || ch>'F') return num;              /* not a hex digit */
 2056              		.loc 1 348 0
 2057 0062 4C1E     		subs	r4, r1, #1
 2058              	.LVL246:
 2059 0064 0029     		cmp	r1, #0
 2060 0066 E0DC     		bgt	.L196
 354:TinyBasic.c   ****   return num;} /* ~DeHex */
 2061              		.loc 1 354 0
 2062 0068 1046     		mov	r0, r2
 2063              	.LVL247:
 2064 006a 08E0     		b	.L189
 2065              	.LVL248:
 2066              	.L197:
 2067              		.cfi_def_cfa_offset 0
 2068              		.cfi_restore 4
 346:TinyBasic.c   ****   if (ch>'F' || ch>'9' && ch<'A') return -1;               /* not hex */
 2069              		.loc 1 346 0
 2070 006c 4FF0FF30 		mov	r0, #-1
 2071              	.LVL249:
ARM GAS  C:\Users\doug_000\AppData\Local\Temp\ccbaKQF3.s 			page 44


 2072 0070 7047     		bx	lr
 2073              	.LVL250:
 2074              	.L198:
 347:TinyBasic.c   ****   while ((ndigs--) >0) {                 /* only get requested digits */
 2075              		.loc 1 347 0
 2076 0072 4FF0FF30 		mov	r0, #-1
 2077              	.LVL251:
 2078 0076 7047     		bx	lr
 2079              	.LVL252:
 2080              	.L199:
 2081 0078 4FF0FF30 		mov	r0, #-1
 2082              	.LVL253:
 2083 007c 7047     		bx	lr
 2084              	.LVL254:
 2085              	.L189:
 2086              		.cfi_def_cfa_offset 4
 2087              		.cfi_offset 4, -4
 2088              		.loc 1 354 0
 2089 007e 5DF8044B 		ldr	r4, [sp], #4
 2090              		.cfi_restore 4
 2091              		.cfi_def_cfa_offset 0
 2092              	.LVL255:
 2093 0082 7047     		bx	lr
 2094              	.L203:
 2095              		.align	2
 2096              	.L202:
 2097 0084 00000000 		.word	DeCaps
 2098              		.cfi_endproc
 2099              	.LFE26:
 2100              		.size	DeHex, .-DeHex
 2101              		.section	.text.SkipTo,"ax",%progbits
 2102              		.align	2
 2103              		.global	SkipTo
 2104              		.thumb
 2105              		.thumb_func
 2106              		.type	SkipTo, %function
 2107              	SkipTo:
 2108              	.LFB27:
 355:TinyBasic.c   **** 
 356:TinyBasic.c   **** int SkipTo(int here, char fch) {     /* search for'd past next marker */
 2109              		.loc 1 356 0
 2110              		.cfi_startproc
 2111              		@ args = 0, pretend = 0, frame = 0
 2112              		@ frame_needed = 0, uses_anonymous_args = 0
 2113              		@ link register save eliminated.
 2114              	.LVL256:
 2115 0000 0346     		mov	r3, r0
 2116 0002 00E0     		b	.L207
 2117              	.LVL257:
 2118              	.L208:
 2119              	.LBB2:
 357:TinyBasic.c   ****   while (true) {
 358:TinyBasic.c   ****     char ch = (char)Core[here++];                /* look at next char */
 2120              		.loc 1 358 0
 2121 0004 0346     		mov	r3, r0
 2122              	.LVL258:
 2123              	.L207:
ARM GAS  C:\Users\doug_000\AppData\Local\Temp\ccbaKQF3.s 			page 45


 2124 0006 581C     		adds	r0, r3, #1
 2125              	.LVL259:
 2126 0008 034A     		ldr	r2, .L209
 2127 000a D25C     		ldrb	r2, [r2, r3]	@ zero_extendqisi2
 2128              	.LVL260:
 359:TinyBasic.c   ****     if (ch == fch) return here;                             /* got it */
 2129              		.loc 1 359 0
 2130 000c 8A42     		cmp	r2, r1
 2131 000e 02D0     		beq	.L206
 360:TinyBasic.c   ****     if (ch == '\0') return --here;}} /* ~SkipTo */
 2132              		.loc 1 360 0
 2133 0010 002A     		cmp	r2, #0
 2134 0012 F7D1     		bne	.L208
 2135              	.LVL261:
 2136              		.loc 1 360 0 is_stmt 0 discriminator 1
 2137 0014 1846     		mov	r0, r3
 2138              	.LVL262:
 2139              	.L206:
 2140              	.LBE2:
 2141              		.loc 1 360 0
 2142 0016 7047     		bx	lr
 2143              	.L210:
 2144              		.align	2
 2145              	.L209:
 2146 0018 00000000 		.word	Core
 2147              		.cfi_endproc
 2148              	.LFE27:
 2149              		.size	SkipTo, .-SkipTo
 2150              		.section	.text.FindLine,"ax",%progbits
 2151              		.align	2
 2152              		.global	FindLine
 2153              		.thumb
 2154              		.thumb_func
 2155              		.type	FindLine, %function
 2156              	FindLine:
 2157              	.LFB28:
 361:TinyBasic.c   **** 
 362:TinyBasic.c   **** int FindLine(int theLine) {         /* find theLine in TB source code */
 2158              		.loc 1 362 0 is_stmt 1
 2159              		.cfi_startproc
 2160              		@ args = 0, pretend = 0, frame = 0
 2161              		@ frame_needed = 0, uses_anonymous_args = 0
 2162              	.LVL263:
 2163 0000 38B5     		push	{r3, r4, r5, lr}
 2164              		.cfi_def_cfa_offset 16
 2165              		.cfi_offset 3, -16
 2166              		.cfi_offset 4, -12
 2167              		.cfi_offset 5, -8
 2168              		.cfi_offset 14, -4
 2169 0002 0546     		mov	r5, r0
 363:TinyBasic.c   ****   int ix;
 364:TinyBasic.c   ****   int here = Peek2(UserProg);                       /* start at front */
 2170              		.loc 1 364 0
 2171 0004 2020     		movs	r0, #32
 2172              	.LVL264:
 2173 0006 FFF7FEFF 		bl	Peek2
 2174              	.LVL265:
ARM GAS  C:\Users\doug_000\AppData\Local\Temp\ccbaKQF3.s 			page 46


 2175 000a 0446     		mov	r4, r0
 2176              	.LVL266:
 2177              	.L214:
 365:TinyBasic.c   ****   while (true) {
 366:TinyBasic.c   ****     ix = Peek2(here++);
 2178              		.loc 1 366 0
 2179 000c 2046     		mov	r0, r4
 2180 000e FFF7FEFF 		bl	Peek2
 2181              	.LVL267:
 367:TinyBasic.c   ****     if (theLine<=ix || ix==0) return --here;  /* found it or overshot */
 2182              		.loc 1 367 0
 2183 0012 8542     		cmp	r5, r0
 2184 0014 06DD     		ble	.L215
 2185              		.loc 1 367 0 is_stmt 0 discriminator 2
 2186 0016 28B1     		cbz	r0, .L215
 2187              	.LVL268:
 368:TinyBasic.c   ****     here = SkipTo(++here, '\r');}         /* skip to end of this line */
 2188              		.loc 1 368 0 is_stmt 1
 2189 0018 A01C     		adds	r0, r4, #2
 2190              	.LVL269:
 2191 001a 0D21     		movs	r1, #13
 2192 001c FFF7FEFF 		bl	SkipTo
 2193              	.LVL270:
 2194 0020 0446     		mov	r4, r0
 2195              	.LVL271:
 2196 0022 F3E7     		b	.L214
 2197              	.LVL272:
 2198              	.L215:
 369:TinyBasic.c   ****   } /* ~FindLine */
 2199              		.loc 1 369 0
 2200 0024 2046     		mov	r0, r4
 2201              	.LVL273:
 2202 0026 38BD     		pop	{r3, r4, r5, pc}
 2203              		.cfi_endproc
 2204              	.LFE28:
 2205              		.size	FindLine, .-FindLine
 2206              		.section	.text.GoToLino,"ax",%progbits
 2207              		.align	2
 2208              		.global	GoToLino
 2209              		.thumb
 2210              		.thumb_func
 2211              		.type	GoToLino, %function
 2212              	GoToLino:
 2213              	.LFB29:
 370:TinyBasic.c   **** 
 371:TinyBasic.c   **** void GoToLino(void) {     /* find line # Lino and set BP to its front */
 2214              		.loc 1 371 0
 2215              		.cfi_startproc
 2216              		@ args = 0, pretend = 0, frame = 0
 2217              		@ frame_needed = 0, uses_anonymous_args = 0
 2218 0000 38B5     		push	{r3, r4, r5, lr}
 2219              		.cfi_def_cfa_offset 16
 2220              		.cfi_offset 3, -16
 2221              		.cfi_offset 4, -12
 2222              		.cfi_offset 5, -8
 2223              		.cfi_offset 14, -4
 372:TinyBasic.c   ****   int here;
ARM GAS  C:\Users\doug_000\AppData\Local\Temp\ccbaKQF3.s 			page 47


 373:TinyBasic.c   ****   if (Lino <= 0) {              /* Lino=0 is just command line (OK).. */
 2224              		.loc 1 373 0
 2225 0002 194B     		ldr	r3, .L224
 2226 0004 1868     		ldr	r0, [r3]
 2227 0006 0028     		cmp	r0, #0
 2228 0008 06DC     		bgt	.L218
 374:TinyBasic.c   ****     BP = InLine;
 2229              		.loc 1 374 0
 2230 000a 3022     		movs	r2, #48
 2231 000c 174B     		ldr	r3, .L224+4
 2232 000e 1A60     		str	r2, [r3]
 375:TinyBasic.c   ****     if (DEBUGON>0) LogIt(0);
 2233              		.loc 1 375 0
 2234 0010 0020     		movs	r0, #0
 2235 0012 FFF7FEFF 		bl	LogIt
 2236              	.LVL274:
 2237 0016 38BD     		pop	{r3, r4, r5, pc}
 2238              	.L218:
 376:TinyBasic.c   ****     return;}
 377:TinyBasic.c   ****   if (DEBUGON>0) LogIt(Lino);
 2239              		.loc 1 377 0 discriminator 1
 2240 0018 FFF7FEFF 		bl	LogIt
 2241              	.LVL275:
 378:TinyBasic.c   ****   if (Debugging>0) {OutStr(" [#"); OutInt(Lino); OutStr("]");}
 2242              		.loc 1 378 0 discriminator 1
 2243 001c 144B     		ldr	r3, .L224+8
 2244 001e 1B69     		ldr	r3, [r3, #16]
 2245 0020 002B     		cmp	r3, #0
 2246 0022 09DD     		ble	.L220
 2247 0024 1348     		ldr	r0, .L224+12
 2248 0026 FFF7FEFF 		bl	OutStr
 2249              	.LVL276:
 2250 002a 0F4B     		ldr	r3, .L224
 2251 002c 1868     		ldr	r0, [r3]
 2252 002e FFF7FEFF 		bl	OutInt
 2253              	.LVL277:
 2254 0032 1148     		ldr	r0, .L224+16
 2255 0034 FFF7FEFF 		bl	OutStr
 2256              	.LVL278:
 2257              	.L220:
 379:TinyBasic.c   ****   BP = FindLine(Lino);                  /* otherwise try to find it.. */
 2258              		.loc 1 379 0
 2259 0038 0B4B     		ldr	r3, .L224
 2260 003a 1D68     		ldr	r5, [r3]
 2261 003c 2846     		mov	r0, r5
 2262 003e FFF7FEFF 		bl	FindLine
 2263              	.LVL279:
 380:TinyBasic.c   ****   here = Peek2(BP++);
 2264              		.loc 1 380 0
 2265 0042 441C     		adds	r4, r0, #1
 2266 0044 094B     		ldr	r3, .L224+4
 2267 0046 1C60     		str	r4, [r3]
 2268 0048 FFF7FEFF 		bl	Peek2
 2269              	.LVL280:
 381:TinyBasic.c   ****   if (here==0) TBerror();               /* ran off the end, error off */
 2270              		.loc 1 381 0
 2271 004c 10B9     		cbnz	r0, .L221
ARM GAS  C:\Users\doug_000\AppData\Local\Temp\ccbaKQF3.s 			page 48


 2272              		.loc 1 381 0 is_stmt 0 discriminator 1
 2273 004e FFF7FEFF 		bl	TBerror
 2274              	.LVL281:
 2275 0052 38BD     		pop	{r3, r4, r5, pc}
 2276              	.LVL282:
 2277              	.L221:
 382:TinyBasic.c   ****   else if (Lino != here) TBerror();                      /* not there */
 2278              		.loc 1 382 0 is_stmt 1
 2279 0054 8542     		cmp	r5, r0
 2280 0056 02D0     		beq	.L222
 2281              		.loc 1 382 0 is_stmt 0 discriminator 1
 2282 0058 FFF7FEFF 		bl	TBerror
 2283              	.LVL283:
 2284 005c 38BD     		pop	{r3, r4, r5, pc}
 2285              	.LVL284:
 2286              	.L222:
 383:TinyBasic.c   ****     else BP++;} /* ~GoToLino */                             /* got it */
 2287              		.loc 1 383 0 is_stmt 1
 2288 005e 0134     		adds	r4, r4, #1
 2289 0060 024B     		ldr	r3, .L224+4
 2290 0062 1C60     		str	r4, [r3]
 2291 0064 38BD     		pop	{r3, r4, r5, pc}
 2292              	.L225:
 2293 0066 00BF     		.align	2
 2294              	.L224:
 2295 0068 00000000 		.word	Lino
 2296 006c 00000000 		.word	BP
 2297 0070 00000000 		.word	.LANCHOR0
 2298 0074 AC000000 		.word	.LC23
 2299 0078 10000000 		.word	.LC3
 2300              		.cfi_endproc
 2301              	.LFE29:
 2302              		.size	GoToLino, .-GoToLino
 2303              		.section	.text.ListIt,"ax",%progbits
 2304              		.align	2
 2305              		.global	ListIt
 2306              		.thumb
 2307              		.thumb_func
 2308              		.type	ListIt, %function
 2309              	ListIt:
 2310              	.LFB30:
 384:TinyBasic.c   **** 
 385:TinyBasic.c   **** void ListIt(int frm, int too) {            /* list the stored program */
 2311              		.loc 1 385 0
 2312              		.cfi_startproc
 2313              		@ args = 0, pretend = 0, frame = 0
 2314              		@ frame_needed = 0, uses_anonymous_args = 0
 2315              	.LVL285:
 2316 0000 F8B5     		push	{r3, r4, r5, r6, r7, lr}
 2317              		.cfi_def_cfa_offset 24
 2318              		.cfi_offset 3, -24
 2319              		.cfi_offset 4, -20
 2320              		.cfi_offset 5, -16
 2321              		.cfi_offset 6, -12
 2322              		.cfi_offset 7, -8
 2323              		.cfi_offset 14, -4
 386:TinyBasic.c   ****   char ch;
ARM GAS  C:\Users\doug_000\AppData\Local\Temp\ccbaKQF3.s 			page 49


 387:TinyBasic.c   ****   int here;
 388:TinyBasic.c   ****   if (frm==0) {           /* 0,0 defaults to all; n,0 defaults to n,n */
 2324              		.loc 1 388 0
 2325 0002 18B1     		cbz	r0, .L232
 2326 0004 0F46     		mov	r7, r1
 2327 0006 0346     		mov	r3, r0
 389:TinyBasic.c   ****     too = 65535;
 390:TinyBasic.c   ****     frm = 1;}
 391:TinyBasic.c   ****   else if (too==0) too = frm;
 2328              		.loc 1 391 0
 2329 0008 21B1     		cbz	r1, .L233
 2330 000a 04E0     		b	.L227
 2331              	.L232:
 389:TinyBasic.c   ****     too = 65535;
 2332              		.loc 1 389 0
 2333 000c 4FF6FF77 		movw	r7, #65535
 390:TinyBasic.c   ****   else if (too==0) too = frm;
 2334              		.loc 1 390 0
 2335 0010 0123     		movs	r3, #1
 2336 0012 00E0     		b	.L227
 2337              	.L233:
 2338              		.loc 1 391 0
 2339 0014 0746     		mov	r7, r0
 2340              	.L227:
 2341              	.LVL286:
 392:TinyBasic.c   ****   here = FindLine(frm);                   /* try to find first line.. */
 2342              		.loc 1 392 0
 2343 0016 1846     		mov	r0, r3
 2344 0018 FFF7FEFF 		bl	FindLine
 2345              	.LVL287:
 2346 001c 0646     		mov	r6, r0
 2347              	.LVL288:
 393:TinyBasic.c   ****   while (!StopIt()) {
 2348              		.loc 1 393 0
 2349 001e 14E0     		b	.L228
 2350              	.LVL289:
 2351              	.L231:
 394:TinyBasic.c   ****     frm = Peek2(here++);             /* get this line's # to print it */
 2352              		.loc 1 394 0
 2353 0020 3046     		mov	r0, r6
 2354 0022 FFF7FEFF 		bl	Peek2
 2355              	.LVL290:
 395:TinyBasic.c   ****     if (frm>too || frm==0) break;
 2356              		.loc 1 395 0
 2357 0026 B842     		cmp	r0, r7
 2358 0028 13DC     		bgt	.L226
 2359              		.loc 1 395 0 is_stmt 0 discriminator 1
 2360 002a 90B1     		cbz	r0, .L226
 396:TinyBasic.c   ****     here++;
 2361              		.loc 1 396 0 is_stmt 1
 2362 002c B41C     		adds	r4, r6, #2
 2363              	.LVL291:
 397:TinyBasic.c   ****     OutInt(frm);
 2364              		.loc 1 397 0
 2365 002e FFF7FEFF 		bl	OutInt
 2366              	.LVL292:
 398:TinyBasic.c   ****     Ouch(' ');
ARM GAS  C:\Users\doug_000\AppData\Local\Temp\ccbaKQF3.s 			page 50


 2367              		.loc 1 398 0
 2368 0032 2020     		movs	r0, #32
 2369 0034 FFF7FEFF 		bl	Ouch
 2370              	.LVL293:
 2371              	.L230:
 399:TinyBasic.c   ****     do {                                            /* print the text */
 400:TinyBasic.c   ****       ch = (char)Core[here++];
 2372              		.loc 1 400 0 discriminator 1
 2373 0038 661C     		adds	r6, r4, #1
 2374              	.LVL294:
 2375 003a 064B     		ldr	r3, .L235
 2376 003c 1D5D     		ldrb	r5, [r3, r4]	@ zero_extendqisi2
 2377              	.LVL295:
 401:TinyBasic.c   ****       Ouch(ch);}
 2378              		.loc 1 401 0 discriminator 1
 2379 003e 2846     		mov	r0, r5
 2380 0040 FFF7FEFF 		bl	Ouch
 2381              	.LVL296:
 400:TinyBasic.c   ****       Ouch(ch);}
 2382              		.loc 1 400 0 discriminator 1
 2383 0044 3446     		mov	r4, r6
 402:TinyBasic.c   ****       while (ch>'\r');}} /* ~ListIt */
 2384              		.loc 1 402 0 discriminator 1
 2385 0046 0D2D     		cmp	r5, #13
 2386 0048 F6D8     		bhi	.L230
 2387              	.LVL297:
 2388              	.L228:
 393:TinyBasic.c   ****     frm = Peek2(here++);             /* get this line's # to print it */
 2389              		.loc 1 393 0
 2390 004a FFF7FEFF 		bl	StopIt
 2391              	.LVL298:
 2392 004e 0028     		cmp	r0, #0
 2393 0050 E6D0     		beq	.L231
 2394              	.LVL299:
 2395              	.L226:
 2396 0052 F8BD     		pop	{r3, r4, r5, r6, r7, pc}
 2397              	.LVL300:
 2398              	.L236:
 2399              		.align	2
 2400              	.L235:
 2401 0054 00000000 		.word	Core
 2402              		.cfi_endproc
 2403              	.LFE30:
 2404              		.size	ListIt, .-ListIt
 2405              		.section	.text.ConvtIL,"ax",%progbits
 2406              		.align	2
 2407              		.global	ConvtIL
 2408              		.thumb
 2409              		.thumb_func
 2410              		.type	ConvtIL, %function
 2411              	ConvtIL:
 2412              	.LFB31:
 403:TinyBasic.c   **** 
 404:TinyBasic.c   **** void ConvtIL(char* txt) {                 /* convert & load TBIL code */
 2413              		.loc 1 404 0
 2414              		.cfi_startproc
 2415              		@ args = 0, pretend = 0, frame = 0
ARM GAS  C:\Users\doug_000\AppData\Local\Temp\ccbaKQF3.s 			page 51


 2416              		@ frame_needed = 0, uses_anonymous_args = 0
 2417              	.LVL301:
 2418 0000 38B5     		push	{r3, r4, r5, lr}
 2419              		.cfi_def_cfa_offset 16
 2420              		.cfi_offset 3, -16
 2421              		.cfi_offset 4, -12
 2422              		.cfi_offset 5, -8
 2423              		.cfi_offset 14, -4
 2424 0002 0546     		mov	r5, r0
 405:TinyBasic.c   ****   int valu;
 406:TinyBasic.c   ****   ILend = ILfront+2;
 2425              		.loc 1 406 0
 2426 0004 1C4C     		ldr	r4, .L247
 2427 0006 4FF49071 		mov	r1, #288
 2428 000a 2160     		str	r1, [r4]
 407:TinyBasic.c   ****   Poke2(ILfront,ILend);    /* initialize pointers as promised in TBEK */
 2429              		.loc 1 407 0
 2430 000c 4FF48F70 		mov	r0, #286
 2431              	.LVL302:
 2432 0010 FFF7FEFF 		bl	Poke2
 2433              	.LVL303:
 408:TinyBasic.c   ****   Poke2(ColdGo+1,ILend);
 2434              		.loc 1 408 0
 2435 0014 40F20110 		movw	r0, #257
 2436 0018 2168     		ldr	r1, [r4]
 2437 001a FFF7FEFF 		bl	Poke2
 2438              	.LVL304:
 409:TinyBasic.c   ****   Core[ILend] = (aByte)BadOp;   /* illegal op, in case nothing loaded */
 2439              		.loc 1 409 0
 2440 001e 2368     		ldr	r3, [r4]
 2441 0020 0F21     		movs	r1, #15
 2442 0022 164A     		ldr	r2, .L247+4
 2443 0024 D154     		strb	r1, [r2, r3]
 410:TinyBasic.c   ****   if (txt == NULL) return;
 2444              		.loc 1 410 0
 2445 0026 E5B9     		cbnz	r5, .L239
 2446 0028 38BD     		pop	{r3, r4, r5, pc}
 2447              	.LVL305:
 2448              	.L240:
 411:TinyBasic.c   ****   while (*txt != '\0') {                            /* get the data.. */
 412:TinyBasic.c   ****     while (*txt > '\r') txt++;               /* (no code on 1st line) */
 2449              		.loc 1 412 0 discriminator 2
 2450 002a 0135     		adds	r5, r5, #1
 2451              	.LVL306:
 2452              	.L245:
 2453              		.loc 1 412 0 is_stmt 0 discriminator 1
 2454 002c 2B78     		ldrb	r3, [r5]	@ zero_extendqisi2
 2455 002e 0D2B     		cmp	r3, #13
 2456 0030 FBD8     		bhi	.L240
 413:TinyBasic.c   ****     if (*txt++ == '\0') break;                      /* no code at all */
 2457              		.loc 1 413 0 is_stmt 1
 2458 0032 6C1C     		adds	r4, r5, #1
 2459              	.LVL307:
 2460 0034 0BB9     		cbnz	r3, .L242
 2461 0036 17E0     		b	.L241
 2462              	.L243:
 414:TinyBasic.c   ****     while (*txt > ' ') txt++;                    /* skip over address */
ARM GAS  C:\Users\doug_000\AppData\Local\Temp\ccbaKQF3.s 			page 52


 2463              		.loc 1 414 0 discriminator 2
 2464 0038 0134     		adds	r4, r4, #1
 2465              	.LVL308:
 2466              	.L242:
 2467              		.loc 1 414 0 is_stmt 0 discriminator 1
 2468 003a 2378     		ldrb	r3, [r4]	@ zero_extendqisi2
 2469 003c 202B     		cmp	r3, #32
 2470 003e FBD8     		bhi	.L243
 415:TinyBasic.c   ****     if (*txt++ == '\0') break;
 2471              		.loc 1 415 0 is_stmt 1
 2472 0040 0134     		adds	r4, r4, #1
 2473              	.LVL309:
 2474 0042 8BB1     		cbz	r3, .L241
 2475              	.L244:
 416:TinyBasic.c   ****     while (true) {
 417:TinyBasic.c   ****       valu = DeHex(txt++, 2);                           /* get a byte */
 2476              		.loc 1 417 0
 2477 0044 651C     		adds	r5, r4, #1
 2478              	.LVL310:
 2479 0046 2046     		mov	r0, r4
 2480 0048 0221     		movs	r1, #2
 2481 004a FFF7FEFF 		bl	DeHex
 2482              	.LVL311:
 418:TinyBasic.c   ****       if (valu<0) break;                      /* no more on this line */
 2483              		.loc 1 418 0
 2484 004e 0028     		cmp	r0, #0
 2485 0050 07DB     		blt	.L239
 419:TinyBasic.c   ****       Core[ILend++] = (aByte)valu;      /* insert this byte into code */
 2486              		.loc 1 419 0
 2487 0052 094A     		ldr	r2, .L247
 2488 0054 1368     		ldr	r3, [r2]
 2489 0056 591C     		adds	r1, r3, #1
 2490 0058 1160     		str	r1, [r2]
 2491 005a 084A     		ldr	r2, .L247+4
 2492 005c D054     		strb	r0, [r2, r3]
 420:TinyBasic.c   ****       txt++;}}
 2493              		.loc 1 420 0
 2494 005e 0234     		adds	r4, r4, #2
 2495              	.LVL312:
 2496 0060 F0E7     		b	.L244
 2497              	.LVL313:
 2498              	.L239:
 411:TinyBasic.c   ****     while (*txt > '\r') txt++;               /* (no code on 1st line) */
 2499              		.loc 1 411 0
 2500 0062 2B78     		ldrb	r3, [r5]	@ zero_extendqisi2
 2501 0064 002B     		cmp	r3, #0
 2502 0066 E1D1     		bne	.L245
 2503              	.LVL314:
 2504              	.L241:
 421:TinyBasic.c   ****   XQhere = 0;                        /* requires new XQ to initialize */
 2505              		.loc 1 421 0
 2506 0068 0023     		movs	r3, #0
 2507 006a 054A     		ldr	r2, .L247+8
 2508 006c 1360     		str	r3, [r2]
 422:TinyBasic.c   ****   Core[ILend] = 0;} /* ~ConvtIL */
 2509              		.loc 1 422 0
 2510 006e 024A     		ldr	r2, .L247
ARM GAS  C:\Users\doug_000\AppData\Local\Temp\ccbaKQF3.s 			page 53


 2511 0070 1268     		ldr	r2, [r2]
 2512 0072 0249     		ldr	r1, .L247+4
 2513 0074 8B54     		strb	r3, [r1, r2]
 2514 0076 38BD     		pop	{r3, r4, r5, pc}
 2515              	.L248:
 2516              		.align	2
 2517              	.L247:
 2518 0078 00000000 		.word	ILend
 2519 007c 00000000 		.word	Core
 2520 0080 00000000 		.word	XQhere
 2521              		.cfi_endproc
 2522              	.LFE31:
 2523              		.size	ConvtIL, .-ConvtIL
 2524              		.section	.text.LineSwap,"ax",%progbits
 2525              		.align	2
 2526              		.global	LineSwap
 2527              		.thumb
 2528              		.thumb_func
 2529              		.type	LineSwap, %function
 2530              	LineSwap:
 2531              	.LFB32:
 423:TinyBasic.c   **** 
 424:TinyBasic.c   **** void LineSwap(int here) {   /* swap SvPt/BP if here is not in InLine  */
 2532              		.loc 1 424 0
 2533              		.cfi_startproc
 2534              		@ args = 0, pretend = 0, frame = 0
 2535              		@ frame_needed = 0, uses_anonymous_args = 0
 2536              		@ link register save eliminated.
 2537              	.LVL315:
 425:TinyBasic.c   ****   if (here<InLine || here>=InLend) {
 2538              		.loc 1 425 0
 2539 0000 2F28     		cmp	r0, #47
 2540 0002 03DD     		ble	.L250
 2541              		.loc 1 425 0 is_stmt 0 discriminator 1
 2542 0004 074B     		ldr	r3, .L253
 2543 0006 1B68     		ldr	r3, [r3]
 2544 0008 9842     		cmp	r0, r3
 2545 000a 06DB     		blt	.L251
 2546              	.L250:
 426:TinyBasic.c   ****     here = SvPt;
 2547              		.loc 1 426 0 is_stmt 1
 2548 000c 064A     		ldr	r2, .L253+4
 2549 000e 1168     		ldr	r1, [r2]
 2550              	.LVL316:
 427:TinyBasic.c   ****     SvPt = BP;
 2551              		.loc 1 427 0
 2552 0010 064B     		ldr	r3, .L253+8
 2553 0012 1868     		ldr	r0, [r3]
 2554 0014 1060     		str	r0, [r2]
 428:TinyBasic.c   ****     BP = here;}
 2555              		.loc 1 428 0
 2556 0016 1960     		str	r1, [r3]
 2557 0018 7047     		bx	lr
 2558              	.LVL317:
 2559              	.L251:
 429:TinyBasic.c   ****   else SvPt = BP;} /* ~LineSwap */
 2560              		.loc 1 429 0
ARM GAS  C:\Users\doug_000\AppData\Local\Temp\ccbaKQF3.s 			page 54


 2561 001a 044B     		ldr	r3, .L253+8
 2562 001c 1A68     		ldr	r2, [r3]
 2563 001e 024B     		ldr	r3, .L253+4
 2564 0020 1A60     		str	r2, [r3]
 2565 0022 7047     		bx	lr
 2566              	.L254:
 2567              		.align	2
 2568              	.L253:
 2569 0024 00000000 		.word	InLend
 2570 0028 00000000 		.word	SvPt
 2571 002c 00000000 		.word	BP
 2572              		.cfi_endproc
 2573              	.LFE32:
 2574              		.size	LineSwap, .-LineSwap
 2575              		.section	.text.Interp,"ax",%progbits
 2576              		.align	2
 2577              		.global	Interp
 2578              		.thumb
 2579              		.thumb_func
 2580              		.type	Interp, %function
 2581              	Interp:
 2582              	.LFB33:
 430:TinyBasic.c   **** 
 431:TinyBasic.c   **** /************************** Main Interpreter **************************/
 432:TinyBasic.c   **** 
 433:TinyBasic.c   **** void Interp(void) {
 2583              		.loc 1 433 0
 2584              		.cfi_startproc
 2585              		@ args = 0, pretend = 0, frame = 0
 2586              		@ frame_needed = 0, uses_anonymous_args = 0
 2587 0000 2DE9F041 		push	{r4, r5, r6, r7, r8, lr}
 2588              		.cfi_def_cfa_offset 24
 2589              		.cfi_offset 4, -24
 2590              		.cfi_offset 5, -20
 2591              		.cfi_offset 6, -16
 2592              		.cfi_offset 7, -12
 2593              		.cfi_offset 8, -8
 2594              		.cfi_offset 14, -4
 434:TinyBasic.c   ****   char ch;    /* comments from TinyBasic Experimenter's Kit, pp.15-21 */
 435:TinyBasic.c   ****   int op, ix, here, chpt;                                    /* temps */
 436:TinyBasic.c   ****   Broken = false;          /* initialize this for possible later test */
 2595              		.loc 1 436 0
 2596 0004 0022     		movs	r2, #0
 2597 0006 B94B     		ldr	r3, .L396
 2598 0008 9A60     		str	r2, [r3, #8]
 2599              	.L256:
 437:TinyBasic.c   ****   while (true) {
 438:TinyBasic.c   ****     if (StopIt()) {
 2600              		.loc 1 438 0
 2601 000a FFF7FEFF 		bl	StopIt
 2602              	.LVL318:
 2603 000e 48B1     		cbz	r0, .L258
 439:TinyBasic.c   ****       Broken = false;
 2604              		.loc 1 439 0
 2605 0010 0022     		movs	r2, #0
 2606 0012 B64B     		ldr	r3, .L396
 2607 0014 9A60     		str	r2, [r3, #8]
ARM GAS  C:\Users\doug_000\AppData\Local\Temp\ccbaKQF3.s 			page 55


 440:TinyBasic.c   ****       OutLn();
 2608              		.loc 1 440 0
 2609 0016 FFF7FEFF 		bl	OutLn
 2610              	.LVL319:
 441:TinyBasic.c   ****       OutStr("*** User Break ***");
 2611              		.loc 1 441 0
 2612 001a B548     		ldr	r0, .L396+4
 2613 001c FFF7FEFF 		bl	OutStr
 2614              	.LVL320:
 442:TinyBasic.c   ****       TBerror();}
 2615              		.loc 1 442 0
 2616 0020 FFF7FEFF 		bl	TBerror
 2617              	.LVL321:
 2618              	.L258:
 443:TinyBasic.c   ****     if (ILPC==0) {
 2619              		.loc 1 443 0
 2620 0024 B34B     		ldr	r3, .L396+8
 2621 0026 1B68     		ldr	r3, [r3]
 2622 0028 CBB9     		cbnz	r3, .L259
 444:TinyBasic.c   ****       ILPC = Peek2(ILfront);
 2623              		.loc 1 444 0
 2624 002a 4FF48F70 		mov	r0, #286
 2625 002e FFF7FEFF 		bl	Peek2
 2626              	.LVL322:
 2627 0032 B04B     		ldr	r3, .L396+8
 2628 0034 1860     		str	r0, [r3]
 445:TinyBasic.c   ****       if (DEBUGON>0) LogIt(-ILPC);
 2629              		.loc 1 445 0
 2630 0036 4042     		negs	r0, r0
 2631 0038 FFF7FEFF 		bl	LogIt
 2632              	.LVL323:
 446:TinyBasic.c   ****       if (Debugging>0) {
 2633              		.loc 1 446 0
 2634 003c AB4B     		ldr	r3, .L396
 2635 003e 1B69     		ldr	r3, [r3, #16]
 2636 0040 002B     		cmp	r3, #0
 2637 0042 0CDD     		ble	.L259
 447:TinyBasic.c   ****         OutLn(); OutStr("[IL="); OutHex(ILPC,4); OutStr("]");}}
 2638              		.loc 1 447 0
 2639 0044 FFF7FEFF 		bl	OutLn
 2640              	.LVL324:
 2641 0048 AB48     		ldr	r0, .L396+12
 2642 004a FFF7FEFF 		bl	OutStr
 2643              	.LVL325:
 2644 004e A94B     		ldr	r3, .L396+8
 2645 0050 1868     		ldr	r0, [r3]
 2646 0052 0421     		movs	r1, #4
 2647 0054 FFF7FEFF 		bl	OutHex
 2648              	.LVL326:
 2649 0058 A848     		ldr	r0, .L396+16
 2650 005a FFF7FEFF 		bl	OutStr
 2651              	.LVL327:
 2652              	.L259:
 448:TinyBasic.c   ****     if (DEBUGON>0) if (Watcher>0) {             /* check watchpoint.. */
 2653              		.loc 1 448 0 discriminator 1
 2654 005e A34B     		ldr	r3, .L396
 2655 0060 5A69     		ldr	r2, [r3, #20]
ARM GAS  C:\Users\doug_000\AppData\Local\Temp\ccbaKQF3.s 			page 56


 2656 0062 002A     		cmp	r2, #0
 2657 0064 29DD     		ble	.L260
 449:TinyBasic.c   ****       if (((Watchee<0) && (Watchee+256+(int)Core[Watcher]) !=0)
 2658              		.loc 1 449 0
 2659 0066 A64B     		ldr	r3, .L396+20
 2660 0068 1B68     		ldr	r3, [r3]
 2661 006a 002B     		cmp	r3, #0
 2662 006c 05DA     		bge	.L261
 2663              		.loc 1 449 0 is_stmt 0 discriminator 1
 2664 006e 03F58071 		add	r1, r3, #256
 2665 0072 A448     		ldr	r0, .L396+24
 2666 0074 805C     		ldrb	r0, [r0, r2]	@ zero_extendqisi2
 2667 0076 C142     		cmn	r1, r0
 2668 0078 05D1     		bne	.L262
 2669              	.L261:
 450:TinyBasic.c   ****           || ((Watchee >= 0) && (Watchee==(int)Core[Watcher]))) {
 2670              		.loc 1 450 0 is_stmt 1
 2671 007a 002B     		cmp	r3, #0
 2672 007c 1DDB     		blt	.L260
 2673              		.loc 1 450 0 is_stmt 0 discriminator 1
 2674 007e A149     		ldr	r1, .L396+24
 2675 0080 8A5C     		ldrb	r2, [r1, r2]	@ zero_extendqisi2
 2676 0082 9342     		cmp	r3, r2
 2677 0084 19D1     		bne	.L260
 2678              	.L262:
 451:TinyBasic.c   ****         OutLn();
 2679              		.loc 1 451 0 is_stmt 1
 2680 0086 FFF7FEFF 		bl	OutLn
 2681              	.LVL328:
 452:TinyBasic.c   ****         OutStr("*** Watched ");
 2682              		.loc 1 452 0
 2683 008a 9F48     		ldr	r0, .L396+28
 2684 008c FFF7FEFF 		bl	OutStr
 2685              	.LVL329:
 453:TinyBasic.c   ****         OutHex(Watcher,4);
 2686              		.loc 1 453 0
 2687 0090 964C     		ldr	r4, .L396
 2688 0092 6069     		ldr	r0, [r4, #20]
 2689 0094 0421     		movs	r1, #4
 2690 0096 FFF7FEFF 		bl	OutHex
 2691              	.LVL330:
 454:TinyBasic.c   ****         OutStr(" = ");
 2692              		.loc 1 454 0
 2693 009a 9C48     		ldr	r0, .L396+32
 2694 009c FFF7FEFF 		bl	OutStr
 2695              	.LVL331:
 455:TinyBasic.c   ****         OutInt((int)Core[Watcher]);
 2696              		.loc 1 455 0
 2697 00a0 6369     		ldr	r3, [r4, #20]
 2698 00a2 984A     		ldr	r2, .L396+24
 2699 00a4 D05C     		ldrb	r0, [r2, r3]	@ zero_extendqisi2
 2700 00a6 FFF7FEFF 		bl	OutInt
 2701              	.LVL332:
 456:TinyBasic.c   ****         OutStr(" *** ");
 2702              		.loc 1 456 0
 2703 00aa 9948     		ldr	r0, .L396+36
 2704 00ac FFF7FEFF 		bl	OutStr
ARM GAS  C:\Users\doug_000\AppData\Local\Temp\ccbaKQF3.s 			page 57


 2705              	.LVL333:
 457:TinyBasic.c   ****         Watcher = 0;
 2706              		.loc 1 457 0
 2707 00b0 0023     		movs	r3, #0
 2708 00b2 6361     		str	r3, [r4, #20]
 458:TinyBasic.c   ****         TBerror();
 2709              		.loc 1 458 0
 2710 00b4 FFF7FEFF 		bl	TBerror
 2711              	.LVL334:
 459:TinyBasic.c   ****         continue;}}
 2712              		.loc 1 459 0
 2713 00b8 A7E7     		b	.L256
 2714              	.L260:
 460:TinyBasic.c   ****     op = (int)Core[ILPC++];
 2715              		.loc 1 460 0
 2716 00ba 8E4A     		ldr	r2, .L396+8
 2717 00bc 1368     		ldr	r3, [r2]
 2718 00be 591C     		adds	r1, r3, #1
 2719 00c0 1160     		str	r1, [r2]
 2720 00c2 904A     		ldr	r2, .L396+24
 2721 00c4 D45C     		ldrb	r4, [r2, r3]	@ zero_extendqisi2
 2722              	.LVL335:
 461:TinyBasic.c   ****       if (Debugging>0) {
 2723              		.loc 1 461 0
 2724 00c6 894B     		ldr	r3, .L396
 2725 00c8 1B69     		ldr	r3, [r3, #16]
 2726 00ca 002B     		cmp	r3, #0
 2727 00cc 19DD     		ble	.L263
 462:TinyBasic.c   ****         OutLn(); OutStr("[IL+"); OutHex(ILPC-Peek2(ILfront)-1,3);
 2728              		.loc 1 462 0
 2729 00ce FFF7FEFF 		bl	OutLn
 2730              	.LVL336:
 2731 00d2 9048     		ldr	r0, .L396+40
 2732 00d4 FFF7FEFF 		bl	OutStr
 2733              	.LVL337:
 2734 00d8 864B     		ldr	r3, .L396+8
 2735 00da 1D68     		ldr	r5, [r3]
 2736 00dc 4FF48F70 		mov	r0, #286
 2737 00e0 FFF7FEFF 		bl	Peek2
 2738              	.LVL338:
 2739 00e4 281A     		subs	r0, r5, r0
 2740 00e6 0138     		subs	r0, r0, #1
 2741 00e8 0321     		movs	r1, #3
 2742 00ea FFF7FEFF 		bl	OutHex
 2743              	.LVL339:
 463:TinyBasic.c   ****         OutStr("="); OutHex(op,2); OutStr("]");}
 2744              		.loc 1 463 0
 2745 00ee 8A48     		ldr	r0, .L396+44
 2746 00f0 FFF7FEFF 		bl	OutStr
 2747              	.LVL340:
 2748 00f4 2046     		mov	r0, r4
 2749 00f6 0221     		movs	r1, #2
 2750 00f8 FFF7FEFF 		bl	OutHex
 2751              	.LVL341:
 2752 00fc 7F48     		ldr	r0, .L396+16
 2753 00fe FFF7FEFF 		bl	OutStr
 2754              	.LVL342:
ARM GAS  C:\Users\doug_000\AppData\Local\Temp\ccbaKQF3.s 			page 58


 2755              	.L263:
 464:TinyBasic.c   ****     switch (op>>5) {
 2756              		.loc 1 464 0
 2757 0102 6311     		asrs	r3, r4, #5
 2758 0104 023B     		subs	r3, r3, #2
 2759 0106 052B     		cmp	r3, #5
 2760 0108 07D8     		bhi	.L264
 2761 010a DFE813F0 		tbh	[pc, r3, lsl #1]
 2762              	.L266:
 2763 010e AC04     		.2byte	(.L265-.L266)/2
 2764 0110 AC04     		.2byte	(.L265-.L266)/2
 2765 0112 B704     		.2byte	(.L267-.L266)/2
 2766 0114 F504     		.2byte	(.L268-.L266)/2
 2767 0116 2505     		.2byte	(.L269-.L266)/2
 2768 0118 7705     		.2byte	(.L270-.L266)/2
 2769              		.p2align 1
 2770              	.L264:
 465:TinyBasic.c   ****     default: switch (op) {
 2771              		.loc 1 465 0
 2772 011a 631E     		subs	r3, r4, #1
 2773 011c 3E2B     		cmp	r3, #62
 2774 011e 3FF674AF 		bhi	.L256
 2775 0122 01A2     		adr	r2, .L272
 2776 0124 52F823F0 		ldr	pc, [r2, r3, lsl #2]
 2777              		.p2align 2
 2778              	.L272:
 2779 0128 2D020000 		.word	.L271+1
 2780 012c 2D020000 		.word	.L271+1
 2781 0130 2D020000 		.word	.L271+1
 2782 0134 2D020000 		.word	.L271+1
 2783 0138 2D020000 		.word	.L271+1
 2784 013c 2D020000 		.word	.L271+1
 2785 0140 2D020000 		.word	.L271+1
 2786 0144 0B000000 		.word	.L256+1
 2787 0148 59020000 		.word	.L273+1
 2788 014c 6B020000 		.word	.L274+1
 2789 0150 83020000 		.word	.L275+1
 2790 0154 9F020000 		.word	.L276+1
 2791 0158 0B000000 		.word	.L256+1
 2792 015c 0B000000 		.word	.L256+1
 2793 0160 25020000 		.word	.L277+1
 2794 0164 B3020000 		.word	.L278+1
 2795 0168 BD020000 		.word	.L279+1
 2796 016c C7020000 		.word	.L280+1
 2797 0170 29030000 		.word	.L281+1
 2798 0174 73030000 		.word	.L282+1
 2799 0178 7D030000 		.word	.L283+1
 2800 017c 95030000 		.word	.L284+1
 2801 0180 B9030000 		.word	.L285+1
 2802 0184 CF030000 		.word	.L286+1
 2803 0188 EB030000 		.word	.L287+1
 2804 018c 07040000 		.word	.L288+1
 2805 0190 25040000 		.word	.L289+1
 2806 0194 4B040000 		.word	.L290+1
 2807 0198 91040000 		.word	.L291+1
 2808 019c 0B000000 		.word	.L256+1
 2809 01a0 03050000 		.word	.L386+1
ARM GAS  C:\Users\doug_000\AppData\Local\Temp\ccbaKQF3.s 			page 59


 2810 01a4 25050000 		.word	.L293+1
 2811 01a8 39050000 		.word	.L294+1
 2812 01ac 5B050000 		.word	.L295+1
 2813 01b0 6F050000 		.word	.L296+1
 2814 01b4 77050000 		.word	.L297+1
 2815 01b8 0B000000 		.word	.L256+1
 2816 01bc 0B000000 		.word	.L256+1
 2817 01c0 93050000 		.word	.L298+1
 2818 01c4 0B000000 		.word	.L256+1
 2819 01c8 0B000000 		.word	.L256+1
 2820 01cc 69060000 		.word	.L299+1
 2821 01d0 6D070000 		.word	.L300+1
 2822 01d4 8B070000 		.word	.L301+1
 2823 01d8 D3070000 		.word	.L302+1
 2824 01dc E7070000 		.word	.L303+1
 2825 01e0 D5090000 		.word	.L304+1
 2826 01e4 0F0A0000 		.word	.L305+1
 2827 01e8 0F0A0000 		.word	.L305+1
 2828 01ec 0F0A0000 		.word	.L305+1
 2829 01f0 0F0A0000 		.word	.L305+1
 2830 01f4 0F0A0000 		.word	.L305+1
 2831 01f8 0F0A0000 		.word	.L305+1
 2832 01fc 0F0A0000 		.word	.L305+1
 2833 0200 0F0A0000 		.word	.L305+1
 2834 0204 430A0000 		.word	.L306+1
 2835 0208 430A0000 		.word	.L306+1
 2836 020c 430A0000 		.word	.L306+1
 2837 0210 430A0000 		.word	.L306+1
 2838 0214 430A0000 		.word	.L306+1
 2839 0218 430A0000 		.word	.L306+1
 2840 021c 430A0000 		.word	.L306+1
 2841 0220 430A0000 		.word	.L306+1
 2842              		.p2align 1
 2843              	.L277:
 466:TinyBasic.c   ****       case 15:
 467:TinyBasic.c   ****         TBerror();
 2844              		.loc 1 467 0
 2845 0224 FFF7FEFF 		bl	TBerror
 2846              	.LVL343:
 468:TinyBasic.c   ****         return;
 2847              		.loc 1 468 0
 2848 0228 BDE8F081 		pop	{r4, r5, r6, r7, r8, pc}
 2849              	.LVL344:
 2850              	.L271:
 469:TinyBasic.c   **** 
 470:TinyBasic.c   **** /* SX n    00-07   Stack Exchange. */
 471:TinyBasic.c   **** /*                 Exchange the top byte of computational stack with  */
 472:TinyBasic.c   **** /* that "n" bytes into the stack. The top/left byte of the stack is   */
 473:TinyBasic.c   **** /* considered to be byte 0, so SX 0 does nothing.                     */
 474:TinyBasic.c   ****       case 1: case 2: case 3: case 4: case 5: case 6: case 7:
 475:TinyBasic.c   ****         if (ExpnTop+op>=ExpnStk) {       /* swap is below stack depth */
 2851              		.loc 1 475 0
 2852 022c 3B4B     		ldr	r3, .L396+48
 2853 022e 1A68     		ldr	r2, [r3]
 2854 0230 1444     		add	r4, r4, r2
 2855              	.LVL345:
 2856 0232 7F2C     		cmp	r4, #127
ARM GAS  C:\Users\doug_000\AppData\Local\Temp\ccbaKQF3.s 			page 60


 2857 0234 03DD     		ble	.L308
 476:TinyBasic.c   ****           TBerror();
 2858              		.loc 1 476 0
 2859 0236 FFF7FEFF 		bl	TBerror
 2860              	.LVL346:
 477:TinyBasic.c   ****           return;}
 2861              		.loc 1 477 0
 2862 023a BDE8F081 		pop	{r4, r5, r6, r7, r8, pc}
 2863              	.L308:
 478:TinyBasic.c   ****         ix = (int)Core[ExpnTop];
 2864              		.loc 1 478 0
 2865 023e 314B     		ldr	r3, .L396+24
 2866 0240 995C     		ldrb	r1, [r3, r2]	@ zero_extendqisi2
 2867              	.LVL347:
 479:TinyBasic.c   ****         Core[ExpnTop] = Core[ExpnTop+op];
 2868              		.loc 1 479 0
 2869 0242 185D     		ldrb	r0, [r3, r4]	@ zero_extendqisi2
 2870 0244 9854     		strb	r0, [r3, r2]
 480:TinyBasic.c   ****         Core[ExpnTop+op] = (aByte)ix;
 2871              		.loc 1 480 0
 2872 0246 1955     		strb	r1, [r3, r4]
 481:TinyBasic.c   ****         if (Debugging>0) ShowExSt();
 2873              		.loc 1 481 0
 2874 0248 284B     		ldr	r3, .L396
 2875 024a 1B69     		ldr	r3, [r3, #16]
 2876 024c 002B     		cmp	r3, #0
 2877 024e 7FF7DCAE 		ble	.L256
 2878              		.loc 1 481 0 is_stmt 0 discriminator 1
 2879 0252 FFF7FEFF 		bl	ShowExSt
 2880              	.LVL348:
 2881 0256 D8E6     		b	.L256
 2882              	.LVL349:
 2883              	.L273:
 482:TinyBasic.c   ****         break;
 483:TinyBasic.c   **** 
 484:TinyBasic.c   **** /* LB n    09nn    Push Literal Byte onto Stack.                      */
 485:TinyBasic.c   **** /*                 This adds one byte to the expression stack, which  */
 486:TinyBasic.c   **** /* is the second byte of the instruction. An error stop will occur if */
 487:TinyBasic.c   **** /* the stack overflows. */
 488:TinyBasic.c   ****       case 9:
 489:TinyBasic.c   ****         PushExBy((int)Core[ILPC++]);                  /* push IL byte */
 2884              		.loc 1 489 0 is_stmt 1
 2885 0258 264A     		ldr	r2, .L396+8
 2886 025a 1368     		ldr	r3, [r2]
 2887 025c 591C     		adds	r1, r3, #1
 2888 025e 1160     		str	r1, [r2]
 2889 0260 284A     		ldr	r2, .L396+24
 2890 0262 D05C     		ldrb	r0, [r2, r3]	@ zero_extendqisi2
 2891 0264 FFF7FEFF 		bl	PushExBy
 2892              	.LVL350:
 490:TinyBasic.c   ****         break;
 2893              		.loc 1 490 0
 2894 0268 CFE6     		b	.L256
 2895              	.L274:
 491:TinyBasic.c   **** 
 492:TinyBasic.c   **** /* LN n    0Annnn  Push Literal Number.                               */
 493:TinyBasic.c   **** /*                 This adds the following two bytes to the           */
ARM GAS  C:\Users\doug_000\AppData\Local\Temp\ccbaKQF3.s 			page 61


 494:TinyBasic.c   **** /* computational stack, as a 16-bit number. Stack overflow results in */
 495:TinyBasic.c   **** /* an error stop. Numbers are assumed to be Big-Endian.               */
 496:TinyBasic.c   ****       case 10:
 497:TinyBasic.c   ****         PushExInt(Peek2(ILPC++));              /* get next 2 IL bytes */
 2896              		.loc 1 497 0
 2897 026a 224C     		ldr	r4, .L396+8
 2898              	.LVL351:
 2899 026c 2068     		ldr	r0, [r4]
 2900 026e 431C     		adds	r3, r0, #1
 2901              	.LVL352:
 2902 0270 2360     		str	r3, [r4]
 2903 0272 FFF7FEFF 		bl	Peek2
 2904              	.LVL353:
 2905 0276 FFF7FEFF 		bl	PushExInt
 2906              	.LVL354:
 498:TinyBasic.c   ****         ILPC++;
 2907              		.loc 1 498 0
 2908 027a 2368     		ldr	r3, [r4]
 2909 027c 0133     		adds	r3, r3, #1
 2910 027e 2360     		str	r3, [r4]
 499:TinyBasic.c   ****         break;
 2911              		.loc 1 499 0
 2912 0280 C3E6     		b	.L256
 2913              	.LVL355:
 2914              	.L275:
 500:TinyBasic.c   **** 
 501:TinyBasic.c   **** /* DS      0B      Duplicate Top Number (two bytes) on Stack.         */
 502:TinyBasic.c   **** /*                 An error stop will occur if there are less than 2  */
 503:TinyBasic.c   **** /* bytes (1 int) on the expression stack or if the stack overflows.   */
 504:TinyBasic.c   ****       case 11:
 505:TinyBasic.c   ****         op = ExpnTop;
 2915              		.loc 1 505 0
 2916 0282 264B     		ldr	r3, .L396+48
 2917 0284 1C68     		ldr	r4, [r3]
 2918              	.LVL356:
 506:TinyBasic.c   ****         ix = PopExInt();
 2919              		.loc 1 506 0
 2920 0286 FFF7FEFF 		bl	PopExInt
 2921              	.LVL357:
 507:TinyBasic.c   ****         if (ILPC == 0) break;                            /* underflow */
 2922              		.loc 1 507 0
 2923 028a 1A4B     		ldr	r3, .L396+8
 2924 028c 1B68     		ldr	r3, [r3]
 2925 028e 002B     		cmp	r3, #0
 2926 0290 3FF4BBAE 		beq	.L256
 508:TinyBasic.c   ****         ExpnTop = op;
 2927              		.loc 1 508 0
 2928 0294 214B     		ldr	r3, .L396+48
 2929 0296 1C60     		str	r4, [r3]
 509:TinyBasic.c   ****         PushExInt(ix);
 2930              		.loc 1 509 0
 2931 0298 FFF7FEFF 		bl	PushExInt
 2932              	.LVL358:
 510:TinyBasic.c   ****         break;
 2933              		.loc 1 510 0
 2934 029c B5E6     		b	.L256
 2935              	.L276:
ARM GAS  C:\Users\doug_000\AppData\Local\Temp\ccbaKQF3.s 			page 62


 511:TinyBasic.c   **** 
 512:TinyBasic.c   **** /* SP      0C      Stack Pop.                                         */
 513:TinyBasic.c   **** /*                 The top two bytes are removed from the expression  */
 514:TinyBasic.c   **** /* stack and discarded. Underflow results in an error stop.           */
 515:TinyBasic.c   ****       case 12:
 516:TinyBasic.c   ****         ix = PopExInt();
 2936              		.loc 1 516 0
 2937 029e FFF7FEFF 		bl	PopExInt
 2938              	.LVL359:
 517:TinyBasic.c   ****           if (Debugging>0) ShowExSt();
 2939              		.loc 1 517 0
 2940 02a2 124B     		ldr	r3, .L396
 2941 02a4 1B69     		ldr	r3, [r3, #16]
 2942 02a6 002B     		cmp	r3, #0
 2943 02a8 7FF7AFAE 		ble	.L256
 2944              		.loc 1 517 0 is_stmt 0 discriminator 1
 2945 02ac FFF7FEFF 		bl	ShowExSt
 2946              	.LVL360:
 2947 02b0 ABE6     		b	.L256
 2948              	.L278:
 518:TinyBasic.c   ****         break;
 519:TinyBasic.c   **** 
 520:TinyBasic.c   **** /* SB      10      Save BASIC Pointer.                                */
 521:TinyBasic.c   **** /*                 If BASIC pointer is pointing into the input line   */
 522:TinyBasic.c   **** /* buffer, it is copied to the Saved Pointer; otherwise the two       */
 523:TinyBasic.c   **** /* pointers are exchanged.                                            */
 524:TinyBasic.c   ****       case 16:
 525:TinyBasic.c   ****         LineSwap(BP);
 2949              		.loc 1 525 0 is_stmt 1
 2950 02b2 1B4B     		ldr	r3, .L396+52
 2951 02b4 1868     		ldr	r0, [r3]
 2952 02b6 FFF7FEFF 		bl	LineSwap
 2953              	.LVL361:
 526:TinyBasic.c   ****         break;
 2954              		.loc 1 526 0
 2955 02ba A6E6     		b	.L256
 2956              	.L279:
 527:TinyBasic.c   **** 
 528:TinyBasic.c   **** /* RB      11      Restore BASIC Pointer.                             */
 529:TinyBasic.c   **** /*                 If the Saved Pointer points into the input line    */
 530:TinyBasic.c   **** /* buffer, it is replaced by the value in the BASIC pointer;          */
 531:TinyBasic.c   **** /* otherwise the two pointers are exchanged.                          */
 532:TinyBasic.c   ****       case 17:
 533:TinyBasic.c   ****         LineSwap(SvPt);
 2957              		.loc 1 533 0
 2958 02bc 194B     		ldr	r3, .L396+56
 2959 02be 1868     		ldr	r0, [r3]
 2960 02c0 FFF7FEFF 		bl	LineSwap
 2961              	.LVL362:
 534:TinyBasic.c   ****         break;
 2962              		.loc 1 534 0
 2963 02c4 A1E6     		b	.L256
 2964              	.L280:
 535:TinyBasic.c   **** 
 536:TinyBasic.c   **** /* FV      12      Fetch Variable.                                    */
 537:TinyBasic.c   **** /*                 The top byte of the computational stack is used to */
 538:TinyBasic.c   **** /* index into Page 00. It is replaced by the two bytes fetched. Error */
ARM GAS  C:\Users\doug_000\AppData\Local\Temp\ccbaKQF3.s 			page 63


 539:TinyBasic.c   **** /* stops occur with stack overflow or underflow.                      */
 540:TinyBasic.c   ****       case 18:
 541:TinyBasic.c   ****         op = PopExBy();
 2965              		.loc 1 541 0
 2966 02c6 FFF7FEFF 		bl	PopExBy
 2967              	.LVL363:
 2968 02ca 0446     		mov	r4, r0
 2969              	.LVL364:
 542:TinyBasic.c   ****         if (ILPC != 0) PushExInt(Peek2(op));
 2970              		.loc 1 542 0
 2971 02cc 094B     		ldr	r3, .L396+8
 2972 02ce 1B68     		ldr	r3, [r3]
 2973 02d0 1BB1     		cbz	r3, .L309
 2974              		.loc 1 542 0 is_stmt 0 discriminator 1
 2975 02d2 FFF7FEFF 		bl	Peek2
 2976              	.LVL365:
 2977 02d6 FFF7FEFF 		bl	PushExInt
 2978              	.LVL366:
 2979              	.L309:
 543:TinyBasic.c   ****           if (Debugging>1) ShowVars(op);
 2980              		.loc 1 543 0 is_stmt 1
 2981 02da 044B     		ldr	r3, .L396
 2982 02dc 1B69     		ldr	r3, [r3, #16]
 2983 02de 012B     		cmp	r3, #1
 2984 02e0 7FF793AE 		ble	.L256
 2985              		.loc 1 543 0 is_stmt 0 discriminator 1
 2986 02e4 2046     		mov	r0, r4
 2987 02e6 FFF7FEFF 		bl	ShowVars
 2988              	.LVL367:
 2989 02ea 8EE6     		b	.L256
 2990              	.L397:
 2991              		.align	2
 2992              	.L396:
 2993 02ec 00000000 		.word	.LANCHOR0
 2994 02f0 B0000000 		.word	.LC24
 2995 02f4 00000000 		.word	ILPC
 2996 02f8 C4000000 		.word	.LC25
 2997 02fc 10000000 		.word	.LC3
 2998 0300 00000000 		.word	Watchee
 2999 0304 00000000 		.word	Core
 3000 0308 CC000000 		.word	.LC26
 3001 030c DC000000 		.word	.LC27
 3002 0310 E0000000 		.word	.LC28
 3003 0314 E8000000 		.word	.LC29
 3004 0318 28000000 		.word	.LC7
 3005 031c 00000000 		.word	ExpnTop
 3006 0320 00000000 		.word	BP
 3007 0324 00000000 		.word	SvPt
 3008              	.L281:
 544:TinyBasic.c   ****         break;
 545:TinyBasic.c   **** 
 546:TinyBasic.c   **** /* SV      13      Store Variable.                                    */
 547:TinyBasic.c   **** /*                 The top two bytes of the computational stack are   */
 548:TinyBasic.c   **** /* stored into memory at the Page 00 address specified by the third   */
 549:TinyBasic.c   **** /* byte on the stack. All three bytes are deleted from the stack.     */
 550:TinyBasic.c   **** /* Underflow results in an error stop.                                */
 551:TinyBasic.c   ****       case 19:
ARM GAS  C:\Users\doug_000\AppData\Local\Temp\ccbaKQF3.s 			page 64


 552:TinyBasic.c   ****         ix = PopExInt();
 3009              		.loc 1 552 0 is_stmt 1
 3010 0328 FFF7FEFF 		bl	PopExInt
 3011              	.LVL368:
 3012 032c 0446     		mov	r4, r0
 3013              	.LVL369:
 553:TinyBasic.c   ****         op = PopExBy();
 3014              		.loc 1 553 0
 3015 032e FFF7FEFF 		bl	PopExBy
 3016              	.LVL370:
 3017 0332 0546     		mov	r5, r0
 3018              	.LVL371:
 554:TinyBasic.c   ****         if (ILPC == 0) break;
 3019              		.loc 1 554 0
 3020 0334 AE4B     		ldr	r3, .L398
 3021 0336 1B68     		ldr	r3, [r3]
 3022 0338 002B     		cmp	r3, #0
 3023 033a 3FF466AE 		beq	.L256
 555:TinyBasic.c   ****         Poke2(op,ix);
 3024              		.loc 1 555 0
 3025 033e 2146     		mov	r1, r4
 3026 0340 FFF7FEFF 		bl	Poke2
 3027              	.LVL372:
 556:TinyBasic.c   ****           if (DEBUGON>0) LogIt((ix&0xFFFF)+((op-256)<<16));
 3028              		.loc 1 556 0
 3029 0344 A4B2     		uxth	r4, r4
 3030              	.LVL373:
 3031 0346 A5F58070 		sub	r0, r5, #256
 3032 034a 04EB0040 		add	r0, r4, r0, lsl #16
 3033 034e FFF7FEFF 		bl	LogIt
 3034              	.LVL374:
 557:TinyBasic.c   ****           if (Debugging>0) {ShowVars(op); if (Debugging>1) ShowExSt();}
 3035              		.loc 1 557 0
 3036 0352 A84B     		ldr	r3, .L398+4
 3037 0354 1B69     		ldr	r3, [r3, #16]
 3038 0356 002B     		cmp	r3, #0
 3039 0358 7FF757AE 		ble	.L256
 3040              		.loc 1 557 0 is_stmt 0 discriminator 1
 3041 035c 2846     		mov	r0, r5
 3042 035e FFF7FEFF 		bl	ShowVars
 3043              	.LVL375:
 3044 0362 A44B     		ldr	r3, .L398+4
 3045 0364 1B69     		ldr	r3, [r3, #16]
 3046 0366 012B     		cmp	r3, #1
 3047 0368 7FF74FAE 		ble	.L256
 3048              		.loc 1 557 0 discriminator 2
 3049 036c FFF7FEFF 		bl	ShowExSt
 3050              	.LVL376:
 3051 0370 4BE6     		b	.L256
 3052              	.LVL377:
 3053              	.L282:
 558:TinyBasic.c   ****         break;
 559:TinyBasic.c   **** 
 560:TinyBasic.c   **** /* GS      14      GOSUB Save.                                        */
 561:TinyBasic.c   **** /*                 The current BASIC line number is pushed            */
 562:TinyBasic.c   **** /* onto the BASIC region of the control stack. It is essential that   */
 563:TinyBasic.c   **** /* the IL stack be empty for this to work properly but no check is    */
ARM GAS  C:\Users\doug_000\AppData\Local\Temp\ccbaKQF3.s 			page 65


 564:TinyBasic.c   **** /* made for that condition. An error stop occurs on stack overflow.   */
 565:TinyBasic.c   ****       case 20:
 566:TinyBasic.c   ****         PushSub(Lino);                   /* push line # (possibly =0) */
 3054              		.loc 1 566 0 is_stmt 1
 3055 0372 A14B     		ldr	r3, .L398+8
 3056 0374 1868     		ldr	r0, [r3]
 3057 0376 FFF7FEFF 		bl	PushSub
 3058              	.LVL378:
 567:TinyBasic.c   ****         break;
 3059              		.loc 1 567 0
 3060 037a 46E6     		b	.L256
 3061              	.L283:
 568:TinyBasic.c   **** 
 569:TinyBasic.c   **** /* RS      15      Restore Saved Line.                                */
 570:TinyBasic.c   **** /*                 Pop the top two bytes off the BASIC region of the  */
 571:TinyBasic.c   **** /* control stack, making them the current line number. Set the BASIC  */
 572:TinyBasic.c   **** /* pointer at the beginning of that line. Note that this is the line  */
 573:TinyBasic.c   **** /* containing the GOSUB which caused the line number to be saved. As  */
 574:TinyBasic.c   **** /* with the GS opcode, it is essential that the IL region of the      */
 575:TinyBasic.c   **** /* control stack be empty. If the line number popped off the stack    */
 576:TinyBasic.c   **** /* does not correspond to a line in the BASIC program an error stop   */
 577:TinyBasic.c   **** /* occurs. An error stop also results from stack underflow.           */
 578:TinyBasic.c   ****       case 21:
 579:TinyBasic.c   ****         Lino = PopSub();         /* get line # (possibly =0) from pop */
 3062              		.loc 1 579 0
 3063 037c FFF7FEFF 		bl	PopSub
 3064              	.LVL379:
 3065 0380 9D4B     		ldr	r3, .L398+8
 3066 0382 1860     		str	r0, [r3]
 580:TinyBasic.c   ****         if (ILPC != 0) GoToLino() ;             /* stops run if error */
 3067              		.loc 1 580 0
 3068 0384 9A4B     		ldr	r3, .L398
 3069 0386 1B68     		ldr	r3, [r3]
 3070 0388 002B     		cmp	r3, #0
 3071 038a 3FF43EAE 		beq	.L256
 3072              		.loc 1 580 0 is_stmt 0 discriminator 1
 3073 038e FFF7FEFF 		bl	GoToLino
 3074              	.LVL380:
 3075 0392 3AE6     		b	.L256
 3076              	.L284:
 581:TinyBasic.c   ****         break;
 582:TinyBasic.c   **** 
 583:TinyBasic.c   **** /* GO      16      GOTO.                                              */
 584:TinyBasic.c   **** /*                 Make current the BASIC line whose line number is   */
 585:TinyBasic.c   **** /* equal to the value of the top two bytes in the expression stack.   */
 586:TinyBasic.c   **** /* That is, the top two bytes are popped off the computational stack, */
 587:TinyBasic.c   **** /* and the BASIC program is searched until a matching line number is  */
 588:TinyBasic.c   **** /* found. The BASIC pointer is then positioned at the beginning of    */
 589:TinyBasic.c   **** /* that line and the RUN mode flag is turned on. Stack underflow and  */
 590:TinyBasic.c   **** /* non-existent BASIC line result in error stops.                     */
 591:TinyBasic.c   ****       case 22:
 592:TinyBasic.c   ****         ILPC = XQhere;                /* the IL assumes an implied NX */
 3077              		.loc 1 592 0 is_stmt 1
 3078 0394 994B     		ldr	r3, .L398+12
 3079 0396 1868     		ldr	r0, [r3]
 3080 0398 954C     		ldr	r4, .L398
 3081              	.LVL381:
ARM GAS  C:\Users\doug_000\AppData\Local\Temp\ccbaKQF3.s 			page 66


 3082 039a 2060     		str	r0, [r4]
 593:TinyBasic.c   ****         if (DEBUGON>0) LogIt(-ILPC);
 3083              		.loc 1 593 0
 3084 039c 4042     		negs	r0, r0
 3085 039e FFF7FEFF 		bl	LogIt
 3086              	.LVL382:
 594:TinyBasic.c   ****         Lino = PopExInt();
 3087              		.loc 1 594 0
 3088 03a2 FFF7FEFF 		bl	PopExInt
 3089              	.LVL383:
 3090 03a6 944B     		ldr	r3, .L398+8
 3091 03a8 1860     		str	r0, [r3]
 595:TinyBasic.c   ****         if (ILPC != 0) GoToLino() ;             /* stops run if error */
 3092              		.loc 1 595 0
 3093 03aa 2368     		ldr	r3, [r4]
 3094 03ac 002B     		cmp	r3, #0
 3095 03ae 3FF42CAE 		beq	.L256
 3096              		.loc 1 595 0 is_stmt 0 discriminator 1
 3097 03b2 FFF7FEFF 		bl	GoToLino
 3098              	.LVL384:
 3099 03b6 28E6     		b	.L256
 3100              	.LVL385:
 3101              	.L285:
 596:TinyBasic.c   ****         break;
 597:TinyBasic.c   **** 
 598:TinyBasic.c   **** /* NE      17      Negate (two's complement).                         */
 599:TinyBasic.c   **** /*                 The number in the top two bytes of the expression  */
 600:TinyBasic.c   **** /* stack is replaced with its negative.                               */
 601:TinyBasic.c   ****       case 23:
 602:TinyBasic.c   ****         ix = PopExInt();
 3102              		.loc 1 602 0 is_stmt 1
 3103 03b8 FFF7FEFF 		bl	PopExInt
 3104              	.LVL386:
 603:TinyBasic.c   ****         if (ILPC != 0) PushExInt(-ix);
 3105              		.loc 1 603 0
 3106 03bc 8C4B     		ldr	r3, .L398
 3107 03be 1B68     		ldr	r3, [r3]
 3108 03c0 002B     		cmp	r3, #0
 3109 03c2 3FF422AE 		beq	.L256
 3110              		.loc 1 603 0 is_stmt 0 discriminator 1
 3111 03c6 4042     		negs	r0, r0
 3112              	.LVL387:
 3113 03c8 FFF7FEFF 		bl	PushExInt
 3114              	.LVL388:
 3115 03cc 1DE6     		b	.L256
 3116              	.L286:
 604:TinyBasic.c   ****         break;
 605:TinyBasic.c   **** 
 606:TinyBasic.c   **** /* AD      18      Add.                                               */
 607:TinyBasic.c   **** /*                 Add the two numbers represented by the top four    */
 608:TinyBasic.c   **** /* bytes of the expression stack, and replace them with the two-byte  */
 609:TinyBasic.c   **** /* sum. Stack underflow results in an error stop.                     */
 610:TinyBasic.c   ****       case 24:
 611:TinyBasic.c   ****         ix = PopExInt();
 3117              		.loc 1 611 0 is_stmt 1
 3118 03ce FFF7FEFF 		bl	PopExInt
 3119              	.LVL389:
ARM GAS  C:\Users\doug_000\AppData\Local\Temp\ccbaKQF3.s 			page 67


 3120 03d2 0446     		mov	r4, r0
 3121              	.LVL390:
 612:TinyBasic.c   ****         op = PopExInt();
 3122              		.loc 1 612 0
 3123 03d4 FFF7FEFF 		bl	PopExInt
 3124              	.LVL391:
 613:TinyBasic.c   ****         if (ILPC != 0) PushExInt(op+ix);
 3125              		.loc 1 613 0
 3126 03d8 854B     		ldr	r3, .L398
 3127 03da 1B68     		ldr	r3, [r3]
 3128 03dc 002B     		cmp	r3, #0
 3129 03de 3FF414AE 		beq	.L256
 3130              		.loc 1 613 0 is_stmt 0 discriminator 1
 3131 03e2 2044     		add	r0, r0, r4
 3132              	.LVL392:
 3133 03e4 FFF7FEFF 		bl	PushExInt
 3134              	.LVL393:
 3135 03e8 0FE6     		b	.L256
 3136              	.LVL394:
 3137              	.L287:
 614:TinyBasic.c   ****         break;
 615:TinyBasic.c   **** 
 616:TinyBasic.c   **** /* SU      19      Subtract.                                          */
 617:TinyBasic.c   **** /*                 Subtract the two-byte number on the top of the     */
 618:TinyBasic.c   **** /* expression stack from the next two bytes and replace the 4 bytes   */
 619:TinyBasic.c   **** /* with the two-byte difference.                                      */
 620:TinyBasic.c   ****       case 25:
 621:TinyBasic.c   ****         ix = PopExInt();
 3138              		.loc 1 621 0 is_stmt 1
 3139 03ea FFF7FEFF 		bl	PopExInt
 3140              	.LVL395:
 3141 03ee 0446     		mov	r4, r0
 3142              	.LVL396:
 622:TinyBasic.c   ****         op = PopExInt();
 3143              		.loc 1 622 0
 3144 03f0 FFF7FEFF 		bl	PopExInt
 3145              	.LVL397:
 623:TinyBasic.c   ****         if (ILPC != 0) PushExInt(op-ix);
 3146              		.loc 1 623 0
 3147 03f4 7E4B     		ldr	r3, .L398
 3148 03f6 1B68     		ldr	r3, [r3]
 3149 03f8 002B     		cmp	r3, #0
 3150 03fa 3FF406AE 		beq	.L256
 3151              		.loc 1 623 0 is_stmt 0 discriminator 1
 3152 03fe 001B     		subs	r0, r0, r4
 3153              	.LVL398:
 3154 0400 FFF7FEFF 		bl	PushExInt
 3155              	.LVL399:
 3156 0404 01E6     		b	.L256
 3157              	.LVL400:
 3158              	.L288:
 624:TinyBasic.c   ****         break;
 625:TinyBasic.c   **** 
 626:TinyBasic.c   **** /* MP      1A      Multiply.                                          */
 627:TinyBasic.c   **** /*                 Multiply the two numbers represented by the top 4  */
 628:TinyBasic.c   **** /* bytes of the computational stack, and replace them with the least  */
 629:TinyBasic.c   **** /* significant 16 bits of the product. Stack underflow is possible.   */
ARM GAS  C:\Users\doug_000\AppData\Local\Temp\ccbaKQF3.s 			page 68


 630:TinyBasic.c   ****       case 26:
 631:TinyBasic.c   ****         ix = PopExInt();
 3159              		.loc 1 631 0 is_stmt 1
 3160 0406 FFF7FEFF 		bl	PopExInt
 3161              	.LVL401:
 3162 040a 0446     		mov	r4, r0
 3163              	.LVL402:
 632:TinyBasic.c   ****         op = PopExInt();
 3164              		.loc 1 632 0
 3165 040c FFF7FEFF 		bl	PopExInt
 3166              	.LVL403:
 633:TinyBasic.c   ****         if (ILPC != 0) PushExInt(op*ix);
 3167              		.loc 1 633 0
 3168 0410 774B     		ldr	r3, .L398
 3169 0412 1B68     		ldr	r3, [r3]
 3170 0414 002B     		cmp	r3, #0
 3171 0416 3FF4F8AD 		beq	.L256
 3172              		.loc 1 633 0 is_stmt 0 discriminator 1
 3173 041a 04FB00F0 		mul	r0, r4, r0
 3174              	.LVL404:
 3175 041e FFF7FEFF 		bl	PushExInt
 3176              	.LVL405:
 3177 0422 F2E5     		b	.L256
 3178              	.LVL406:
 3179              	.L289:
 634:TinyBasic.c   ****         break;
 635:TinyBasic.c   **** 
 636:TinyBasic.c   **** /* DV      1B      Divide.                                            */
 637:TinyBasic.c   **** /*                 Divide the number represented by the top two bytes */
 638:TinyBasic.c   **** /* of the computational stack into that represented by the next two.  */
 639:TinyBasic.c   **** /* Replace the 4 bytes with the quotient and discard the remainder.   */
 640:TinyBasic.c   **** /* This is a signed (two's complement) integer divide, resulting in a */
 641:TinyBasic.c   **** /* signed integer quotient. Stack underflow or attempted division by  */
 642:TinyBasic.c   **** /* zero result in an error stop. */
 643:TinyBasic.c   ****       case 27:
 644:TinyBasic.c   ****         ix = PopExInt();
 3180              		.loc 1 644 0 is_stmt 1
 3181 0424 FFF7FEFF 		bl	PopExInt
 3182              	.LVL407:
 3183 0428 0446     		mov	r4, r0
 3184              	.LVL408:
 645:TinyBasic.c   ****         op = PopExInt();
 3185              		.loc 1 645 0
 3186 042a FFF7FEFF 		bl	PopExInt
 3187              	.LVL409:
 646:TinyBasic.c   ****         if (ix == 0) TBerror();                      /* divide by 0.. */
 3188              		.loc 1 646 0
 3189 042e 14B9     		cbnz	r4, .L310
 3190              		.loc 1 646 0 is_stmt 0 discriminator 1
 3191 0430 FFF7FEFF 		bl	TBerror
 3192              	.LVL410:
 3193 0434 E9E5     		b	.L256
 3194              	.LVL411:
 3195              	.L310:
 647:TinyBasic.c   ****         else if (ILPC != 0) PushExInt(op/ix);
 3196              		.loc 1 647 0 is_stmt 1
 3197 0436 6E4B     		ldr	r3, .L398
ARM GAS  C:\Users\doug_000\AppData\Local\Temp\ccbaKQF3.s 			page 69


 3198 0438 1B68     		ldr	r3, [r3]
 3199 043a 002B     		cmp	r3, #0
 3200 043c 3FF4E5AD 		beq	.L256
 3201              		.loc 1 647 0 is_stmt 0 discriminator 1
 3202 0440 90FBF4F0 		sdiv	r0, r0, r4
 3203              	.LVL412:
 3204 0444 FFF7FEFF 		bl	PushExInt
 3205              	.LVL413:
 3206 0448 DFE5     		b	.L256
 3207              	.LVL414:
 3208              	.L290:
 648:TinyBasic.c   ****         break;
 649:TinyBasic.c   **** 
 650:TinyBasic.c   **** /* CP      1C      Compare.                                           */
 651:TinyBasic.c   **** /*                 The number in the top two bytes of the expression  */
 652:TinyBasic.c   **** /* stack is compared to (subtracted from) the number in the 4th and   */
 653:TinyBasic.c   **** /* fifth bytes of the stack, and the result is determined to be       */
 654:TinyBasic.c   **** /* Greater, Equal, or Less. The low three bits of the third byte mask */
 655:TinyBasic.c   **** /* a conditional skip in the IL program to test these conditions; if  */
 656:TinyBasic.c   **** /* the result corresponds to a one bit, the next byte of the IL code  */
 657:TinyBasic.c   **** /* is skipped and not executed. The three bits correspond to the      */
 658:TinyBasic.c   **** /* conditions as follows:                                             */
 659:TinyBasic.c   **** /*         bit 0   Result is Less                                     */
 660:TinyBasic.c   **** /*         bit 1   Result is Equal                                    */
 661:TinyBasic.c   **** /*         bit 2   Result is Greater                                  */
 662:TinyBasic.c   **** /* Whether the skip is taken or not, all five bytes are deleted from  */
 663:TinyBasic.c   **** /* the stack. This is a signed (two's complement) comparison so that  */
 664:TinyBasic.c   **** /* any positive number is greater than any negative number. Multiple  */
 665:TinyBasic.c   **** /* conditions, such as greater-than-or-equal or unequal (i.e.greater- */
 666:TinyBasic.c   **** /* than-or-less-than), may be tested by forming the condition mask    */
 667:TinyBasic.c   **** /* byte of the sum of the respective bits. In particular, a mask byte */
 668:TinyBasic.c   **** /* of 7 will force an unconditional skip and a mask byte of 0 will    */
 669:TinyBasic.c   **** /* force no skip. The other 5 bits of the control byte are ignored.   */
 670:TinyBasic.c   **** /* Stack underflow results in an error stop.                          */
 671:TinyBasic.c   ****       case 28:
 672:TinyBasic.c   ****         ix = PopExInt();
 3209              		.loc 1 672 0 is_stmt 1
 3210 044a FFF7FEFF 		bl	PopExInt
 3211              	.LVL415:
 3212 044e 0446     		mov	r4, r0
 3213              	.LVL416:
 673:TinyBasic.c   ****         op = PopExBy();
 3214              		.loc 1 673 0
 3215 0450 FFF7FEFF 		bl	PopExBy
 3216              	.LVL417:
 3217 0454 0546     		mov	r5, r0
 3218              	.LVL418:
 674:TinyBasic.c   ****         ix = PopExInt()-ix;                         /* <0 or =0 or >0 */
 3219              		.loc 1 674 0
 3220 0456 FFF7FEFF 		bl	PopExInt
 3221              	.LVL419:
 3222 045a 001B     		subs	r0, r0, r4
 3223              	.LVL420:
 675:TinyBasic.c   ****         if (ILPC == 0) return;                         /* underflow.. */
 3224              		.loc 1 675 0
 3225 045c 644B     		ldr	r3, .L398
 3226 045e 1B68     		ldr	r3, [r3]
ARM GAS  C:\Users\doug_000\AppData\Local\Temp\ccbaKQF3.s 			page 70


 3227 0460 002B     		cmp	r3, #0
 3228 0462 00F0E783 		beq	.L255
 676:TinyBasic.c   ****         if (ix<0) ix = 1;
 3229              		.loc 1 676 0
 3230 0466 0028     		cmp	r0, #0
 3231 0468 02DB     		blt	.L387
 677:TinyBasic.c   ****         else if (ix>0) ix = 4;              /* choose the bit to test */
 3232              		.loc 1 677 0
 3233 046a 03DD     		ble	.L388
 3234 046c 0422     		movs	r2, #4
 3235 046e 02E0     		b	.L311
 3236              	.L387:
 676:TinyBasic.c   ****         if (ix<0) ix = 1;
 3237              		.loc 1 676 0
 3238 0470 0122     		movs	r2, #1
 3239 0472 00E0     		b	.L311
 3240              	.L388:
 678:TinyBasic.c   ****           else ix = 2;
 3241              		.loc 1 678 0
 3242 0474 0222     		movs	r2, #2
 3243              	.L311:
 3244              	.LVL421:
 679:TinyBasic.c   ****         if ((ix&op)>0) ILPC++;           /* skip next IL op if bit =1 */
 3245              		.loc 1 679 0
 3246 0476 2A42     		tst	r2, r5
 3247 0478 02D0     		beq	.L312
 3248              		.loc 1 679 0 is_stmt 0 discriminator 1
 3249 047a 0133     		adds	r3, r3, #1
 3250 047c 5C4A     		ldr	r2, .L398
 3251              	.LVL422:
 3252 047e 1360     		str	r3, [r2]
 3253              	.L312:
 680:TinyBasic.c   ****           if (Debugging>0) ShowExSt();
 3254              		.loc 1 680 0 is_stmt 1
 3255 0480 5C4B     		ldr	r3, .L398+4
 3256 0482 1B69     		ldr	r3, [r3, #16]
 3257 0484 002B     		cmp	r3, #0
 3258 0486 7FF7C0AD 		ble	.L256
 3259              		.loc 1 680 0 is_stmt 0 discriminator 1
 3260 048a FFF7FEFF 		bl	ShowExSt
 3261              	.LVL423:
 3262 048e BCE5     		b	.L256
 3263              	.LVL424:
 3264              	.L291:
 681:TinyBasic.c   ****         break;
 682:TinyBasic.c   **** 
 683:TinyBasic.c   **** /* NX      1D      Next BASIC Statement.                              */
 684:TinyBasic.c   **** /*                 Advance to next line in the BASIC program, if in   */
 685:TinyBasic.c   **** /* RUN mode, or restart the IL program if in the command mode. The    */
 686:TinyBasic.c   **** /* remainder of the current line is ignored. In the Run mode if there */
 687:TinyBasic.c   **** /* is another line it becomes current with the pointer positioned at  */
 688:TinyBasic.c   **** /* its beginning. At this time, if the Break condition returns true,  */
 689:TinyBasic.c   **** /* execution is aborted and the IL program is restarted after         */
 690:TinyBasic.c   **** /* printing an error message. Otherwise IL execution proceeds from    */
 691:TinyBasic.c   **** /* the saved IL address (see the XQ instruction). If there are no     */
 692:TinyBasic.c   **** /* more BASIC statements in the program an error stop occurs.         */
 693:TinyBasic.c   ****       case 29:
ARM GAS  C:\Users\doug_000\AppData\Local\Temp\ccbaKQF3.s 			page 71


 694:TinyBasic.c   ****         if (Lino == 0) ILPC = 0;
 3265              		.loc 1 694 0 is_stmt 1
 3266 0490 594B     		ldr	r3, .L398+8
 3267 0492 1B68     		ldr	r3, [r3]
 3268 0494 1BB9     		cbnz	r3, .L313
 3269              		.loc 1 694 0 is_stmt 0 discriminator 1
 3270 0496 0022     		movs	r2, #0
 3271 0498 554B     		ldr	r3, .L398
 3272 049a 1A60     		str	r2, [r3]
 3273 049c 18E0     		b	.L314
 3274              	.L313:
 695:TinyBasic.c   ****         else {
 696:TinyBasic.c   ****           BP = SkipTo(BP, '\r');          /* skip to end of this line */
 3275              		.loc 1 696 0 is_stmt 1
 3276 049e 584D     		ldr	r5, .L398+16
 3277 04a0 2868     		ldr	r0, [r5]
 3278 04a2 0D21     		movs	r1, #13
 3279 04a4 FFF7FEFF 		bl	SkipTo
 3280              	.LVL425:
 697:TinyBasic.c   ****           Lino = Peek2(BP++);                           /* get line # */
 3281              		.loc 1 697 0
 3282 04a8 441C     		adds	r4, r0, #1
 3283              	.LVL426:
 3284 04aa 2C60     		str	r4, [r5]
 3285 04ac FFF7FEFF 		bl	Peek2
 3286              	.LVL427:
 3287 04b0 514B     		ldr	r3, .L398+8
 3288 04b2 1860     		str	r0, [r3]
 698:TinyBasic.c   ****           if (Lino==0) {                           /* ran off the end */
 3289              		.loc 1 698 0
 3290 04b4 10B9     		cbnz	r0, .L315
 699:TinyBasic.c   ****             TBerror();
 3291              		.loc 1 699 0
 3292 04b6 FFF7FEFF 		bl	TBerror
 3293              	.LVL428:
 700:TinyBasic.c   ****             break;}
 3294              		.loc 1 700 0
 3295 04ba A6E5     		b	.L256
 3296              	.L315:
 701:TinyBasic.c   ****           else BP++;
 3297              		.loc 1 701 0
 3298 04bc 0134     		adds	r4, r4, #1
 3299 04be 504B     		ldr	r3, .L398+16
 3300 04c0 1C60     		str	r4, [r3]
 702:TinyBasic.c   ****           ILPC = XQhere;          /* restart at saved IL address (XQ) */
 3301              		.loc 1 702 0
 3302 04c2 4E4B     		ldr	r3, .L398+12
 3303 04c4 1868     		ldr	r0, [r3]
 3304 04c6 4A4B     		ldr	r3, .L398
 3305 04c8 1860     		str	r0, [r3]
 703:TinyBasic.c   ****           if (DEBUGON>0) LogIt(-ILPC);}
 3306              		.loc 1 703 0
 3307 04ca 4042     		negs	r0, r0
 3308 04cc FFF7FEFF 		bl	LogIt
 3309              	.LVL429:
 3310              	.L314:
 704:TinyBasic.c   ****         if (DEBUGON>0) LogIt(Lino);
ARM GAS  C:\Users\doug_000\AppData\Local\Temp\ccbaKQF3.s 			page 72


 3311              		.loc 1 704 0 discriminator 1
 3312 04d0 494B     		ldr	r3, .L398+8
 3313 04d2 1868     		ldr	r0, [r3]
 3314 04d4 FFF7FEFF 		bl	LogIt
 3315              	.LVL430:
 705:TinyBasic.c   ****         if (Debugging>0) {OutStr(" [#"); OutInt(Lino); OutStr("]");}
 3316              		.loc 1 705 0 discriminator 1
 3317 04d8 464B     		ldr	r3, .L398+4
 3318 04da 1B69     		ldr	r3, [r3, #16]
 3319 04dc 002B     		cmp	r3, #0
 3320 04de 7FF794AD 		ble	.L256
 3321 04e2 4848     		ldr	r0, .L398+20
 3322 04e4 FFF7FEFF 		bl	OutStr
 3323              	.LVL431:
 3324 04e8 434B     		ldr	r3, .L398+8
 3325 04ea 1868     		ldr	r0, [r3]
 3326 04ec FFF7FEFF 		bl	OutInt
 3327              	.LVL432:
 3328 04f0 4548     		ldr	r0, .L398+24
 3329 04f2 FFF7FEFF 		bl	OutStr
 3330              	.LVL433:
 3331 04f6 88E5     		b	.L256
 3332              	.LVL434:
 3333              	.L316:
 706:TinyBasic.c   ****         break;
 707:TinyBasic.c   **** 
 708:TinyBasic.c   **** /* LS      1F      List The Program.                                  */
 709:TinyBasic.c   **** /*                 The expression stack is assumed to have two 2-byte */
 710:TinyBasic.c   **** /* numbers. The top number is the line number of the last line to be  */
 711:TinyBasic.c   **** /* listed, and the next is the line number of the first line to be    */
 712:TinyBasic.c   **** /* listed. If the specified line numbers do not exist in the program, */
 713:TinyBasic.c   **** /* the next available line (i.e. with the next higher line number) is */
 714:TinyBasic.c   **** /* assumed instead in each case. If the last line to be listed comes  */
 715:TinyBasic.c   **** /* before the first, no lines are listed. If Break condition comes    */
 716:TinyBasic.c   **** /* true during a List operation, the remainder of the listing is      */
 717:TinyBasic.c   **** /* aborted. Zero is not a valid line number, and an error stop occurs */
 718:TinyBasic.c   **** /* if either line number specification is zero. The line number       */
 719:TinyBasic.c   **** /* specifications are deleted from the stack.                         */
 720:TinyBasic.c   ****       case 31:
 721:TinyBasic.c   ****         op = 0;
 722:TinyBasic.c   ****         ix = 0;          /* The IL seems to assume we can handle zero */
 723:TinyBasic.c   ****         while (ExpnTop<ExpnStk) {   /* or more numbers, so get them.. */
 724:TinyBasic.c   ****           op = ix;
 725:TinyBasic.c   ****           ix = PopExInt();}       /* get final line #, then initial.. */
 3334              		.loc 1 725 0
 3335 04f8 FFF7FEFF 		bl	PopExInt
 3336              	.LVL435:
 724:TinyBasic.c   ****           ix = PopExInt();}       /* get final line #, then initial.. */
 3337              		.loc 1 724 0
 3338 04fc 2146     		mov	r1, r4
 3339              		.loc 1 725 0
 3340 04fe 0446     		mov	r4, r0
 3341              	.LVL436:
 3342 0500 01E0     		b	.L292
 3343              	.LVL437:
 3344              	.L386:
 465:TinyBasic.c   ****       case 15:
ARM GAS  C:\Users\doug_000\AppData\Local\Temp\ccbaKQF3.s 			page 73


 3345              		.loc 1 465 0
 3346 0502 0024     		movs	r4, #0
 3347              	.LVL438:
 3348 0504 2146     		mov	r1, r4
 3349              	.LVL439:
 3350              	.L292:
 723:TinyBasic.c   ****           op = ix;
 3351              		.loc 1 723 0
 3352 0506 414B     		ldr	r3, .L398+28
 3353 0508 1B68     		ldr	r3, [r3]
 3354 050a 7F2B     		cmp	r3, #127
 3355 050c F4DD     		ble	.L316
 726:TinyBasic.c   ****         if (op<0 || ix<0) TBerror();
 3356              		.loc 1 726 0
 3357 050e 0029     		cmp	r1, #0
 3358 0510 01DB     		blt	.L317
 3359              		.loc 1 726 0 is_stmt 0 discriminator 2
 3360 0512 002C     		cmp	r4, #0
 3361 0514 02DA     		bge	.L318
 3362              	.L317:
 3363              		.loc 1 726 0 discriminator 3
 3364 0516 FFF7FEFF 		bl	TBerror
 3365              	.LVL440:
 3366 051a 76E5     		b	.L256
 3367              	.LVL441:
 3368              	.L318:
 727:TinyBasic.c   ****           else ListIt(ix,op);
 3369              		.loc 1 727 0 is_stmt 1
 3370 051c 2046     		mov	r0, r4
 3371 051e FFF7FEFF 		bl	ListIt
 3372              	.LVL442:
 3373 0522 72E5     		b	.L256
 3374              	.LVL443:
 3375              	.L293:
 728:TinyBasic.c   ****         break;
 729:TinyBasic.c   **** 
 730:TinyBasic.c   **** /* PN      20      Print Number.                                      */
 731:TinyBasic.c   **** /*                 The number represented by the top two bytes of the */
 732:TinyBasic.c   **** /* expression stack is printed in decimal with leading zero           */
 733:TinyBasic.c   **** /* suppression. If it is negative, it is preceded by a minus sign     */
 734:TinyBasic.c   **** /* and the magnitude is printed. Stack underflow is possible.         */
 735:TinyBasic.c   ****       case 32:
 736:TinyBasic.c   ****         ix = PopExInt();
 3376              		.loc 1 736 0
 3377 0524 FFF7FEFF 		bl	PopExInt
 3378              	.LVL444:
 737:TinyBasic.c   ****         if (ILPC != 0) OutInt(ix);
 3379              		.loc 1 737 0
 3380 0528 314B     		ldr	r3, .L398
 3381 052a 1B68     		ldr	r3, [r3]
 3382 052c 002B     		cmp	r3, #0
 3383 052e 3FF46CAD 		beq	.L256
 3384              		.loc 1 737 0 is_stmt 0 discriminator 1
 3385 0532 FFF7FEFF 		bl	OutInt
 3386              	.LVL445:
 3387 0536 68E5     		b	.L256
 3388              	.L294:
ARM GAS  C:\Users\doug_000\AppData\Local\Temp\ccbaKQF3.s 			page 74


 738:TinyBasic.c   ****         break;
 739:TinyBasic.c   **** 
 740:TinyBasic.c   **** /* PQ      21      Print BASIC String.                                */
 741:TinyBasic.c   **** /*                 The ASCII characters beginning with the current    */
 742:TinyBasic.c   **** /* position of BASIC pointer are printed on the console. The string   */
 743:TinyBasic.c   **** /* to be printed is terminated by quotation mark ("), and the BASIC   */
 744:TinyBasic.c   **** /* pointer is left at the character following the terminal quote. An  */
 745:TinyBasic.c   **** /* error stop occurs if a carriage return is imbedded in the string.  */
 746:TinyBasic.c   ****       case 33:
 747:TinyBasic.c   ****         while (true) {
 748:TinyBasic.c   ****           ch = (char)Core[BP++];
 3389              		.loc 1 748 0 is_stmt 1
 3390 0538 314A     		ldr	r2, .L398+16
 3391 053a 1368     		ldr	r3, [r2]
 3392 053c 591C     		adds	r1, r3, #1
 3393 053e 1160     		str	r1, [r2]
 3394 0540 334A     		ldr	r2, .L398+32
 3395 0542 D05C     		ldrb	r0, [r2, r3]	@ zero_extendqisi2
 3396              	.LVL446:
 749:TinyBasic.c   ****           if (ch=='\"') break;                 /* done on final quote */
 3397              		.loc 1 749 0
 3398 0544 2228     		cmp	r0, #34
 3399 0546 3FF460AD 		beq	.L256
 750:TinyBasic.c   ****           if (ch<' ') {      /* error if return or other control char */
 3400              		.loc 1 750 0
 3401 054a 1F28     		cmp	r0, #31
 3402 054c 02D8     		bhi	.L319
 751:TinyBasic.c   ****             TBerror();
 3403              		.loc 1 751 0
 3404 054e FFF7FEFF 		bl	TBerror
 3405              	.LVL447:
 752:TinyBasic.c   ****             break;}
 3406              		.loc 1 752 0
 3407 0552 5AE5     		b	.L256
 3408              	.LVL448:
 3409              	.L319:
 753:TinyBasic.c   ****           Ouch(ch);}                                      /* print it */
 3410              		.loc 1 753 0
 3411 0554 FFF7FEFF 		bl	Ouch
 3412              	.LVL449:
 3413 0558 EEE7     		b	.L294
 3414              	.L295:
 754:TinyBasic.c   ****         break;
 755:TinyBasic.c   **** 
 756:TinyBasic.c   **** /* PT      22      Print Tab.                                         */
 757:TinyBasic.c   **** /*                 Print one or more spaces on the console, ending at */
 758:TinyBasic.c   **** /* the next multiple of eight character positions (from the left      */
 759:TinyBasic.c   **** /* margin).                                                           */
 760:TinyBasic.c   ****       case 34:
 761:TinyBasic.c   ****         do {Ouch(' ');} while (Core[TabHere]%8>0);
 3415              		.loc 1 761 0 discriminator 1
 3416 055a 2020     		movs	r0, #32
 3417 055c FFF7FEFF 		bl	Ouch
 3418              	.LVL450:
 3419 0560 2B4B     		ldr	r3, .L398+32
 3420 0562 93F8BF30 		ldrb	r3, [r3, #191]	@ zero_extendqisi2
 3421 0566 13F0070F 		tst	r3, #7
ARM GAS  C:\Users\doug_000\AppData\Local\Temp\ccbaKQF3.s 			page 75


 3422 056a F6D1     		bne	.L295
 3423 056c 4DE5     		b	.L256
 3424              	.L296:
 762:TinyBasic.c   ****         break;
 763:TinyBasic.c   **** 
 764:TinyBasic.c   **** /* NL      23      New Line.                                          */
 765:TinyBasic.c   **** /*                 Output a carriage-return-linefeed sequence to the  */
 766:TinyBasic.c   **** /* console.                                                           */
 767:TinyBasic.c   ****       case 35:
 768:TinyBasic.c   ****         Ouch('\r');
 3425              		.loc 1 768 0
 3426 056e 0D20     		movs	r0, #13
 3427 0570 FFF7FEFF 		bl	Ouch
 3428              	.LVL451:
 769:TinyBasic.c   ****         break;
 3429              		.loc 1 769 0
 3430 0574 49E5     		b	.L256
 3431              	.LVL452:
 3432              	.L297:
 770:TinyBasic.c   **** 
 771:TinyBasic.c   **** /* PC "xxxx"  24xxxxxxXx   Print Literal String.                      */
 772:TinyBasic.c   **** /*                         The ASCII string follows opcode and its    */
 773:TinyBasic.c   **** /* last byte has the most significant bit set to one.                 */
 774:TinyBasic.c   ****       case 36:
 775:TinyBasic.c   ****         do {
 776:TinyBasic.c   ****           ix = (int)Core[ILPC++];
 3433              		.loc 1 776 0 discriminator 1
 3434 0576 1E4A     		ldr	r2, .L398
 3435 0578 1368     		ldr	r3, [r2]
 3436 057a 591C     		adds	r1, r3, #1
 3437 057c 1160     		str	r1, [r2]
 3438 057e 244A     		ldr	r2, .L398+32
 3439 0580 D45C     		ldrb	r4, [r2, r3]	@ zero_extendqisi2
 3440              	.LVL453:
 777:TinyBasic.c   ****           Ouch((char)(ix&127));          /* strip high bit for output */
 3441              		.loc 1 777 0 discriminator 1
 3442 0582 04F07F00 		and	r0, r4, #127
 3443 0586 FFF7FEFF 		bl	Ouch
 3444              	.LVL454:
 778:TinyBasic.c   ****           } while ((ix&128)==0);
 3445              		.loc 1 778 0 discriminator 1
 3446 058a 14F0800F 		tst	r4, #128
 3447 058e F2D0     		beq	.L297
 3448 0590 3BE5     		b	.L256
 3449              	.LVL455:
 3450              	.L298:
 779:TinyBasic.c   ****         break;
 780:TinyBasic.c   **** 
 781:TinyBasic.c   **** /* GL      27      Get Input Line.                                    */
 782:TinyBasic.c   **** /*                 ASCII characters are accepted from console input   */
 783:TinyBasic.c   **** /* to fill the line buffer. If the line length exceeds the available  */
 784:TinyBasic.c   **** /* space, the excess characters are ignored and bell characters are   */
 785:TinyBasic.c   **** /* output. The line is terminated by a carriage return. On completing */
 786:TinyBasic.c   **** /* one line of input, the BASIC pointer is set to point to the first  */
 787:TinyBasic.c   **** /* character in the input line buffer, and a carriage-return-linefeed */
 788:TinyBasic.c   **** /* sequence is [not] output.                                          */
 789:TinyBasic.c   ****       case 39:
ARM GAS  C:\Users\doug_000\AppData\Local\Temp\ccbaKQF3.s 			page 76


 790:TinyBasic.c   ****         InLend = InLine;
 3451              		.loc 1 790 0
 3452 0592 3022     		movs	r2, #48
 3453 0594 1F4B     		ldr	r3, .L398+36
 3454 0596 1A60     		str	r2, [r3]
 3455              	.L320:
 791:TinyBasic.c   ****         while (true) {               /* read input line characters... */
 792:TinyBasic.c   ****           ch = Inch();
 3456              		.loc 1 792 0
 3457 0598 FFF7FEFF 		bl	Inch
 3458              	.LVL456:
 793:TinyBasic.c   ****           if (ch=='\r') break;                     /* end of the line */
 3459              		.loc 1 793 0
 3460 059c 0D28     		cmp	r0, #13
 3461 059e 4ED0     		beq	.L327
 794:TinyBasic.c   ****           else if (ch=='\t') {
 3462              		.loc 1 794 0
 3463 05a0 0928     		cmp	r0, #9
 3464 05a2 07D1     		bne	.L322
 795:TinyBasic.c   ****             Debugging = (Debugging+DEBUGON)&1;  /* maybe toggle debug */
 3465              		.loc 1 795 0
 3466 05a4 134A     		ldr	r2, .L398+4
 3467 05a6 1369     		ldr	r3, [r2, #16]
 3468 05a8 0133     		adds	r3, r3, #1
 3469 05aa 03F00103 		and	r3, r3, #1
 3470 05ae 1361     		str	r3, [r2, #16]
 3471              	.LVL457:
 796:TinyBasic.c   ****             ch = ' ';}                       /* convert tabs to space */
 3472              		.loc 1 796 0
 3473 05b0 2020     		movs	r0, #32
 3474 05b2 35E0     		b	.L323
 3475              	.LVL458:
 3476              	.L322:
 797:TinyBasic.c   ****           else if (ch==(char)Core[BScode]) {        /* backspace code */
 3477              		.loc 1 797 0
 3478 05b4 164B     		ldr	r3, .L398+32
 3479 05b6 93F80F31 		ldrb	r3, [r3, #271]	@ zero_extendqisi2
 3480 05ba 8342     		cmp	r3, r0
 3481 05bc 0BD1     		bne	.L324
 798:TinyBasic.c   ****             if (InLend>InLine) InLend--;    /* assume console already */
 3482              		.loc 1 798 0
 3483 05be 154B     		ldr	r3, .L398+36
 3484 05c0 1B68     		ldr	r3, [r3]
 3485 05c2 302B     		cmp	r3, #48
 3486 05c4 03DD     		ble	.L325
 3487              		.loc 1 798 0 is_stmt 0 discriminator 1
 3488 05c6 013B     		subs	r3, r3, #1
 3489 05c8 124A     		ldr	r2, .L398+36
 3490 05ca 1360     		str	r3, [r2]
 3491 05cc 28E0     		b	.L323
 3492              	.L325:
 799:TinyBasic.c   ****             else {   /* backing up over front of line: just kill it.. */
 800:TinyBasic.c   ****               Ouch('\r');
 3493              		.loc 1 800 0 is_stmt 1
 3494 05ce 0D20     		movs	r0, #13
 3495              	.LVL459:
 3496 05d0 FFF7FEFF 		bl	Ouch
ARM GAS  C:\Users\doug_000\AppData\Local\Temp\ccbaKQF3.s 			page 77


 3497              	.LVL460:
 801:TinyBasic.c   ****               break;}}
 3498              		.loc 1 801 0
 3499 05d4 33E0     		b	.L327
 3500              	.LVL461:
 3501              	.L324:
 802:TinyBasic.c   ****           else if (ch==(char)Core[CanCode]) {     /* cancel this line */
 3502              		.loc 1 802 0
 3503 05d6 0E4B     		ldr	r3, .L398+32
 3504 05d8 93F81031 		ldrb	r3, [r3, #272]	@ zero_extendqisi2
 3505 05dc 8342     		cmp	r3, r0
 3506 05de 1BD1     		bne	.L326
 803:TinyBasic.c   ****             InLend = InLine;
 3507              		.loc 1 803 0
 3508 05e0 3022     		movs	r2, #48
 3509 05e2 0C4B     		ldr	r3, .L398+36
 3510 05e4 1A60     		str	r2, [r3]
 804:TinyBasic.c   ****             Ouch('\r');                /* also start a new input line */
 3511              		.loc 1 804 0
 3512 05e6 0D20     		movs	r0, #13
 3513              	.LVL462:
 3514 05e8 FFF7FEFF 		bl	Ouch
 3515              	.LVL463:
 805:TinyBasic.c   ****             break;}
 3516              		.loc 1 805 0
 3517 05ec 27E0     		b	.L327
 3518              	.L399:
 3519 05ee 00BF     		.align	2
 3520              	.L398:
 3521 05f0 00000000 		.word	ILPC
 3522 05f4 00000000 		.word	.LANCHOR0
 3523 05f8 00000000 		.word	Lino
 3524 05fc 00000000 		.word	XQhere
 3525 0600 00000000 		.word	BP
 3526 0604 AC000000 		.word	.LC23
 3527 0608 10000000 		.word	.LC3
 3528 060c 00000000 		.word	ExpnTop
 3529 0610 00000000 		.word	Core
 3530 0614 00000000 		.word	InLend
 3531              	.LVL464:
 3532              	.L326:
 806:TinyBasic.c   ****           else if (ch<' ') continue;   /* ignore non-ASCII & controls */
 3533              		.loc 1 806 0
 3534 0618 1F28     		cmp	r0, #31
 3535 061a BDD9     		bls	.L320
 807:TinyBasic.c   ****           else if (ch>'~') continue;
 3536              		.loc 1 807 0
 3537 061c 7E28     		cmp	r0, #126
 3538 061e BBD8     		bhi	.L320
 3539              	.LVL465:
 3540              	.L323:
 808:TinyBasic.c   ****           if (InLend>ExpnTop-2) continue;    /* discard overrun chars */
 3541              		.loc 1 808 0
 3542 0620 9C4B     		ldr	r3, .L400
 3543 0622 1B68     		ldr	r3, [r3]
 3544 0624 023B     		subs	r3, r3, #2
 3545 0626 9C4A     		ldr	r2, .L400+4
ARM GAS  C:\Users\doug_000\AppData\Local\Temp\ccbaKQF3.s 			page 78


 3546 0628 1268     		ldr	r2, [r2]
 3547 062a 9342     		cmp	r3, r2
 3548 062c B4DB     		blt	.L320
 809:TinyBasic.c   ****           Core[InLend++] = (aByte)ch;}  /* insert this char in buffer */
 3549              		.loc 1 809 0
 3550 062e 511C     		adds	r1, r2, #1
 3551 0630 994B     		ldr	r3, .L400+4
 3552 0632 1960     		str	r1, [r3]
 3553 0634 994B     		ldr	r3, .L400+8
 3554 0636 9854     		strb	r0, [r3, r2]
 3555 0638 AEE7     		b	.L320
 3556              	.LVL466:
 3557              	.L330:
 810:TinyBasic.c   ****         while (InLend>InLine && Core[InLend-1] == ' ')
 811:TinyBasic.c   ****           InLend--;                  /* delete excess trailing spaces */
 3558              		.loc 1 811 0
 3559 063a 974B     		ldr	r3, .L400+4
 3560 063c 1A60     		str	r2, [r3]
 3561              	.L327:
 810:TinyBasic.c   ****         while (InLend>InLine && Core[InLend-1] == ' ')
 3562              		.loc 1 810 0
 3563 063e 964B     		ldr	r3, .L400+4
 3564 0640 1B68     		ldr	r3, [r3]
 3565 0642 302B     		cmp	r3, #48
 3566 0644 04DD     		ble	.L329
 810:TinyBasic.c   ****         while (InLend>InLine && Core[InLend-1] == ' ')
 3567              		.loc 1 810 0 is_stmt 0 discriminator 1
 3568 0646 5A1E     		subs	r2, r3, #1
 3569 0648 9449     		ldr	r1, .L400+8
 3570 064a 895C     		ldrb	r1, [r1, r2]	@ zero_extendqisi2
 3571 064c 2029     		cmp	r1, #32
 3572 064e F4D0     		beq	.L330
 3573              	.L329:
 812:TinyBasic.c   ****         Core[InLend++] = (aByte) '\r';  /* insert final return & null */
 3574              		.loc 1 812 0 is_stmt 1
 3575 0650 5A1C     		adds	r2, r3, #1
 3576 0652 9149     		ldr	r1, .L400+4
 3577 0654 0A60     		str	r2, [r1]
 3578 0656 9149     		ldr	r1, .L400+8
 3579 0658 0D20     		movs	r0, #13
 3580 065a C854     		strb	r0, [r1, r3]
 813:TinyBasic.c   ****         Core[InLend] = 0;
 3581              		.loc 1 813 0
 3582 065c 0023     		movs	r3, #0
 3583 065e 8B54     		strb	r3, [r1, r2]
 814:TinyBasic.c   ****         BP = InLine;
 3584              		.loc 1 814 0
 3585 0660 3022     		movs	r2, #48
 3586 0662 8F4B     		ldr	r3, .L400+12
 3587 0664 1A60     		str	r2, [r3]
 815:TinyBasic.c   ****         break;
 3588              		.loc 1 815 0
 3589 0666 D0E4     		b	.L256
 3590              	.L299:
 816:TinyBasic.c   **** 
 817:TinyBasic.c   **** /* IL      2A      Insert BASIC Line.                                 */
 818:TinyBasic.c   **** /*                 Beginning with the current position of the BASIC   */
ARM GAS  C:\Users\doug_000\AppData\Local\Temp\ccbaKQF3.s 			page 79


 819:TinyBasic.c   **** /* pointer and continuing to the [end of it], the line is inserted    */
 820:TinyBasic.c   **** /* into the BASIC program space; for a line number, the top two bytes */
 821:TinyBasic.c   **** /* of the expression stack are used. If this number matches a line    */
 822:TinyBasic.c   **** /* already in the program it is deleted and the new one replaces it.  */
 823:TinyBasic.c   **** /* If the new line consists of only a carriage return, it is not      */
 824:TinyBasic.c   **** /* inserted, though any previous line with the same number will have  */
 825:TinyBasic.c   **** /* been deleted. The lines are maintained in the program space sorted */
 826:TinyBasic.c   **** /* by line number. If the new line to be inserted is a different size */
 827:TinyBasic.c   **** /* than the old line being replaced, the remainder of the program is  */
 828:TinyBasic.c   **** /* shifted over to make room or to close up the gap as necessary. If  */
 829:TinyBasic.c   **** /* there is insufficient memory to fit in the new line, the program   */
 830:TinyBasic.c   **** /* space is unchanged and an error stop occurs (with the IL address   */
 831:TinyBasic.c   **** /* decremented). A normal error stop occurs on expression stack       */
 832:TinyBasic.c   **** /* underflow or if the number is zero, which is not a valid line      */
 833:TinyBasic.c   **** /* number. After completing the insertion, the IL program is          */
 834:TinyBasic.c   **** /* restarted in the command mode.                                     */
 835:TinyBasic.c   ****       case 42:
 836:TinyBasic.c   ****         Lino = PopExInt();                              /* get line # */
 3591              		.loc 1 836 0
 3592 0668 FFF7FEFF 		bl	PopExInt
 3593              	.LVL467:
 3594 066c 0646     		mov	r6, r0
 3595 066e 8D4B     		ldr	r3, .L400+16
 3596 0670 1860     		str	r0, [r3]
 837:TinyBasic.c   ****         if (Lino <= 0) {          /* don't insert line #0 or negative */
 3597              		.loc 1 837 0
 3598 0672 0028     		cmp	r0, #0
 3599 0674 0ADC     		bgt	.L331
 838:TinyBasic.c   ****           if (ILPC != 0) TBerror();
 3600              		.loc 1 838 0
 3601 0676 8C4B     		ldr	r3, .L400+20
 3602 0678 1B68     		ldr	r3, [r3]
 3603 067a 002B     		cmp	r3, #0
 3604 067c 00F0DA82 		beq	.L255
 3605              		.loc 1 838 0 is_stmt 0 discriminator 1
 3606 0680 FFF7FEFF 		bl	TBerror
 3607              	.LVL468:
 839:TinyBasic.c   ****             else return;
 840:TinyBasic.c   ****           break;}
 3608              		.loc 1 840 0 is_stmt 1 discriminator 1
 3609 0684 C1E4     		b	.L256
 3610              	.L332:
 841:TinyBasic.c   ****         while (((char)Core[BP]) == ' ') BP++;  /* skip leading spaces */
 3611              		.loc 1 841 0 discriminator 2
 3612 0686 0133     		adds	r3, r3, #1
 3613 0688 854A     		ldr	r2, .L400+12
 3614 068a 1360     		str	r3, [r2]
 3615              	.L331:
 3616              		.loc 1 841 0 is_stmt 0 discriminator 1
 3617 068c 844B     		ldr	r3, .L400+12
 3618 068e 1B68     		ldr	r3, [r3]
 3619 0690 824A     		ldr	r2, .L400+8
 3620 0692 D25C     		ldrb	r2, [r2, r3]	@ zero_extendqisi2
 3621 0694 202A     		cmp	r2, #32
 3622 0696 F6D0     		beq	.L332
 842:TinyBasic.c   ****         if (((char)Core[BP]) == '\r') ix = 0;       /* nothing to add */
 3623              		.loc 1 842 0 is_stmt 1
ARM GAS  C:\Users\doug_000\AppData\Local\Temp\ccbaKQF3.s 			page 80


 3624 0698 0D2A     		cmp	r2, #13
 3625 069a 04D0     		beq	.L389
 843:TinyBasic.c   ****           else ix = InLend-BP+2;         /* the size of the insertion */
 3626              		.loc 1 843 0
 3627 069c 7E4A     		ldr	r2, .L400+4
 3628 069e 1468     		ldr	r4, [r2]
 3629              	.LVL469:
 3630 06a0 E31A     		subs	r3, r4, r3
 3631 06a2 9C1C     		adds	r4, r3, #2
 3632              	.LVL470:
 3633 06a4 00E0     		b	.L333
 3634              	.LVL471:
 3635              	.L389:
 842:TinyBasic.c   ****         if (((char)Core[BP]) == '\r') ix = 0;       /* nothing to add */
 3636              		.loc 1 842 0
 3637 06a6 0024     		movs	r4, #0
 3638              	.LVL472:
 3639              	.L333:
 844:TinyBasic.c   ****         op = 0;         /* this will be the number of bytes to delete */
 845:TinyBasic.c   ****         chpt = FindLine(Lino);             /* try to find this line.. */
 3640              		.loc 1 845 0
 3641 06a8 3046     		mov	r0, r6
 3642 06aa FFF7FEFF 		bl	FindLine
 3643              	.LVL473:
 3644 06ae 0546     		mov	r5, r0
 3645              	.LVL474:
 846:TinyBasic.c   ****         if (Peek2(chpt) == Lino)       /* there is a line to delete.. */
 3646              		.loc 1 846 0
 3647 06b0 FFF7FEFF 		bl	Peek2
 3648              	.LVL475:
 3649 06b4 8642     		cmp	r6, r0
 3650 06b6 05D1     		bne	.L390
 847:TinyBasic.c   ****           op = (SkipTo(chpt+2, '\r')-chpt);
 3651              		.loc 1 847 0
 3652 06b8 A81C     		adds	r0, r5, #2
 3653 06ba 0D21     		movs	r1, #13
 3654 06bc FFF7FEFF 		bl	SkipTo
 3655              	.LVL476:
 3656 06c0 401B     		subs	r0, r0, r5
 3657              	.LVL477:
 3658 06c2 00E0     		b	.L334
 3659              	.LVL478:
 3660              	.L390:
 844:TinyBasic.c   ****         op = 0;         /* this will be the number of bytes to delete */
 3661              		.loc 1 844 0
 3662 06c4 0020     		movs	r0, #0
 3663              	.LVL479:
 3664              	.L334:
 848:TinyBasic.c   ****         if (ix == 0) if (op==0) {  /* nothing to add nor delete; done */
 3665              		.loc 1 848 0
 3666 06c6 24B9     		cbnz	r4, .L335
 3667              		.loc 1 848 0 is_stmt 0 discriminator 1
 3668 06c8 18B9     		cbnz	r0, .L335
 849:TinyBasic.c   ****           Lino = 0;
 3669              		.loc 1 849 0 is_stmt 1
 3670 06ca 0022     		movs	r2, #0
 3671 06cc 754B     		ldr	r3, .L400+16
ARM GAS  C:\Users\doug_000\AppData\Local\Temp\ccbaKQF3.s 			page 81


 3672 06ce 1A60     		str	r2, [r3]
 850:TinyBasic.c   ****           break;}
 3673              		.loc 1 850 0
 3674 06d0 9BE4     		b	.L256
 3675              	.L335:
 851:TinyBasic.c   ****         op = ix-op;      /* = how many more bytes to add or (-)delete */
 3676              		.loc 1 851 0
 3677 06d2 211A     		subs	r1, r4, r0
 3678              	.LVL480:
 852:TinyBasic.c   ****         if (SrcEnd+op>=SubStk) {                         /* too big.. */
 3679              		.loc 1 852 0
 3680 06d4 754B     		ldr	r3, .L400+24
 3681 06d6 1B68     		ldr	r3, [r3]
 3682 06d8 0B44     		add	r3, r3, r1
 3683 06da 754A     		ldr	r2, .L400+28
 3684 06dc 1268     		ldr	r2, [r2]
 3685 06de 9342     		cmp	r3, r2
 3686 06e0 02DB     		blt	.L336
 853:TinyBasic.c   ****           TBerror();
 3687              		.loc 1 853 0
 3688 06e2 FFF7FEFF 		bl	TBerror
 3689              	.LVL481:
 854:TinyBasic.c   ****           break;}
 3690              		.loc 1 854 0
 3691 06e6 90E4     		b	.L256
 3692              	.LVL482:
 3693              	.L336:
 855:TinyBasic.c   ****         SrcEnd = SrcEnd+op;                               /* new size */
 3694              		.loc 1 855 0
 3695 06e8 704A     		ldr	r2, .L400+24
 3696 06ea 1360     		str	r3, [r2]
 856:TinyBasic.c   ****         if (op>0) for (here=SrcEnd; (here--)>chpt+ix; )
 3697              		.loc 1 856 0
 3698 06ec 0029     		cmp	r1, #0
 3699 06ee 05DC     		bgt	.L337
 3700 06f0 09E0     		b	.L393
 3701              	.LVL483:
 3702              	.L339:
 857:TinyBasic.c   ****           Core[here] = Core[here-op];  /* shift backend over to right */
 3703              		.loc 1 857 0
 3704 06f2 501A     		subs	r0, r2, r1
 3705 06f4 694B     		ldr	r3, .L400+8
 3706 06f6 185C     		ldrb	r0, [r3, r0]	@ zero_extendqisi2
 3707 06f8 9854     		strb	r0, [r3, r2]
 856:TinyBasic.c   ****         if (op>0) for (here=SrcEnd; (here--)>chpt+ix; )
 3708              		.loc 1 856 0
 3709 06fa 1346     		mov	r3, r2
 3710              	.LVL484:
 3711              	.L337:
 856:TinyBasic.c   ****         if (op>0) for (here=SrcEnd; (here--)>chpt+ix; )
 3712              		.loc 1 856 0 is_stmt 0 discriminator 2
 3713 06fc 5A1E     		subs	r2, r3, #1
 3714              	.LVL485:
 3715 06fe 2819     		adds	r0, r5, r4
 3716 0700 8342     		cmp	r3, r0
 3717 0702 F6DC     		bgt	.L339
 3718 0704 0AE0     		b	.L340
ARM GAS  C:\Users\doug_000\AppData\Local\Temp\ccbaKQF3.s 			page 82


 3719              	.LVL486:
 3720              	.L393:
 858:TinyBasic.c   ****         else if (op<0) for (here=chpt+ix; here<SrcEnd; here++)
 3721              		.loc 1 858 0 is_stmt 1
 3722 0706 0029     		cmp	r1, #0
 3723 0708 08DA     		bge	.L340
 3724              		.loc 1 858 0 is_stmt 0 discriminator 1
 3725 070a 2A19     		adds	r2, r5, r4
 3726              	.LVL487:
 3727 070c 04E0     		b	.L341
 3728              	.L342:
 859:TinyBasic.c   ****           Core[here] = Core[here-op];   /* shift it left to close gap */
 3729              		.loc 1 859 0 is_stmt 1 discriminator 4
 3730 070e 571A     		subs	r7, r2, r1
 3731 0710 6248     		ldr	r0, .L400+8
 3732 0712 C75D     		ldrb	r7, [r0, r7]	@ zero_extendqisi2
 3733 0714 8754     		strb	r7, [r0, r2]
 858:TinyBasic.c   ****         else if (op<0) for (here=chpt+ix; here<SrcEnd; here++)
 3734              		.loc 1 858 0 discriminator 4
 3735 0716 0132     		adds	r2, r2, #1
 3736              	.LVL488:
 3737              	.L341:
 858:TinyBasic.c   ****         else if (op<0) for (here=chpt+ix; here<SrcEnd; here++)
 3738              		.loc 1 858 0 is_stmt 0 discriminator 2
 3739 0718 9A42     		cmp	r2, r3
 3740 071a F8DB     		blt	.L342
 3741              	.LVL489:
 3742              	.L340:
 860:TinyBasic.c   ****         if (ix>0) Poke2(chpt++,Lino);        /* insert the new line # */
 3743              		.loc 1 860 0 is_stmt 1
 3744 071c 002C     		cmp	r4, #0
 3745 071e 0FDD     		ble	.L344
 3746              		.loc 1 860 0 is_stmt 0 discriminator 1
 3747 0720 6F1C     		adds	r7, r5, #1
 3748              	.LVL490:
 3749 0722 2846     		mov	r0, r5
 3750 0724 3146     		mov	r1, r6
 3751              	.LVL491:
 3752 0726 FFF7FEFF 		bl	Poke2
 3753              	.LVL492:
 3754 072a 3D46     		mov	r5, r7
 3755 072c 08E0     		b	.L344
 3756              	.LVL493:
 3757              	.L345:
 861:TinyBasic.c   ****         while (ix>2) {                       /* insert the new line.. */
 862:TinyBasic.c   ****           Core[++chpt] = Core[BP++];
 3758              		.loc 1 862 0 is_stmt 1
 3759 072e 0135     		adds	r5, r5, #1
 3760              	.LVL494:
 3761 0730 5B4B     		ldr	r3, .L400+12
 3762 0732 1A68     		ldr	r2, [r3]
 3763 0734 511C     		adds	r1, r2, #1
 3764 0736 1960     		str	r1, [r3]
 3765 0738 584B     		ldr	r3, .L400+8
 3766 073a 9A5C     		ldrb	r2, [r3, r2]	@ zero_extendqisi2
 3767 073c 5A55     		strb	r2, [r3, r5]
 863:TinyBasic.c   ****           ix--;}
ARM GAS  C:\Users\doug_000\AppData\Local\Temp\ccbaKQF3.s 			page 83


 3768              		.loc 1 863 0
 3769 073e 013C     		subs	r4, r4, #1
 3770              	.LVL495:
 3771              	.L344:
 861:TinyBasic.c   ****         while (ix>2) {                       /* insert the new line.. */
 3772              		.loc 1 861 0
 3773 0740 022C     		cmp	r4, #2
 3774 0742 F4DC     		bgt	.L345
 864:TinyBasic.c   ****         Poke2(EndProg,SrcEnd);
 3775              		.loc 1 864 0
 3776 0744 2420     		movs	r0, #36
 3777 0746 594B     		ldr	r3, .L400+24
 3778 0748 1968     		ldr	r1, [r3]
 3779 074a FFF7FEFF 		bl	Poke2
 3780              	.LVL496:
 865:TinyBasic.c   ****         ILPC = 0;
 3781              		.loc 1 865 0
 3782 074e 0023     		movs	r3, #0
 3783 0750 554A     		ldr	r2, .L400+20
 3784 0752 1360     		str	r3, [r2]
 866:TinyBasic.c   ****         Lino = 0;
 3785              		.loc 1 866 0
 3786 0754 534A     		ldr	r2, .L400+16
 3787 0756 1360     		str	r3, [r2]
 867:TinyBasic.c   ****           if (Debugging>0) ListIt(0,0);
 3788              		.loc 1 867 0
 3789 0758 564B     		ldr	r3, .L400+32
 3790 075a 1B69     		ldr	r3, [r3, #16]
 3791 075c 002B     		cmp	r3, #0
 3792 075e 7FF754AC 		ble	.L256
 3793              		.loc 1 867 0 is_stmt 0 discriminator 1
 3794 0762 0020     		movs	r0, #0
 3795 0764 0146     		mov	r1, r0
 3796 0766 FFF7FEFF 		bl	ListIt
 3797              	.LVL497:
 3798 076a 4EE4     		b	.L256
 3799              	.LVL498:
 3800              	.L300:
 868:TinyBasic.c   ****         break;
 869:TinyBasic.c   **** 
 870:TinyBasic.c   **** /* MT      2B      Mark the BASIC program space Empty.                */
 871:TinyBasic.c   **** /*                 Also clears the BASIC region of the control stack  */
 872:TinyBasic.c   **** /* and restart the IL program in the command mode. The memory bounds  */
 873:TinyBasic.c   **** /* and stack pointers are reset by this instruction to signify empty  */
 874:TinyBasic.c   **** /* program space, and the line number of the first line is set to 0,  */
 875:TinyBasic.c   **** /* which is the indication of the end of the program.                 */
 876:TinyBasic.c   ****       case 43:
 877:TinyBasic.c   ****         ColdStart();
 3801              		.loc 1 877 0 is_stmt 1
 3802 076c FFF7FEFF 		bl	ColdStart
 3803              	.LVL499:
 878:TinyBasic.c   ****           if (Debugging>0) {ShowSubs(); ShowExSt(); ShowVars(0);}
 3804              		.loc 1 878 0
 3805 0770 504B     		ldr	r3, .L400+32
 3806 0772 1B69     		ldr	r3, [r3, #16]
 3807 0774 002B     		cmp	r3, #0
 3808 0776 7FF748AC 		ble	.L256
ARM GAS  C:\Users\doug_000\AppData\Local\Temp\ccbaKQF3.s 			page 84


 3809              		.loc 1 878 0 is_stmt 0 discriminator 1
 3810 077a FFF7FEFF 		bl	ShowSubs
 3811              	.LVL500:
 3812 077e FFF7FEFF 		bl	ShowExSt
 3813              	.LVL501:
 3814 0782 0020     		movs	r0, #0
 3815 0784 FFF7FEFF 		bl	ShowVars
 3816              	.LVL502:
 3817 0788 3FE4     		b	.L256
 3818              	.L301:
 879:TinyBasic.c   ****         break;
 880:TinyBasic.c   **** 
 881:TinyBasic.c   **** /* XQ      2C      Execute.                                           */
 882:TinyBasic.c   **** /*                 Turns on RUN mode. This instruction also saves     */
 883:TinyBasic.c   **** /* the current value of the IL program counter for use of the NX      */
 884:TinyBasic.c   **** /* instruction, and sets the BASIC pointer to the beginning of the    */
 885:TinyBasic.c   **** /* BASIC program space. An error stop occurs if there is no BASIC     */
 886:TinyBasic.c   **** /* program. This instruction must be executed at least once before    */
 887:TinyBasic.c   **** /* the first execution of a NX instruction.                           */
 888:TinyBasic.c   ****       case 44:
 889:TinyBasic.c   ****         XQhere = ILPC;
 3819              		.loc 1 889 0 is_stmt 1
 3820 078a 474B     		ldr	r3, .L400+20
 3821 078c 1A68     		ldr	r2, [r3]
 3822 078e 4A4B     		ldr	r3, .L400+36
 3823 0790 1A60     		str	r2, [r3]
 890:TinyBasic.c   ****         BP = Peek2(UserProg);
 3824              		.loc 1 890 0
 3825 0792 2020     		movs	r0, #32
 3826 0794 FFF7FEFF 		bl	Peek2
 3827              	.LVL503:
 3828 0798 414D     		ldr	r5, .L400+12
 891:TinyBasic.c   ****         Lino = Peek2(BP++);
 3829              		.loc 1 891 0
 3830 079a 441C     		adds	r4, r0, #1
 3831              	.LVL504:
 3832 079c 2C60     		str	r4, [r5]
 3833 079e FFF7FEFF 		bl	Peek2
 3834              	.LVL505:
 3835 07a2 404B     		ldr	r3, .L400+16
 3836 07a4 1860     		str	r0, [r3]
 892:TinyBasic.c   ****         BP++;
 3837              		.loc 1 892 0
 3838 07a6 0134     		adds	r4, r4, #1
 3839 07a8 2C60     		str	r4, [r5]
 893:TinyBasic.c   ****         if (Lino == 0) TBerror();
 3840              		.loc 1 893 0
 3841 07aa 10B9     		cbnz	r0, .L346
 3842              		.loc 1 893 0 is_stmt 0 discriminator 1
 3843 07ac FFF7FEFF 		bl	TBerror
 3844              	.LVL506:
 3845 07b0 2BE4     		b	.L256
 3846              	.L346:
 894:TinyBasic.c   ****         else if (Debugging>0)
 3847              		.loc 1 894 0 is_stmt 1
 3848 07b2 404B     		ldr	r3, .L400+32
 3849 07b4 1B69     		ldr	r3, [r3, #16]
ARM GAS  C:\Users\doug_000\AppData\Local\Temp\ccbaKQF3.s 			page 85


 3850 07b6 002B     		cmp	r3, #0
 3851 07b8 7FF727AC 		ble	.L256
 895:TinyBasic.c   ****           {OutStr(" [#"); OutInt(Lino); OutStr("]");}
 3852              		.loc 1 895 0
 3853 07bc 3F48     		ldr	r0, .L400+40
 3854 07be FFF7FEFF 		bl	OutStr
 3855              	.LVL507:
 3856 07c2 384B     		ldr	r3, .L400+16
 3857 07c4 1868     		ldr	r0, [r3]
 3858 07c6 FFF7FEFF 		bl	OutInt
 3859              	.LVL508:
 3860 07ca 3D48     		ldr	r0, .L400+44
 3861 07cc FFF7FEFF 		bl	OutStr
 3862              	.LVL509:
 3863 07d0 1BE4     		b	.L256
 3864              	.LVL510:
 3865              	.L302:
 896:TinyBasic.c   ****         break;
 897:TinyBasic.c   **** 
 898:TinyBasic.c   **** /* WS      2D      Stop.                                              */
 899:TinyBasic.c   **** /*                 Stop execution and restart the IL program in the   */
 900:TinyBasic.c   **** /* command mode. The entire control stack (including BASIC region)    */
 901:TinyBasic.c   **** /* is also vacated by this instruction. This instruction effectively  */
 902:TinyBasic.c   **** /* jumps to the Warm Start entry of the ML interpreter.               */
 903:TinyBasic.c   ****       case 45:
 904:TinyBasic.c   ****         WarmStart();
 3866              		.loc 1 904 0
 3867 07d2 FFF7FEFF 		bl	WarmStart
 3868              	.LVL511:
 905:TinyBasic.c   ****           if (Debugging>0) ShowSubs();
 3869              		.loc 1 905 0
 3870 07d6 374B     		ldr	r3, .L400+32
 3871 07d8 1B69     		ldr	r3, [r3, #16]
 3872 07da 002B     		cmp	r3, #0
 3873 07dc 7FF715AC 		ble	.L256
 3874              		.loc 1 905 0 is_stmt 0 discriminator 1
 3875 07e0 FFF7FEFF 		bl	ShowSubs
 3876              	.LVL512:
 3877 07e4 11E4     		b	.L256
 3878              	.L303:
 906:TinyBasic.c   ****         break;
 907:TinyBasic.c   **** 
 908:TinyBasic.c   **** /* US      2E      Machine Language Subroutine Call.                  */
 909:TinyBasic.c   **** /*                 The top six bytes of the expression stack contain  */
 910:TinyBasic.c   **** /* 3 numbers with the following interpretations: The top number is    */
 911:TinyBasic.c   **** /* loaded into the A (or A and B) register; the next number is loaded */
 912:TinyBasic.c   **** /* into 16 bits of Index register; the third number is interpreted as */
 913:TinyBasic.c   **** /* the address of a machine language subroutine to be called. These   */
 914:TinyBasic.c   **** /* six bytes on the expression stack are replaced with the 16-bit     */
 915:TinyBasic.c   **** /* result returned by the subroutine. Stack underflow results in an   */
 916:TinyBasic.c   **** /* error stop.                                                        */
 917:TinyBasic.c   ****       case 46:
 918:TinyBasic.c   ****         Poke2(LinoCore,Lino);    /* bring these memory locations up.. */
 3879              		.loc 1 918 0 is_stmt 1
 3880 07e6 2820     		movs	r0, #40
 3881 07e8 2E4B     		ldr	r3, .L400+16
 3882 07ea 1968     		ldr	r1, [r3]
ARM GAS  C:\Users\doug_000\AppData\Local\Temp\ccbaKQF3.s 			page 86


 3883 07ec FFF7FEFF 		bl	Poke2
 3884              	.LVL513:
 919:TinyBasic.c   ****         Poke2(ILPCcore,ILPC);      /* ..to date, in case user looks.. */
 3885              		.loc 1 919 0
 3886 07f0 DFF8B480 		ldr	r8, .L400+20
 3887 07f4 2A20     		movs	r0, #42
 3888 07f6 D8F80010 		ldr	r1, [r8]
 3889 07fa FFF7FEFF 		bl	Poke2
 3890              	.LVL514:
 920:TinyBasic.c   ****         Poke2(BPcore,BP);
 3891              		.loc 1 920 0
 3892 07fe 2C20     		movs	r0, #44
 3893 0800 274B     		ldr	r3, .L400+12
 3894 0802 1968     		ldr	r1, [r3]
 3895 0804 FFF7FEFF 		bl	Poke2
 3896              	.LVL515:
 921:TinyBasic.c   ****         Poke2(SvPtCore,SvPt);
 3897              		.loc 1 921 0
 3898 0808 2E20     		movs	r0, #46
 3899 080a 2E4B     		ldr	r3, .L400+48
 3900 080c 1968     		ldr	r1, [r3]
 3901 080e FFF7FEFF 		bl	Poke2
 3902              	.LVL516:
 922:TinyBasic.c   ****         ix = PopExInt()&0xFFFF;                            /* datum A */
 3903              		.loc 1 922 0
 3904 0812 FFF7FEFF 		bl	PopExInt
 3905              	.LVL517:
 3906 0816 0446     		mov	r4, r0
 3907              	.LVL518:
 3908 0818 85B2     		uxth	r5, r0
 3909              	.LVL519:
 923:TinyBasic.c   ****         here = PopExInt()&0xFFFF;                          /* datum X */
 3910              		.loc 1 923 0
 3911 081a FFF7FEFF 		bl	PopExInt
 3912              	.LVL520:
 3913 081e 86B2     		uxth	r6, r0
 3914              	.LVL521:
 924:TinyBasic.c   ****         op = PopExInt()&0xFFFF;            /* nominal machine address */
 3915              		.loc 1 924 0
 3916 0820 FFF7FEFF 		bl	PopExInt
 3917              	.LVL522:
 3918 0824 87B2     		uxth	r7, r0
 3919              	.LVL523:
 925:TinyBasic.c   ****         if (ILPC == 0) break;
 3920              		.loc 1 925 0
 3921 0826 D8F80030 		ldr	r3, [r8]
 3922 082a 002B     		cmp	r3, #0
 3923 082c 3FF4EDAB 		beq	.L256
 926:TinyBasic.c   ****         if (op>=Peek2(ILfront) && op<ILend) { /* call IL subroutine.. */
 3924              		.loc 1 926 0
 3925 0830 4FF48F70 		mov	r0, #286
 3926 0834 FFF7FEFF 		bl	Peek2
 3927              	.LVL524:
 3928 0838 B842     		cmp	r0, r7
 3929 083a 14DC     		bgt	.L347
 3930              		.loc 1 926 0 is_stmt 0 discriminator 1
 3931 083c 224B     		ldr	r3, .L400+52
ARM GAS  C:\Users\doug_000\AppData\Local\Temp\ccbaKQF3.s 			page 87


 3932 083e 1B68     		ldr	r3, [r3]
 3933 0840 9F42     		cmp	r7, r3
 3934 0842 10DA     		bge	.L347
 927:TinyBasic.c   ****           PushExInt(here);
 3935              		.loc 1 927 0 is_stmt 1
 3936 0844 3046     		mov	r0, r6
 3937 0846 FFF7FEFF 		bl	PushExInt
 3938              	.LVL525:
 928:TinyBasic.c   ****           PushExInt(ix);
 3939              		.loc 1 928 0
 3940 084a 2846     		mov	r0, r5
 3941 084c FFF7FEFF 		bl	PushExInt
 3942              	.LVL526:
 929:TinyBasic.c   ****           PushSub(ILPC);                      /* push return location */
 3943              		.loc 1 929 0
 3944 0850 D8F80000 		ldr	r0, [r8]
 3945 0854 FFF7FEFF 		bl	PushSub
 3946              	.LVL527:
 930:TinyBasic.c   ****           ILPC = op;
 3947              		.loc 1 930 0
 3948 0858 C8F80070 		str	r7, [r8]
 931:TinyBasic.c   ****           if (DEBUGON>0) LogIt(-ILPC);
 3949              		.loc 1 931 0
 3950 085c 7842     		negs	r0, r7
 3951 085e FFF7FEFF 		bl	LogIt
 3952              	.LVL528:
 3953 0862 FFF7D2BB 		b	.L256
 3954              	.L347:
 932:TinyBasic.c   ****           break;}
 933:TinyBasic.c   ****         switch (op) {
 3955              		.loc 1 933 0
 3956 0866 A7F1FF03 		sub	r3, r7, #255
 3957 086a 1C2B     		cmp	r3, #28
 3958 086c 00F2AE80 		bhi	.L348
 3959 0870 DFE803F0 		tbb	[pc, r3]
 3960              	.L350:
 3961 0874 2C       		.byte	(.L349-.L350)/2
 3962 0875 4F       		.byte	(.L351-.L350)/2
 3963 0876 AC       		.byte	(.L348-.L350)/2
 3964 0877 AC       		.byte	(.L348-.L350)/2
 3965 0878 53       		.byte	(.L352-.L350)/2
 3966 0879 AC       		.byte	(.L348-.L350)/2
 3967 087a AC       		.byte	(.L348-.L350)/2
 3968 087b 57       		.byte	(.L353-.L350)/2
 3969 087c AC       		.byte	(.L348-.L350)/2
 3970 087d AC       		.byte	(.L348-.L350)/2
 3971 087e 5D       		.byte	(.L354-.L350)/2
 3972 087f AC       		.byte	(.L348-.L350)/2
 3973 0880 AC       		.byte	(.L348-.L350)/2
 3974 0881 66       		.byte	(.L355-.L350)/2
 3975 0882 AC       		.byte	(.L348-.L350)/2
 3976 0883 AC       		.byte	(.L348-.L350)/2
 3977 0884 AC       		.byte	(.L348-.L350)/2
 3978 0885 AC       		.byte	(.L348-.L350)/2
 3979 0886 9B       		.byte	(.L356-.L350)/2
 3980 0887 AC       		.byte	(.L348-.L350)/2
 3981 0888 AC       		.byte	(.L348-.L350)/2
ARM GAS  C:\Users\doug_000\AppData\Local\Temp\ccbaKQF3.s 			page 88


 3982 0889 6C       		.byte	(.L357-.L350)/2
 3983 088a 72       		.byte	(.L358-.L350)/2
 3984 088b AC       		.byte	(.L348-.L350)/2
 3985 088c AC       		.byte	(.L348-.L350)/2
 3986 088d 79       		.byte	(.L359-.L350)/2
 3987 088e AC       		.byte	(.L348-.L350)/2
 3988 088f AC       		.byte	(.L348-.L350)/2
 3989 0890 A4       		.byte	(.L360-.L350)/2
 3990 0891 00       		.p2align 1
 3991              	.L401:
 3992 0892 00BF     		.align	2
 3993              	.L400:
 3994 0894 00000000 		.word	ExpnTop
 3995 0898 00000000 		.word	InLend
 3996 089c 00000000 		.word	Core
 3997 08a0 00000000 		.word	BP
 3998 08a4 00000000 		.word	Lino
 3999 08a8 00000000 		.word	ILPC
 4000 08ac 00000000 		.word	SrcEnd
 4001 08b0 00000000 		.word	SubStk
 4002 08b4 00000000 		.word	.LANCHOR0
 4003 08b8 00000000 		.word	XQhere
 4004 08bc AC000000 		.word	.LC23
 4005 08c0 10000000 		.word	.LC3
 4006 08c4 00000000 		.word	SvPt
 4007 08c8 00000000 		.word	ILend
 4008              	.L349:
 934:TinyBasic.c   ****         case WachPoint:    /* we only do a few predefined functions.. */
 935:TinyBasic.c   ****           Watcher = here;
 4009              		.loc 1 935 0
 4010 08cc B74B     		ldr	r3, .L402
 4011 08ce 5E61     		str	r6, [r3, #20]
 936:TinyBasic.c   ****           if (ix>32767) ix = -(int)Core[here]-256;
 4012              		.loc 1 936 0
 4013 08d0 B5F5004F 		cmp	r5, #32768
 4014 08d4 05DB     		blt	.L361
 4015              		.loc 1 936 0 is_stmt 0 discriminator 1
 4016 08d6 B64B     		ldr	r3, .L402+4
 4017 08d8 9D5D     		ldrb	r5, [r3, r6]	@ zero_extendqisi2
 4018              	.LVL529:
 4019 08da C5F1FF25 		rsb	r5, r5, #-16711936
 4020 08de 05F57F05 		add	r5, r5, #16711680
 4021              	.LVL530:
 4022              	.L361:
 937:TinyBasic.c   ****           Watchee = ix;
 4023              		.loc 1 937 0 is_stmt 1
 4024 08e2 B44B     		ldr	r3, .L402+8
 4025 08e4 1D60     		str	r5, [r3]
 938:TinyBasic.c   ****           if (Debugging>0) {
 4026              		.loc 1 938 0
 4027 08e6 B14B     		ldr	r3, .L402
 4028 08e8 1B69     		ldr	r3, [r3, #16]
 4029 08ea 002B     		cmp	r3, #0
 4030 08ec 0BDD     		ble	.L362
 939:TinyBasic.c   ****             OutLn(); OutStr("[** Watch "); OutHex(here,4); OutStr("]");}
 4031              		.loc 1 939 0
 4032 08ee FFF7FEFF 		bl	OutLn
ARM GAS  C:\Users\doug_000\AppData\Local\Temp\ccbaKQF3.s 			page 89


 4033              	.LVL531:
 4034 08f2 B148     		ldr	r0, .L402+12
 4035 08f4 FFF7FEFF 		bl	OutStr
 4036              	.LVL532:
 4037 08f8 3046     		mov	r0, r6
 4038 08fa 0421     		movs	r1, #4
 4039 08fc FFF7FEFF 		bl	OutHex
 4040              	.LVL533:
 4041 0900 AE48     		ldr	r0, .L402+16
 4042 0902 FFF7FEFF 		bl	OutStr
 4043              	.LVL534:
 4044              	.L362:
 940:TinyBasic.c   ****           PushExInt((int)Core[here]);
 4045              		.loc 1 940 0
 4046 0906 AA4B     		ldr	r3, .L402+4
 4047 0908 985D     		ldrb	r0, [r3, r6]	@ zero_extendqisi2
 4048 090a FFF7FEFF 		bl	PushExInt
 4049              	.LVL535:
 941:TinyBasic.c   ****           break;
 4050              		.loc 1 941 0
 4051 090e FFF77CBB 		b	.L256
 4052              	.L351:
 942:TinyBasic.c   ****         case ColdGo:
 943:TinyBasic.c   ****           ColdStart();
 4053              		.loc 1 943 0
 4054 0912 FFF7FEFF 		bl	ColdStart
 4055              	.LVL536:
 944:TinyBasic.c   ****           break;
 4056              		.loc 1 944 0
 4057 0916 FFF778BB 		b	.L256
 4058              	.L352:
 945:TinyBasic.c   ****         case WarmGo:
 946:TinyBasic.c   ****           WarmStart();
 4059              		.loc 1 946 0
 4060 091a FFF7FEFF 		bl	WarmStart
 4061              	.LVL537:
 947:TinyBasic.c   ****           break;
 4062              		.loc 1 947 0
 4063 091e FFF774BB 		b	.L256
 4064              	.L353:
 948:TinyBasic.c   ****         case InchSub:
 949:TinyBasic.c   ****           PushExInt((int)Inch());
 4065              		.loc 1 949 0
 4066 0922 FFF7FEFF 		bl	Inch
 4067              	.LVL538:
 4068 0926 FFF7FEFF 		bl	PushExInt
 4069              	.LVL539:
 950:TinyBasic.c   ****           break;
 4070              		.loc 1 950 0
 4071 092a FFF76EBB 		b	.L256
 4072              	.L354:
 951:TinyBasic.c   ****         case OutchSub:
 952:TinyBasic.c   ****           Ouch((char)(ix&127));
 4073              		.loc 1 952 0
 4074 092e 05F07F00 		and	r0, r5, #127
 4075 0932 FFF7FEFF 		bl	Ouch
 4076              	.LVL540:
ARM GAS  C:\Users\doug_000\AppData\Local\Temp\ccbaKQF3.s 			page 90


 953:TinyBasic.c   ****           PushExInt(0);
 4077              		.loc 1 953 0
 4078 0936 0020     		movs	r0, #0
 4079 0938 FFF7FEFF 		bl	PushExInt
 4080              	.LVL541:
 954:TinyBasic.c   ****           break;
 4081              		.loc 1 954 0
 4082 093c FFF765BB 		b	.L256
 4083              	.L355:
 955:TinyBasic.c   ****         case BreakSub:
 956:TinyBasic.c   ****           PushExInt(StopIt());
 4084              		.loc 1 956 0
 4085 0940 FFF7FEFF 		bl	StopIt
 4086              	.LVL542:
 4087 0944 FFF7FEFF 		bl	PushExInt
 4088              	.LVL543:
 957:TinyBasic.c   ****           break;
 4089              		.loc 1 957 0
 4090 0948 FFF75FBB 		b	.L256
 4091              	.L357:
 958:TinyBasic.c   ****         case PeekSub:
 959:TinyBasic.c   ****           PushExInt((int)Core[here]);
 4092              		.loc 1 959 0
 4093 094c 984B     		ldr	r3, .L402+4
 4094 094e 985D     		ldrb	r0, [r3, r6]	@ zero_extendqisi2
 4095 0950 FFF7FEFF 		bl	PushExInt
 4096              	.LVL544:
 960:TinyBasic.c   ****           break;
 4097              		.loc 1 960 0
 4098 0954 FFF759BB 		b	.L256
 4099              	.L358:
 961:TinyBasic.c   ****         case Peek2Sub:
 962:TinyBasic.c   ****           PushExInt(Peek2(here));
 4100              		.loc 1 962 0
 4101 0958 3046     		mov	r0, r6
 4102 095a FFF7FEFF 		bl	Peek2
 4103              	.LVL545:
 4104 095e FFF7FEFF 		bl	PushExInt
 4105              	.LVL546:
 963:TinyBasic.c   ****           break;
 4106              		.loc 1 963 0
 4107 0962 FFF752BB 		b	.L256
 4108              	.L359:
 964:TinyBasic.c   ****         case PokeSub:
 965:TinyBasic.c   ****           ix = ix&0xFF;
 4109              		.loc 1 965 0
 4110 0966 E4B2     		uxtb	r4, r4
 4111              	.LVL547:
 966:TinyBasic.c   ****           Core[here] = (aByte)ix;
 4112              		.loc 1 966 0
 4113 0968 914B     		ldr	r3, .L402+4
 4114 096a 9C55     		strb	r4, [r3, r6]
 967:TinyBasic.c   ****           PushExInt(ix);
 4115              		.loc 1 967 0
 4116 096c 2046     		mov	r0, r4
 4117 096e FFF7FEFF 		bl	PushExInt
 4118              	.LVL548:
ARM GAS  C:\Users\doug_000\AppData\Local\Temp\ccbaKQF3.s 			page 91


 968:TinyBasic.c   ****           if (DEBUGON>0) LogIt(((ix+256)<<16)+here);
 4119              		.loc 1 968 0
 4120 0972 04F58070 		add	r0, r4, #256
 4121 0976 06EB0040 		add	r0, r6, r0, lsl #16
 4122 097a FFF7FEFF 		bl	LogIt
 4123              	.LVL549:
 969:TinyBasic.c   ****           Lino = Peek2(LinoCore);         /* restore these pointers.. */
 4124              		.loc 1 969 0
 4125 097e 2820     		movs	r0, #40
 4126 0980 FFF7FEFF 		bl	Peek2
 4127              	.LVL550:
 4128 0984 8E4B     		ldr	r3, .L402+20
 4129 0986 1860     		str	r0, [r3]
 970:TinyBasic.c   ****           ILPC = Peek2(ILPCcore);    /* ..in case user changed them.. */
 4130              		.loc 1 970 0
 4131 0988 2A20     		movs	r0, #42
 4132 098a FFF7FEFF 		bl	Peek2
 4133              	.LVL551:
 4134 098e 8D4B     		ldr	r3, .L402+24
 4135 0990 1860     		str	r0, [r3]
 971:TinyBasic.c   ****           BP = Peek2(BPcore);
 4136              		.loc 1 971 0
 4137 0992 2C20     		movs	r0, #44
 4138 0994 FFF7FEFF 		bl	Peek2
 4139              	.LVL552:
 4140 0998 8B4B     		ldr	r3, .L402+28
 4141 099a 1860     		str	r0, [r3]
 972:TinyBasic.c   ****           SvPt = Peek2(SvPtCore);
 4142              		.loc 1 972 0
 4143 099c 2E20     		movs	r0, #46
 4144 099e FFF7FEFF 		bl	Peek2
 4145              	.LVL553:
 4146 09a2 8A4B     		ldr	r3, .L402+32
 4147 09a4 1860     		str	r0, [r3]
 973:TinyBasic.c   ****           break;
 4148              		.loc 1 973 0
 4149 09a6 FFF730BB 		b	.L256
 4150              	.LVL554:
 4151              	.L356:
 974:TinyBasic.c   ****         case DumpSub:
 975:TinyBasic.c   ****           ShoMemDump(here,ix);
 4152              		.loc 1 975 0
 4153 09aa 3046     		mov	r0, r6
 4154 09ac 2946     		mov	r1, r5
 4155 09ae FFF7FEFF 		bl	ShoMemDump
 4156              	.LVL555:
 976:TinyBasic.c   ****           PushExInt(here+ix);
 4157              		.loc 1 976 0
 4158 09b2 7019     		adds	r0, r6, r5
 4159 09b4 FFF7FEFF 		bl	PushExInt
 4160              	.LVL556:
 977:TinyBasic.c   ****           break;
 4161              		.loc 1 977 0
 4162 09b8 FFF727BB 		b	.L256
 4163              	.L360:
 978:TinyBasic.c   ****         case TrLogSub:
 979:TinyBasic.c   ****           ShowLog();
ARM GAS  C:\Users\doug_000\AppData\Local\Temp\ccbaKQF3.s 			page 92


 4164              		.loc 1 979 0
 4165 09bc FFF7FEFF 		bl	ShowLog
 4166              	.LVL557:
 980:TinyBasic.c   ****           PushExInt(LogHere);
 4167              		.loc 1 980 0
 4168 09c0 7A4B     		ldr	r3, .L402
 4169 09c2 D868     		ldr	r0, [r3, #12]
 4170 09c4 FFF7FEFF 		bl	PushExInt
 4171              	.LVL558:
 981:TinyBasic.c   ****           break;
 4172              		.loc 1 981 0
 4173 09c8 FFF71FBB 		b	.L256
 4174              	.L348:
 982:TinyBasic.c   ****         default: TBerror();}
 4175              		.loc 1 982 0
 4176 09cc FFF7FEFF 		bl	TBerror
 4177              	.LVL559:
 4178 09d0 FFF71BBB 		b	.L256
 4179              	.LVL560:
 4180              	.L304:
 983:TinyBasic.c   ****         break;
 984:TinyBasic.c   **** 
 985:TinyBasic.c   **** /* RT      2F      IL Subroutine Return.                              */
 986:TinyBasic.c   **** /*                 The IL control stack is popped to give the address */
 987:TinyBasic.c   **** /* of the next IL instruction. An error stop occurs if the entire     */
 988:TinyBasic.c   **** /* control stack (IL and BASIC) is empty.                             */
 989:TinyBasic.c   ****       case 47:
 990:TinyBasic.c   ****         ix = PopSub();                         /* get return from pop */
 4181              		.loc 1 990 0
 4182 09d4 FFF7FEFF 		bl	PopSub
 4183              	.LVL561:
 4184 09d8 0446     		mov	r4, r0
 4185              	.LVL562:
 991:TinyBasic.c   ****         if (ix<Peek2(ILfront) || ix>=ILend) TBerror();
 4186              		.loc 1 991 0
 4187 09da 4FF48F70 		mov	r0, #286
 4188              	.LVL563:
 4189 09de FFF7FEFF 		bl	Peek2
 4190              	.LVL564:
 4191 09e2 A042     		cmp	r0, r4
 4192 09e4 03DC     		bgt	.L363
 4193              		.loc 1 991 0 is_stmt 0 discriminator 2
 4194 09e6 7A4B     		ldr	r3, .L402+36
 4195 09e8 1B68     		ldr	r3, [r3]
 4196 09ea 9C42     		cmp	r4, r3
 4197 09ec 03DB     		blt	.L364
 4198              	.L363:
 4199              		.loc 1 991 0 discriminator 3
 4200 09ee FFF7FEFF 		bl	TBerror
 4201              	.LVL565:
 4202 09f2 FFF70ABB 		b	.L256
 4203              	.L364:
 992:TinyBasic.c   ****         else if (ILPC != 0) {
 4204              		.loc 1 992 0 is_stmt 1
 4205 09f6 734B     		ldr	r3, .L402+24
 4206 09f8 1B68     		ldr	r3, [r3]
 4207 09fa 002B     		cmp	r3, #0
ARM GAS  C:\Users\doug_000\AppData\Local\Temp\ccbaKQF3.s 			page 93


 4208 09fc 3FF405AB 		beq	.L256
 993:TinyBasic.c   ****           ILPC = ix;
 4209              		.loc 1 993 0
 4210 0a00 704B     		ldr	r3, .L402+24
 4211 0a02 1C60     		str	r4, [r3]
 994:TinyBasic.c   ****           if (DEBUGON>0) LogIt(-ILPC);}
 4212              		.loc 1 994 0
 4213 0a04 6042     		negs	r0, r4
 4214 0a06 FFF7FEFF 		bl	LogIt
 4215              	.LVL566:
 4216 0a0a FFF7FEBA 		b	.L256
 4217              	.LVL567:
 4218              	.L305:
 995:TinyBasic.c   ****         break;
 996:TinyBasic.c   **** 
 997:TinyBasic.c   **** /* JS a    3000-37FF       IL Subroutine Call.                        */
 998:TinyBasic.c   **** /*                         The least significant eleven bits of this  */
 999:TinyBasic.c   **** /* 2-byte instruction are added to the base address of the IL program */
1000:TinyBasic.c   **** /* to become address of the next instruction. The previous contents   */
1001:TinyBasic.c   **** /* of the IL program counter are pushed onto the IL region of the     */
1002:TinyBasic.c   **** /* control stack. Stack overflow results in an error stop.            */
1003:TinyBasic.c   ****       case 48: case 49: case 50: case 51: case 52: case 53: case 54: case 55:
1004:TinyBasic.c   ****         PushSub(ILPC+1);                /* push return location there */
 4219              		.loc 1 1004 0
 4220 0a0e 6D4C     		ldr	r4, .L402+24
 4221              	.LVL568:
 4222 0a10 2068     		ldr	r0, [r4]
 4223 0a12 0130     		adds	r0, r0, #1
 4224 0a14 FFF7FEFF 		bl	PushSub
 4225              	.LVL569:
1005:TinyBasic.c   ****         if (ILPC == 0) break;
 4226              		.loc 1 1005 0
 4227 0a18 2068     		ldr	r0, [r4]
 4228 0a1a 0028     		cmp	r0, #0
 4229 0a1c 3FF4F5AA 		beq	.L256
1006:TinyBasic.c   ****         ILPC = (Peek2(ILPC-1)&0x7FF)+Peek2(ILfront);
 4230              		.loc 1 1006 0
 4231 0a20 0138     		subs	r0, r0, #1
 4232 0a22 FFF7FEFF 		bl	Peek2
 4233              	.LVL570:
 4234 0a26 C0F30A04 		ubfx	r4, r0, #0, #11
 4235 0a2a 4FF48F70 		mov	r0, #286
 4236 0a2e FFF7FEFF 		bl	Peek2
 4237              	.LVL571:
 4238 0a32 2044     		add	r0, r0, r4
 4239 0a34 634B     		ldr	r3, .L402+24
 4240 0a36 1860     		str	r0, [r3]
1007:TinyBasic.c   ****         if (DEBUGON>0) LogIt(-ILPC);
 4241              		.loc 1 1007 0
 4242 0a38 4042     		negs	r0, r0
 4243 0a3a FFF7FEFF 		bl	LogIt
 4244              	.LVL572:
 4245 0a3e FFF7E4BA 		b	.L256
 4246              	.LVL573:
 4247              	.L306:
1008:TinyBasic.c   ****         break;
1009:TinyBasic.c   **** 
ARM GAS  C:\Users\doug_000\AppData\Local\Temp\ccbaKQF3.s 			page 94


1010:TinyBasic.c   **** /* J a     3800-3FFF       Jump.                                      */
1011:TinyBasic.c   **** /*                         The low eleven bits of this 2-byte         */
1012:TinyBasic.c   **** /* instruction are added to the IL program base address to determine  */
1013:TinyBasic.c   **** /* the address of the next IL instruction. The previous contents of   */
1014:TinyBasic.c   **** /* the IL program counter is lost. */
1015:TinyBasic.c   ****       case 56: case 57: case 58: case 59: case 60: case 61: case 62: case 63:
1016:TinyBasic.c   ****         ILPC = (Peek2(ILPC-1)&0x7FF)+Peek2(ILfront);
 4248              		.loc 1 1016 0
 4249 0a42 604D     		ldr	r5, .L402+24
 4250 0a44 2868     		ldr	r0, [r5]
 4251 0a46 0138     		subs	r0, r0, #1
 4252 0a48 FFF7FEFF 		bl	Peek2
 4253              	.LVL574:
 4254 0a4c C0F30A04 		ubfx	r4, r0, #0, #11
 4255              	.LVL575:
 4256 0a50 4FF48F70 		mov	r0, #286
 4257 0a54 FFF7FEFF 		bl	Peek2
 4258              	.LVL576:
 4259 0a58 2044     		add	r0, r0, r4
 4260 0a5a 2860     		str	r0, [r5]
1017:TinyBasic.c   ****         if (DEBUGON>0) LogIt(-ILPC);
 4261              		.loc 1 1017 0
 4262 0a5c 4042     		negs	r0, r0
 4263 0a5e FFF7FEFF 		bl	LogIt
 4264              	.LVL577:
 4265 0a62 FFF7D2BA 		b	.L256
 4266              	.LVL578:
 4267              	.L265:
1018:TinyBasic.c   ****         break;
1019:TinyBasic.c   **** 
1020:TinyBasic.c   **** /* NO      08      No Operation.                                      */
1021:TinyBasic.c   **** /*                 This may be used as a space filler (such as to     */
1022:TinyBasic.c   **** /* ignore a skip).                                                    */
1023:TinyBasic.c   ****       default: break;} /* last of inner switch cases */
1024:TinyBasic.c   ****       break; /* end of outer switch cases 0,1 */
1025:TinyBasic.c   **** 
1026:TinyBasic.c   **** /* BR a    40-7F   Relative Branch.                                   */
1027:TinyBasic.c   **** /*                 The low six bits of this instruction opcode are    */
1028:TinyBasic.c   **** /* added algebraically to the current value of the IL program counter */
1029:TinyBasic.c   **** /* to give the address of the next IL instruction. Bit 5 of opcode is */
1030:TinyBasic.c   **** /* the sign, with + signified by 1, - by 0. The range of this branch  */
1031:TinyBasic.c   **** /* is +/-31 bytes from address of the byte following the opcode. An   */
1032:TinyBasic.c   **** /* offset of zero (i.e. opcode 60) results in an error stop. The      */
1033:TinyBasic.c   **** /* branch operation is unconditional.                                 */
1034:TinyBasic.c   ****       case 2: case 3:
1035:TinyBasic.c   ****         ILPC = ILPC+op-96;
 4268              		.loc 1 1035 0
 4269 0a66 574A     		ldr	r2, .L402+24
 4270 0a68 1368     		ldr	r3, [r2]
 4271 0a6a 2344     		add	r3, r3, r4
 4272 0a6c A3F16000 		sub	r0, r3, #96
 4273 0a70 1060     		str	r0, [r2]
1036:TinyBasic.c   ****         if (DEBUGON>0) LogIt(-ILPC);
 4274              		.loc 1 1036 0
 4275 0a72 4042     		negs	r0, r0
 4276 0a74 FFF7FEFF 		bl	LogIt
 4277              	.LVL579:
ARM GAS  C:\Users\doug_000\AppData\Local\Temp\ccbaKQF3.s 			page 95


 4278 0a78 FFF7C7BA 		b	.L256
 4279              	.L267:
1037:TinyBasic.c   ****         break;
1038:TinyBasic.c   **** 
1039:TinyBasic.c   **** /* BC a "xxx"   80xxxxXx-9FxxxxXx  String Match Branch.               */
1040:TinyBasic.c   **** /*                                 The ASCII character string in IL   */
1041:TinyBasic.c   **** /* following this opcode is compared to the string beginning with the */
1042:TinyBasic.c   **** /* current position of the BASIC pointer, ignoring blanks in BASIC    */
1043:TinyBasic.c   **** /* program. The comparison continues until either a mismatch, or an   */
1044:TinyBasic.c   **** /* IL byte is reached with the most significant bit set to one. This  */
1045:TinyBasic.c   **** /* is the last byte of the string in the IL, compared as a 7-bit      */
1046:TinyBasic.c   **** /* character; if equal, the BASIC pointer is positioned after the     */
1047:TinyBasic.c   **** /* last matching character in the BASIC program and the IL continues  */
1048:TinyBasic.c   **** /* with the next instruction in sequence. Otherwise the BASIC pointer */
1049:TinyBasic.c   **** /* is not altered and the low five bits of the Branch opcode are      */
1050:TinyBasic.c   **** /* added to the IL program counter to form the address of the next    */
1051:TinyBasic.c   **** /* IL instruction. If the strings do not match and the branch offset  */
1052:TinyBasic.c   **** /* is zero an error stop occurs.                                      */
1053:TinyBasic.c   ****       case 4:
1054:TinyBasic.c   ****         if (op==128) here = 0;                /* to error if no match */
 4280              		.loc 1 1054 0
 4281 0a7c 802C     		cmp	r4, #128
 4282 0a7e 04D0     		beq	.L391
1055:TinyBasic.c   ****           else here = ILPC+op-128;
 4283              		.loc 1 1055 0
 4284 0a80 504B     		ldr	r3, .L402+24
 4285 0a82 1B68     		ldr	r3, [r3]
 4286 0a84 1C44     		add	r4, r4, r3
 4287              	.LVL580:
 4288 0a86 803C     		subs	r4, r4, #128
 4289              	.LVL581:
 4290 0a88 00E0     		b	.L365
 4291              	.LVL582:
 4292              	.L391:
1054:TinyBasic.c   ****           else here = ILPC+op-128;
 4293              		.loc 1 1054 0
 4294 0a8a 0024     		movs	r4, #0
 4295              	.LVL583:
 4296              	.L365:
1056:TinyBasic.c   ****         chpt = BP;
 4297              		.loc 1 1056 0
 4298 0a8c 4E4B     		ldr	r3, .L402+28
 4299 0a8e 1D68     		ldr	r5, [r3]
 4300              	.LVL584:
1057:TinyBasic.c   ****         ix = 0;
 4301              		.loc 1 1057 0
 4302 0a90 0021     		movs	r1, #0
1058:TinyBasic.c   ****         while ((ix&128)==0) {
 4303              		.loc 1 1058 0
 4304 0a92 21E0     		b	.L366
 4305              	.LVL585:
 4306              	.L367:
1059:TinyBasic.c   ****           while (((char)Core[BP]) == ' ') BP++;   /* skip over spaces */
 4307              		.loc 1 1059 0 discriminator 2
 4308 0a94 0133     		adds	r3, r3, #1
 4309 0a96 4C4A     		ldr	r2, .L402+28
 4310 0a98 1360     		str	r3, [r2]
ARM GAS  C:\Users\doug_000\AppData\Local\Temp\ccbaKQF3.s 			page 96


 4311              	.L370:
 4312              		.loc 1 1059 0 is_stmt 0 discriminator 1
 4313 0a9a 4B4B     		ldr	r3, .L402+28
 4314 0a9c 1B68     		ldr	r3, [r3]
 4315 0a9e 444A     		ldr	r2, .L402+4
 4316 0aa0 D25C     		ldrb	r2, [r2, r3]	@ zero_extendqisi2
 4317 0aa2 202A     		cmp	r2, #32
 4318 0aa4 F6D0     		beq	.L367
1060:TinyBasic.c   ****           ix = (int)Core[ILPC++];
 4319              		.loc 1 1060 0 is_stmt 1
 4320 0aa6 4748     		ldr	r0, .L402+24
 4321 0aa8 0168     		ldr	r1, [r0]
 4322              	.LVL586:
 4323 0aaa 4E1C     		adds	r6, r1, #1
 4324 0aac 0660     		str	r6, [r0]
 4325 0aae 4048     		ldr	r0, .L402+4
 4326 0ab0 415C     		ldrb	r1, [r0, r1]	@ zero_extendqisi2
 4327              	.LVL587:
1061:TinyBasic.c   ****           if (((char)(ix&127)) != DeCaps[((int)Core[BP++])&127]) {
 4328              		.loc 1 1061 0
 4329 0ab2 01F07F00 		and	r0, r1, #127
 4330 0ab6 0133     		adds	r3, r3, #1
 4331 0ab8 434E     		ldr	r6, .L402+28
 4332 0aba 3360     		str	r3, [r6]
 4333 0abc 02F07F02 		and	r2, r2, #127
 4334 0ac0 444B     		ldr	r3, .L402+40
 4335 0ac2 9B5C     		ldrb	r3, [r3, r2]	@ zero_extendqisi2
 4336 0ac4 9842     		cmp	r0, r3
 4337 0ac6 07D0     		beq	.L366
1062:TinyBasic.c   ****             BP = chpt;         /* back up to front of string in Basic */
 4338              		.loc 1 1062 0
 4339 0ac8 3560     		str	r5, [r6]
1063:TinyBasic.c   ****             if (here==0) TBerror();
 4340              		.loc 1 1063 0
 4341 0aca 14B9     		cbnz	r4, .L368
 4342              		.loc 1 1063 0 is_stmt 0 discriminator 1
 4343 0acc FFF7FEFF 		bl	TBerror
 4344              	.LVL588:
 4345 0ad0 05E0     		b	.L369
 4346              	.LVL589:
 4347              	.L368:
1064:TinyBasic.c   ****               else ILPC = here;                 /* jump forward in IL */
 4348              		.loc 1 1064 0 is_stmt 1
 4349 0ad2 3C4B     		ldr	r3, .L402+24
 4350 0ad4 1C60     		str	r4, [r3]
 4351 0ad6 02E0     		b	.L369
 4352              	.LVL590:
 4353              	.L366:
1058:TinyBasic.c   ****           while (((char)Core[BP]) == ' ') BP++;   /* skip over spaces */
 4354              		.loc 1 1058 0
 4355 0ad8 11F0800F 		tst	r1, #128
 4356 0adc DDD0     		beq	.L370
 4357              	.LVL591:
 4358              	.L369:
1065:TinyBasic.c   ****             break;}}
1066:TinyBasic.c   ****         if (DEBUGON>0) if (ILPC>0) LogIt(-ILPC);
 4359              		.loc 1 1066 0 discriminator 1
ARM GAS  C:\Users\doug_000\AppData\Local\Temp\ccbaKQF3.s 			page 97


 4360 0ade 394B     		ldr	r3, .L402+24
 4361 0ae0 1868     		ldr	r0, [r3]
 4362 0ae2 0028     		cmp	r0, #0
 4363 0ae4 7FF791AA 		ble	.L256
 4364              		.loc 1 1066 0 is_stmt 0 discriminator 2
 4365 0ae8 4042     		negs	r0, r0
 4366 0aea FFF7FEFF 		bl	LogIt
 4367              	.LVL592:
 4368 0aee FFF78CBA 		b	.L256
 4369              	.LVL593:
 4370              	.L371:
1067:TinyBasic.c   ****         break;
1068:TinyBasic.c   **** 
1069:TinyBasic.c   **** /* BV a    A0-BF   Branch if Not Variable.                            */
1070:TinyBasic.c   **** /*                 If the next non-blank character pointed to by the  */
1071:TinyBasic.c   **** /* BASIC pointer is a capital letter, its ASCII code is [doubled and] */
1072:TinyBasic.c   **** /* pushed onto the expression stack and the IL program advances to    */
1073:TinyBasic.c   **** /* next instruction in sequence, leaving the BASIC pointer positioned */
1074:TinyBasic.c   **** /* after the letter; if not a letter the branch is taken and BASIC    */
1075:TinyBasic.c   **** /* pointer is left pointing to that character. An error stop occurs   */
1076:TinyBasic.c   **** /* if the next character is not a letter and the offset of the branch */
1077:TinyBasic.c   **** /* is zero, or on stack overflow.                                     */
1078:TinyBasic.c   ****       case 5:
1079:TinyBasic.c   ****         while (((char)Core[BP]) == ' ') BP++;     /* skip over spaces */
 4371              		.loc 1 1079 0 is_stmt 1 discriminator 2
 4372 0af2 0133     		adds	r3, r3, #1
 4373 0af4 344A     		ldr	r2, .L402+28
 4374 0af6 1360     		str	r3, [r2]
 4375              	.L268:
 4376              		.loc 1 1079 0 is_stmt 0 discriminator 1
 4377 0af8 334B     		ldr	r3, .L402+28
 4378 0afa 1B68     		ldr	r3, [r3]
 4379 0afc 2C4A     		ldr	r2, .L402+4
 4380 0afe D25C     		ldrb	r2, [r2, r3]	@ zero_extendqisi2
 4381 0b00 202A     		cmp	r2, #32
 4382 0b02 F6D0     		beq	.L371
 4383              	.LVL594:
1080:TinyBasic.c   ****         ch = (char)Core[BP];
1081:TinyBasic.c   ****         if (ch >= 'A' && ch <= 'Z' || ch >= 'a' && ch <= 'z')
 4384              		.loc 1 1081 0 is_stmt 1
 4385 0b04 A2F14101 		sub	r1, r2, #65
 4386 0b08 C9B2     		uxtb	r1, r1
 4387 0b0a 1929     		cmp	r1, #25
 4388 0b0c 04D9     		bls	.L372
 4389              		.loc 1 1081 0 is_stmt 0 discriminator 1
 4390 0b0e A2F16101 		sub	r1, r2, #97
 4391 0b12 C9B2     		uxtb	r1, r1
 4392 0b14 1929     		cmp	r1, #25
 4393 0b16 08D8     		bhi	.L373
 4394              	.L372:
1082:TinyBasic.c   ****           PushExBy((((int)Core[BP++])&0x5F)*2);
 4395              		.loc 1 1082 0 is_stmt 1
 4396 0b18 0133     		adds	r3, r3, #1
 4397 0b1a 2B49     		ldr	r1, .L402+28
 4398 0b1c 0B60     		str	r3, [r1]
 4399 0b1e 02F05F00 		and	r0, r2, #95
 4400 0b22 4000     		lsls	r0, r0, #1
ARM GAS  C:\Users\doug_000\AppData\Local\Temp\ccbaKQF3.s 			page 98


 4401 0b24 FFF7FEFF 		bl	PushExBy
 4402              	.LVL595:
 4403 0b28 09E0     		b	.L374
 4404              	.LVL596:
 4405              	.L373:
1083:TinyBasic.c   ****         else if (op==160) TBerror();           /* error if not letter */
 4406              		.loc 1 1083 0
 4407 0b2a A02C     		cmp	r4, #160
 4408 0b2c 02D1     		bne	.L375
 4409              		.loc 1 1083 0 is_stmt 0 discriminator 1
 4410 0b2e FFF7FEFF 		bl	TBerror
 4411              	.LVL597:
 4412 0b32 04E0     		b	.L374
 4413              	.LVL598:
 4414              	.L375:
1084:TinyBasic.c   ****           else ILPC = ILPC+op-160;
 4415              		.loc 1 1084 0 is_stmt 1
 4416 0b34 234A     		ldr	r2, .L402+24
 4417              	.LVL599:
 4418 0b36 1368     		ldr	r3, [r2]
 4419              	.LVL600:
 4420 0b38 2344     		add	r3, r3, r4
 4421 0b3a A03B     		subs	r3, r3, #160
 4422 0b3c 1360     		str	r3, [r2]
 4423              	.LVL601:
 4424              	.L374:
1085:TinyBasic.c   ****         if (DEBUGON>0) if (ILPC>0) LogIt(-ILPC);
 4425              		.loc 1 1085 0 discriminator 1
 4426 0b3e 214B     		ldr	r3, .L402+24
 4427 0b40 1868     		ldr	r0, [r3]
 4428 0b42 0028     		cmp	r0, #0
 4429 0b44 7FF761AA 		ble	.L256
 4430              		.loc 1 1085 0 is_stmt 0 discriminator 2
 4431 0b48 4042     		negs	r0, r0
 4432 0b4a FFF7FEFF 		bl	LogIt
 4433              	.LVL602:
 4434 0b4e FFF75CBA 		b	.L256
 4435              	.L376:
1086:TinyBasic.c   ****         break;
1087:TinyBasic.c   **** 
1088:TinyBasic.c   **** /* BN a    C0-DF   Branch if Not a Number.                            */
1089:TinyBasic.c   **** /*                 If the next non-blank character pointed to by the  */
1090:TinyBasic.c   **** /* BASIC pointer is not a decimal digit, the low five bits of the     */
1091:TinyBasic.c   **** /* opcode are added to the IL program counter, or if zero an error    */
1092:TinyBasic.c   **** /* stop occurs. If the next character is a digit, then it and all     */
1093:TinyBasic.c   **** /* decimal digits following it (ignoring blanks) are converted to a   */
1094:TinyBasic.c   **** /* 16-bit binary number which is pushed onto the expression stack. In */
1095:TinyBasic.c   **** /* either case the BASIC pointer is positioned at the next character  */
1096:TinyBasic.c   **** /* which is neither blank nor digit. Stack overflow will result in an */
1097:TinyBasic.c   **** /* error stop.                                                        */
1098:TinyBasic.c   ****       case 6:
1099:TinyBasic.c   ****         while (((char)Core[BP]) == ' ') BP++;     /* skip over spaces */
 4436              		.loc 1 1099 0 is_stmt 1 discriminator 2
 4437 0b52 0133     		adds	r3, r3, #1
 4438 0b54 1C4A     		ldr	r2, .L402+28
 4439 0b56 1360     		str	r3, [r2]
 4440              	.L269:
ARM GAS  C:\Users\doug_000\AppData\Local\Temp\ccbaKQF3.s 			page 99


 4441              		.loc 1 1099 0 is_stmt 0 discriminator 1
 4442 0b58 1B4B     		ldr	r3, .L402+28
 4443 0b5a 1B68     		ldr	r3, [r3]
 4444 0b5c 144A     		ldr	r2, .L402+4
 4445 0b5e D25C     		ldrb	r2, [r2, r3]	@ zero_extendqisi2
 4446 0b60 202A     		cmp	r2, #32
 4447 0b62 F6D0     		beq	.L376
 4448              	.LVL603:
1100:TinyBasic.c   ****         ch = (char)Core[BP];
1101:TinyBasic.c   ****         if (ch >= '0' && ch <= '9') {
 4449              		.loc 1 1101 0 is_stmt 1
 4450 0b64 A2F13003 		sub	r3, r2, #48
 4451 0b68 DBB2     		uxtb	r3, r3
 4452 0b6a 092B     		cmp	r3, #9
 4453 0b6c 18D8     		bhi	.L394
 4454 0b6e 0020     		movs	r0, #0
 4455              	.LVL604:
 4456              	.L377:
1102:TinyBasic.c   ****           op = 0;
1103:TinyBasic.c   ****           while (true) {
1104:TinyBasic.c   ****             here = (int)Core[BP++];
 4457              		.loc 1 1104 0
 4458 0b70 154B     		ldr	r3, .L402+28
 4459 0b72 1A68     		ldr	r2, [r3]
 4460 0b74 511C     		adds	r1, r2, #1
 4461 0b76 1960     		str	r1, [r3]
 4462 0b78 0D4B     		ldr	r3, .L402+4
 4463 0b7a 9B5C     		ldrb	r3, [r3, r2]	@ zero_extendqisi2
 4464              	.LVL605:
1105:TinyBasic.c   ****             if (here==32) continue;               /* skip over spaces */
 4465              		.loc 1 1105 0
 4466 0b7c 202B     		cmp	r3, #32
 4467 0b7e F7D0     		beq	.L377
1106:TinyBasic.c   ****             if (here<48 || here>57) break;     /* not a decimal digit */
 4468              		.loc 1 1106 0
 4469 0b80 A3F13001 		sub	r1, r3, #48
 4470 0b84 0929     		cmp	r1, #9
 4471 0b86 06D8     		bhi	.L380
1107:TinyBasic.c   ****             op = op*10+here-48;}                 /* insert into value */
 4472              		.loc 1 1107 0
 4473 0b88 00EB8000 		add	r0, r0, r0, lsl #2
 4474              	.LVL606:
 4475 0b8c 03EB4003 		add	r3, r3, r0, lsl #1
 4476              	.LVL607:
 4477 0b90 A3F13000 		sub	r0, r3, #48
 4478              	.LVL608:
 4479 0b94 ECE7     		b	.L377
 4480              	.LVL609:
 4481              	.L380:
1108:TinyBasic.c   ****           BP--;                             /* back up over non-digit */
 4482              		.loc 1 1108 0
 4483 0b96 0C4B     		ldr	r3, .L402+28
 4484              	.LVL610:
 4485 0b98 1A60     		str	r2, [r3]
1109:TinyBasic.c   ****           PushExInt(op);}
 4486              		.loc 1 1109 0
 4487 0b9a FFF7FEFF 		bl	PushExInt
ARM GAS  C:\Users\doug_000\AppData\Local\Temp\ccbaKQF3.s 			page 100


 4488              	.LVL611:
 4489 0b9e 20E0     		b	.L381
 4490              	.LVL612:
 4491              	.L394:
1110:TinyBasic.c   ****         else if (op==192) TBerror();             /* error if no digit */
 4492              		.loc 1 1110 0
 4493 0ba0 C02C     		cmp	r4, #192
 4494 0ba2 19D1     		bne	.L382
 4495              		.loc 1 1110 0 is_stmt 0 discriminator 1
 4496 0ba4 FFF7FEFF 		bl	TBerror
 4497              	.LVL613:
 4498 0ba8 1BE0     		b	.L381
 4499              	.L403:
 4500 0baa 00BF     		.align	2
 4501              	.L402:
 4502 0bac 00000000 		.word	.LANCHOR0
 4503 0bb0 00000000 		.word	Core
 4504 0bb4 00000000 		.word	Watchee
 4505 0bb8 F0000000 		.word	.LC30
 4506 0bbc 10000000 		.word	.LC3
 4507 0bc0 00000000 		.word	Lino
 4508 0bc4 00000000 		.word	ILPC
 4509 0bc8 00000000 		.word	BP
 4510 0bcc 00000000 		.word	SvPt
 4511 0bd0 00000000 		.word	ILend
 4512 0bd4 00000000 		.word	DeCaps
 4513              	.LVL614:
 4514              	.L382:
1111:TinyBasic.c   ****           else ILPC = ILPC+op-192;
 4515              		.loc 1 1111 0 is_stmt 1
 4516 0bd8 174A     		ldr	r2, .L404
 4517              	.LVL615:
 4518 0bda 1368     		ldr	r3, [r2]
 4519 0bdc 2344     		add	r3, r3, r4
 4520 0bde C03B     		subs	r3, r3, #192
 4521 0be0 1360     		str	r3, [r2]
 4522              	.LVL616:
 4523              	.L381:
1112:TinyBasic.c   ****         if (DEBUGON>0) if (ILPC>0) LogIt(-ILPC);
 4524              		.loc 1 1112 0 discriminator 1
 4525 0be2 154B     		ldr	r3, .L404
 4526 0be4 1868     		ldr	r0, [r3]
 4527 0be6 0028     		cmp	r0, #0
 4528 0be8 7FF70FAA 		ble	.L256
 4529              		.loc 1 1112 0 is_stmt 0 discriminator 2
 4530 0bec 4042     		negs	r0, r0
 4531 0bee FFF7FEFF 		bl	LogIt
 4532              	.LVL617:
 4533 0bf2 FFF70ABA 		b	.L256
 4534              	.LVL618:
 4535              	.L383:
1113:TinyBasic.c   ****         break;
1114:TinyBasic.c   **** 
1115:TinyBasic.c   **** /* BE a    E0-FF   Branch if Not Endline.                             */
1116:TinyBasic.c   **** /*                 If the next non-blank character pointed to by the  */
1117:TinyBasic.c   **** /* BASIC pointer is a carriage return, the IL program advances to the */
1118:TinyBasic.c   **** /* next instruction in sequence; otherwise the low five bits of the   */
ARM GAS  C:\Users\doug_000\AppData\Local\Temp\ccbaKQF3.s 			page 101


1119:TinyBasic.c   **** /* opcode (if not 0) are added to the IL program counter to form the  */
1120:TinyBasic.c   **** /* address of next IL instruction. In either case the BASIC pointer   */
1121:TinyBasic.c   **** /* is left pointing to the first non-blank character; this            */
1122:TinyBasic.c   **** /* instruction will not pass over the carriage return, which must     */
1123:TinyBasic.c   **** /* remain for testing by the NX instruction. As with the other        */
1124:TinyBasic.c   **** /* conditional branches, the branch may only advance the IL program   */
1125:TinyBasic.c   **** /* counter from 1 to 31 bytes; an offset of zero results in an error  */
1126:TinyBasic.c   **** /* stop.                                                              */
1127:TinyBasic.c   ****       case 7:
1128:TinyBasic.c   ****         while (((char)Core[BP]) == ' ') BP++;     /* skip over spaces */
 4536              		.loc 1 1128 0 is_stmt 1 discriminator 2
 4537 0bf6 0133     		adds	r3, r3, #1
 4538 0bf8 104A     		ldr	r2, .L404+4
 4539 0bfa 1360     		str	r3, [r2]
 4540              	.L270:
 4541              		.loc 1 1128 0 is_stmt 0 discriminator 1
 4542 0bfc 0F4B     		ldr	r3, .L404+4
 4543 0bfe 1B68     		ldr	r3, [r3]
 4544 0c00 0F4A     		ldr	r2, .L404+8
 4545 0c02 D25C     		ldrb	r2, [r2, r3]	@ zero_extendqisi2
 4546 0c04 202A     		cmp	r2, #32
 4547 0c06 F6D0     		beq	.L383
1129:TinyBasic.c   ****         if (((char)Core[BP]) == '\r') ;
 4548              		.loc 1 1129 0 is_stmt 1
 4549 0c08 0D2A     		cmp	r2, #13
 4550 0c0a 09D0     		beq	.L384
1130:TinyBasic.c   ****         else if (op==224) TBerror();            /* error if no offset */
 4551              		.loc 1 1130 0
 4552 0c0c E02C     		cmp	r4, #224
 4553 0c0e 02D1     		bne	.L385
 4554              		.loc 1 1130 0 is_stmt 0 discriminator 1
 4555 0c10 FFF7FEFF 		bl	TBerror
 4556              	.LVL619:
 4557 0c14 04E0     		b	.L384
 4558              	.L385:
1131:TinyBasic.c   ****           else ILPC = ILPC+op-224;
 4559              		.loc 1 1131 0 is_stmt 1
 4560 0c16 084A     		ldr	r2, .L404
 4561 0c18 1368     		ldr	r3, [r2]
 4562 0c1a 2344     		add	r3, r3, r4
 4563 0c1c E03B     		subs	r3, r3, #224
 4564 0c1e 1360     		str	r3, [r2]
 4565              	.L384:
1132:TinyBasic.c   ****         if (DEBUGON>0) if (ILPC>0) LogIt(-ILPC);
 4566              		.loc 1 1132 0 discriminator 1
 4567 0c20 054B     		ldr	r3, .L404
 4568 0c22 1868     		ldr	r0, [r3]
 4569 0c24 0028     		cmp	r0, #0
 4570 0c26 7FF7F0A9 		ble	.L256
 4571              		.loc 1 1132 0 is_stmt 0 discriminator 2
 4572 0c2a 4042     		negs	r0, r0
 4573 0c2c FFF7FEFF 		bl	LogIt
 4574              	.LVL620:
 4575 0c30 FFF7EBB9 		b	.L256
 4576              	.LVL621:
 4577              	.L255:
 4578 0c34 BDE8F081 		pop	{r4, r5, r6, r7, r8, pc}
ARM GAS  C:\Users\doug_000\AppData\Local\Temp\ccbaKQF3.s 			page 102


 4579              	.L405:
 4580              		.align	2
 4581              	.L404:
 4582 0c38 00000000 		.word	ILPC
 4583 0c3c 00000000 		.word	BP
 4584 0c40 00000000 		.word	Core
 4585              		.cfi_endproc
 4586              	.LFE33:
 4587              		.size	Interp, .-Interp
 4588              		.section	.text.DefaultIL,"ax",%progbits
 4589              		.align	2
 4590              		.global	DefaultIL
 4591              		.thumb
 4592              		.thumb_func
 4593              		.type	DefaultIL, %function
 4594              	DefaultIL:
 4595              	.LFB34:
1133:TinyBasic.c   ****         break;}}} /* ~Interp */
1134:TinyBasic.c   **** 
1135:TinyBasic.c   **** /***************** Intermediate Interpreter Assembled *****************/
1136:TinyBasic.c   **** 
1137:TinyBasic.c   **** char* DefaultIL() {
 4596              		.loc 1 1137 0 is_stmt 1
 4597              		.cfi_startproc
 4598              		@ args = 0, pretend = 0, frame = 0
 4599              		@ frame_needed = 0, uses_anonymous_args = 0
 4600 0000 F8B5     		push	{r3, r4, r5, r6, r7, lr}
 4601              		.cfi_def_cfa_offset 24
 4602              		.cfi_offset 3, -24
 4603              		.cfi_offset 4, -20
 4604              		.cfi_offset 5, -16
 4605              		.cfi_offset 6, -12
 4606              		.cfi_offset 7, -8
 4607              		.cfi_offset 14, -4
1138:TinyBasic.c   ****   static char s[9000];    /* be sure to increase size if you add text */
1139:TinyBasic.c   ****   strcpy(s,"0000 ;       1 .  ORIGINAL TINY BASIC INTERMEDIATE INTERPRETER\n");
 4608              		.loc 1 1139 0
 4609 0002 CA4E     		ldr	r6, .L503
 4610 0004 3446     		mov	r4, r6
 4611 0006 CA4D     		ldr	r5, .L503+4
 4612 0008 0FCD     		ldmia	r5!, {r0, r1, r2, r3}
 4613 000a 0FC4     		stmia	r4!, {r0, r1, r2, r3}
 4614 000c 0FCD     		ldmia	r5!, {r0, r1, r2, r3}
 4615 000e 0FC4     		stmia	r4!, {r0, r1, r2, r3}
 4616 0010 0FCD     		ldmia	r5!, {r0, r1, r2, r3}
 4617 0012 0FC4     		stmia	r4!, {r0, r1, r2, r3}
 4618 0014 95E80F00 		ldmia	r5, {r0, r1, r2, r3}
 4619 0018 84E80F00 		stmia	r4, {r0, r1, r2, r3}
1140:TinyBasic.c   ****   strcat(s,"0000 ;       2 .\n");
 4620              		.loc 1 1140 0
 4621 001c 3046     		mov	r0, r6
 4622 001e FFF7FEFF 		bl	strlen
 4623              	.LVL622:
 4624 0022 0746     		mov	r7, r0
 4625 0024 3518     		adds	r5, r6, r0
 4626 0026 C34C     		ldr	r4, .L503+8
 4627 0028 0FCC     		ldmia	r4!, {r0, r1, r2, r3}
ARM GAS  C:\Users\doug_000\AppData\Local\Temp\ccbaKQF3.s 			page 103


 4628 002a F051     		str	r0, [r6, r7]	@ unaligned
 4629 002c 6960     		str	r1, [r5, #4]	@ unaligned
 4630 002e AA60     		str	r2, [r5, #8]	@ unaligned
 4631 0030 EB60     		str	r3, [r5, #12]	@ unaligned
 4632 0032 2388     		ldrh	r3, [r4]	@ unaligned
 4633 0034 2B82     		strh	r3, [r5, #16]	@ unaligned
1141:TinyBasic.c   ****   strcat(s,"0000 ;       3 .  EXECUTIVE INITIALIZATION\n");
 4634              		.loc 1 1141 0
 4635 0036 3046     		mov	r0, r6
 4636 0038 FFF7FEFF 		bl	strlen
 4637              	.LVL623:
 4638 003c BE4D     		ldr	r5, .L503+12
 4639 003e 3418     		adds	r4, r6, r0
 4640 0040 05F12007 		add	r7, r5, #32
 4641              	.L407:
 4642 0044 2E46     		mov	r6, r5
 4643 0046 0FCE     		ldmia	r6!, {r0, r1, r2, r3}
 4644 0048 2060     		str	r0, [r4]	@ unaligned
 4645 004a 6160     		str	r1, [r4, #4]	@ unaligned
 4646 004c A260     		str	r2, [r4, #8]	@ unaligned
 4647 004e E360     		str	r3, [r4, #12]	@ unaligned
 4648 0050 3546     		mov	r5, r6
 4649 0052 1034     		adds	r4, r4, #16
 4650 0054 BE42     		cmp	r6, r7
 4651 0056 F5D1     		bne	.L407
 4652 0058 07CD     		ldmia	r5!, {r0, r1, r2}
 4653 005a 2060     		str	r0, [r4]	@ unaligned
 4654 005c 6160     		str	r1, [r4, #4]	@ unaligned
 4655 005e A260     		str	r2, [r4, #8]	@ unaligned
1142:TinyBasic.c   ****   strcat(s,"0000 ;       4 .\n");
 4656              		.loc 1 1142 0
 4657 0060 B24C     		ldr	r4, .L503
 4658 0062 2046     		mov	r0, r4
 4659 0064 FFF7FEFF 		bl	strlen
 4660              	.LVL624:
 4661 0068 0746     		mov	r7, r0
 4662 006a 2618     		adds	r6, r4, r0
 4663 006c B34D     		ldr	r5, .L503+16
 4664 006e 0FCD     		ldmia	r5!, {r0, r1, r2, r3}
 4665 0070 E051     		str	r0, [r4, r7]	@ unaligned
 4666 0072 7160     		str	r1, [r6, #4]	@ unaligned
 4667 0074 B260     		str	r2, [r6, #8]	@ unaligned
 4668 0076 F360     		str	r3, [r6, #12]	@ unaligned
 4669 0078 2B88     		ldrh	r3, [r5]	@ unaligned
 4670 007a 3382     		strh	r3, [r6, #16]	@ unaligned
1143:TinyBasic.c   ****   strcat(s,"0000 ;       5 :STRT PC \":Q^\"        COLON, X-ON\n");
 4671              		.loc 1 1143 0
 4672 007c 2046     		mov	r0, r4
 4673 007e FFF7FEFF 		bl	strlen
 4674              	.LVL625:
 4675 0082 AF4E     		ldr	r6, .L503+20
 4676 0084 0444     		add	r4, r4, r0
 4677 0086 06F13007 		add	r7, r6, #48
 4678              	.L408:
 4679 008a 3546     		mov	r5, r6
 4680 008c 0FCD     		ldmia	r5!, {r0, r1, r2, r3}
 4681 008e 2060     		str	r0, [r4]	@ unaligned
ARM GAS  C:\Users\doug_000\AppData\Local\Temp\ccbaKQF3.s 			page 104


 4682 0090 6160     		str	r1, [r4, #4]	@ unaligned
 4683 0092 A260     		str	r2, [r4, #8]	@ unaligned
 4684 0094 E360     		str	r3, [r4, #12]	@ unaligned
 4685 0096 2E46     		mov	r6, r5
 4686 0098 1034     		adds	r4, r4, #16
 4687 009a BD42     		cmp	r5, r7
 4688 009c F5D1     		bne	.L408
 4689 009e 2B88     		ldrh	r3, [r5]	@ unaligned
 4690 00a0 2380     		strh	r3, [r4]	@ unaligned
1144:TinyBasic.c   ****   strcat(s,"0000 243A91;\n");
 4691              		.loc 1 1144 0
 4692 00a2 A24C     		ldr	r4, .L503
 4693 00a4 2046     		mov	r0, r4
 4694 00a6 FFF7FEFF 		bl	strlen
 4695              	.LVL626:
 4696 00aa 0646     		mov	r6, r0
 4697 00ac 2518     		adds	r5, r4, r0
 4698 00ae A54B     		ldr	r3, .L503+24
 4699 00b0 07CB     		ldmia	r3!, {r0, r1, r2}
 4700 00b2 A051     		str	r0, [r4, r6]	@ unaligned
 4701 00b4 6960     		str	r1, [r5, #4]	@ unaligned
 4702 00b6 AA60     		str	r2, [r5, #8]	@ unaligned
 4703 00b8 1B88     		ldrh	r3, [r3]	@ unaligned
 4704 00ba AB81     		strh	r3, [r5, #12]	@ unaligned
1145:TinyBasic.c   ****   strcat(s,"0003 ;       6       GL\n");
 4705              		.loc 1 1145 0
 4706 00bc 2046     		mov	r0, r4
 4707 00be FFF7FEFF 		bl	strlen
 4708              	.LVL627:
 4709 00c2 0746     		mov	r7, r0
 4710 00c4 2618     		adds	r6, r4, r0
 4711 00c6 A04D     		ldr	r5, .L503+28
 4712 00c8 0FCD     		ldmia	r5!, {r0, r1, r2, r3}
 4713 00ca E051     		str	r0, [r4, r7]	@ unaligned
 4714 00cc 7160     		str	r1, [r6, #4]	@ unaligned
 4715 00ce B260     		str	r2, [r6, #8]	@ unaligned
 4716 00d0 F360     		str	r3, [r6, #12]	@ unaligned
 4717 00d2 03CD     		ldmia	r5!, {r0, r1}
 4718 00d4 3061     		str	r0, [r6, #16]	@ unaligned
 4719 00d6 7161     		str	r1, [r6, #20]	@ unaligned
 4720 00d8 2B78     		ldrb	r3, [r5]	@ zero_extendqisi2
 4721 00da 3376     		strb	r3, [r6, #24]
1146:TinyBasic.c   ****   strcat(s,"0003 27;     7       SB\n");
 4722              		.loc 1 1146 0
 4723 00dc 2046     		mov	r0, r4
 4724 00de FFF7FEFF 		bl	strlen
 4725              	.LVL628:
 4726 00e2 0746     		mov	r7, r0
 4727 00e4 2618     		adds	r6, r4, r0
 4728 00e6 994D     		ldr	r5, .L503+32
 4729 00e8 0FCD     		ldmia	r5!, {r0, r1, r2, r3}
 4730 00ea E051     		str	r0, [r4, r7]	@ unaligned
 4731 00ec 7160     		str	r1, [r6, #4]	@ unaligned
 4732 00ee B260     		str	r2, [r6, #8]	@ unaligned
 4733 00f0 F360     		str	r3, [r6, #12]	@ unaligned
 4734 00f2 03CD     		ldmia	r5!, {r0, r1}
 4735 00f4 3061     		str	r0, [r6, #16]	@ unaligned
ARM GAS  C:\Users\doug_000\AppData\Local\Temp\ccbaKQF3.s 			page 105


 4736 00f6 7161     		str	r1, [r6, #20]	@ unaligned
 4737 00f8 2B78     		ldrb	r3, [r5]	@ zero_extendqisi2
 4738 00fa 3376     		strb	r3, [r6, #24]
1147:TinyBasic.c   ****   strcat(s,"0004 10;     8       BE L0           BRANCH IF NOT EMPTY\n");
 4739              		.loc 1 1147 0
 4740 00fc 2046     		mov	r0, r4
 4741 00fe FFF7FEFF 		bl	strlen
 4742              	.LVL629:
 4743 0102 934D     		ldr	r5, .L503+36
 4744 0104 0444     		add	r4, r4, r0
 4745 0106 05F13007 		add	r7, r5, #48
 4746              	.L409:
 4747 010a 2E46     		mov	r6, r5
 4748 010c 0FCE     		ldmia	r6!, {r0, r1, r2, r3}
 4749 010e 2060     		str	r0, [r4]	@ unaligned
 4750 0110 6160     		str	r1, [r4, #4]	@ unaligned
 4751 0112 A260     		str	r2, [r4, #8]	@ unaligned
 4752 0114 E360     		str	r3, [r4, #12]	@ unaligned
 4753 0116 3546     		mov	r5, r6
 4754 0118 1034     		adds	r4, r4, #16
 4755 011a BE42     		cmp	r6, r7
 4756 011c F5D1     		bne	.L409
 4757 011e 03CD     		ldmia	r5!, {r0, r1}
 4758 0120 2060     		str	r0, [r4]	@ unaligned
 4759 0122 6160     		str	r1, [r4, #4]	@ unaligned
 4760 0124 2B88     		ldrh	r3, [r5]	@ unaligned
 4761 0126 2381     		strh	r3, [r4, #8]	@ unaligned
1148:TinyBasic.c   ****   strcat(s,"0005 E1;     9       BR STRT         TRY AGAIN IF NULL LINE\n");
 4762              		.loc 1 1148 0
 4763 0128 804C     		ldr	r4, .L503
 4764 012a 2046     		mov	r0, r4
 4765 012c FFF7FEFF 		bl	strlen
 4766              	.LVL630:
 4767 0130 884D     		ldr	r5, .L503+40
 4768 0132 0444     		add	r4, r4, r0
 4769 0134 05F13007 		add	r7, r5, #48
 4770              	.L410:
 4771 0138 2E46     		mov	r6, r5
 4772 013a 0FCE     		ldmia	r6!, {r0, r1, r2, r3}
 4773 013c 2060     		str	r0, [r4]	@ unaligned
 4774 013e 6160     		str	r1, [r4, #4]	@ unaligned
 4775 0140 A260     		str	r2, [r4, #8]	@ unaligned
 4776 0142 E360     		str	r3, [r4, #12]	@ unaligned
 4777 0144 3546     		mov	r5, r6
 4778 0146 1034     		adds	r4, r4, #16
 4779 0148 BE42     		cmp	r6, r7
 4780 014a F5D1     		bne	.L410
 4781 014c 07CD     		ldmia	r5!, {r0, r1, r2}
 4782 014e 2060     		str	r0, [r4]	@ unaligned
 4783 0150 6160     		str	r1, [r4, #4]	@ unaligned
 4784 0152 A260     		str	r2, [r4, #8]	@ unaligned
 4785 0154 2B78     		ldrb	r3, [r5]	@ zero_extendqisi2
 4786 0156 2373     		strb	r3, [r4, #12]
1149:TinyBasic.c   ****   strcat(s,"0006 59;    10 :L0   BN STMT         TEST FOR LINE NUMBER\n");
 4787              		.loc 1 1149 0
 4788 0158 744C     		ldr	r4, .L503
 4789 015a 2046     		mov	r0, r4
ARM GAS  C:\Users\doug_000\AppData\Local\Temp\ccbaKQF3.s 			page 106


 4790 015c FFF7FEFF 		bl	strlen
 4791              	.LVL631:
 4792 0160 7D4D     		ldr	r5, .L503+44
 4793 0162 0444     		add	r4, r4, r0
 4794 0164 05F13007 		add	r7, r5, #48
 4795              	.L411:
 4796 0168 2E46     		mov	r6, r5
 4797 016a 0FCE     		ldmia	r6!, {r0, r1, r2, r3}
 4798 016c 2060     		str	r0, [r4]	@ unaligned
 4799 016e 6160     		str	r1, [r4, #4]	@ unaligned
 4800 0170 A260     		str	r2, [r4, #8]	@ unaligned
 4801 0172 E360     		str	r3, [r4, #12]	@ unaligned
 4802 0174 3546     		mov	r5, r6
 4803 0176 1034     		adds	r4, r4, #16
 4804 0178 BE42     		cmp	r6, r7
 4805 017a F5D1     		bne	.L411
 4806 017c 03CD     		ldmia	r5!, {r0, r1}
 4807 017e 2060     		str	r0, [r4]	@ unaligned
 4808 0180 6160     		str	r1, [r4, #4]	@ unaligned
 4809 0182 2A88     		ldrh	r2, [r5]	@ unaligned
 4810 0184 AB78     		ldrb	r3, [r5, #2]	@ zero_extendqisi2
 4811 0186 2281     		strh	r2, [r4, #8]	@ unaligned
 4812 0188 A372     		strb	r3, [r4, #10]
1150:TinyBasic.c   ****   strcat(s,"0007 C5;    11       IL              IF SO, INSERT INTO PROGRAM\n");
 4813              		.loc 1 1150 0
 4814 018a 684C     		ldr	r4, .L503
 4815 018c 2046     		mov	r0, r4
 4816 018e FFF7FEFF 		bl	strlen
 4817              	.LVL632:
 4818 0192 2044     		add	r0, r0, r4
 4819 0194 7149     		ldr	r1, .L503+48
 4820 0196 4122     		movs	r2, #65
 4821 0198 FFF7FEFF 		bl	memcpy
 4822              	.LVL633:
1151:TinyBasic.c   ****   strcat(s,"0008 2A;    12       BR STRT         GO GET NEXT\n");
 4823              		.loc 1 1151 0
 4824 019c 2046     		mov	r0, r4
 4825 019e FFF7FEFF 		bl	strlen
 4826              	.LVL634:
 4827 01a2 6F4E     		ldr	r6, .L503+52
 4828 01a4 0444     		add	r4, r4, r0
 4829 01a6 06F13007 		add	r7, r6, #48
 4830              	.L412:
 4831 01aa 3546     		mov	r5, r6
 4832 01ac 0FCD     		ldmia	r5!, {r0, r1, r2, r3}
 4833 01ae 2060     		str	r0, [r4]	@ unaligned
 4834 01b0 6160     		str	r1, [r4, #4]	@ unaligned
 4835 01b2 A260     		str	r2, [r4, #8]	@ unaligned
 4836 01b4 E360     		str	r3, [r4, #12]	@ unaligned
 4837 01b6 2E46     		mov	r6, r5
 4838 01b8 1034     		adds	r4, r4, #16
 4839 01ba BD42     		cmp	r5, r7
 4840 01bc F5D1     		bne	.L412
 4841 01be 2B88     		ldrh	r3, [r5]	@ unaligned
 4842 01c0 2380     		strh	r3, [r4]	@ unaligned
1152:TinyBasic.c   ****   strcat(s,"0009 56;    13 :XEC  SB              SAVE POINTERS FOR RUN WITH\n");
 4843              		.loc 1 1152 0
ARM GAS  C:\Users\doug_000\AppData\Local\Temp\ccbaKQF3.s 			page 107


 4844 01c2 5A4C     		ldr	r4, .L503
 4845 01c4 2046     		mov	r0, r4
 4846 01c6 FFF7FEFF 		bl	strlen
 4847              	.LVL635:
 4848 01ca 2044     		add	r0, r0, r4
 4849 01cc 6549     		ldr	r1, .L503+56
 4850 01ce 4122     		movs	r2, #65
 4851 01d0 FFF7FEFF 		bl	memcpy
 4852              	.LVL636:
1153:TinyBasic.c   ****   strcat(s,"000A 10;    14       RB                CONCATENATED INPUT\n");
 4853              		.loc 1 1153 0
 4854 01d4 2046     		mov	r0, r4
 4855 01d6 FFF7FEFF 		bl	strlen
 4856              	.LVL637:
 4857 01da 634D     		ldr	r5, .L503+60
 4858 01dc 0444     		add	r4, r4, r0
 4859 01de 05F13007 		add	r7, r5, #48
 4860              	.L413:
 4861 01e2 2E46     		mov	r6, r5
 4862 01e4 0FCE     		ldmia	r6!, {r0, r1, r2, r3}
 4863 01e6 2060     		str	r0, [r4]	@ unaligned
 4864 01e8 6160     		str	r1, [r4, #4]	@ unaligned
 4865 01ea A260     		str	r2, [r4, #8]	@ unaligned
 4866 01ec E360     		str	r3, [r4, #12]	@ unaligned
 4867 01ee 3546     		mov	r5, r6
 4868 01f0 1034     		adds	r4, r4, #16
 4869 01f2 BE42     		cmp	r6, r7
 4870 01f4 F5D1     		bne	.L413
 4871 01f6 03CD     		ldmia	r5!, {r0, r1}
 4872 01f8 2060     		str	r0, [r4]	@ unaligned
 4873 01fa 6160     		str	r1, [r4, #4]	@ unaligned
 4874 01fc 2A88     		ldrh	r2, [r5]	@ unaligned
 4875 01fe AB78     		ldrb	r3, [r5, #2]	@ zero_extendqisi2
 4876 0200 2281     		strh	r2, [r4, #8]	@ unaligned
 4877 0202 A372     		strb	r3, [r4, #10]
1154:TinyBasic.c   ****   strcat(s,"000B 11;    15       XQ\n");
 4878              		.loc 1 1154 0
 4879 0204 494C     		ldr	r4, .L503
 4880 0206 2046     		mov	r0, r4
 4881 0208 FFF7FEFF 		bl	strlen
 4882              	.LVL638:
 4883 020c 0746     		mov	r7, r0
 4884 020e 2618     		adds	r6, r4, r0
 4885 0210 564D     		ldr	r5, .L503+64
 4886 0212 0FCD     		ldmia	r5!, {r0, r1, r2, r3}
 4887 0214 E051     		str	r0, [r4, r7]	@ unaligned
 4888 0216 7160     		str	r1, [r6, #4]	@ unaligned
 4889 0218 B260     		str	r2, [r6, #8]	@ unaligned
 4890 021a F360     		str	r3, [r6, #12]	@ unaligned
 4891 021c 03CD     		ldmia	r5!, {r0, r1}
 4892 021e 3061     		str	r0, [r6, #16]	@ unaligned
 4893 0220 7161     		str	r1, [r6, #20]	@ unaligned
 4894 0222 2B78     		ldrb	r3, [r5]	@ zero_extendqisi2
 4895 0224 3376     		strb	r3, [r6, #24]
1155:TinyBasic.c   ****   strcat(s,"000C 2C;    16 .\n");
 4896              		.loc 1 1155 0
 4897 0226 2046     		mov	r0, r4
ARM GAS  C:\Users\doug_000\AppData\Local\Temp\ccbaKQF3.s 			page 108


 4898 0228 FFF7FEFF 		bl	strlen
 4899              	.LVL639:
 4900 022c 0746     		mov	r7, r0
 4901 022e 2618     		adds	r6, r4, r0
 4902 0230 4F4D     		ldr	r5, .L503+68
 4903 0232 0FCD     		ldmia	r5!, {r0, r1, r2, r3}
 4904 0234 E051     		str	r0, [r4, r7]	@ unaligned
 4905 0236 7160     		str	r1, [r6, #4]	@ unaligned
 4906 0238 B260     		str	r2, [r6, #8]	@ unaligned
 4907 023a F360     		str	r3, [r6, #12]	@ unaligned
 4908 023c 2B88     		ldrh	r3, [r5]	@ unaligned
 4909 023e 3382     		strh	r3, [r6, #16]	@ unaligned
1156:TinyBasic.c   ****   strcat(s,"000D ;      17 .  STATEMENT EXECUTOR\n");
 4910              		.loc 1 1156 0
 4911 0240 2046     		mov	r0, r4
 4912 0242 FFF7FEFF 		bl	strlen
 4913              	.LVL640:
 4914 0246 4B4D     		ldr	r5, .L503+72
 4915 0248 0444     		add	r4, r4, r0
 4916 024a 05F12007 		add	r7, r5, #32
 4917              	.L414:
 4918 024e 2E46     		mov	r6, r5
 4919 0250 0FCE     		ldmia	r6!, {r0, r1, r2, r3}
 4920 0252 2060     		str	r0, [r4]	@ unaligned
 4921 0254 6160     		str	r1, [r4, #4]	@ unaligned
 4922 0256 A260     		str	r2, [r4, #8]	@ unaligned
 4923 0258 E360     		str	r3, [r4, #12]	@ unaligned
 4924 025a 3546     		mov	r5, r6
 4925 025c 1034     		adds	r4, r4, #16
 4926 025e BE42     		cmp	r6, r7
 4927 0260 F5D1     		bne	.L414
 4928 0262 3068     		ldr	r0, [r6]	@ unaligned
 4929 0264 2060     		str	r0, [r4]	@ unaligned
 4930 0266 B388     		ldrh	r3, [r6, #4]	@ unaligned
 4931 0268 A380     		strh	r3, [r4, #4]	@ unaligned
1157:TinyBasic.c   ****   strcat(s,"000D ;      18 .\n");
 4932              		.loc 1 1157 0
 4933 026a 304C     		ldr	r4, .L503
 4934 026c 2046     		mov	r0, r4
 4935 026e FFF7FEFF 		bl	strlen
 4936              	.LVL641:
 4937 0272 0746     		mov	r7, r0
 4938 0274 2618     		adds	r6, r4, r0
 4939 0276 404D     		ldr	r5, .L503+76
 4940 0278 0FCD     		ldmia	r5!, {r0, r1, r2, r3}
 4941 027a E051     		str	r0, [r4, r7]	@ unaligned
 4942 027c 7160     		str	r1, [r6, #4]	@ unaligned
 4943 027e B260     		str	r2, [r6, #8]	@ unaligned
 4944 0280 F360     		str	r3, [r6, #12]	@ unaligned
 4945 0282 2B88     		ldrh	r3, [r5]	@ unaligned
 4946 0284 3382     		strh	r3, [r6, #16]	@ unaligned
1158:TinyBasic.c   ****   strcat(s,"000D ;      19 :STMT BC GOTO \"LET\"\n");
 4947              		.loc 1 1158 0
 4948 0286 2046     		mov	r0, r4
 4949 0288 FFF7FEFF 		bl	strlen
 4950              	.LVL642:
 4951 028c 3B4D     		ldr	r5, .L503+80
ARM GAS  C:\Users\doug_000\AppData\Local\Temp\ccbaKQF3.s 			page 109


 4952 028e 0444     		add	r4, r4, r0
 4953 0290 05F12007 		add	r7, r5, #32
 4954              	.L415:
 4955 0294 2E46     		mov	r6, r5
 4956 0296 0FCE     		ldmia	r6!, {r0, r1, r2, r3}
 4957 0298 2060     		str	r0, [r4]	@ unaligned
 4958 029a 6160     		str	r1, [r4, #4]	@ unaligned
 4959 029c A260     		str	r2, [r4, #8]	@ unaligned
 4960 029e E360     		str	r3, [r4, #12]	@ unaligned
 4961 02a0 3546     		mov	r5, r6
 4962 02a2 1034     		adds	r4, r4, #16
 4963 02a4 BE42     		cmp	r6, r7
 4964 02a6 F5D1     		bne	.L415
 4965 02a8 3068     		ldr	r0, [r6]	@ unaligned
 4966 02aa 2060     		str	r0, [r4]	@ unaligned
1159:TinyBasic.c   ****   strcat(s,"000D 8B4C45D4;\n");
 4967              		.loc 1 1159 0
 4968 02ac 1F4C     		ldr	r4, .L503
 4969 02ae 2046     		mov	r0, r4
 4970 02b0 FFF7FEFF 		bl	strlen
 4971              	.LVL643:
 4972 02b4 0746     		mov	r7, r0
 4973 02b6 2618     		adds	r6, r4, r0
 4974 02b8 314D     		ldr	r5, .L503+84
 4975 02ba 0FCD     		ldmia	r5!, {r0, r1, r2, r3}
 4976 02bc E051     		str	r0, [r4, r7]	@ unaligned
 4977 02be 7160     		str	r1, [r6, #4]	@ unaligned
 4978 02c0 B260     		str	r2, [r6, #8]	@ unaligned
 4979 02c2 F360     		str	r3, [r6, #12]	@ unaligned
1160:TinyBasic.c   ****   strcat(s,"0011 ;      20       BV *            MUST BE A VARIABLE NAME\n");
 4980              		.loc 1 1160 0
 4981 02c4 2046     		mov	r0, r4
 4982 02c6 FFF7FEFF 		bl	strlen
 4983              	.LVL644:
 4984 02ca 2E4D     		ldr	r5, .L503+88
 4985 02cc 0444     		add	r4, r4, r0
 4986 02ce 05F13007 		add	r7, r5, #48
 4987              	.L416:
 4988 02d2 2E46     		mov	r6, r5
 4989 02d4 0FCE     		ldmia	r6!, {r0, r1, r2, r3}
 4990 02d6 2060     		str	r0, [r4]	@ unaligned
 4991 02d8 6160     		str	r1, [r4, #4]	@ unaligned
 4992 02da A260     		str	r2, [r4, #8]	@ unaligned
 4993 02dc E360     		str	r3, [r4, #12]	@ unaligned
 4994 02de 3546     		mov	r5, r6
 4995 02e0 1034     		adds	r4, r4, #16
 4996 02e2 BE42     		cmp	r6, r7
 4997 02e4 F5D1     		bne	.L416
 4998 02e6 07CD     		ldmia	r5!, {r0, r1, r2}
 4999 02e8 2060     		str	r0, [r4]	@ unaligned
 5000 02ea 6160     		str	r1, [r4, #4]	@ unaligned
 5001 02ec A260     		str	r2, [r4, #8]	@ unaligned
 5002 02ee 2B88     		ldrh	r3, [r5]	@ unaligned
 5003 02f0 A381     		strh	r3, [r4, #12]	@ unaligned
1161:TinyBasic.c   ****   strcat(s,"0011 A0;    21       BC * \"=\"\n");
 5004              		.loc 1 1161 0
 5005 02f2 0E4C     		ldr	r4, .L503
ARM GAS  C:\Users\doug_000\AppData\Local\Temp\ccbaKQF3.s 			page 110


 5006 02f4 2046     		mov	r0, r4
 5007 02f6 FFF7FEFF 		bl	strlen
 5008              	.LVL645:
 5009 02fa 0746     		mov	r7, r0
 5010 02fc 2618     		adds	r6, r4, r0
 5011 02fe 224D     		ldr	r5, .L503+92
 5012 0300 0FCD     		ldmia	r5!, {r0, r1, r2, r3}
 5013 0302 E051     		str	r0, [r4, r7]	@ unaligned
 5014 0304 7160     		str	r1, [r6, #4]	@ unaligned
 5015 0306 B260     		str	r2, [r6, #8]	@ unaligned
 5016 0308 F360     		str	r3, [r6, #12]	@ unaligned
 5017 030a 07CD     		ldmia	r5!, {r0, r1, r2}
 5018 030c 3061     		str	r0, [r6, #16]	@ unaligned
 5019 030e 7161     		str	r1, [r6, #20]	@ unaligned
 5020 0310 B261     		str	r2, [r6, #24]	@ unaligned
 5021 0312 2A88     		ldrh	r2, [r5]	@ unaligned
 5022 0314 AB78     		ldrb	r3, [r5, #2]	@ zero_extendqisi2
 5023 0316 B283     		strh	r2, [r6, #28]	@ unaligned
 5024 0318 B377     		strb	r3, [r6, #30]
1162:TinyBasic.c   ****   strcat(s,"0012 80BD;  22 :LET  JS EXPR         GO GET EXPRESSION\n");
 5025              		.loc 1 1162 0
 5026 031a 2046     		mov	r0, r4
 5027 031c FFF7FEFF 		bl	strlen
 5028              	.LVL646:
 5029 0320 1A4D     		ldr	r5, .L503+96
 5030 0322 0444     		add	r4, r4, r0
 5031 0324 05F13007 		add	r7, r5, #48
 5032 0328 32E0     		b	.L504
 5033              	.L505:
 5034 032a 00BF     		.align	2
 5035              	.L503:
 5036 032c 18000000 		.word	.LANCHOR0+24
 5037 0330 FC000000 		.word	.LC31
 5038 0334 3C010000 		.word	.LC32
 5039 0338 50010000 		.word	.LC33
 5040 033c 7C010000 		.word	.LC34
 5041 0340 90010000 		.word	.LC35
 5042 0344 C4010000 		.word	.LC36
 5043 0348 D4010000 		.word	.LC37
 5044 034c F0010000 		.word	.LC38
 5045 0350 0C020000 		.word	.LC39
 5046 0354 48020000 		.word	.LC40
 5047 0358 88020000 		.word	.LC41
 5048 035c C4020000 		.word	.LC42
 5049 0360 08030000 		.word	.LC43
 5050 0364 3C030000 		.word	.LC44
 5051 0368 80030000 		.word	.LC45
 5052 036c BC030000 		.word	.LC46
 5053 0370 D8030000 		.word	.LC47
 5054 0374 EC030000 		.word	.LC48
 5055 0378 14040000 		.word	.LC49
 5056 037c 28040000 		.word	.LC50
 5057 0380 4C040000 		.word	.LC51
 5058 0384 5C040000 		.word	.LC52
 5059 0388 9C040000 		.word	.LC53
 5060 038c BC040000 		.word	.LC54
 5061              	.L504:
ARM GAS  C:\Users\doug_000\AppData\Local\Temp\ccbaKQF3.s 			page 111


 5062              	.L417:
 5063 0390 2E46     		mov	r6, r5
 5064 0392 0FCE     		ldmia	r6!, {r0, r1, r2, r3}
 5065 0394 2060     		str	r0, [r4]	@ unaligned
 5066 0396 6160     		str	r1, [r4, #4]	@ unaligned
 5067 0398 A260     		str	r2, [r4, #8]	@ unaligned
 5068 039a E360     		str	r3, [r4, #12]	@ unaligned
 5069 039c 3546     		mov	r5, r6
 5070 039e 1034     		adds	r4, r4, #16
 5071 03a0 BE42     		cmp	r6, r7
 5072 03a2 F5D1     		bne	.L417
 5073 03a4 03CD     		ldmia	r5!, {r0, r1}
 5074 03a6 2060     		str	r0, [r4]	@ unaligned
 5075 03a8 6160     		str	r1, [r4, #4]	@ unaligned
1163:TinyBasic.c   ****   strcat(s,"0014 30BC;  23       BE *            IF STATEMENT END,\n");
 5076              		.loc 1 1163 0
 5077 03aa D24C     		ldr	r4, .L506
 5078 03ac 2046     		mov	r0, r4
 5079 03ae FFF7FEFF 		bl	strlen
 5080              	.LVL647:
 5081 03b2 D14D     		ldr	r5, .L506+4
 5082 03b4 0444     		add	r4, r4, r0
 5083 03b6 05F13007 		add	r7, r5, #48
 5084              	.L418:
 5085 03ba 2E46     		mov	r6, r5
 5086 03bc 0FCE     		ldmia	r6!, {r0, r1, r2, r3}
 5087 03be 2060     		str	r0, [r4]	@ unaligned
 5088 03c0 6160     		str	r1, [r4, #4]	@ unaligned
 5089 03c2 A260     		str	r2, [r4, #8]	@ unaligned
 5090 03c4 E360     		str	r3, [r4, #12]	@ unaligned
 5091 03c6 3546     		mov	r5, r6
 5092 03c8 1034     		adds	r4, r4, #16
 5093 03ca BE42     		cmp	r6, r7
 5094 03cc F5D1     		bne	.L418
 5095 03ce 03CD     		ldmia	r5!, {r0, r1}
 5096 03d0 2060     		str	r0, [r4]	@ unaligned
 5097 03d2 6160     		str	r1, [r4, #4]	@ unaligned
1164:TinyBasic.c   ****   strcat(s,"0016 E0;    24       SV                STORE RESULT\n");
 5098              		.loc 1 1164 0
 5099 03d4 C74C     		ldr	r4, .L506
 5100 03d6 2046     		mov	r0, r4
 5101 03d8 FFF7FEFF 		bl	strlen
 5102              	.LVL648:
 5103 03dc C74D     		ldr	r5, .L506+8
 5104 03de 0444     		add	r4, r4, r0
 5105 03e0 05F13007 		add	r7, r5, #48
 5106              	.L419:
 5107 03e4 2E46     		mov	r6, r5
 5108 03e6 0FCE     		ldmia	r6!, {r0, r1, r2, r3}
 5109 03e8 2060     		str	r0, [r4]	@ unaligned
 5110 03ea 6160     		str	r1, [r4, #4]	@ unaligned
 5111 03ec A260     		str	r2, [r4, #8]	@ unaligned
 5112 03ee E360     		str	r3, [r4, #12]	@ unaligned
 5113 03f0 3546     		mov	r5, r6
 5114 03f2 1034     		adds	r4, r4, #16
 5115 03f4 BE42     		cmp	r6, r7
 5116 03f6 F5D1     		bne	.L419
ARM GAS  C:\Users\doug_000\AppData\Local\Temp\ccbaKQF3.s 			page 112


 5117 03f8 3068     		ldr	r0, [r6]	@ unaligned
 5118 03fa 2060     		str	r0, [r4]	@ unaligned
 5119 03fc 3379     		ldrb	r3, [r6, #4]	@ zero_extendqisi2
 5120 03fe 2371     		strb	r3, [r4, #4]
1165:TinyBasic.c   ****   strcat(s,"0017 13;    25       NX\n");
 5121              		.loc 1 1165 0
 5122 0400 BC4C     		ldr	r4, .L506
 5123 0402 2046     		mov	r0, r4
 5124 0404 FFF7FEFF 		bl	strlen
 5125              	.LVL649:
 5126 0408 0746     		mov	r7, r0
 5127 040a 2618     		adds	r6, r4, r0
 5128 040c BC4D     		ldr	r5, .L506+12
 5129 040e 0FCD     		ldmia	r5!, {r0, r1, r2, r3}
 5130 0410 E051     		str	r0, [r4, r7]	@ unaligned
 5131 0412 7160     		str	r1, [r6, #4]	@ unaligned
 5132 0414 B260     		str	r2, [r6, #8]	@ unaligned
 5133 0416 F360     		str	r3, [r6, #12]	@ unaligned
 5134 0418 03CD     		ldmia	r5!, {r0, r1}
 5135 041a 3061     		str	r0, [r6, #16]	@ unaligned
 5136 041c 7161     		str	r1, [r6, #20]	@ unaligned
 5137 041e 2B78     		ldrb	r3, [r5]	@ zero_extendqisi2
 5138 0420 3376     		strb	r3, [r6, #24]
1166:TinyBasic.c   ****   strcat(s,"0018 1D;    26 .\n");
 5139              		.loc 1 1166 0
 5140 0422 2046     		mov	r0, r4
 5141 0424 FFF7FEFF 		bl	strlen
 5142              	.LVL650:
 5143 0428 0746     		mov	r7, r0
 5144 042a 2618     		adds	r6, r4, r0
 5145 042c B54D     		ldr	r5, .L506+16
 5146 042e 0FCD     		ldmia	r5!, {r0, r1, r2, r3}
 5147 0430 E051     		str	r0, [r4, r7]	@ unaligned
 5148 0432 7160     		str	r1, [r6, #4]	@ unaligned
 5149 0434 B260     		str	r2, [r6, #8]	@ unaligned
 5150 0436 F360     		str	r3, [r6, #12]	@ unaligned
 5151 0438 2B88     		ldrh	r3, [r5]	@ unaligned
 5152 043a 3382     		strh	r3, [r6, #16]	@ unaligned
1167:TinyBasic.c   ****   strcat(s,"0019 ;      27 :GOTO BC PRNT \"GO\"\n");
 5153              		.loc 1 1167 0
 5154 043c 2046     		mov	r0, r4
 5155 043e FFF7FEFF 		bl	strlen
 5156              	.LVL651:
 5157 0442 B14D     		ldr	r5, .L506+20
 5158 0444 0444     		add	r4, r4, r0
 5159 0446 05F12007 		add	r7, r5, #32
 5160              	.L420:
 5161 044a 2E46     		mov	r6, r5
 5162 044c 0FCE     		ldmia	r6!, {r0, r1, r2, r3}
 5163 044e 2060     		str	r0, [r4]	@ unaligned
 5164 0450 6160     		str	r1, [r4, #4]	@ unaligned
 5165 0452 A260     		str	r2, [r4, #8]	@ unaligned
 5166 0454 E360     		str	r3, [r4, #12]	@ unaligned
 5167 0456 3546     		mov	r5, r6
 5168 0458 1034     		adds	r4, r4, #16
 5169 045a BE42     		cmp	r6, r7
 5170 045c F5D1     		bne	.L420
ARM GAS  C:\Users\doug_000\AppData\Local\Temp\ccbaKQF3.s 			page 113


 5171 045e 3288     		ldrh	r2, [r6]	@ unaligned
 5172 0460 B378     		ldrb	r3, [r6, #2]	@ zero_extendqisi2
 5173 0462 2280     		strh	r2, [r4]	@ unaligned
 5174 0464 A370     		strb	r3, [r4, #2]
1168:TinyBasic.c   ****   strcat(s,"0019 9447CF;\n");
 5175              		.loc 1 1168 0
 5176 0466 A34C     		ldr	r4, .L506
 5177 0468 2046     		mov	r0, r4
 5178 046a FFF7FEFF 		bl	strlen
 5179              	.LVL652:
 5180 046e 0646     		mov	r6, r0
 5181 0470 2518     		adds	r5, r4, r0
 5182 0472 A64B     		ldr	r3, .L506+24
 5183 0474 07CB     		ldmia	r3!, {r0, r1, r2}
 5184 0476 A051     		str	r0, [r4, r6]	@ unaligned
 5185 0478 6960     		str	r1, [r5, #4]	@ unaligned
 5186 047a AA60     		str	r2, [r5, #8]	@ unaligned
 5187 047c 1B88     		ldrh	r3, [r3]	@ unaligned
 5188 047e AB81     		strh	r3, [r5, #12]	@ unaligned
1169:TinyBasic.c   ****   strcat(s,"001C ;      28       BC GOSB \"TO\"\n");
 5189              		.loc 1 1169 0
 5190 0480 2046     		mov	r0, r4
 5191 0482 FFF7FEFF 		bl	strlen
 5192              	.LVL653:
 5193 0486 A24D     		ldr	r5, .L506+28
 5194 0488 0444     		add	r4, r4, r0
 5195 048a 05F12007 		add	r7, r5, #32
 5196              	.L421:
 5197 048e 2E46     		mov	r6, r5
 5198 0490 0FCE     		ldmia	r6!, {r0, r1, r2, r3}
 5199 0492 2060     		str	r0, [r4]	@ unaligned
 5200 0494 6160     		str	r1, [r4, #4]	@ unaligned
 5201 0496 A260     		str	r2, [r4, #8]	@ unaligned
 5202 0498 E360     		str	r3, [r4, #12]	@ unaligned
 5203 049a 3546     		mov	r5, r6
 5204 049c 1034     		adds	r4, r4, #16
 5205 049e BE42     		cmp	r6, r7
 5206 04a0 F5D1     		bne	.L421
 5207 04a2 3288     		ldrh	r2, [r6]	@ unaligned
 5208 04a4 B378     		ldrb	r3, [r6, #2]	@ zero_extendqisi2
 5209 04a6 2280     		strh	r2, [r4]	@ unaligned
 5210 04a8 A370     		strb	r3, [r4, #2]
1170:TinyBasic.c   ****   strcat(s,"001C 8854CF;\n");
 5211              		.loc 1 1170 0
 5212 04aa 924C     		ldr	r4, .L506
 5213 04ac 2046     		mov	r0, r4
 5214 04ae FFF7FEFF 		bl	strlen
 5215              	.LVL654:
 5216 04b2 0646     		mov	r6, r0
 5217 04b4 2518     		adds	r5, r4, r0
 5218 04b6 974B     		ldr	r3, .L506+32
 5219 04b8 07CB     		ldmia	r3!, {r0, r1, r2}
 5220 04ba A051     		str	r0, [r4, r6]	@ unaligned
 5221 04bc 6960     		str	r1, [r5, #4]	@ unaligned
 5222 04be AA60     		str	r2, [r5, #8]	@ unaligned
 5223 04c0 1B88     		ldrh	r3, [r3]	@ unaligned
 5224 04c2 AB81     		strh	r3, [r5, #12]	@ unaligned
ARM GAS  C:\Users\doug_000\AppData\Local\Temp\ccbaKQF3.s 			page 114


1171:TinyBasic.c   ****   strcat(s,"001F ;      29       JS EXPR         GET LINE NUMBER\n");
 5225              		.loc 1 1171 0
 5226 04c4 2046     		mov	r0, r4
 5227 04c6 FFF7FEFF 		bl	strlen
 5228              	.LVL655:
 5229 04ca 934D     		ldr	r5, .L506+36
 5230 04cc 0444     		add	r4, r4, r0
 5231 04ce 05F13007 		add	r7, r5, #48
 5232              	.L422:
 5233 04d2 2E46     		mov	r6, r5
 5234 04d4 0FCE     		ldmia	r6!, {r0, r1, r2, r3}
 5235 04d6 2060     		str	r0, [r4]	@ unaligned
 5236 04d8 6160     		str	r1, [r4, #4]	@ unaligned
 5237 04da A260     		str	r2, [r4, #8]	@ unaligned
 5238 04dc E360     		str	r3, [r4, #12]	@ unaligned
 5239 04de 3546     		mov	r5, r6
 5240 04e0 1034     		adds	r4, r4, #16
 5241 04e2 BE42     		cmp	r6, r7
 5242 04e4 F5D1     		bne	.L422
 5243 04e6 3068     		ldr	r0, [r6]	@ unaligned
 5244 04e8 2060     		str	r0, [r4]	@ unaligned
 5245 04ea B388     		ldrh	r3, [r6, #4]	@ unaligned
 5246 04ec A380     		strh	r3, [r4, #4]	@ unaligned
1172:TinyBasic.c   ****   strcat(s,"001F 30BC;  30       BE *\n");
 5247              		.loc 1 1172 0
 5248 04ee 814C     		ldr	r4, .L506
 5249 04f0 2046     		mov	r0, r4
 5250 04f2 FFF7FEFF 		bl	strlen
 5251              	.LVL656:
 5252 04f6 0746     		mov	r7, r0
 5253 04f8 2618     		adds	r6, r4, r0
 5254 04fa 884D     		ldr	r5, .L506+40
 5255 04fc 0FCD     		ldmia	r5!, {r0, r1, r2, r3}
 5256 04fe E051     		str	r0, [r4, r7]	@ unaligned
 5257 0500 7160     		str	r1, [r6, #4]	@ unaligned
 5258 0502 B260     		str	r2, [r6, #8]	@ unaligned
 5259 0504 F360     		str	r3, [r6, #12]	@ unaligned
 5260 0506 03CD     		ldmia	r5!, {r0, r1}
 5261 0508 3061     		str	r0, [r6, #16]	@ unaligned
 5262 050a 7161     		str	r1, [r6, #20]	@ unaligned
 5263 050c 2A88     		ldrh	r2, [r5]	@ unaligned
 5264 050e AB78     		ldrb	r3, [r5, #2]	@ zero_extendqisi2
 5265 0510 3283     		strh	r2, [r6, #24]	@ unaligned
 5266 0512 B376     		strb	r3, [r6, #26]
1173:TinyBasic.c   ****   strcat(s,"0021 E0;    31       SB              (DO THIS FOR STARTING)\n");
 5267              		.loc 1 1173 0
 5268 0514 2046     		mov	r0, r4
 5269 0516 FFF7FEFF 		bl	strlen
 5270              	.LVL657:
 5271 051a 814D     		ldr	r5, .L506+44
 5272 051c 0444     		add	r4, r4, r0
 5273 051e 05F13007 		add	r7, r5, #48
 5274              	.L423:
 5275 0522 2E46     		mov	r6, r5
 5276 0524 0FCE     		ldmia	r6!, {r0, r1, r2, r3}
 5277 0526 2060     		str	r0, [r4]	@ unaligned
 5278 0528 6160     		str	r1, [r4, #4]	@ unaligned
ARM GAS  C:\Users\doug_000\AppData\Local\Temp\ccbaKQF3.s 			page 115


 5279 052a A260     		str	r2, [r4, #8]	@ unaligned
 5280 052c E360     		str	r3, [r4, #12]	@ unaligned
 5281 052e 3546     		mov	r5, r6
 5282 0530 1034     		adds	r4, r4, #16
 5283 0532 BE42     		cmp	r6, r7
 5284 0534 F5D1     		bne	.L423
 5285 0536 07CD     		ldmia	r5!, {r0, r1, r2}
 5286 0538 2060     		str	r0, [r4]	@ unaligned
 5287 053a 6160     		str	r1, [r4, #4]	@ unaligned
 5288 053c A260     		str	r2, [r4, #8]	@ unaligned
 5289 053e 2B78     		ldrb	r3, [r5]	@ zero_extendqisi2
 5290 0540 2373     		strb	r3, [r4, #12]
1174:TinyBasic.c   ****   strcat(s,"0022 10;    32       RB\n");
 5291              		.loc 1 1174 0
 5292 0542 6C4C     		ldr	r4, .L506
 5293 0544 2046     		mov	r0, r4
 5294 0546 FFF7FEFF 		bl	strlen
 5295              	.LVL658:
 5296 054a 0746     		mov	r7, r0
 5297 054c 2618     		adds	r6, r4, r0
 5298 054e 754D     		ldr	r5, .L506+48
 5299 0550 0FCD     		ldmia	r5!, {r0, r1, r2, r3}
 5300 0552 E051     		str	r0, [r4, r7]	@ unaligned
 5301 0554 7160     		str	r1, [r6, #4]	@ unaligned
 5302 0556 B260     		str	r2, [r6, #8]	@ unaligned
 5303 0558 F360     		str	r3, [r6, #12]	@ unaligned
 5304 055a 03CD     		ldmia	r5!, {r0, r1}
 5305 055c 3061     		str	r0, [r6, #16]	@ unaligned
 5306 055e 7161     		str	r1, [r6, #20]	@ unaligned
 5307 0560 2B78     		ldrb	r3, [r5]	@ zero_extendqisi2
 5308 0562 3376     		strb	r3, [r6, #24]
1175:TinyBasic.c   ****   strcat(s,"0023 11;    33       GO              GO THERE\n");
 5309              		.loc 1 1175 0
 5310 0564 2046     		mov	r0, r4
 5311 0566 FFF7FEFF 		bl	strlen
 5312              	.LVL659:
 5313 056a 6F4D     		ldr	r5, .L506+52
 5314 056c 0444     		add	r4, r4, r0
 5315 056e 05F12007 		add	r7, r5, #32
 5316              	.L424:
 5317 0572 2E46     		mov	r6, r5
 5318 0574 0FCE     		ldmia	r6!, {r0, r1, r2, r3}
 5319 0576 2060     		str	r0, [r4]	@ unaligned
 5320 0578 6160     		str	r1, [r4, #4]	@ unaligned
 5321 057a A260     		str	r2, [r4, #8]	@ unaligned
 5322 057c E360     		str	r3, [r4, #12]	@ unaligned
 5323 057e 3546     		mov	r5, r6
 5324 0580 1034     		adds	r4, r4, #16
 5325 0582 BE42     		cmp	r6, r7
 5326 0584 F5D1     		bne	.L424
 5327 0586 3346     		mov	r3, r6
 5328 0588 07CB     		ldmia	r3!, {r0, r1, r2}
 5329 058a 2060     		str	r0, [r4]	@ unaligned
 5330 058c 6160     		str	r1, [r4, #4]	@ unaligned
 5331 058e A260     		str	r2, [r4, #8]	@ unaligned
 5332 0590 1A88     		ldrh	r2, [r3]	@ unaligned
 5333 0592 9B78     		ldrb	r3, [r3, #2]	@ zero_extendqisi2
ARM GAS  C:\Users\doug_000\AppData\Local\Temp\ccbaKQF3.s 			page 116


 5334 0594 A281     		strh	r2, [r4, #12]	@ unaligned
 5335 0596 A373     		strb	r3, [r4, #14]
1176:TinyBasic.c   ****   strcat(s,"0024 16;    34 .\n");
 5336              		.loc 1 1176 0
 5337 0598 564C     		ldr	r4, .L506
 5338 059a 2046     		mov	r0, r4
 5339 059c FFF7FEFF 		bl	strlen
 5340              	.LVL660:
 5341 05a0 0746     		mov	r7, r0
 5342 05a2 2618     		adds	r6, r4, r0
 5343 05a4 614D     		ldr	r5, .L506+56
 5344 05a6 0FCD     		ldmia	r5!, {r0, r1, r2, r3}
 5345 05a8 E051     		str	r0, [r4, r7]	@ unaligned
 5346 05aa 7160     		str	r1, [r6, #4]	@ unaligned
 5347 05ac B260     		str	r2, [r6, #8]	@ unaligned
 5348 05ae F360     		str	r3, [r6, #12]	@ unaligned
 5349 05b0 2B88     		ldrh	r3, [r5]	@ unaligned
 5350 05b2 3382     		strh	r3, [r6, #16]	@ unaligned
1177:TinyBasic.c   ****   strcat(s,"0025 ;      35 :GOSB BC * \"SUB\"      NO OTHER WORD BEGINS \"GO...\"\n");
 5351              		.loc 1 1177 0
 5352 05b4 2046     		mov	r0, r4
 5353 05b6 FFF7FEFF 		bl	strlen
 5354              	.LVL661:
 5355 05ba 2044     		add	r0, r0, r4
 5356 05bc 5C49     		ldr	r1, .L506+60
 5357 05be 4322     		movs	r2, #67
 5358 05c0 FFF7FEFF 		bl	memcpy
 5359              	.LVL662:
1178:TinyBasic.c   ****   strcat(s,"0025 805355C2;\n");
 5360              		.loc 1 1178 0
 5361 05c4 2046     		mov	r0, r4
 5362 05c6 FFF7FEFF 		bl	strlen
 5363              	.LVL663:
 5364 05ca 0746     		mov	r7, r0
 5365 05cc 2618     		adds	r6, r4, r0
 5366 05ce 594D     		ldr	r5, .L506+64
 5367 05d0 0FCD     		ldmia	r5!, {r0, r1, r2, r3}
 5368 05d2 E051     		str	r0, [r4, r7]	@ unaligned
 5369 05d4 7160     		str	r1, [r6, #4]	@ unaligned
 5370 05d6 B260     		str	r2, [r6, #8]	@ unaligned
 5371 05d8 F360     		str	r3, [r6, #12]	@ unaligned
1179:TinyBasic.c   ****   strcat(s,"0029 ;      36       JS EXPR\n");
 5372              		.loc 1 1179 0
 5373 05da 2046     		mov	r0, r4
 5374 05dc FFF7FEFF 		bl	strlen
 5375              	.LVL664:
 5376 05e0 0746     		mov	r7, r0
 5377 05e2 2618     		adds	r6, r4, r0
 5378 05e4 544D     		ldr	r5, .L506+68
 5379 05e6 0FCD     		ldmia	r5!, {r0, r1, r2, r3}
 5380 05e8 E051     		str	r0, [r4, r7]	@ unaligned
 5381 05ea 7160     		str	r1, [r6, #4]	@ unaligned
 5382 05ec B260     		str	r2, [r6, #8]	@ unaligned
 5383 05ee F360     		str	r3, [r6, #12]	@ unaligned
 5384 05f0 07CD     		ldmia	r5!, {r0, r1, r2}
 5385 05f2 3061     		str	r0, [r6, #16]	@ unaligned
 5386 05f4 7161     		str	r1, [r6, #20]	@ unaligned
ARM GAS  C:\Users\doug_000\AppData\Local\Temp\ccbaKQF3.s 			page 117


 5387 05f6 B261     		str	r2, [r6, #24]	@ unaligned
 5388 05f8 2B88     		ldrh	r3, [r5]	@ unaligned
 5389 05fa B383     		strh	r3, [r6, #28]	@ unaligned
1180:TinyBasic.c   ****   strcat(s,"0029 30BC;  37       BE *\n");
 5390              		.loc 1 1180 0
 5391 05fc 2046     		mov	r0, r4
 5392 05fe FFF7FEFF 		bl	strlen
 5393              	.LVL665:
 5394 0602 0746     		mov	r7, r0
 5395 0604 2618     		adds	r6, r4, r0
 5396 0606 4D4D     		ldr	r5, .L506+72
 5397 0608 0FCD     		ldmia	r5!, {r0, r1, r2, r3}
 5398 060a E051     		str	r0, [r4, r7]	@ unaligned
 5399 060c 7160     		str	r1, [r6, #4]	@ unaligned
 5400 060e B260     		str	r2, [r6, #8]	@ unaligned
 5401 0610 F360     		str	r3, [r6, #12]	@ unaligned
 5402 0612 03CD     		ldmia	r5!, {r0, r1}
 5403 0614 3061     		str	r0, [r6, #16]	@ unaligned
 5404 0616 7161     		str	r1, [r6, #20]	@ unaligned
 5405 0618 2A88     		ldrh	r2, [r5]	@ unaligned
 5406 061a AB78     		ldrb	r3, [r5, #2]	@ zero_extendqisi2
 5407 061c 3283     		strh	r2, [r6, #24]	@ unaligned
 5408 061e B376     		strb	r3, [r6, #26]
1181:TinyBasic.c   ****   strcat(s,"002B E0;    38       GS\n");
 5409              		.loc 1 1181 0
 5410 0620 2046     		mov	r0, r4
 5411 0622 FFF7FEFF 		bl	strlen
 5412              	.LVL666:
 5413 0626 0746     		mov	r7, r0
 5414 0628 2618     		adds	r6, r4, r0
 5415 062a 454D     		ldr	r5, .L506+76
 5416 062c 0FCD     		ldmia	r5!, {r0, r1, r2, r3}
 5417 062e E051     		str	r0, [r4, r7]	@ unaligned
 5418 0630 7160     		str	r1, [r6, #4]	@ unaligned
 5419 0632 B260     		str	r2, [r6, #8]	@ unaligned
 5420 0634 F360     		str	r3, [r6, #12]	@ unaligned
 5421 0636 03CD     		ldmia	r5!, {r0, r1}
 5422 0638 3061     		str	r0, [r6, #16]	@ unaligned
 5423 063a 7161     		str	r1, [r6, #20]	@ unaligned
 5424 063c 2B78     		ldrb	r3, [r5]	@ zero_extendqisi2
 5425 063e 3376     		strb	r3, [r6, #24]
1182:TinyBasic.c   ****   strcat(s,"002C 14;    39       GO\n");
 5426              		.loc 1 1182 0
 5427 0640 2046     		mov	r0, r4
 5428 0642 FFF7FEFF 		bl	strlen
 5429              	.LVL667:
 5430 0646 0746     		mov	r7, r0
 5431 0648 2618     		adds	r6, r4, r0
 5432 064a 3E4D     		ldr	r5, .L506+80
 5433 064c 0FCD     		ldmia	r5!, {r0, r1, r2, r3}
 5434 064e E051     		str	r0, [r4, r7]	@ unaligned
 5435 0650 7160     		str	r1, [r6, #4]	@ unaligned
 5436 0652 B260     		str	r2, [r6, #8]	@ unaligned
 5437 0654 F360     		str	r3, [r6, #12]	@ unaligned
 5438 0656 03CD     		ldmia	r5!, {r0, r1}
 5439 0658 3061     		str	r0, [r6, #16]	@ unaligned
 5440 065a 7161     		str	r1, [r6, #20]	@ unaligned
ARM GAS  C:\Users\doug_000\AppData\Local\Temp\ccbaKQF3.s 			page 118


 5441 065c 2B78     		ldrb	r3, [r5]	@ zero_extendqisi2
 5442 065e 3376     		strb	r3, [r6, #24]
1183:TinyBasic.c   ****   strcat(s,"002D 16;    40 .\n");
 5443              		.loc 1 1183 0
 5444 0660 2046     		mov	r0, r4
 5445 0662 FFF7FEFF 		bl	strlen
 5446              	.LVL668:
 5447 0666 0746     		mov	r7, r0
 5448 0668 2618     		adds	r6, r4, r0
 5449 066a 374D     		ldr	r5, .L506+84
 5450 066c 0FCD     		ldmia	r5!, {r0, r1, r2, r3}
 5451 066e E051     		str	r0, [r4, r7]	@ unaligned
 5452 0670 7160     		str	r1, [r6, #4]	@ unaligned
 5453 0672 B260     		str	r2, [r6, #8]	@ unaligned
 5454 0674 F360     		str	r3, [r6, #12]	@ unaligned
 5455 0676 2B88     		ldrh	r3, [r5]	@ unaligned
 5456 0678 3382     		strh	r3, [r6, #16]	@ unaligned
1184:TinyBasic.c   ****   strcat(s,"002E ;      41 :PRNT BC SKIP \"PR\"\n");
 5457              		.loc 1 1184 0
 5458 067a 2046     		mov	r0, r4
 5459 067c FFF7FEFF 		bl	strlen
 5460              	.LVL669:
 5461 0680 324D     		ldr	r5, .L506+88
 5462 0682 0444     		add	r4, r4, r0
 5463 0684 05F12007 		add	r7, r5, #32
 5464              	.L425:
 5465 0688 2E46     		mov	r6, r5
 5466 068a 0FCE     		ldmia	r6!, {r0, r1, r2, r3}
 5467 068c 2060     		str	r0, [r4]	@ unaligned
 5468 068e 6160     		str	r1, [r4, #4]	@ unaligned
 5469 0690 A260     		str	r2, [r4, #8]	@ unaligned
 5470 0692 E360     		str	r3, [r4, #12]	@ unaligned
 5471 0694 3546     		mov	r5, r6
 5472 0696 1034     		adds	r4, r4, #16
 5473 0698 BE42     		cmp	r6, r7
 5474 069a F5D1     		bne	.L425
 5475 069c 3288     		ldrh	r2, [r6]	@ unaligned
 5476 069e B378     		ldrb	r3, [r6, #2]	@ zero_extendqisi2
 5477 06a0 2280     		strh	r2, [r4]	@ unaligned
 5478 06a2 A370     		strb	r3, [r4, #2]
1185:TinyBasic.c   ****   strcat(s,"002E 9050D2;\n");
 5479              		.loc 1 1185 0
 5480 06a4 134C     		ldr	r4, .L506
 5481 06a6 2046     		mov	r0, r4
 5482 06a8 FFF7FEFF 		bl	strlen
 5483              	.LVL670:
 5484 06ac 0646     		mov	r6, r0
 5485 06ae 2518     		adds	r5, r4, r0
 5486 06b0 274B     		ldr	r3, .L506+92
 5487 06b2 07CB     		ldmia	r3!, {r0, r1, r2}
 5488 06b4 A051     		str	r0, [r4, r6]	@ unaligned
 5489 06b6 6960     		str	r1, [r5, #4]	@ unaligned
 5490 06b8 AA60     		str	r2, [r5, #8]	@ unaligned
 5491 06ba 1B88     		ldrh	r3, [r3]	@ unaligned
 5492 06bc AB81     		strh	r3, [r5, #12]	@ unaligned
1186:TinyBasic.c   ****   strcat(s,"0031 ;      42       BC P0 \"INT\"     OPTIONALLY OMIT \"INT\"\n");
 5493              		.loc 1 1186 0
ARM GAS  C:\Users\doug_000\AppData\Local\Temp\ccbaKQF3.s 			page 119


 5494 06be 2046     		mov	r0, r4
 5495 06c0 FFF7FEFF 		bl	strlen
 5496              	.LVL671:
 5497 06c4 234D     		ldr	r5, .L506+96
 5498 06c6 0444     		add	r4, r4, r0
 5499 06c8 05F13007 		add	r7, r5, #48
 5500              	.L426:
 5501 06cc 2E46     		mov	r6, r5
 5502 06ce 0FCE     		ldmia	r6!, {r0, r1, r2, r3}
 5503 06d0 2060     		str	r0, [r4]	@ unaligned
 5504 06d2 6160     		str	r1, [r4, #4]	@ unaligned
 5505 06d4 A260     		str	r2, [r4, #8]	@ unaligned
 5506 06d6 E360     		str	r3, [r4, #12]	@ unaligned
 5507 06d8 3546     		mov	r5, r6
 5508 06da 1034     		adds	r4, r4, #16
 5509 06dc BE42     		cmp	r6, r7
 5510 06de F5D1     		bne	.L426
 5511 06e0 07CD     		ldmia	r5!, {r0, r1, r2}
 5512 06e2 2060     		str	r0, [r4]	@ unaligned
 5513 06e4 6160     		str	r1, [r4, #4]	@ unaligned
 5514 06e6 A260     		str	r2, [r4, #8]	@ unaligned
1187:TinyBasic.c   ****   strcat(s,"0031 83494ED4;\n");
 5515              		.loc 1 1187 0
 5516 06e8 024C     		ldr	r4, .L506
 5517 06ea 2046     		mov	r0, r4
 5518 06ec FFF7FEFF 		bl	strlen
 5519              	.LVL672:
 5520 06f0 32E0     		b	.L507
 5521              	.L508:
 5522 06f2 00BF     		.align	2
 5523              	.L506:
 5524 06f4 18000000 		.word	.LANCHOR0+24
 5525 06f8 F4040000 		.word	.LC55
 5526 06fc 2C050000 		.word	.LC56
 5527 0700 64050000 		.word	.LC57
 5528 0704 80050000 		.word	.LC58
 5529 0708 94050000 		.word	.LC59
 5530 070c B8050000 		.word	.LC60
 5531 0710 C8050000 		.word	.LC61
 5532 0714 EC050000 		.word	.LC62
 5533 0718 FC050000 		.word	.LC63
 5534 071c 34060000 		.word	.LC64
 5535 0720 50060000 		.word	.LC65
 5536 0724 90060000 		.word	.LC66
 5537 0728 AC060000 		.word	.LC67
 5538 072c DC060000 		.word	.LC68
 5539 0730 F0060000 		.word	.LC69
 5540 0734 34070000 		.word	.LC70
 5541 0738 44070000 		.word	.LC71
 5542 073c 64070000 		.word	.LC72
 5543 0740 80070000 		.word	.LC73
 5544 0744 9C070000 		.word	.LC74
 5545 0748 B8070000 		.word	.LC75
 5546 074c CC070000 		.word	.LC76
 5547 0750 F0070000 		.word	.LC77
 5548 0754 00080000 		.word	.LC78
 5549              	.L507:
ARM GAS  C:\Users\doug_000\AppData\Local\Temp\ccbaKQF3.s 			page 120


 5550 0758 0746     		mov	r7, r0
 5551 075a 2618     		adds	r6, r4, r0
 5552 075c D04D     		ldr	r5, .L509
 5553 075e 0FCD     		ldmia	r5!, {r0, r1, r2, r3}
 5554 0760 E051     		str	r0, [r4, r7]	@ unaligned
 5555 0762 7160     		str	r1, [r6, #4]	@ unaligned
 5556 0764 B260     		str	r2, [r6, #8]	@ unaligned
 5557 0766 F360     		str	r3, [r6, #12]	@ unaligned
1188:TinyBasic.c   ****   strcat(s,"0035 ;      43 :P0   BE P3\n");
 5558              		.loc 1 1188 0
 5559 0768 2046     		mov	r0, r4
 5560 076a FFF7FEFF 		bl	strlen
 5561              	.LVL673:
 5562 076e 0746     		mov	r7, r0
 5563 0770 2618     		adds	r6, r4, r0
 5564 0772 CC4D     		ldr	r5, .L509+4
 5565 0774 0FCD     		ldmia	r5!, {r0, r1, r2, r3}
 5566 0776 E051     		str	r0, [r4, r7]	@ unaligned
 5567 0778 7160     		str	r1, [r6, #4]	@ unaligned
 5568 077a B260     		str	r2, [r6, #8]	@ unaligned
 5569 077c F360     		str	r3, [r6, #12]	@ unaligned
 5570 077e 07CD     		ldmia	r5!, {r0, r1, r2}
 5571 0780 3061     		str	r0, [r6, #16]	@ unaligned
 5572 0782 7161     		str	r1, [r6, #20]	@ unaligned
 5573 0784 B261     		str	r2, [r6, #24]	@ unaligned
1189:TinyBasic.c   ****   strcat(s,"0035 E5;    44       BR P6           IF DONE, GO TO END\n");
 5574              		.loc 1 1189 0
 5575 0786 2046     		mov	r0, r4
 5576 0788 FFF7FEFF 		bl	strlen
 5577              	.LVL674:
 5578 078c C64D     		ldr	r5, .L509+8
 5579 078e 0444     		add	r4, r4, r0
 5580 0790 05F13007 		add	r7, r5, #48
 5581              	.L427:
 5582 0794 2E46     		mov	r6, r5
 5583 0796 0FCE     		ldmia	r6!, {r0, r1, r2, r3}
 5584 0798 2060     		str	r0, [r4]	@ unaligned
 5585 079a 6160     		str	r1, [r4, #4]	@ unaligned
 5586 079c A260     		str	r2, [r4, #8]	@ unaligned
 5587 079e E360     		str	r3, [r4, #12]	@ unaligned
 5588 07a0 3546     		mov	r5, r6
 5589 07a2 1034     		adds	r4, r4, #16
 5590 07a4 BE42     		cmp	r6, r7
 5591 07a6 F5D1     		bne	.L427
 5592 07a8 03CD     		ldmia	r5!, {r0, r1}
 5593 07aa 2060     		str	r0, [r4]	@ unaligned
 5594 07ac 6160     		str	r1, [r4, #4]	@ unaligned
 5595 07ae 2B78     		ldrb	r3, [r5]	@ zero_extendqisi2
 5596 07b0 2372     		strb	r3, [r4, #8]
1190:TinyBasic.c   ****   strcat(s,"0036 71;    45 :P1   BC P4 \";\"\n");
 5597              		.loc 1 1190 0
 5598 07b2 BE4C     		ldr	r4, .L509+12
 5599 07b4 2046     		mov	r0, r4
 5600 07b6 FFF7FEFF 		bl	strlen
 5601              	.LVL675:
 5602 07ba 0746     		mov	r7, r0
 5603 07bc 2618     		adds	r6, r4, r0
ARM GAS  C:\Users\doug_000\AppData\Local\Temp\ccbaKQF3.s 			page 121


 5604 07be BC4D     		ldr	r5, .L509+16
 5605 07c0 0FCD     		ldmia	r5!, {r0, r1, r2, r3}
 5606 07c2 E051     		str	r0, [r4, r7]	@ unaligned
 5607 07c4 7160     		str	r1, [r6, #4]	@ unaligned
 5608 07c6 B260     		str	r2, [r6, #8]	@ unaligned
 5609 07c8 F360     		str	r3, [r6, #12]	@ unaligned
 5610 07ca 0FCD     		ldmia	r5!, {r0, r1, r2, r3}
 5611 07cc 3061     		str	r0, [r6, #16]	@ unaligned
 5612 07ce 7161     		str	r1, [r6, #20]	@ unaligned
 5613 07d0 B261     		str	r2, [r6, #24]	@ unaligned
 5614 07d2 F361     		str	r3, [r6, #28]	@ unaligned
1191:TinyBasic.c   ****   strcat(s,"0037 88BB;  46 :P2   BE P3\n");
 5615              		.loc 1 1191 0
 5616 07d4 2046     		mov	r0, r4
 5617 07d6 FFF7FEFF 		bl	strlen
 5618              	.LVL676:
 5619 07da 0746     		mov	r7, r0
 5620 07dc 2618     		adds	r6, r4, r0
 5621 07de B54D     		ldr	r5, .L509+20
 5622 07e0 0FCD     		ldmia	r5!, {r0, r1, r2, r3}
 5623 07e2 E051     		str	r0, [r4, r7]	@ unaligned
 5624 07e4 7160     		str	r1, [r6, #4]	@ unaligned
 5625 07e6 B260     		str	r2, [r6, #8]	@ unaligned
 5626 07e8 F360     		str	r3, [r6, #12]	@ unaligned
 5627 07ea 07CD     		ldmia	r5!, {r0, r1, r2}
 5628 07ec 3061     		str	r0, [r6, #16]	@ unaligned
 5629 07ee 7161     		str	r1, [r6, #20]	@ unaligned
 5630 07f0 B261     		str	r2, [r6, #24]	@ unaligned
1192:TinyBasic.c   ****   strcat(s,"0039 E1;    47       NX              NO CRLF IF ENDED BY ; OR ,\n");
 5631              		.loc 1 1192 0
 5632 07f2 2046     		mov	r0, r4
 5633 07f4 FFF7FEFF 		bl	strlen
 5634              	.LVL677:
 5635 07f8 2044     		add	r0, r0, r4
 5636 07fa AF49     		ldr	r1, .L509+24
 5637 07fc 4122     		movs	r2, #65
 5638 07fe FFF7FEFF 		bl	memcpy
 5639              	.LVL678:
1193:TinyBasic.c   ****   strcat(s,"003A 1D;    48 :P3   BC P7 '\"'\n");
 5640              		.loc 1 1193 0
 5641 0802 2046     		mov	r0, r4
 5642 0804 FFF7FEFF 		bl	strlen
 5643              	.LVL679:
 5644 0808 0746     		mov	r7, r0
 5645 080a 2618     		adds	r6, r4, r0
 5646 080c AB4D     		ldr	r5, .L509+28
 5647 080e 0FCD     		ldmia	r5!, {r0, r1, r2, r3}
 5648 0810 E051     		str	r0, [r4, r7]	@ unaligned
 5649 0812 7160     		str	r1, [r6, #4]	@ unaligned
 5650 0814 B260     		str	r2, [r6, #8]	@ unaligned
 5651 0816 F360     		str	r3, [r6, #12]	@ unaligned
 5652 0818 0FCD     		ldmia	r5!, {r0, r1, r2, r3}
 5653 081a 3061     		str	r0, [r6, #16]	@ unaligned
 5654 081c 7161     		str	r1, [r6, #20]	@ unaligned
 5655 081e B261     		str	r2, [r6, #24]	@ unaligned
 5656 0820 F361     		str	r3, [r6, #28]	@ unaligned
1194:TinyBasic.c   ****   strcat(s,"003B 8FA2;  49       PQ              QUOTE MARKS STRING\n");
ARM GAS  C:\Users\doug_000\AppData\Local\Temp\ccbaKQF3.s 			page 122


 5657              		.loc 1 1194 0
 5658 0822 2046     		mov	r0, r4
 5659 0824 FFF7FEFF 		bl	strlen
 5660              	.LVL680:
 5661 0828 A54D     		ldr	r5, .L509+32
 5662 082a 0444     		add	r4, r4, r0
 5663 082c 05F13007 		add	r7, r5, #48
 5664              	.L428:
 5665 0830 2E46     		mov	r6, r5
 5666 0832 0FCE     		ldmia	r6!, {r0, r1, r2, r3}
 5667 0834 2060     		str	r0, [r4]	@ unaligned
 5668 0836 6160     		str	r1, [r4, #4]	@ unaligned
 5669 0838 A260     		str	r2, [r4, #8]	@ unaligned
 5670 083a E360     		str	r3, [r4, #12]	@ unaligned
 5671 083c 3546     		mov	r5, r6
 5672 083e 1034     		adds	r4, r4, #16
 5673 0840 BE42     		cmp	r6, r7
 5674 0842 F5D1     		bne	.L428
 5675 0844 03CD     		ldmia	r5!, {r0, r1}
 5676 0846 2060     		str	r0, [r4]	@ unaligned
 5677 0848 6160     		str	r1, [r4, #4]	@ unaligned
 5678 084a 2B78     		ldrb	r3, [r5]	@ zero_extendqisi2
 5679 084c 2372     		strb	r3, [r4, #8]
1195:TinyBasic.c   ****   strcat(s,"003D 21;    50       BR P1           GO CHECK DELIMITER\n");
 5680              		.loc 1 1195 0
 5681 084e 974C     		ldr	r4, .L509+12
 5682 0850 2046     		mov	r0, r4
 5683 0852 FFF7FEFF 		bl	strlen
 5684              	.LVL681:
 5685 0856 9B4D     		ldr	r5, .L509+36
 5686 0858 0444     		add	r4, r4, r0
 5687 085a 05F13007 		add	r7, r5, #48
 5688              	.L429:
 5689 085e 2E46     		mov	r6, r5
 5690 0860 0FCE     		ldmia	r6!, {r0, r1, r2, r3}
 5691 0862 2060     		str	r0, [r4]	@ unaligned
 5692 0864 6160     		str	r1, [r4, #4]	@ unaligned
 5693 0866 A260     		str	r2, [r4, #8]	@ unaligned
 5694 0868 E360     		str	r3, [r4, #12]	@ unaligned
 5695 086a 3546     		mov	r5, r6
 5696 086c 1034     		adds	r4, r4, #16
 5697 086e BE42     		cmp	r6, r7
 5698 0870 F5D1     		bne	.L429
 5699 0872 03CD     		ldmia	r5!, {r0, r1}
 5700 0874 2060     		str	r0, [r4]	@ unaligned
 5701 0876 6160     		str	r1, [r4, #4]	@ unaligned
 5702 0878 2B78     		ldrb	r3, [r5]	@ zero_extendqisi2
 5703 087a 2372     		strb	r3, [r4, #8]
1196:TinyBasic.c   ****   strcat(s,"003E 58;    51 :SKIP BR IF           (ON THE WAY THRU)\n");
 5704              		.loc 1 1196 0
 5705 087c 8B4C     		ldr	r4, .L509+12
 5706 087e 2046     		mov	r0, r4
 5707 0880 FFF7FEFF 		bl	strlen
 5708              	.LVL682:
 5709 0884 904D     		ldr	r5, .L509+40
 5710 0886 0444     		add	r4, r4, r0
 5711 0888 05F13007 		add	r7, r5, #48
ARM GAS  C:\Users\doug_000\AppData\Local\Temp\ccbaKQF3.s 			page 123


 5712              	.L430:
 5713 088c 2E46     		mov	r6, r5
 5714 088e 0FCE     		ldmia	r6!, {r0, r1, r2, r3}
 5715 0890 2060     		str	r0, [r4]	@ unaligned
 5716 0892 6160     		str	r1, [r4, #4]	@ unaligned
 5717 0894 A260     		str	r2, [r4, #8]	@ unaligned
 5718 0896 E360     		str	r3, [r4, #12]	@ unaligned
 5719 0898 3546     		mov	r5, r6
 5720 089a 1034     		adds	r4, r4, #16
 5721 089c BE42     		cmp	r6, r7
 5722 089e F5D1     		bne	.L430
 5723 08a0 03CD     		ldmia	r5!, {r0, r1}
 5724 08a2 2060     		str	r0, [r4]	@ unaligned
 5725 08a4 6160     		str	r1, [r4, #4]	@ unaligned
1197:TinyBasic.c   ****   strcat(s,"003F 6F;    52 :P4   BC P5 \",\"\n");
 5726              		.loc 1 1197 0
 5727 08a6 814C     		ldr	r4, .L509+12
 5728 08a8 2046     		mov	r0, r4
 5729 08aa FFF7FEFF 		bl	strlen
 5730              	.LVL683:
 5731 08ae 0746     		mov	r7, r0
 5732 08b0 2618     		adds	r6, r4, r0
 5733 08b2 864D     		ldr	r5, .L509+44
 5734 08b4 0FCD     		ldmia	r5!, {r0, r1, r2, r3}
 5735 08b6 E051     		str	r0, [r4, r7]	@ unaligned
 5736 08b8 7160     		str	r1, [r6, #4]	@ unaligned
 5737 08ba B260     		str	r2, [r6, #8]	@ unaligned
 5738 08bc F360     		str	r3, [r6, #12]	@ unaligned
 5739 08be 0FCD     		ldmia	r5!, {r0, r1, r2, r3}
 5740 08c0 3061     		str	r0, [r6, #16]	@ unaligned
 5741 08c2 7161     		str	r1, [r6, #20]	@ unaligned
 5742 08c4 B261     		str	r2, [r6, #24]	@ unaligned
 5743 08c6 F361     		str	r3, [r6, #28]	@ unaligned
1198:TinyBasic.c   ****   strcat(s,"0040 83AC;  53       PT              COMMA SPACING\n");
 5744              		.loc 1 1198 0
 5745 08c8 2046     		mov	r0, r4
 5746 08ca FFF7FEFF 		bl	strlen
 5747              	.LVL684:
 5748 08ce 804D     		ldr	r5, .L509+48
 5749 08d0 0444     		add	r4, r4, r0
 5750 08d2 05F13007 		add	r7, r5, #48
 5751              	.L431:
 5752 08d6 2E46     		mov	r6, r5
 5753 08d8 0FCE     		ldmia	r6!, {r0, r1, r2, r3}
 5754 08da 2060     		str	r0, [r4]	@ unaligned
 5755 08dc 6160     		str	r1, [r4, #4]	@ unaligned
 5756 08de A260     		str	r2, [r4, #8]	@ unaligned
 5757 08e0 E360     		str	r3, [r4, #12]	@ unaligned
 5758 08e2 3546     		mov	r5, r6
 5759 08e4 1034     		adds	r4, r4, #16
 5760 08e6 BE42     		cmp	r6, r7
 5761 08e8 F5D1     		bne	.L431
 5762 08ea 3068     		ldr	r0, [r6]	@ unaligned
 5763 08ec 2060     		str	r0, [r4]	@ unaligned
1199:TinyBasic.c   ****   strcat(s,"0042 22;    54       BR P2\n");
 5764              		.loc 1 1199 0
 5765 08ee 6F4C     		ldr	r4, .L509+12
ARM GAS  C:\Users\doug_000\AppData\Local\Temp\ccbaKQF3.s 			page 124


 5766 08f0 2046     		mov	r0, r4
 5767 08f2 FFF7FEFF 		bl	strlen
 5768              	.LVL685:
 5769 08f6 0746     		mov	r7, r0
 5770 08f8 2618     		adds	r6, r4, r0
 5771 08fa 764D     		ldr	r5, .L509+52
 5772 08fc 0FCD     		ldmia	r5!, {r0, r1, r2, r3}
 5773 08fe E051     		str	r0, [r4, r7]	@ unaligned
 5774 0900 7160     		str	r1, [r6, #4]	@ unaligned
 5775 0902 B260     		str	r2, [r6, #8]	@ unaligned
 5776 0904 F360     		str	r3, [r6, #12]	@ unaligned
 5777 0906 07CD     		ldmia	r5!, {r0, r1, r2}
 5778 0908 3061     		str	r0, [r6, #16]	@ unaligned
 5779 090a 7161     		str	r1, [r6, #20]	@ unaligned
 5780 090c B261     		str	r2, [r6, #24]	@ unaligned
1200:TinyBasic.c   ****   strcat(s,"0043 55;    55 :P5   BC P6 \":\"\n");
 5781              		.loc 1 1200 0
 5782 090e 2046     		mov	r0, r4
 5783 0910 FFF7FEFF 		bl	strlen
 5784              	.LVL686:
 5785 0914 0746     		mov	r7, r0
 5786 0916 2618     		adds	r6, r4, r0
 5787 0918 6F4D     		ldr	r5, .L509+56
 5788 091a 0FCD     		ldmia	r5!, {r0, r1, r2, r3}
 5789 091c E051     		str	r0, [r4, r7]	@ unaligned
 5790 091e 7160     		str	r1, [r6, #4]	@ unaligned
 5791 0920 B260     		str	r2, [r6, #8]	@ unaligned
 5792 0922 F360     		str	r3, [r6, #12]	@ unaligned
 5793 0924 0FCD     		ldmia	r5!, {r0, r1, r2, r3}
 5794 0926 3061     		str	r0, [r6, #16]	@ unaligned
 5795 0928 7161     		str	r1, [r6, #20]	@ unaligned
 5796 092a B261     		str	r2, [r6, #24]	@ unaligned
 5797 092c F361     		str	r3, [r6, #28]	@ unaligned
1201:TinyBasic.c   ****   strcat(s,"0044 83BA;  56       PC \"S^\"         OUTPUT X-OFF\n");
 5798              		.loc 1 1201 0
 5799 092e 2046     		mov	r0, r4
 5800 0930 FFF7FEFF 		bl	strlen
 5801              	.LVL687:
 5802 0934 694D     		ldr	r5, .L509+60
 5803 0936 0444     		add	r4, r4, r0
 5804 0938 05F13007 		add	r7, r5, #48
 5805              	.L432:
 5806 093c 2E46     		mov	r6, r5
 5807 093e 0FCE     		ldmia	r6!, {r0, r1, r2, r3}
 5808 0940 2060     		str	r0, [r4]	@ unaligned
 5809 0942 6160     		str	r1, [r4, #4]	@ unaligned
 5810 0944 A260     		str	r2, [r4, #8]	@ unaligned
 5811 0946 E360     		str	r3, [r4, #12]	@ unaligned
 5812 0948 3546     		mov	r5, r6
 5813 094a 1034     		adds	r4, r4, #16
 5814 094c BE42     		cmp	r6, r7
 5815 094e F5D1     		bne	.L432
 5816 0950 3288     		ldrh	r2, [r6]	@ unaligned
 5817 0952 B378     		ldrb	r3, [r6, #2]	@ zero_extendqisi2
 5818 0954 2280     		strh	r2, [r4]	@ unaligned
 5819 0956 A370     		strb	r3, [r4, #2]
1202:TinyBasic.c   ****   strcat(s,"0046 2493;  57 :P6   BE *\n");
ARM GAS  C:\Users\doug_000\AppData\Local\Temp\ccbaKQF3.s 			page 125


 5820              		.loc 1 1202 0
 5821 0958 544C     		ldr	r4, .L509+12
 5822 095a 2046     		mov	r0, r4
 5823 095c FFF7FEFF 		bl	strlen
 5824              	.LVL688:
 5825 0960 0746     		mov	r7, r0
 5826 0962 2618     		adds	r6, r4, r0
 5827 0964 5E4D     		ldr	r5, .L509+64
 5828 0966 0FCD     		ldmia	r5!, {r0, r1, r2, r3}
 5829 0968 E051     		str	r0, [r4, r7]	@ unaligned
 5830 096a 7160     		str	r1, [r6, #4]	@ unaligned
 5831 096c B260     		str	r2, [r6, #8]	@ unaligned
 5832 096e F360     		str	r3, [r6, #12]	@ unaligned
 5833 0970 03CD     		ldmia	r5!, {r0, r1}
 5834 0972 3061     		str	r0, [r6, #16]	@ unaligned
 5835 0974 7161     		str	r1, [r6, #20]	@ unaligned
 5836 0976 2A88     		ldrh	r2, [r5]	@ unaligned
 5837 0978 AB78     		ldrb	r3, [r5, #2]	@ zero_extendqisi2
 5838 097a 3283     		strh	r2, [r6, #24]	@ unaligned
 5839 097c B376     		strb	r3, [r6, #26]
1203:TinyBasic.c   ****   strcat(s,"0048 E0;    58       NL              THEN CRLF\n");
 5840              		.loc 1 1203 0
 5841 097e 2046     		mov	r0, r4
 5842 0980 FFF7FEFF 		bl	strlen
 5843              	.LVL689:
 5844 0984 574E     		ldr	r6, .L509+68
 5845 0986 0444     		add	r4, r4, r0
 5846 0988 06F13007 		add	r7, r6, #48
 5847              	.L433:
 5848 098c 3546     		mov	r5, r6
 5849 098e 0FCD     		ldmia	r5!, {r0, r1, r2, r3}
 5850 0990 2060     		str	r0, [r4]	@ unaligned
 5851 0992 6160     		str	r1, [r4, #4]	@ unaligned
 5852 0994 A260     		str	r2, [r4, #8]	@ unaligned
 5853 0996 E360     		str	r3, [r4, #12]	@ unaligned
 5854 0998 2E46     		mov	r6, r5
 5855 099a 1034     		adds	r4, r4, #16
 5856 099c BD42     		cmp	r5, r7
 5857 099e F5D1     		bne	.L433
1204:TinyBasic.c   ****   strcat(s,"0049 23;    59       NX\n");
 5858              		.loc 1 1204 0
 5859 09a0 424C     		ldr	r4, .L509+12
 5860 09a2 2046     		mov	r0, r4
 5861 09a4 FFF7FEFF 		bl	strlen
 5862              	.LVL690:
 5863 09a8 0746     		mov	r7, r0
 5864 09aa 2618     		adds	r6, r4, r0
 5865 09ac 4E4D     		ldr	r5, .L509+72
 5866 09ae 0FCD     		ldmia	r5!, {r0, r1, r2, r3}
 5867 09b0 E051     		str	r0, [r4, r7]	@ unaligned
 5868 09b2 7160     		str	r1, [r6, #4]	@ unaligned
 5869 09b4 B260     		str	r2, [r6, #8]	@ unaligned
 5870 09b6 F360     		str	r3, [r6, #12]	@ unaligned
 5871 09b8 03CD     		ldmia	r5!, {r0, r1}
 5872 09ba 3061     		str	r0, [r6, #16]	@ unaligned
 5873 09bc 7161     		str	r1, [r6, #20]	@ unaligned
 5874 09be 2B78     		ldrb	r3, [r5]	@ zero_extendqisi2
ARM GAS  C:\Users\doug_000\AppData\Local\Temp\ccbaKQF3.s 			page 126


 5875 09c0 3376     		strb	r3, [r6, #24]
1205:TinyBasic.c   ****   strcat(s,"004A 1D;    60 :P7   JS EXPR         TRY FOR AN EXPRESSION\n");
 5876              		.loc 1 1205 0
 5877 09c2 2046     		mov	r0, r4
 5878 09c4 FFF7FEFF 		bl	strlen
 5879              	.LVL691:
 5880 09c8 484D     		ldr	r5, .L509+76
 5881 09ca 0444     		add	r4, r4, r0
 5882 09cc 05F13007 		add	r7, r5, #48
 5883              	.L434:
 5884 09d0 2E46     		mov	r6, r5
 5885 09d2 0FCE     		ldmia	r6!, {r0, r1, r2, r3}
 5886 09d4 2060     		str	r0, [r4]	@ unaligned
 5887 09d6 6160     		str	r1, [r4, #4]	@ unaligned
 5888 09d8 A260     		str	r2, [r4, #8]	@ unaligned
 5889 09da E360     		str	r3, [r4, #12]	@ unaligned
 5890 09dc 3546     		mov	r5, r6
 5891 09de 1034     		adds	r4, r4, #16
 5892 09e0 BE42     		cmp	r6, r7
 5893 09e2 F5D1     		bne	.L434
 5894 09e4 07CD     		ldmia	r5!, {r0, r1, r2}
 5895 09e6 2060     		str	r0, [r4]	@ unaligned
 5896 09e8 6160     		str	r1, [r4, #4]	@ unaligned
 5897 09ea A260     		str	r2, [r4, #8]	@ unaligned
1206:TinyBasic.c   ****   strcat(s,"004B 30BC;  61       PN\n");
 5898              		.loc 1 1206 0
 5899 09ec 2F4C     		ldr	r4, .L509+12
 5900 09ee 2046     		mov	r0, r4
 5901 09f0 FFF7FEFF 		bl	strlen
 5902              	.LVL692:
 5903 09f4 0746     		mov	r7, r0
 5904 09f6 2618     		adds	r6, r4, r0
 5905 09f8 3D4D     		ldr	r5, .L509+80
 5906 09fa 0FCD     		ldmia	r5!, {r0, r1, r2, r3}
 5907 09fc E051     		str	r0, [r4, r7]	@ unaligned
 5908 09fe 7160     		str	r1, [r6, #4]	@ unaligned
 5909 0a00 B260     		str	r2, [r6, #8]	@ unaligned
 5910 0a02 F360     		str	r3, [r6, #12]	@ unaligned
 5911 0a04 03CD     		ldmia	r5!, {r0, r1}
 5912 0a06 3061     		str	r0, [r6, #16]	@ unaligned
 5913 0a08 7161     		str	r1, [r6, #20]	@ unaligned
 5914 0a0a 2B78     		ldrb	r3, [r5]	@ zero_extendqisi2
 5915 0a0c 3376     		strb	r3, [r6, #24]
1207:TinyBasic.c   ****   strcat(s,"004D 20;    62       BR P1\n");
 5916              		.loc 1 1207 0
 5917 0a0e 2046     		mov	r0, r4
 5918 0a10 FFF7FEFF 		bl	strlen
 5919              	.LVL693:
 5920 0a14 0746     		mov	r7, r0
 5921 0a16 2618     		adds	r6, r4, r0
 5922 0a18 364D     		ldr	r5, .L509+84
 5923 0a1a 0FCD     		ldmia	r5!, {r0, r1, r2, r3}
 5924 0a1c E051     		str	r0, [r4, r7]	@ unaligned
 5925 0a1e 7160     		str	r1, [r6, #4]	@ unaligned
 5926 0a20 B260     		str	r2, [r6, #8]	@ unaligned
 5927 0a22 F360     		str	r3, [r6, #12]	@ unaligned
 5928 0a24 07CD     		ldmia	r5!, {r0, r1, r2}
ARM GAS  C:\Users\doug_000\AppData\Local\Temp\ccbaKQF3.s 			page 127


 5929 0a26 3061     		str	r0, [r6, #16]	@ unaligned
 5930 0a28 7161     		str	r1, [r6, #20]	@ unaligned
 5931 0a2a B261     		str	r2, [r6, #24]	@ unaligned
1208:TinyBasic.c   ****   strcat(s,"004E 48;    63 .\n");
 5932              		.loc 1 1208 0
 5933 0a2c 2046     		mov	r0, r4
 5934 0a2e FFF7FEFF 		bl	strlen
 5935              	.LVL694:
 5936 0a32 0746     		mov	r7, r0
 5937 0a34 2618     		adds	r6, r4, r0
 5938 0a36 304D     		ldr	r5, .L509+88
 5939 0a38 0FCD     		ldmia	r5!, {r0, r1, r2, r3}
 5940 0a3a E051     		str	r0, [r4, r7]	@ unaligned
 5941 0a3c 7160     		str	r1, [r6, #4]	@ unaligned
 5942 0a3e B260     		str	r2, [r6, #8]	@ unaligned
 5943 0a40 F360     		str	r3, [r6, #12]	@ unaligned
 5944 0a42 2B88     		ldrh	r3, [r5]	@ unaligned
 5945 0a44 3382     		strh	r3, [r6, #16]	@ unaligned
1209:TinyBasic.c   ****   strcat(s,"004F ;      64 :IF   BC INPT \"IF\"\n");
 5946              		.loc 1 1209 0
 5947 0a46 2046     		mov	r0, r4
 5948 0a48 FFF7FEFF 		bl	strlen
 5949              	.LVL695:
 5950 0a4c 2B4D     		ldr	r5, .L509+92
 5951 0a4e 0444     		add	r4, r4, r0
 5952 0a50 05F12007 		add	r7, r5, #32
 5953              	.L435:
 5954 0a54 2E46     		mov	r6, r5
 5955 0a56 0FCE     		ldmia	r6!, {r0, r1, r2, r3}
 5956 0a58 2060     		str	r0, [r4]	@ unaligned
 5957 0a5a 6160     		str	r1, [r4, #4]	@ unaligned
 5958 0a5c A260     		str	r2, [r4, #8]	@ unaligned
 5959 0a5e E360     		str	r3, [r4, #12]	@ unaligned
 5960 0a60 3546     		mov	r5, r6
 5961 0a62 1034     		adds	r4, r4, #16
 5962 0a64 BE42     		cmp	r6, r7
 5963 0a66 F5D1     		bne	.L435
 5964 0a68 3288     		ldrh	r2, [r6]	@ unaligned
 5965 0a6a B378     		ldrb	r3, [r6, #2]	@ zero_extendqisi2
 5966 0a6c 2280     		strh	r2, [r4]	@ unaligned
 5967 0a6e A370     		strb	r3, [r4, #2]
1210:TinyBasic.c   ****   strcat(s,"004F 9149C6;\n");
 5968              		.loc 1 1210 0
 5969 0a70 0E4C     		ldr	r4, .L509+12
 5970 0a72 2046     		mov	r0, r4
 5971 0a74 FFF7FEFF 		bl	strlen
 5972              	.LVL696:
 5973 0a78 0646     		mov	r6, r0
 5974 0a7a 2518     		adds	r5, r4, r0
 5975 0a7c 204B     		ldr	r3, .L509+96
 5976 0a7e 07CB     		ldmia	r3!, {r0, r1, r2}
 5977 0a80 A051     		str	r0, [r4, r6]	@ unaligned
 5978 0a82 6960     		str	r1, [r5, #4]	@ unaligned
 5979 0a84 AA60     		str	r2, [r5, #8]	@ unaligned
 5980 0a86 1B88     		ldrh	r3, [r3]	@ unaligned
 5981 0a88 AB81     		strh	r3, [r5, #12]	@ unaligned
1211:TinyBasic.c   ****   strcat(s,"0052 ;      65       JS EXPR\n");
ARM GAS  C:\Users\doug_000\AppData\Local\Temp\ccbaKQF3.s 			page 128


 5982              		.loc 1 1211 0
 5983 0a8a 2046     		mov	r0, r4
 5984 0a8c FFF7FEFF 		bl	strlen
 5985              	.LVL697:
 5986 0a90 0746     		mov	r7, r0
 5987 0a92 2618     		adds	r6, r4, r0
 5988 0a94 1B4D     		ldr	r5, .L509+100
 5989 0a96 0FCD     		ldmia	r5!, {r0, r1, r2, r3}
 5990 0a98 E051     		str	r0, [r4, r7]	@ unaligned
 5991 0a9a 7160     		str	r1, [r6, #4]	@ unaligned
 5992 0a9c B260     		str	r2, [r6, #8]	@ unaligned
 5993 0a9e 33E0     		b	.L510
 5994              	.L511:
 5995              		.align	2
 5996              	.L509:
 5997 0aa0 3C080000 		.word	.LC79
 5998 0aa4 4C080000 		.word	.LC80
 5999 0aa8 68080000 		.word	.LC81
 6000 0aac 18000000 		.word	.LANCHOR0+24
 6001 0ab0 A4080000 		.word	.LC82
 6002 0ab4 C4080000 		.word	.LC83
 6003 0ab8 E0080000 		.word	.LC84
 6004 0abc 24090000 		.word	.LC85
 6005 0ac0 44090000 		.word	.LC86
 6006 0ac4 80090000 		.word	.LC87
 6007 0ac8 BC090000 		.word	.LC88
 6008 0acc F4090000 		.word	.LC89
 6009 0ad0 140A0000 		.word	.LC90
 6010 0ad4 480A0000 		.word	.LC91
 6011 0ad8 640A0000 		.word	.LC92
 6012 0adc 840A0000 		.word	.LC93
 6013 0ae0 B80A0000 		.word	.LC94
 6014 0ae4 D40A0000 		.word	.LC95
 6015 0ae8 040B0000 		.word	.LC96
 6016 0aec 200B0000 		.word	.LC97
 6017 0af0 5C0B0000 		.word	.LC98
 6018 0af4 780B0000 		.word	.LC99
 6019 0af8 940B0000 		.word	.LC100
 6020 0afc A80B0000 		.word	.LC101
 6021 0b00 CC0B0000 		.word	.LC102
 6022 0b04 DC0B0000 		.word	.LC103
 6023              	.L510:
 6024 0b08 F360     		str	r3, [r6, #12]	@ unaligned
 6025 0b0a 07CD     		ldmia	r5!, {r0, r1, r2}
 6026 0b0c 3061     		str	r0, [r6, #16]	@ unaligned
 6027 0b0e 7161     		str	r1, [r6, #20]	@ unaligned
 6028 0b10 B261     		str	r2, [r6, #24]	@ unaligned
 6029 0b12 2B88     		ldrh	r3, [r5]	@ unaligned
 6030 0b14 B383     		strh	r3, [r6, #28]	@ unaligned
1212:TinyBasic.c   ****   strcat(s,"0052 30BC;  66       JS RELO\n");
 6031              		.loc 1 1212 0
 6032 0b16 2046     		mov	r0, r4
 6033 0b18 FFF7FEFF 		bl	strlen
 6034              	.LVL698:
 6035 0b1c 0746     		mov	r7, r0
 6036 0b1e 2618     		adds	r6, r4, r0
 6037 0b20 CD4D     		ldr	r5, .L512
ARM GAS  C:\Users\doug_000\AppData\Local\Temp\ccbaKQF3.s 			page 129


 6038 0b22 0FCD     		ldmia	r5!, {r0, r1, r2, r3}
 6039 0b24 E051     		str	r0, [r4, r7]	@ unaligned
 6040 0b26 7160     		str	r1, [r6, #4]	@ unaligned
 6041 0b28 B260     		str	r2, [r6, #8]	@ unaligned
 6042 0b2a F360     		str	r3, [r6, #12]	@ unaligned
 6043 0b2c 07CD     		ldmia	r5!, {r0, r1, r2}
 6044 0b2e 3061     		str	r0, [r6, #16]	@ unaligned
 6045 0b30 7161     		str	r1, [r6, #20]	@ unaligned
 6046 0b32 B261     		str	r2, [r6, #24]	@ unaligned
 6047 0b34 2B88     		ldrh	r3, [r5]	@ unaligned
 6048 0b36 B383     		strh	r3, [r6, #28]	@ unaligned
1213:TinyBasic.c   ****   strcat(s,"0054 3134;  67       JS EXPR\n");
 6049              		.loc 1 1213 0
 6050 0b38 2046     		mov	r0, r4
 6051 0b3a FFF7FEFF 		bl	strlen
 6052              	.LVL699:
 6053 0b3e 0746     		mov	r7, r0
 6054 0b40 2618     		adds	r6, r4, r0
 6055 0b42 C64D     		ldr	r5, .L512+4
 6056 0b44 0FCD     		ldmia	r5!, {r0, r1, r2, r3}
 6057 0b46 E051     		str	r0, [r4, r7]	@ unaligned
 6058 0b48 7160     		str	r1, [r6, #4]	@ unaligned
 6059 0b4a B260     		str	r2, [r6, #8]	@ unaligned
 6060 0b4c F360     		str	r3, [r6, #12]	@ unaligned
 6061 0b4e 07CD     		ldmia	r5!, {r0, r1, r2}
 6062 0b50 3061     		str	r0, [r6, #16]	@ unaligned
 6063 0b52 7161     		str	r1, [r6, #20]	@ unaligned
 6064 0b54 B261     		str	r2, [r6, #24]	@ unaligned
 6065 0b56 2B88     		ldrh	r3, [r5]	@ unaligned
 6066 0b58 B383     		strh	r3, [r6, #28]	@ unaligned
1214:TinyBasic.c   ****   strcat(s,"0056 30BC;  68       BC I1 \"THEN\"    OPTIONAL NOISEWORD\n");
 6067              		.loc 1 1214 0
 6068 0b5a 2046     		mov	r0, r4
 6069 0b5c FFF7FEFF 		bl	strlen
 6070              	.LVL700:
 6071 0b60 BF4D     		ldr	r5, .L512+8
 6072 0b62 0444     		add	r4, r4, r0
 6073 0b64 05F13007 		add	r7, r5, #48
 6074              	.L436:
 6075 0b68 2E46     		mov	r6, r5
 6076 0b6a 0FCE     		ldmia	r6!, {r0, r1, r2, r3}
 6077 0b6c 2060     		str	r0, [r4]	@ unaligned
 6078 0b6e 6160     		str	r1, [r4, #4]	@ unaligned
 6079 0b70 A260     		str	r2, [r4, #8]	@ unaligned
 6080 0b72 E360     		str	r3, [r4, #12]	@ unaligned
 6081 0b74 3546     		mov	r5, r6
 6082 0b76 1034     		adds	r4, r4, #16
 6083 0b78 BE42     		cmp	r6, r7
 6084 0b7a F5D1     		bne	.L436
 6085 0b7c 03CD     		ldmia	r5!, {r0, r1}
 6086 0b7e 2060     		str	r0, [r4]	@ unaligned
 6087 0b80 6160     		str	r1, [r4, #4]	@ unaligned
 6088 0b82 2B78     		ldrb	r3, [r5]	@ zero_extendqisi2
 6089 0b84 2372     		strb	r3, [r4, #8]
1215:TinyBasic.c   ****   strcat(s,"0058 84544845CE;\n");
 6090              		.loc 1 1215 0
 6091 0b86 B74C     		ldr	r4, .L512+12
ARM GAS  C:\Users\doug_000\AppData\Local\Temp\ccbaKQF3.s 			page 130


 6092 0b88 2046     		mov	r0, r4
 6093 0b8a FFF7FEFF 		bl	strlen
 6094              	.LVL701:
 6095 0b8e 0746     		mov	r7, r0
 6096 0b90 2618     		adds	r6, r4, r0
 6097 0b92 B54D     		ldr	r5, .L512+16
 6098 0b94 0FCD     		ldmia	r5!, {r0, r1, r2, r3}
 6099 0b96 E051     		str	r0, [r4, r7]	@ unaligned
 6100 0b98 7160     		str	r1, [r6, #4]	@ unaligned
 6101 0b9a B260     		str	r2, [r6, #8]	@ unaligned
 6102 0b9c F360     		str	r3, [r6, #12]	@ unaligned
 6103 0b9e 2B88     		ldrh	r3, [r5]	@ unaligned
 6104 0ba0 3382     		strh	r3, [r6, #16]	@ unaligned
1216:TinyBasic.c   ****   strcat(s,"005D ;      69 :I1   CP              COMPARE SKIPS NEXT IF TRUE\n");
 6105              		.loc 1 1216 0
 6106 0ba2 2046     		mov	r0, r4
 6107 0ba4 FFF7FEFF 		bl	strlen
 6108              	.LVL702:
 6109 0ba8 2044     		add	r0, r0, r4
 6110 0baa B049     		ldr	r1, .L512+20
 6111 0bac 4122     		movs	r2, #65
 6112 0bae FFF7FEFF 		bl	memcpy
 6113              	.LVL703:
1217:TinyBasic.c   ****   strcat(s,"005D 1C;    70       NX              FALSE.\n");
 6114              		.loc 1 1217 0
 6115 0bb2 2046     		mov	r0, r4
 6116 0bb4 FFF7FEFF 		bl	strlen
 6117              	.LVL704:
 6118 0bb8 AD4D     		ldr	r5, .L512+24
 6119 0bba 0444     		add	r4, r4, r0
 6120 0bbc 05F12007 		add	r7, r5, #32
 6121              	.L437:
 6122 0bc0 2E46     		mov	r6, r5
 6123 0bc2 0FCE     		ldmia	r6!, {r0, r1, r2, r3}
 6124 0bc4 2060     		str	r0, [r4]	@ unaligned
 6125 0bc6 6160     		str	r1, [r4, #4]	@ unaligned
 6126 0bc8 A260     		str	r2, [r4, #8]	@ unaligned
 6127 0bca E360     		str	r3, [r4, #12]	@ unaligned
 6128 0bcc 3546     		mov	r5, r6
 6129 0bce 1034     		adds	r4, r4, #16
 6130 0bd0 BE42     		cmp	r6, r7
 6131 0bd2 F5D1     		bne	.L437
 6132 0bd4 07CD     		ldmia	r5!, {r0, r1, r2}
 6133 0bd6 2060     		str	r0, [r4]	@ unaligned
 6134 0bd8 6160     		str	r1, [r4, #4]	@ unaligned
 6135 0bda A260     		str	r2, [r4, #8]	@ unaligned
 6136 0bdc 2B78     		ldrb	r3, [r5]	@ zero_extendqisi2
 6137 0bde 2373     		strb	r3, [r4, #12]
1218:TinyBasic.c   ****   strcat(s,"005E 1D;    71       J STMT          TRUE. GO PROCESS STATEMENT\n");
 6138              		.loc 1 1218 0
 6139 0be0 A04C     		ldr	r4, .L512+12
 6140 0be2 2046     		mov	r0, r4
 6141 0be4 FFF7FEFF 		bl	strlen
 6142              	.LVL705:
 6143 0be8 2044     		add	r0, r0, r4
 6144 0bea A249     		ldr	r1, .L512+28
 6145 0bec 4122     		movs	r2, #65
ARM GAS  C:\Users\doug_000\AppData\Local\Temp\ccbaKQF3.s 			page 131


 6146 0bee FFF7FEFF 		bl	memcpy
 6147              	.LVL706:
1219:TinyBasic.c   ****   strcat(s,"005F 380D;  72 .\n");
 6148              		.loc 1 1219 0
 6149 0bf2 2046     		mov	r0, r4
 6150 0bf4 FFF7FEFF 		bl	strlen
 6151              	.LVL707:
 6152 0bf8 0746     		mov	r7, r0
 6153 0bfa 2618     		adds	r6, r4, r0
 6154 0bfc 9E4D     		ldr	r5, .L512+32
 6155 0bfe 0FCD     		ldmia	r5!, {r0, r1, r2, r3}
 6156 0c00 E051     		str	r0, [r4, r7]	@ unaligned
 6157 0c02 7160     		str	r1, [r6, #4]	@ unaligned
 6158 0c04 B260     		str	r2, [r6, #8]	@ unaligned
 6159 0c06 F360     		str	r3, [r6, #12]	@ unaligned
 6160 0c08 2B88     		ldrh	r3, [r5]	@ unaligned
 6161 0c0a 3382     		strh	r3, [r6, #16]	@ unaligned
1220:TinyBasic.c   ****   strcat(s,"0061 ;      73 :INPT BC RETN \"INPUT\"\n");
 6162              		.loc 1 1220 0
 6163 0c0c 2046     		mov	r0, r4
 6164 0c0e FFF7FEFF 		bl	strlen
 6165              	.LVL708:
 6166 0c12 9A4D     		ldr	r5, .L512+36
 6167 0c14 0444     		add	r4, r4, r0
 6168 0c16 05F12007 		add	r7, r5, #32
 6169              	.L438:
 6170 0c1a 2E46     		mov	r6, r5
 6171 0c1c 0FCE     		ldmia	r6!, {r0, r1, r2, r3}
 6172 0c1e 2060     		str	r0, [r4]	@ unaligned
 6173 0c20 6160     		str	r1, [r4, #4]	@ unaligned
 6174 0c22 A260     		str	r2, [r4, #8]	@ unaligned
 6175 0c24 E360     		str	r3, [r4, #12]	@ unaligned
 6176 0c26 3546     		mov	r5, r6
 6177 0c28 1034     		adds	r4, r4, #16
 6178 0c2a BE42     		cmp	r6, r7
 6179 0c2c F5D1     		bne	.L438
 6180 0c2e 3068     		ldr	r0, [r6]	@ unaligned
 6181 0c30 2060     		str	r0, [r4]	@ unaligned
 6182 0c32 B388     		ldrh	r3, [r6, #4]	@ unaligned
 6183 0c34 A380     		strh	r3, [r4, #4]	@ unaligned
1221:TinyBasic.c   ****   strcat(s,"0061 9A494E5055D4;\n");
 6184              		.loc 1 1221 0
 6185 0c36 8B4C     		ldr	r4, .L512+12
 6186 0c38 2046     		mov	r0, r4
 6187 0c3a FFF7FEFF 		bl	strlen
 6188              	.LVL709:
 6189 0c3e 0746     		mov	r7, r0
 6190 0c40 2618     		adds	r6, r4, r0
 6191 0c42 8F4D     		ldr	r5, .L512+40
 6192 0c44 0FCD     		ldmia	r5!, {r0, r1, r2, r3}
 6193 0c46 E051     		str	r0, [r4, r7]	@ unaligned
 6194 0c48 7160     		str	r1, [r6, #4]	@ unaligned
 6195 0c4a B260     		str	r2, [r6, #8]	@ unaligned
 6196 0c4c F360     		str	r3, [r6, #12]	@ unaligned
 6197 0c4e 2868     		ldr	r0, [r5]	@ unaligned
 6198 0c50 3061     		str	r0, [r6, #16]	@ unaligned
1222:TinyBasic.c   ****   strcat(s,"0067 ;      74 :I2   BV *            GET VARIABLE\n");
ARM GAS  C:\Users\doug_000\AppData\Local\Temp\ccbaKQF3.s 			page 132


 6199              		.loc 1 1222 0
 6200 0c52 2046     		mov	r0, r4
 6201 0c54 FFF7FEFF 		bl	strlen
 6202              	.LVL710:
 6203 0c58 8A4D     		ldr	r5, .L512+44
 6204 0c5a 0444     		add	r4, r4, r0
 6205 0c5c 05F13007 		add	r7, r5, #48
 6206              	.L439:
 6207 0c60 2E46     		mov	r6, r5
 6208 0c62 0FCE     		ldmia	r6!, {r0, r1, r2, r3}
 6209 0c64 2060     		str	r0, [r4]	@ unaligned
 6210 0c66 6160     		str	r1, [r4, #4]	@ unaligned
 6211 0c68 A260     		str	r2, [r4, #8]	@ unaligned
 6212 0c6a E360     		str	r3, [r4, #12]	@ unaligned
 6213 0c6c 3546     		mov	r5, r6
 6214 0c6e 1034     		adds	r4, r4, #16
 6215 0c70 BE42     		cmp	r6, r7
 6216 0c72 F5D1     		bne	.L439
 6217 0c74 3288     		ldrh	r2, [r6]	@ unaligned
 6218 0c76 B378     		ldrb	r3, [r6, #2]	@ zero_extendqisi2
 6219 0c78 2280     		strh	r2, [r4]	@ unaligned
 6220 0c7a A370     		strb	r3, [r4, #2]
1223:TinyBasic.c   ****   strcat(s,"0067 A0;    75       SB              SWAP POINTERS\n");
 6221              		.loc 1 1223 0
 6222 0c7c 794C     		ldr	r4, .L512+12
 6223 0c7e 2046     		mov	r0, r4
 6224 0c80 FFF7FEFF 		bl	strlen
 6225              	.LVL711:
 6226 0c84 804D     		ldr	r5, .L512+48
 6227 0c86 0444     		add	r4, r4, r0
 6228 0c88 05F13007 		add	r7, r5, #48
 6229              	.L440:
 6230 0c8c 2E46     		mov	r6, r5
 6231 0c8e 0FCE     		ldmia	r6!, {r0, r1, r2, r3}
 6232 0c90 2060     		str	r0, [r4]	@ unaligned
 6233 0c92 6160     		str	r1, [r4, #4]	@ unaligned
 6234 0c94 A260     		str	r2, [r4, #8]	@ unaligned
 6235 0c96 E360     		str	r3, [r4, #12]	@ unaligned
 6236 0c98 3546     		mov	r5, r6
 6237 0c9a 1034     		adds	r4, r4, #16
 6238 0c9c BE42     		cmp	r6, r7
 6239 0c9e F5D1     		bne	.L440
 6240 0ca0 3068     		ldr	r0, [r6]	@ unaligned
 6241 0ca2 2060     		str	r0, [r4]	@ unaligned
1224:TinyBasic.c   ****   strcat(s,"0068 10;    76       BE I4\n");
 6242              		.loc 1 1224 0
 6243 0ca4 6F4C     		ldr	r4, .L512+12
 6244 0ca6 2046     		mov	r0, r4
 6245 0ca8 FFF7FEFF 		bl	strlen
 6246              	.LVL712:
 6247 0cac 0746     		mov	r7, r0
 6248 0cae 2618     		adds	r6, r4, r0
 6249 0cb0 764D     		ldr	r5, .L512+52
 6250 0cb2 0FCD     		ldmia	r5!, {r0, r1, r2, r3}
 6251 0cb4 E051     		str	r0, [r4, r7]	@ unaligned
 6252 0cb6 7160     		str	r1, [r6, #4]	@ unaligned
 6253 0cb8 B260     		str	r2, [r6, #8]	@ unaligned
ARM GAS  C:\Users\doug_000\AppData\Local\Temp\ccbaKQF3.s 			page 133


 6254 0cba F360     		str	r3, [r6, #12]	@ unaligned
 6255 0cbc 07CD     		ldmia	r5!, {r0, r1, r2}
 6256 0cbe 3061     		str	r0, [r6, #16]	@ unaligned
 6257 0cc0 7161     		str	r1, [r6, #20]	@ unaligned
 6258 0cc2 B261     		str	r2, [r6, #24]	@ unaligned
1225:TinyBasic.c   ****   strcat(s,"0069 E7;    77 :I3   PC \"? Q^\"       LINE IS EMPTY; TYPE PROMPT\n");
 6259              		.loc 1 1225 0
 6260 0cc4 2046     		mov	r0, r4
 6261 0cc6 FFF7FEFF 		bl	strlen
 6262              	.LVL713:
 6263 0cca 2044     		add	r0, r0, r4
 6264 0ccc 7049     		ldr	r1, .L512+56
 6265 0cce 4122     		movs	r2, #65
 6266 0cd0 FFF7FEFF 		bl	memcpy
 6267              	.LVL714:
1226:TinyBasic.c   ****   strcat(s,"006A 243F2091;\n");
 6268              		.loc 1 1226 0
 6269 0cd4 2046     		mov	r0, r4
 6270 0cd6 FFF7FEFF 		bl	strlen
 6271              	.LVL715:
 6272 0cda 0746     		mov	r7, r0
 6273 0cdc 2618     		adds	r6, r4, r0
 6274 0cde 6D4D     		ldr	r5, .L512+60
 6275 0ce0 0FCD     		ldmia	r5!, {r0, r1, r2, r3}
 6276 0ce2 E051     		str	r0, [r4, r7]	@ unaligned
 6277 0ce4 7160     		str	r1, [r6, #4]	@ unaligned
 6278 0ce6 B260     		str	r2, [r6, #8]	@ unaligned
 6279 0ce8 F360     		str	r3, [r6, #12]	@ unaligned
1227:TinyBasic.c   ****   strcat(s,"006E ;      78       GL              READ INPUT LINE\n");
 6280              		.loc 1 1227 0
 6281 0cea 2046     		mov	r0, r4
 6282 0cec FFF7FEFF 		bl	strlen
 6283              	.LVL716:
 6284 0cf0 694D     		ldr	r5, .L512+64
 6285 0cf2 0444     		add	r4, r4, r0
 6286 0cf4 05F13007 		add	r7, r5, #48
 6287              	.L441:
 6288 0cf8 2E46     		mov	r6, r5
 6289 0cfa 0FCE     		ldmia	r6!, {r0, r1, r2, r3}
 6290 0cfc 2060     		str	r0, [r4]	@ unaligned
 6291 0cfe 6160     		str	r1, [r4, #4]	@ unaligned
 6292 0d00 A260     		str	r2, [r4, #8]	@ unaligned
 6293 0d02 E360     		str	r3, [r4, #12]	@ unaligned
 6294 0d04 3546     		mov	r5, r6
 6295 0d06 1034     		adds	r4, r4, #16
 6296 0d08 BE42     		cmp	r6, r7
 6297 0d0a F5D1     		bne	.L441
 6298 0d0c 3068     		ldr	r0, [r6]	@ unaligned
 6299 0d0e 2060     		str	r0, [r4]	@ unaligned
 6300 0d10 B388     		ldrh	r3, [r6, #4]	@ unaligned
 6301 0d12 A380     		strh	r3, [r4, #4]	@ unaligned
1228:TinyBasic.c   ****   strcat(s,"006E 27;    79       BE I4           DID ANYTHING COME?\n");
 6302              		.loc 1 1228 0
 6303 0d14 534C     		ldr	r4, .L512+12
 6304 0d16 2046     		mov	r0, r4
 6305 0d18 FFF7FEFF 		bl	strlen
 6306              	.LVL717:
ARM GAS  C:\Users\doug_000\AppData\Local\Temp\ccbaKQF3.s 			page 134


 6307 0d1c 5F4D     		ldr	r5, .L512+68
 6308 0d1e 0444     		add	r4, r4, r0
 6309 0d20 05F13007 		add	r7, r5, #48
 6310              	.L442:
 6311 0d24 2E46     		mov	r6, r5
 6312 0d26 0FCE     		ldmia	r6!, {r0, r1, r2, r3}
 6313 0d28 2060     		str	r0, [r4]	@ unaligned
 6314 0d2a 6160     		str	r1, [r4, #4]	@ unaligned
 6315 0d2c A260     		str	r2, [r4, #8]	@ unaligned
 6316 0d2e E360     		str	r3, [r4, #12]	@ unaligned
 6317 0d30 3546     		mov	r5, r6
 6318 0d32 1034     		adds	r4, r4, #16
 6319 0d34 BE42     		cmp	r6, r7
 6320 0d36 F5D1     		bne	.L442
 6321 0d38 03CD     		ldmia	r5!, {r0, r1}
 6322 0d3a 2060     		str	r0, [r4]	@ unaligned
 6323 0d3c 6160     		str	r1, [r4, #4]	@ unaligned
 6324 0d3e 2B78     		ldrb	r3, [r5]	@ zero_extendqisi2
 6325 0d40 2372     		strb	r3, [r4, #8]
1229:TinyBasic.c   ****   strcat(s,"006F E1;    80       BR I3           NO, TRY AGAIN\n");
 6326              		.loc 1 1229 0
 6327 0d42 484C     		ldr	r4, .L512+12
 6328 0d44 2046     		mov	r0, r4
 6329 0d46 FFF7FEFF 		bl	strlen
 6330              	.LVL718:
 6331 0d4a 554D     		ldr	r5, .L512+72
 6332 0d4c 0444     		add	r4, r4, r0
 6333 0d4e 05F13007 		add	r7, r5, #48
 6334              	.L443:
 6335 0d52 2E46     		mov	r6, r5
 6336 0d54 0FCE     		ldmia	r6!, {r0, r1, r2, r3}
 6337 0d56 2060     		str	r0, [r4]	@ unaligned
 6338 0d58 6160     		str	r1, [r4, #4]	@ unaligned
 6339 0d5a A260     		str	r2, [r4, #8]	@ unaligned
 6340 0d5c E360     		str	r3, [r4, #12]	@ unaligned
 6341 0d5e 3546     		mov	r5, r6
 6342 0d60 1034     		adds	r4, r4, #16
 6343 0d62 BE42     		cmp	r6, r7
 6344 0d64 F5D1     		bne	.L443
 6345 0d66 3068     		ldr	r0, [r6]	@ unaligned
 6346 0d68 2060     		str	r0, [r4]	@ unaligned
1230:TinyBasic.c   ****   strcat(s,"0070 59;    81 :I4   BC I5 \",\"       OPTIONAL COMMA\n");
 6347              		.loc 1 1230 0
 6348 0d6a 3E4C     		ldr	r4, .L512+12
 6349 0d6c 2046     		mov	r0, r4
 6350 0d6e FFF7FEFF 		bl	strlen
 6351              	.LVL719:
 6352 0d72 4C4D     		ldr	r5, .L512+76
 6353 0d74 0444     		add	r4, r4, r0
 6354 0d76 05F13007 		add	r7, r5, #48
 6355              	.L444:
 6356 0d7a 2E46     		mov	r6, r5
 6357 0d7c 0FCE     		ldmia	r6!, {r0, r1, r2, r3}
 6358 0d7e 2060     		str	r0, [r4]	@ unaligned
 6359 0d80 6160     		str	r1, [r4, #4]	@ unaligned
 6360 0d82 A260     		str	r2, [r4, #8]	@ unaligned
 6361 0d84 E360     		str	r3, [r4, #12]	@ unaligned
ARM GAS  C:\Users\doug_000\AppData\Local\Temp\ccbaKQF3.s 			page 135


 6362 0d86 3546     		mov	r5, r6
 6363 0d88 1034     		adds	r4, r4, #16
 6364 0d8a BE42     		cmp	r6, r7
 6365 0d8c F5D1     		bne	.L444
 6366 0d8e 3068     		ldr	r0, [r6]	@ unaligned
 6367 0d90 2060     		str	r0, [r4]	@ unaligned
 6368 0d92 3379     		ldrb	r3, [r6, #4]	@ zero_extendqisi2
 6369 0d94 2371     		strb	r3, [r4, #4]
1231:TinyBasic.c   ****   strcat(s,"0071 81AC;  82 :I5   JS EXPR         READ A NUMBER\n");
 6370              		.loc 1 1231 0
 6371 0d96 334C     		ldr	r4, .L512+12
 6372 0d98 2046     		mov	r0, r4
 6373 0d9a FFF7FEFF 		bl	strlen
 6374              	.LVL720:
 6375 0d9e 424D     		ldr	r5, .L512+80
 6376 0da0 0444     		add	r4, r4, r0
 6377 0da2 05F13007 		add	r7, r5, #48
 6378              	.L445:
 6379 0da6 2E46     		mov	r6, r5
 6380 0da8 0FCE     		ldmia	r6!, {r0, r1, r2, r3}
 6381 0daa 2060     		str	r0, [r4]	@ unaligned
 6382 0dac 6160     		str	r1, [r4, #4]	@ unaligned
 6383 0dae A260     		str	r2, [r4, #8]	@ unaligned
 6384 0db0 E360     		str	r3, [r4, #12]	@ unaligned
 6385 0db2 3546     		mov	r5, r6
 6386 0db4 1034     		adds	r4, r4, #16
 6387 0db6 BE42     		cmp	r6, r7
 6388 0db8 F5D1     		bne	.L445
 6389 0dba 3068     		ldr	r0, [r6]	@ unaligned
 6390 0dbc 2060     		str	r0, [r4]	@ unaligned
1232:TinyBasic.c   ****   strcat(s,"0073 30BC;  83       SV              STORE INTO VARIABLE\n");
 6391              		.loc 1 1232 0
 6392 0dbe 294C     		ldr	r4, .L512+12
 6393 0dc0 2046     		mov	r0, r4
 6394 0dc2 FFF7FEFF 		bl	strlen
 6395              	.LVL721:
 6396 0dc6 394D     		ldr	r5, .L512+84
 6397 0dc8 0444     		add	r4, r4, r0
 6398 0dca 05F13007 		add	r7, r5, #48
 6399              	.L446:
 6400 0dce 2E46     		mov	r6, r5
 6401 0dd0 0FCE     		ldmia	r6!, {r0, r1, r2, r3}
 6402 0dd2 2060     		str	r0, [r4]	@ unaligned
 6403 0dd4 6160     		str	r1, [r4, #4]	@ unaligned
 6404 0dd6 A260     		str	r2, [r4, #8]	@ unaligned
 6405 0dd8 E360     		str	r3, [r4, #12]	@ unaligned
 6406 0dda 3546     		mov	r5, r6
 6407 0ddc 1034     		adds	r4, r4, #16
 6408 0dde BE42     		cmp	r6, r7
 6409 0de0 F5D1     		bne	.L446
 6410 0de2 03CD     		ldmia	r5!, {r0, r1}
 6411 0de4 2060     		str	r0, [r4]	@ unaligned
 6412 0de6 6160     		str	r1, [r4, #4]	@ unaligned
 6413 0de8 2B88     		ldrh	r3, [r5]	@ unaligned
 6414 0dea 2381     		strh	r3, [r4, #8]	@ unaligned
1233:TinyBasic.c   ****   strcat(s,"0075 13;    84       RB              SWAP BACK\n");
 6415              		.loc 1 1233 0
ARM GAS  C:\Users\doug_000\AppData\Local\Temp\ccbaKQF3.s 			page 136


 6416 0dec 1D4C     		ldr	r4, .L512+12
 6417 0dee 2046     		mov	r0, r4
 6418 0df0 FFF7FEFF 		bl	strlen
 6419              	.LVL722:
 6420 0df4 2E4E     		ldr	r6, .L512+88
 6421 0df6 0444     		add	r4, r4, r0
 6422 0df8 06F13007 		add	r7, r6, #48
 6423              	.L447:
 6424 0dfc 3546     		mov	r5, r6
 6425 0dfe 0FCD     		ldmia	r5!, {r0, r1, r2, r3}
 6426 0e00 2060     		str	r0, [r4]	@ unaligned
 6427 0e02 6160     		str	r1, [r4, #4]	@ unaligned
 6428 0e04 A260     		str	r2, [r4, #8]	@ unaligned
 6429 0e06 E360     		str	r3, [r4, #12]	@ unaligned
 6430 0e08 2E46     		mov	r6, r5
 6431 0e0a 1034     		adds	r4, r4, #16
 6432 0e0c BD42     		cmp	r5, r7
 6433 0e0e F5D1     		bne	.L447
1234:TinyBasic.c   ****   strcat(s,"0076 11;    85       BC I6 \",\"       ANOTHER?\n");
 6434              		.loc 1 1234 0
 6435 0e10 144C     		ldr	r4, .L512+12
 6436 0e12 2046     		mov	r0, r4
 6437 0e14 FFF7FEFF 		bl	strlen
 6438              	.LVL723:
 6439 0e18 264D     		ldr	r5, .L512+92
 6440 0e1a 0444     		add	r4, r4, r0
 6441 0e1c 05F12007 		add	r7, r5, #32
 6442              	.L448:
 6443 0e20 2E46     		mov	r6, r5
 6444 0e22 0FCE     		ldmia	r6!, {r0, r1, r2, r3}
 6445 0e24 2060     		str	r0, [r4]	@ unaligned
 6446 0e26 6160     		str	r1, [r4, #4]	@ unaligned
 6447 0e28 A260     		str	r2, [r4, #8]	@ unaligned
 6448 0e2a E360     		str	r3, [r4, #12]	@ unaligned
 6449 0e2c 3546     		mov	r5, r6
 6450 0e2e 1034     		adds	r4, r4, #16
 6451 0e30 BE42     		cmp	r6, r7
 6452 0e32 F5D1     		bne	.L448
 6453 0e34 3346     		mov	r3, r6
 6454 0e36 07CB     		ldmia	r3!, {r0, r1, r2}
 6455 0e38 2060     		str	r0, [r4]	@ unaligned
 6456 0e3a 6160     		str	r1, [r4, #4]	@ unaligned
 6457 0e3c A260     		str	r2, [r4, #8]	@ unaligned
 6458 0e3e 1A88     		ldrh	r2, [r3]	@ unaligned
 6459 0e40 9B78     		ldrb	r3, [r3, #2]	@ zero_extendqisi2
 6460 0e42 A281     		strh	r2, [r4, #12]	@ unaligned
 6461 0e44 A373     		strb	r3, [r4, #14]
1235:TinyBasic.c   ****   strcat(s,"0077 82AC;  86       BR I2           YES IF COMMA\n");
 6462              		.loc 1 1235 0
 6463 0e46 074C     		ldr	r4, .L512+12
 6464 0e48 2046     		mov	r0, r4
 6465 0e4a FFF7FEFF 		bl	strlen
 6466              	.LVL724:
 6467 0e4e 1A4D     		ldr	r5, .L512+96
 6468 0e50 0444     		add	r4, r4, r0
 6469 0e52 05F13007 		add	r7, r5, #48
 6470 0e56 31E0     		b	.L513
ARM GAS  C:\Users\doug_000\AppData\Local\Temp\ccbaKQF3.s 			page 137


 6471              	.L514:
 6472              		.align	2
 6473              	.L512:
 6474 0e58 FC0B0000 		.word	.LC104
 6475 0e5c 1C0C0000 		.word	.LC105
 6476 0e60 3C0C0000 		.word	.LC106
 6477 0e64 18000000 		.word	.LANCHOR0+24
 6478 0e68 780C0000 		.word	.LC107
 6479 0e6c 8C0C0000 		.word	.LC108
 6480 0e70 D00C0000 		.word	.LC109
 6481 0e74 000D0000 		.word	.LC110
 6482 0e78 440D0000 		.word	.LC111
 6483 0e7c 580D0000 		.word	.LC112
 6484 0e80 800D0000 		.word	.LC113
 6485 0e84 940D0000 		.word	.LC114
 6486 0e88 C80D0000 		.word	.LC115
 6487 0e8c FC0D0000 		.word	.LC116
 6488 0e90 180E0000 		.word	.LC117
 6489 0e94 5C0E0000 		.word	.LC118
 6490 0e98 6C0E0000 		.word	.LC119
 6491 0e9c A40E0000 		.word	.LC120
 6492 0ea0 E00E0000 		.word	.LC121
 6493 0ea4 140F0000 		.word	.LC122
 6494 0ea8 4C0F0000 		.word	.LC123
 6495 0eac 800F0000 		.word	.LC124
 6496 0eb0 BC0F0000 		.word	.LC125
 6497 0eb4 EC0F0000 		.word	.LC126
 6498 0eb8 1C100000 		.word	.LC127
 6499              	.L513:
 6500              	.L449:
 6501 0ebc 2E46     		mov	r6, r5
 6502 0ebe 0FCE     		ldmia	r6!, {r0, r1, r2, r3}
 6503 0ec0 2060     		str	r0, [r4]	@ unaligned
 6504 0ec2 6160     		str	r1, [r4, #4]	@ unaligned
 6505 0ec4 A260     		str	r2, [r4, #8]	@ unaligned
 6506 0ec6 E360     		str	r3, [r4, #12]	@ unaligned
 6507 0ec8 3546     		mov	r5, r6
 6508 0eca 1034     		adds	r4, r4, #16
 6509 0ecc BE42     		cmp	r6, r7
 6510 0ece F5D1     		bne	.L449
 6511 0ed0 3288     		ldrh	r2, [r6]	@ unaligned
 6512 0ed2 B378     		ldrb	r3, [r6, #2]	@ zero_extendqisi2
 6513 0ed4 2280     		strh	r2, [r4]	@ unaligned
 6514 0ed6 A370     		strb	r3, [r4, #2]
1236:TinyBasic.c   ****   strcat(s,"0079 4D;    87 :I6   BE *            OTHERWISE QUIT\n");
 6515              		.loc 1 1236 0
 6516 0ed8 CB4C     		ldr	r4, .L515
 6517 0eda 2046     		mov	r0, r4
 6518 0edc FFF7FEFF 		bl	strlen
 6519              	.LVL725:
 6520 0ee0 CA4D     		ldr	r5, .L515+4
 6521 0ee2 0444     		add	r4, r4, r0
 6522 0ee4 05F13007 		add	r7, r5, #48
 6523              	.L450:
 6524 0ee8 2E46     		mov	r6, r5
 6525 0eea 0FCE     		ldmia	r6!, {r0, r1, r2, r3}
 6526 0eec 2060     		str	r0, [r4]	@ unaligned
ARM GAS  C:\Users\doug_000\AppData\Local\Temp\ccbaKQF3.s 			page 138


 6527 0eee 6160     		str	r1, [r4, #4]	@ unaligned
 6528 0ef0 A260     		str	r2, [r4, #8]	@ unaligned
 6529 0ef2 E360     		str	r3, [r4, #12]	@ unaligned
 6530 0ef4 3546     		mov	r5, r6
 6531 0ef6 1034     		adds	r4, r4, #16
 6532 0ef8 BE42     		cmp	r6, r7
 6533 0efa F5D1     		bne	.L450
 6534 0efc 3068     		ldr	r0, [r6]	@ unaligned
 6535 0efe 2060     		str	r0, [r4]	@ unaligned
 6536 0f00 3379     		ldrb	r3, [r6, #4]	@ zero_extendqisi2
 6537 0f02 2371     		strb	r3, [r4, #4]
1237:TinyBasic.c   ****   strcat(s,"007A E0;    88       NX\n");
 6538              		.loc 1 1237 0
 6539 0f04 C04C     		ldr	r4, .L515
 6540 0f06 2046     		mov	r0, r4
 6541 0f08 FFF7FEFF 		bl	strlen
 6542              	.LVL726:
 6543 0f0c 0746     		mov	r7, r0
 6544 0f0e 2618     		adds	r6, r4, r0
 6545 0f10 BF4D     		ldr	r5, .L515+8
 6546 0f12 0FCD     		ldmia	r5!, {r0, r1, r2, r3}
 6547 0f14 E051     		str	r0, [r4, r7]	@ unaligned
 6548 0f16 7160     		str	r1, [r6, #4]	@ unaligned
 6549 0f18 B260     		str	r2, [r6, #8]	@ unaligned
 6550 0f1a F360     		str	r3, [r6, #12]	@ unaligned
 6551 0f1c 03CD     		ldmia	r5!, {r0, r1}
 6552 0f1e 3061     		str	r0, [r6, #16]	@ unaligned
 6553 0f20 7161     		str	r1, [r6, #20]	@ unaligned
 6554 0f22 2B78     		ldrb	r3, [r5]	@ zero_extendqisi2
 6555 0f24 3376     		strb	r3, [r6, #24]
1238:TinyBasic.c   ****   strcat(s,"007B 1D;    89 .\n");
 6556              		.loc 1 1238 0
 6557 0f26 2046     		mov	r0, r4
 6558 0f28 FFF7FEFF 		bl	strlen
 6559              	.LVL727:
 6560 0f2c 0746     		mov	r7, r0
 6561 0f2e 2618     		adds	r6, r4, r0
 6562 0f30 B84D     		ldr	r5, .L515+12
 6563 0f32 0FCD     		ldmia	r5!, {r0, r1, r2, r3}
 6564 0f34 E051     		str	r0, [r4, r7]	@ unaligned
 6565 0f36 7160     		str	r1, [r6, #4]	@ unaligned
 6566 0f38 B260     		str	r2, [r6, #8]	@ unaligned
 6567 0f3a F360     		str	r3, [r6, #12]	@ unaligned
 6568 0f3c 2B88     		ldrh	r3, [r5]	@ unaligned
 6569 0f3e 3382     		strh	r3, [r6, #16]	@ unaligned
1239:TinyBasic.c   ****   strcat(s,"007C ;      90 :RETN BC END \"RETURN\"\n");
 6570              		.loc 1 1239 0
 6571 0f40 2046     		mov	r0, r4
 6572 0f42 FFF7FEFF 		bl	strlen
 6573              	.LVL728:
 6574 0f46 B44D     		ldr	r5, .L515+16
 6575 0f48 0444     		add	r4, r4, r0
 6576 0f4a 05F12007 		add	r7, r5, #32
 6577              	.L451:
 6578 0f4e 2E46     		mov	r6, r5
 6579 0f50 0FCE     		ldmia	r6!, {r0, r1, r2, r3}
 6580 0f52 2060     		str	r0, [r4]	@ unaligned
ARM GAS  C:\Users\doug_000\AppData\Local\Temp\ccbaKQF3.s 			page 139


 6581 0f54 6160     		str	r1, [r4, #4]	@ unaligned
 6582 0f56 A260     		str	r2, [r4, #8]	@ unaligned
 6583 0f58 E360     		str	r3, [r4, #12]	@ unaligned
 6584 0f5a 3546     		mov	r5, r6
 6585 0f5c 1034     		adds	r4, r4, #16
 6586 0f5e BE42     		cmp	r6, r7
 6587 0f60 F5D1     		bne	.L451
 6588 0f62 3068     		ldr	r0, [r6]	@ unaligned
 6589 0f64 2060     		str	r0, [r4]	@ unaligned
 6590 0f66 B388     		ldrh	r3, [r6, #4]	@ unaligned
 6591 0f68 A380     		strh	r3, [r4, #4]	@ unaligned
1240:TinyBasic.c   ****   strcat(s,"007C 895245545552CE;\n");
 6592              		.loc 1 1240 0
 6593 0f6a A74C     		ldr	r4, .L515
 6594 0f6c 2046     		mov	r0, r4
 6595 0f6e FFF7FEFF 		bl	strlen
 6596              	.LVL729:
 6597 0f72 0746     		mov	r7, r0
 6598 0f74 2618     		adds	r6, r4, r0
 6599 0f76 A94D     		ldr	r5, .L515+20
 6600 0f78 0FCD     		ldmia	r5!, {r0, r1, r2, r3}
 6601 0f7a E051     		str	r0, [r4, r7]	@ unaligned
 6602 0f7c 7160     		str	r1, [r6, #4]	@ unaligned
 6603 0f7e B260     		str	r2, [r6, #8]	@ unaligned
 6604 0f80 F360     		str	r3, [r6, #12]	@ unaligned
 6605 0f82 2868     		ldr	r0, [r5]	@ unaligned
 6606 0f84 3061     		str	r0, [r6, #16]	@ unaligned
 6607 0f86 AB88     		ldrh	r3, [r5, #4]	@ unaligned
 6608 0f88 B382     		strh	r3, [r6, #20]	@ unaligned
1241:TinyBasic.c   ****   strcat(s,"0083 ;      91       BE *\n");
 6609              		.loc 1 1241 0
 6610 0f8a 2046     		mov	r0, r4
 6611 0f8c FFF7FEFF 		bl	strlen
 6612              	.LVL730:
 6613 0f90 0746     		mov	r7, r0
 6614 0f92 2618     		adds	r6, r4, r0
 6615 0f94 A24D     		ldr	r5, .L515+24
 6616 0f96 0FCD     		ldmia	r5!, {r0, r1, r2, r3}
 6617 0f98 E051     		str	r0, [r4, r7]	@ unaligned
 6618 0f9a 7160     		str	r1, [r6, #4]	@ unaligned
 6619 0f9c B260     		str	r2, [r6, #8]	@ unaligned
 6620 0f9e F360     		str	r3, [r6, #12]	@ unaligned
 6621 0fa0 03CD     		ldmia	r5!, {r0, r1}
 6622 0fa2 3061     		str	r0, [r6, #16]	@ unaligned
 6623 0fa4 7161     		str	r1, [r6, #20]	@ unaligned
 6624 0fa6 2A88     		ldrh	r2, [r5]	@ unaligned
 6625 0fa8 AB78     		ldrb	r3, [r5, #2]	@ zero_extendqisi2
 6626 0faa 3283     		strh	r2, [r6, #24]	@ unaligned
 6627 0fac B376     		strb	r3, [r6, #26]
1242:TinyBasic.c   ****   strcat(s,"0083 E0;    92       RS              RECOVER SAVED LINE\n");
 6628              		.loc 1 1242 0
 6629 0fae 2046     		mov	r0, r4
 6630 0fb0 FFF7FEFF 		bl	strlen
 6631              	.LVL731:
 6632 0fb4 9B4D     		ldr	r5, .L515+28
 6633 0fb6 0444     		add	r4, r4, r0
 6634 0fb8 05F13007 		add	r7, r5, #48
ARM GAS  C:\Users\doug_000\AppData\Local\Temp\ccbaKQF3.s 			page 140


 6635              	.L452:
 6636 0fbc 2E46     		mov	r6, r5
 6637 0fbe 0FCE     		ldmia	r6!, {r0, r1, r2, r3}
 6638 0fc0 2060     		str	r0, [r4]	@ unaligned
 6639 0fc2 6160     		str	r1, [r4, #4]	@ unaligned
 6640 0fc4 A260     		str	r2, [r4, #8]	@ unaligned
 6641 0fc6 E360     		str	r3, [r4, #12]	@ unaligned
 6642 0fc8 3546     		mov	r5, r6
 6643 0fca 1034     		adds	r4, r4, #16
 6644 0fcc BE42     		cmp	r6, r7
 6645 0fce F5D1     		bne	.L452
 6646 0fd0 03CD     		ldmia	r5!, {r0, r1}
 6647 0fd2 2060     		str	r0, [r4]	@ unaligned
 6648 0fd4 6160     		str	r1, [r4, #4]	@ unaligned
 6649 0fd6 2B78     		ldrb	r3, [r5]	@ zero_extendqisi2
 6650 0fd8 2372     		strb	r3, [r4, #8]
1243:TinyBasic.c   ****   strcat(s,"0084 15;    93       NX\n");
 6651              		.loc 1 1243 0
 6652 0fda 8B4C     		ldr	r4, .L515
 6653 0fdc 2046     		mov	r0, r4
 6654 0fde FFF7FEFF 		bl	strlen
 6655              	.LVL732:
 6656 0fe2 0746     		mov	r7, r0
 6657 0fe4 2618     		adds	r6, r4, r0
 6658 0fe6 904D     		ldr	r5, .L515+32
 6659 0fe8 0FCD     		ldmia	r5!, {r0, r1, r2, r3}
 6660 0fea E051     		str	r0, [r4, r7]	@ unaligned
 6661 0fec 7160     		str	r1, [r6, #4]	@ unaligned
 6662 0fee B260     		str	r2, [r6, #8]	@ unaligned
 6663 0ff0 F360     		str	r3, [r6, #12]	@ unaligned
 6664 0ff2 03CD     		ldmia	r5!, {r0, r1}
 6665 0ff4 3061     		str	r0, [r6, #16]	@ unaligned
 6666 0ff6 7161     		str	r1, [r6, #20]	@ unaligned
 6667 0ff8 2B78     		ldrb	r3, [r5]	@ zero_extendqisi2
 6668 0ffa 3376     		strb	r3, [r6, #24]
1244:TinyBasic.c   ****   strcat(s,"0085 1D;    94 .\n");
 6669              		.loc 1 1244 0
 6670 0ffc 2046     		mov	r0, r4
 6671 0ffe FFF7FEFF 		bl	strlen
 6672              	.LVL733:
 6673 1002 0746     		mov	r7, r0
 6674 1004 2618     		adds	r6, r4, r0
 6675 1006 894D     		ldr	r5, .L515+36
 6676 1008 0FCD     		ldmia	r5!, {r0, r1, r2, r3}
 6677 100a E051     		str	r0, [r4, r7]	@ unaligned
 6678 100c 7160     		str	r1, [r6, #4]	@ unaligned
 6679 100e B260     		str	r2, [r6, #8]	@ unaligned
 6680 1010 F360     		str	r3, [r6, #12]	@ unaligned
 6681 1012 2B88     		ldrh	r3, [r5]	@ unaligned
 6682 1014 3382     		strh	r3, [r6, #16]	@ unaligned
1245:TinyBasic.c   ****   strcat(s,"0086 ;      95 :END  BC LIST \"END\"\n");
 6683              		.loc 1 1245 0
 6684 1016 2046     		mov	r0, r4
 6685 1018 FFF7FEFF 		bl	strlen
 6686              	.LVL734:
 6687 101c 844D     		ldr	r5, .L515+40
 6688 101e 0444     		add	r4, r4, r0
ARM GAS  C:\Users\doug_000\AppData\Local\Temp\ccbaKQF3.s 			page 141


 6689 1020 05F12007 		add	r7, r5, #32
 6690              	.L453:
 6691 1024 2E46     		mov	r6, r5
 6692 1026 0FCE     		ldmia	r6!, {r0, r1, r2, r3}
 6693 1028 2060     		str	r0, [r4]	@ unaligned
 6694 102a 6160     		str	r1, [r4, #4]	@ unaligned
 6695 102c A260     		str	r2, [r4, #8]	@ unaligned
 6696 102e E360     		str	r3, [r4, #12]	@ unaligned
 6697 1030 3546     		mov	r5, r6
 6698 1032 1034     		adds	r4, r4, #16
 6699 1034 BE42     		cmp	r6, r7
 6700 1036 F5D1     		bne	.L453
 6701 1038 3068     		ldr	r0, [r6]	@ unaligned
 6702 103a 2060     		str	r0, [r4]	@ unaligned
1246:TinyBasic.c   ****   strcat(s,"0086 85454EC4;\n");
 6703              		.loc 1 1246 0
 6704 103c 724C     		ldr	r4, .L515
 6705 103e 2046     		mov	r0, r4
 6706 1040 FFF7FEFF 		bl	strlen
 6707              	.LVL735:
 6708 1044 0746     		mov	r7, r0
 6709 1046 2618     		adds	r6, r4, r0
 6710 1048 7A4D     		ldr	r5, .L515+44
 6711 104a 0FCD     		ldmia	r5!, {r0, r1, r2, r3}
 6712 104c E051     		str	r0, [r4, r7]	@ unaligned
 6713 104e 7160     		str	r1, [r6, #4]	@ unaligned
 6714 1050 B260     		str	r2, [r6, #8]	@ unaligned
 6715 1052 F360     		str	r3, [r6, #12]	@ unaligned
1247:TinyBasic.c   ****   strcat(s,"008A ;      96       BE *\n");
 6716              		.loc 1 1247 0
 6717 1054 2046     		mov	r0, r4
 6718 1056 FFF7FEFF 		bl	strlen
 6719              	.LVL736:
 6720 105a 0746     		mov	r7, r0
 6721 105c 2618     		adds	r6, r4, r0
 6722 105e 764D     		ldr	r5, .L515+48
 6723 1060 0FCD     		ldmia	r5!, {r0, r1, r2, r3}
 6724 1062 E051     		str	r0, [r4, r7]	@ unaligned
 6725 1064 7160     		str	r1, [r6, #4]	@ unaligned
 6726 1066 B260     		str	r2, [r6, #8]	@ unaligned
 6727 1068 F360     		str	r3, [r6, #12]	@ unaligned
 6728 106a 03CD     		ldmia	r5!, {r0, r1}
 6729 106c 3061     		str	r0, [r6, #16]	@ unaligned
 6730 106e 7161     		str	r1, [r6, #20]	@ unaligned
 6731 1070 2A88     		ldrh	r2, [r5]	@ unaligned
 6732 1072 AB78     		ldrb	r3, [r5, #2]	@ zero_extendqisi2
 6733 1074 3283     		strh	r2, [r6, #24]	@ unaligned
 6734 1076 B376     		strb	r3, [r6, #26]
1248:TinyBasic.c   ****   strcat(s,"008A E0;    97       WS\n");
 6735              		.loc 1 1248 0
 6736 1078 2046     		mov	r0, r4
 6737 107a FFF7FEFF 		bl	strlen
 6738              	.LVL737:
 6739 107e 0746     		mov	r7, r0
 6740 1080 2618     		adds	r6, r4, r0
 6741 1082 6E4D     		ldr	r5, .L515+52
 6742 1084 0FCD     		ldmia	r5!, {r0, r1, r2, r3}
ARM GAS  C:\Users\doug_000\AppData\Local\Temp\ccbaKQF3.s 			page 142


 6743 1086 E051     		str	r0, [r4, r7]	@ unaligned
 6744 1088 7160     		str	r1, [r6, #4]	@ unaligned
 6745 108a B260     		str	r2, [r6, #8]	@ unaligned
 6746 108c F360     		str	r3, [r6, #12]	@ unaligned
 6747 108e 03CD     		ldmia	r5!, {r0, r1}
 6748 1090 3061     		str	r0, [r6, #16]	@ unaligned
 6749 1092 7161     		str	r1, [r6, #20]	@ unaligned
 6750 1094 2B78     		ldrb	r3, [r5]	@ zero_extendqisi2
 6751 1096 3376     		strb	r3, [r6, #24]
1249:TinyBasic.c   ****   strcat(s,"008B 2D;    98 .\n");
 6752              		.loc 1 1249 0
 6753 1098 2046     		mov	r0, r4
 6754 109a FFF7FEFF 		bl	strlen
 6755              	.LVL738:
 6756 109e 0746     		mov	r7, r0
 6757 10a0 2618     		adds	r6, r4, r0
 6758 10a2 674D     		ldr	r5, .L515+56
 6759 10a4 0FCD     		ldmia	r5!, {r0, r1, r2, r3}
 6760 10a6 E051     		str	r0, [r4, r7]	@ unaligned
 6761 10a8 7160     		str	r1, [r6, #4]	@ unaligned
 6762 10aa B260     		str	r2, [r6, #8]	@ unaligned
 6763 10ac F360     		str	r3, [r6, #12]	@ unaligned
 6764 10ae 2B88     		ldrh	r3, [r5]	@ unaligned
 6765 10b0 3382     		strh	r3, [r6, #16]	@ unaligned
1250:TinyBasic.c   ****   strcat(s,"008C ;      99 :LIST BC RUN \"LIST\"\n");
 6766              		.loc 1 1250 0
 6767 10b2 2046     		mov	r0, r4
 6768 10b4 FFF7FEFF 		bl	strlen
 6769              	.LVL739:
 6770 10b8 624D     		ldr	r5, .L515+60
 6771 10ba 0444     		add	r4, r4, r0
 6772 10bc 05F12007 		add	r7, r5, #32
 6773              	.L454:
 6774 10c0 2E46     		mov	r6, r5
 6775 10c2 0FCE     		ldmia	r6!, {r0, r1, r2, r3}
 6776 10c4 2060     		str	r0, [r4]	@ unaligned
 6777 10c6 6160     		str	r1, [r4, #4]	@ unaligned
 6778 10c8 A260     		str	r2, [r4, #8]	@ unaligned
 6779 10ca E360     		str	r3, [r4, #12]	@ unaligned
 6780 10cc 3546     		mov	r5, r6
 6781 10ce 1034     		adds	r4, r4, #16
 6782 10d0 BE42     		cmp	r6, r7
 6783 10d2 F5D1     		bne	.L454
 6784 10d4 3068     		ldr	r0, [r6]	@ unaligned
 6785 10d6 2060     		str	r0, [r4]	@ unaligned
1251:TinyBasic.c   ****   strcat(s,"008C 984C4953D4;\n");
 6786              		.loc 1 1251 0
 6787 10d8 4B4C     		ldr	r4, .L515
 6788 10da 2046     		mov	r0, r4
 6789 10dc FFF7FEFF 		bl	strlen
 6790              	.LVL740:
 6791 10e0 0746     		mov	r7, r0
 6792 10e2 2618     		adds	r6, r4, r0
 6793 10e4 584D     		ldr	r5, .L515+64
 6794 10e6 0FCD     		ldmia	r5!, {r0, r1, r2, r3}
 6795 10e8 E051     		str	r0, [r4, r7]	@ unaligned
 6796 10ea 7160     		str	r1, [r6, #4]	@ unaligned
ARM GAS  C:\Users\doug_000\AppData\Local\Temp\ccbaKQF3.s 			page 143


 6797 10ec B260     		str	r2, [r6, #8]	@ unaligned
 6798 10ee F360     		str	r3, [r6, #12]	@ unaligned
 6799 10f0 2B88     		ldrh	r3, [r5]	@ unaligned
 6800 10f2 3382     		strh	r3, [r6, #16]	@ unaligned
1252:TinyBasic.c   ****   strcat(s,"0091 ;     100       BE L2\n");
 6801              		.loc 1 1252 0
 6802 10f4 2046     		mov	r0, r4
 6803 10f6 FFF7FEFF 		bl	strlen
 6804              	.LVL741:
 6805 10fa 0746     		mov	r7, r0
 6806 10fc 2618     		adds	r6, r4, r0
 6807 10fe 534D     		ldr	r5, .L515+68
 6808 1100 0FCD     		ldmia	r5!, {r0, r1, r2, r3}
 6809 1102 E051     		str	r0, [r4, r7]	@ unaligned
 6810 1104 7160     		str	r1, [r6, #4]	@ unaligned
 6811 1106 B260     		str	r2, [r6, #8]	@ unaligned
 6812 1108 F360     		str	r3, [r6, #12]	@ unaligned
 6813 110a 07CD     		ldmia	r5!, {r0, r1, r2}
 6814 110c 3061     		str	r0, [r6, #16]	@ unaligned
 6815 110e 7161     		str	r1, [r6, #20]	@ unaligned
 6816 1110 B261     		str	r2, [r6, #24]	@ unaligned
1253:TinyBasic.c   ****   strcat(s,"0091 EC;   101 :L1   PC \"@^@^@^@^J^@^\" PUNCH LEADER\n");
 6817              		.loc 1 1253 0
 6818 1112 2046     		mov	r0, r4
 6819 1114 FFF7FEFF 		bl	strlen
 6820              	.LVL742:
 6821 1118 4D4D     		ldr	r5, .L515+72
 6822 111a 0444     		add	r4, r4, r0
 6823 111c 05F13007 		add	r7, r5, #48
 6824              	.L455:
 6825 1120 2E46     		mov	r6, r5
 6826 1122 0FCE     		ldmia	r6!, {r0, r1, r2, r3}
 6827 1124 2060     		str	r0, [r4]	@ unaligned
 6828 1126 6160     		str	r1, [r4, #4]	@ unaligned
 6829 1128 A260     		str	r2, [r4, #8]	@ unaligned
 6830 112a E360     		str	r3, [r4, #12]	@ unaligned
 6831 112c 3546     		mov	r5, r6
 6832 112e 1034     		adds	r4, r4, #16
 6833 1130 BE42     		cmp	r6, r7
 6834 1132 F5D1     		bne	.L455
 6835 1134 3068     		ldr	r0, [r6]	@ unaligned
 6836 1136 2060     		str	r0, [r4]	@ unaligned
 6837 1138 3379     		ldrb	r3, [r6, #4]	@ zero_extendqisi2
 6838 113a 2371     		strb	r3, [r4, #4]
1254:TinyBasic.c   ****   strcat(s,"0092 24000000000A80;\n");
 6839              		.loc 1 1254 0
 6840 113c 324C     		ldr	r4, .L515
 6841 113e 2046     		mov	r0, r4
 6842 1140 FFF7FEFF 		bl	strlen
 6843              	.LVL743:
 6844 1144 0746     		mov	r7, r0
 6845 1146 2618     		adds	r6, r4, r0
 6846 1148 424D     		ldr	r5, .L515+76
 6847 114a 0FCD     		ldmia	r5!, {r0, r1, r2, r3}
 6848 114c E051     		str	r0, [r4, r7]	@ unaligned
 6849 114e 7160     		str	r1, [r6, #4]	@ unaligned
 6850 1150 B260     		str	r2, [r6, #8]	@ unaligned
ARM GAS  C:\Users\doug_000\AppData\Local\Temp\ccbaKQF3.s 			page 144


 6851 1152 F360     		str	r3, [r6, #12]	@ unaligned
 6852 1154 2868     		ldr	r0, [r5]	@ unaligned
 6853 1156 3061     		str	r0, [r6, #16]	@ unaligned
 6854 1158 AB88     		ldrh	r3, [r5, #4]	@ unaligned
 6855 115a B382     		strh	r3, [r6, #20]	@ unaligned
1255:TinyBasic.c   ****   strcat(s,"0099 ;     102       LS              LIST\n");
 6856              		.loc 1 1255 0
 6857 115c 2046     		mov	r0, r4
 6858 115e FFF7FEFF 		bl	strlen
 6859              	.LVL744:
 6860 1162 3D4D     		ldr	r5, .L515+80
 6861 1164 0444     		add	r4, r4, r0
 6862 1166 05F12007 		add	r7, r5, #32
 6863              	.L456:
 6864 116a 2E46     		mov	r6, r5
 6865 116c 0FCE     		ldmia	r6!, {r0, r1, r2, r3}
 6866 116e 2060     		str	r0, [r4]	@ unaligned
 6867 1170 6160     		str	r1, [r4, #4]	@ unaligned
 6868 1172 A260     		str	r2, [r4, #8]	@ unaligned
 6869 1174 E360     		str	r3, [r4, #12]	@ unaligned
 6870 1176 3546     		mov	r5, r6
 6871 1178 1034     		adds	r4, r4, #16
 6872 117a BE42     		cmp	r6, r7
 6873 117c F5D1     		bne	.L456
 6874 117e 03CD     		ldmia	r5!, {r0, r1}
 6875 1180 2060     		str	r0, [r4]	@ unaligned
 6876 1182 6160     		str	r1, [r4, #4]	@ unaligned
 6877 1184 2A88     		ldrh	r2, [r5]	@ unaligned
 6878 1186 AB78     		ldrb	r3, [r5, #2]	@ zero_extendqisi2
 6879 1188 2281     		strh	r2, [r4, #8]	@ unaligned
 6880 118a A372     		strb	r3, [r4, #10]
1256:TinyBasic.c   ****   strcat(s,"0099 1F;   103       PC \"S^\"         PUNCH X-OFF\n");
 6881              		.loc 1 1256 0
 6882 118c 1E4C     		ldr	r4, .L515
 6883 118e 2046     		mov	r0, r4
 6884 1190 FFF7FEFF 		bl	strlen
 6885              	.LVL745:
 6886 1194 314D     		ldr	r5, .L515+84
 6887 1196 0444     		add	r4, r4, r0
 6888 1198 05F13007 		add	r7, r5, #48
 6889              	.L457:
 6890 119c 2E46     		mov	r6, r5
 6891 119e 0FCE     		ldmia	r6!, {r0, r1, r2, r3}
 6892 11a0 2060     		str	r0, [r4]	@ unaligned
 6893 11a2 6160     		str	r1, [r4, #4]	@ unaligned
 6894 11a4 A260     		str	r2, [r4, #8]	@ unaligned
 6895 11a6 E360     		str	r3, [r4, #12]	@ unaligned
 6896 11a8 3546     		mov	r5, r6
 6897 11aa 1034     		adds	r4, r4, #16
 6898 11ac BE42     		cmp	r6, r7
 6899 11ae F5D1     		bne	.L457
 6900 11b0 3388     		ldrh	r3, [r6]	@ unaligned
 6901 11b2 2380     		strh	r3, [r4]	@ unaligned
1257:TinyBasic.c   ****   strcat(s,"009A 2493; 104       NL\n");
 6902              		.loc 1 1257 0
 6903 11b4 144C     		ldr	r4, .L515
 6904 11b6 2046     		mov	r0, r4
ARM GAS  C:\Users\doug_000\AppData\Local\Temp\ccbaKQF3.s 			page 145


 6905 11b8 FFF7FEFF 		bl	strlen
 6906              	.LVL746:
 6907 11bc 0746     		mov	r7, r0
 6908 11be 2618     		adds	r6, r4, r0
 6909 11c0 274D     		ldr	r5, .L515+88
 6910 11c2 0FCD     		ldmia	r5!, {r0, r1, r2, r3}
 6911 11c4 E051     		str	r0, [r4, r7]	@ unaligned
 6912 11c6 7160     		str	r1, [r6, #4]	@ unaligned
 6913 11c8 B260     		str	r2, [r6, #8]	@ unaligned
 6914 11ca F360     		str	r3, [r6, #12]	@ unaligned
 6915 11cc 03CD     		ldmia	r5!, {r0, r1}
 6916 11ce 3061     		str	r0, [r6, #16]	@ unaligned
 6917 11d0 7161     		str	r1, [r6, #20]	@ unaligned
 6918 11d2 2B78     		ldrb	r3, [r5]	@ zero_extendqisi2
 6919 11d4 3376     		strb	r3, [r6, #24]
1258:TinyBasic.c   ****   strcat(s,"009C 23;   105       NX\n");
 6920              		.loc 1 1258 0
 6921 11d6 2046     		mov	r0, r4
 6922 11d8 FFF7FEFF 		bl	strlen
 6923              	.LVL747:
 6924 11dc 0746     		mov	r7, r0
 6925 11de 2618     		adds	r6, r4, r0
 6926 11e0 204D     		ldr	r5, .L515+92
 6927 11e2 0FCD     		ldmia	r5!, {r0, r1, r2, r3}
 6928 11e4 E051     		str	r0, [r4, r7]	@ unaligned
 6929 11e6 7160     		str	r1, [r6, #4]	@ unaligned
 6930 11e8 B260     		str	r2, [r6, #8]	@ unaligned
 6931 11ea F360     		str	r3, [r6, #12]	@ unaligned
 6932 11ec 03CD     		ldmia	r5!, {r0, r1}
 6933 11ee 3061     		str	r0, [r6, #16]	@ unaligned
 6934 11f0 7161     		str	r1, [r6, #20]	@ unaligned
 6935 11f2 2B78     		ldrb	r3, [r5]	@ zero_extendqisi2
 6936 11f4 3376     		strb	r3, [r6, #24]
1259:TinyBasic.c   ****   strcat(s,"009D 1D;   106 :L2   JS EXPR         GET A LINE NUMBER\n");
 6937              		.loc 1 1259 0
 6938 11f6 2046     		mov	r0, r4
 6939 11f8 FFF7FEFF 		bl	strlen
 6940              	.LVL748:
 6941 11fc 1A4D     		ldr	r5, .L515+96
 6942 11fe 0444     		add	r4, r4, r0
 6943 1200 05F13007 		add	r7, r5, #48
 6944 1204 32E0     		b	.L516
 6945              	.L517:
 6946 1206 00BF     		.align	2
 6947              	.L515:
 6948 1208 18000000 		.word	.LANCHOR0+24
 6949 120c 50100000 		.word	.LC128
 6950 1210 88100000 		.word	.LC129
 6951 1214 A4100000 		.word	.LC130
 6952 1218 B8100000 		.word	.LC131
 6953 121c E0100000 		.word	.LC132
 6954 1220 F8100000 		.word	.LC133
 6955 1224 14110000 		.word	.LC134
 6956 1228 50110000 		.word	.LC135
 6957 122c 6C110000 		.word	.LC136
 6958 1230 80110000 		.word	.LC137
 6959 1234 A4110000 		.word	.LC138
ARM GAS  C:\Users\doug_000\AppData\Local\Temp\ccbaKQF3.s 			page 146


 6960 1238 B4110000 		.word	.LC139
 6961 123c D0110000 		.word	.LC140
 6962 1240 EC110000 		.word	.LC141
 6963 1244 00120000 		.word	.LC142
 6964 1248 24120000 		.word	.LC143
 6965 124c 38120000 		.word	.LC144
 6966 1250 54120000 		.word	.LC145
 6967 1254 8C120000 		.word	.LC146
 6968 1258 A4120000 		.word	.LC147
 6969 125c D0120000 		.word	.LC148
 6970 1260 04130000 		.word	.LC149
 6971 1264 20130000 		.word	.LC150
 6972 1268 3C130000 		.word	.LC151
 6973              	.L516:
 6974              	.L458:
 6975 126c 2E46     		mov	r6, r5
 6976 126e 0FCE     		ldmia	r6!, {r0, r1, r2, r3}
 6977 1270 2060     		str	r0, [r4]	@ unaligned
 6978 1272 6160     		str	r1, [r4, #4]	@ unaligned
 6979 1274 A260     		str	r2, [r4, #8]	@ unaligned
 6980 1276 E360     		str	r3, [r4, #12]	@ unaligned
 6981 1278 3546     		mov	r5, r6
 6982 127a 1034     		adds	r4, r4, #16
 6983 127c BE42     		cmp	r6, r7
 6984 127e F5D1     		bne	.L458
 6985 1280 03CD     		ldmia	r5!, {r0, r1}
 6986 1282 2060     		str	r0, [r4]	@ unaligned
 6987 1284 6160     		str	r1, [r4, #4]	@ unaligned
1260:TinyBasic.c   ****   strcat(s,"009E 30BC; 107       BE L3\n");
 6988              		.loc 1 1260 0
 6989 1286 D44C     		ldr	r4, .L518
 6990 1288 2046     		mov	r0, r4
 6991 128a FFF7FEFF 		bl	strlen
 6992              	.LVL749:
 6993 128e 0746     		mov	r7, r0
 6994 1290 2618     		adds	r6, r4, r0
 6995 1292 D24D     		ldr	r5, .L518+4
 6996 1294 0FCD     		ldmia	r5!, {r0, r1, r2, r3}
 6997 1296 E051     		str	r0, [r4, r7]	@ unaligned
 6998 1298 7160     		str	r1, [r6, #4]	@ unaligned
 6999 129a B260     		str	r2, [r6, #8]	@ unaligned
 7000 129c F360     		str	r3, [r6, #12]	@ unaligned
 7001 129e 07CD     		ldmia	r5!, {r0, r1, r2}
 7002 12a0 3061     		str	r0, [r6, #16]	@ unaligned
 7003 12a2 7161     		str	r1, [r6, #20]	@ unaligned
 7004 12a4 B261     		str	r2, [r6, #24]	@ unaligned
1261:TinyBasic.c   ****   strcat(s,"00A0 E1;   108       BR L1\n");
 7005              		.loc 1 1261 0
 7006 12a6 2046     		mov	r0, r4
 7007 12a8 FFF7FEFF 		bl	strlen
 7008              	.LVL750:
 7009 12ac 0746     		mov	r7, r0
 7010 12ae 2618     		adds	r6, r4, r0
 7011 12b0 CB4D     		ldr	r5, .L518+8
 7012 12b2 0FCD     		ldmia	r5!, {r0, r1, r2, r3}
 7013 12b4 E051     		str	r0, [r4, r7]	@ unaligned
 7014 12b6 7160     		str	r1, [r6, #4]	@ unaligned
ARM GAS  C:\Users\doug_000\AppData\Local\Temp\ccbaKQF3.s 			page 147


 7015 12b8 B260     		str	r2, [r6, #8]	@ unaligned
 7016 12ba F360     		str	r3, [r6, #12]	@ unaligned
 7017 12bc 07CD     		ldmia	r5!, {r0, r1, r2}
 7018 12be 3061     		str	r0, [r6, #16]	@ unaligned
 7019 12c0 7161     		str	r1, [r6, #20]	@ unaligned
 7020 12c2 B261     		str	r2, [r6, #24]	@ unaligned
1262:TinyBasic.c   ****   strcat(s,"00A1 50;   109 :L3   BC * \",\"        SEPARATED BY COMMAS\n");
 7021              		.loc 1 1262 0
 7022 12c4 2046     		mov	r0, r4
 7023 12c6 FFF7FEFF 		bl	strlen
 7024              	.LVL751:
 7025 12ca C64D     		ldr	r5, .L518+12
 7026 12cc 0444     		add	r4, r4, r0
 7027 12ce 05F13007 		add	r7, r5, #48
 7028              	.L459:
 7029 12d2 2E46     		mov	r6, r5
 7030 12d4 0FCE     		ldmia	r6!, {r0, r1, r2, r3}
 7031 12d6 2060     		str	r0, [r4]	@ unaligned
 7032 12d8 6160     		str	r1, [r4, #4]	@ unaligned
 7033 12da A260     		str	r2, [r4, #8]	@ unaligned
 7034 12dc E360     		str	r3, [r4, #12]	@ unaligned
 7035 12de 3546     		mov	r5, r6
 7036 12e0 1034     		adds	r4, r4, #16
 7037 12e2 BE42     		cmp	r6, r7
 7038 12e4 F5D1     		bne	.L459
 7039 12e6 03CD     		ldmia	r5!, {r0, r1}
 7040 12e8 2060     		str	r0, [r4]	@ unaligned
 7041 12ea 6160     		str	r1, [r4, #4]	@ unaligned
 7042 12ec 2B88     		ldrh	r3, [r5]	@ unaligned
 7043 12ee 2381     		strh	r3, [r4, #8]	@ unaligned
1263:TinyBasic.c   ****   strcat(s,"00A2 80AC; 110       BR L2\n");
 7044              		.loc 1 1263 0
 7045 12f0 B94C     		ldr	r4, .L518
 7046 12f2 2046     		mov	r0, r4
 7047 12f4 FFF7FEFF 		bl	strlen
 7048              	.LVL752:
 7049 12f8 0746     		mov	r7, r0
 7050 12fa 2618     		adds	r6, r4, r0
 7051 12fc BA4D     		ldr	r5, .L518+16
 7052 12fe 0FCD     		ldmia	r5!, {r0, r1, r2, r3}
 7053 1300 E051     		str	r0, [r4, r7]	@ unaligned
 7054 1302 7160     		str	r1, [r6, #4]	@ unaligned
 7055 1304 B260     		str	r2, [r6, #8]	@ unaligned
 7056 1306 F360     		str	r3, [r6, #12]	@ unaligned
 7057 1308 07CD     		ldmia	r5!, {r0, r1, r2}
 7058 130a 3061     		str	r0, [r6, #16]	@ unaligned
 7059 130c 7161     		str	r1, [r6, #20]	@ unaligned
 7060 130e B261     		str	r2, [r6, #24]	@ unaligned
1264:TinyBasic.c   ****   strcat(s,"00A4 59;   111 .\n");
 7061              		.loc 1 1264 0
 7062 1310 2046     		mov	r0, r4
 7063 1312 FFF7FEFF 		bl	strlen
 7064              	.LVL753:
 7065 1316 0746     		mov	r7, r0
 7066 1318 2618     		adds	r6, r4, r0
 7067 131a B44D     		ldr	r5, .L518+20
 7068 131c 0FCD     		ldmia	r5!, {r0, r1, r2, r3}
ARM GAS  C:\Users\doug_000\AppData\Local\Temp\ccbaKQF3.s 			page 148


 7069 131e E051     		str	r0, [r4, r7]	@ unaligned
 7070 1320 7160     		str	r1, [r6, #4]	@ unaligned
 7071 1322 B260     		str	r2, [r6, #8]	@ unaligned
 7072 1324 F360     		str	r3, [r6, #12]	@ unaligned
 7073 1326 2B88     		ldrh	r3, [r5]	@ unaligned
 7074 1328 3382     		strh	r3, [r6, #16]	@ unaligned
1265:TinyBasic.c   ****   strcat(s,"00A5 ;     112 :RUN  BC CLER \"RUN\"\n");
 7075              		.loc 1 1265 0
 7076 132a 2046     		mov	r0, r4
 7077 132c FFF7FEFF 		bl	strlen
 7078              	.LVL754:
 7079 1330 AF4D     		ldr	r5, .L518+24
 7080 1332 0444     		add	r4, r4, r0
 7081 1334 05F12007 		add	r7, r5, #32
 7082              	.L460:
 7083 1338 2E46     		mov	r6, r5
 7084 133a 0FCE     		ldmia	r6!, {r0, r1, r2, r3}
 7085 133c 2060     		str	r0, [r4]	@ unaligned
 7086 133e 6160     		str	r1, [r4, #4]	@ unaligned
 7087 1340 A260     		str	r2, [r4, #8]	@ unaligned
 7088 1342 E360     		str	r3, [r4, #12]	@ unaligned
 7089 1344 3546     		mov	r5, r6
 7090 1346 1034     		adds	r4, r4, #16
 7091 1348 BE42     		cmp	r6, r7
 7092 134a F5D1     		bne	.L460
 7093 134c 3068     		ldr	r0, [r6]	@ unaligned
 7094 134e 2060     		str	r0, [r4]	@ unaligned
1266:TinyBasic.c   ****   strcat(s,"00A5 855255CE;\n");
 7095              		.loc 1 1266 0
 7096 1350 A14C     		ldr	r4, .L518
 7097 1352 2046     		mov	r0, r4
 7098 1354 FFF7FEFF 		bl	strlen
 7099              	.LVL755:
 7100 1358 0746     		mov	r7, r0
 7101 135a 2618     		adds	r6, r4, r0
 7102 135c A54D     		ldr	r5, .L518+28
 7103 135e 0FCD     		ldmia	r5!, {r0, r1, r2, r3}
 7104 1360 E051     		str	r0, [r4, r7]	@ unaligned
 7105 1362 7160     		str	r1, [r6, #4]	@ unaligned
 7106 1364 B260     		str	r2, [r6, #8]	@ unaligned
 7107 1366 F360     		str	r3, [r6, #12]	@ unaligned
1267:TinyBasic.c   ****   strcat(s,"00A9 ;     113       J XEC\n");
 7108              		.loc 1 1267 0
 7109 1368 2046     		mov	r0, r4
 7110 136a FFF7FEFF 		bl	strlen
 7111              	.LVL756:
 7112 136e 0746     		mov	r7, r0
 7113 1370 2618     		adds	r6, r4, r0
 7114 1372 A14D     		ldr	r5, .L518+32
 7115 1374 0FCD     		ldmia	r5!, {r0, r1, r2, r3}
 7116 1376 E051     		str	r0, [r4, r7]	@ unaligned
 7117 1378 7160     		str	r1, [r6, #4]	@ unaligned
 7118 137a B260     		str	r2, [r6, #8]	@ unaligned
 7119 137c F360     		str	r3, [r6, #12]	@ unaligned
 7120 137e 07CD     		ldmia	r5!, {r0, r1, r2}
 7121 1380 3061     		str	r0, [r6, #16]	@ unaligned
 7122 1382 7161     		str	r1, [r6, #20]	@ unaligned
ARM GAS  C:\Users\doug_000\AppData\Local\Temp\ccbaKQF3.s 			page 149


 7123 1384 B261     		str	r2, [r6, #24]	@ unaligned
1268:TinyBasic.c   ****   strcat(s,"00A9 380A; 114 .\n");
 7124              		.loc 1 1268 0
 7125 1386 2046     		mov	r0, r4
 7126 1388 FFF7FEFF 		bl	strlen
 7127              	.LVL757:
 7128 138c 0746     		mov	r7, r0
 7129 138e 2618     		adds	r6, r4, r0
 7130 1390 9A4D     		ldr	r5, .L518+36
 7131 1392 0FCD     		ldmia	r5!, {r0, r1, r2, r3}
 7132 1394 E051     		str	r0, [r4, r7]	@ unaligned
 7133 1396 7160     		str	r1, [r6, #4]	@ unaligned
 7134 1398 B260     		str	r2, [r6, #8]	@ unaligned
 7135 139a F360     		str	r3, [r6, #12]	@ unaligned
 7136 139c 2B88     		ldrh	r3, [r5]	@ unaligned
 7137 139e 3382     		strh	r3, [r6, #16]	@ unaligned
1269:TinyBasic.c   ****   strcat(s,"00AB ;     115 :CLER BC REM \"CLEAR\"\n");
 7138              		.loc 1 1269 0
 7139 13a0 2046     		mov	r0, r4
 7140 13a2 FFF7FEFF 		bl	strlen
 7141              	.LVL758:
 7142 13a6 964D     		ldr	r5, .L518+40
 7143 13a8 0444     		add	r4, r4, r0
 7144 13aa 05F12007 		add	r7, r5, #32
 7145              	.L461:
 7146 13ae 2E46     		mov	r6, r5
 7147 13b0 0FCE     		ldmia	r6!, {r0, r1, r2, r3}
 7148 13b2 2060     		str	r0, [r4]	@ unaligned
 7149 13b4 6160     		str	r1, [r4, #4]	@ unaligned
 7150 13b6 A260     		str	r2, [r4, #8]	@ unaligned
 7151 13b8 E360     		str	r3, [r4, #12]	@ unaligned
 7152 13ba 3546     		mov	r5, r6
 7153 13bc 1034     		adds	r4, r4, #16
 7154 13be BE42     		cmp	r6, r7
 7155 13c0 F5D1     		bne	.L461
 7156 13c2 3068     		ldr	r0, [r6]	@ unaligned
 7157 13c4 2060     		str	r0, [r4]	@ unaligned
 7158 13c6 3379     		ldrb	r3, [r6, #4]	@ zero_extendqisi2
 7159 13c8 2371     		strb	r3, [r4, #4]
1270:TinyBasic.c   ****   strcat(s,"00AB 86434C4541D2;\n");
 7160              		.loc 1 1270 0
 7161 13ca 834C     		ldr	r4, .L518
 7162 13cc 2046     		mov	r0, r4
 7163 13ce FFF7FEFF 		bl	strlen
 7164              	.LVL759:
 7165 13d2 0746     		mov	r7, r0
 7166 13d4 2618     		adds	r6, r4, r0
 7167 13d6 8B4D     		ldr	r5, .L518+44
 7168 13d8 0FCD     		ldmia	r5!, {r0, r1, r2, r3}
 7169 13da E051     		str	r0, [r4, r7]	@ unaligned
 7170 13dc 7160     		str	r1, [r6, #4]	@ unaligned
 7171 13de B260     		str	r2, [r6, #8]	@ unaligned
 7172 13e0 F360     		str	r3, [r6, #12]	@ unaligned
 7173 13e2 2868     		ldr	r0, [r5]	@ unaligned
 7174 13e4 3061     		str	r0, [r6, #16]	@ unaligned
1271:TinyBasic.c   ****   strcat(s,"00B1 ;     116       MT\n");
 7175              		.loc 1 1271 0
ARM GAS  C:\Users\doug_000\AppData\Local\Temp\ccbaKQF3.s 			page 150


 7176 13e6 2046     		mov	r0, r4
 7177 13e8 FFF7FEFF 		bl	strlen
 7178              	.LVL760:
 7179 13ec 0746     		mov	r7, r0
 7180 13ee 2618     		adds	r6, r4, r0
 7181 13f0 854D     		ldr	r5, .L518+48
 7182 13f2 0FCD     		ldmia	r5!, {r0, r1, r2, r3}
 7183 13f4 E051     		str	r0, [r4, r7]	@ unaligned
 7184 13f6 7160     		str	r1, [r6, #4]	@ unaligned
 7185 13f8 B260     		str	r2, [r6, #8]	@ unaligned
 7186 13fa F360     		str	r3, [r6, #12]	@ unaligned
 7187 13fc 03CD     		ldmia	r5!, {r0, r1}
 7188 13fe 3061     		str	r0, [r6, #16]	@ unaligned
 7189 1400 7161     		str	r1, [r6, #20]	@ unaligned
 7190 1402 2B78     		ldrb	r3, [r5]	@ zero_extendqisi2
 7191 1404 3376     		strb	r3, [r6, #24]
1272:TinyBasic.c   ****   strcat(s,"00B1 2B;   117 .\n");
 7192              		.loc 1 1272 0
 7193 1406 2046     		mov	r0, r4
 7194 1408 FFF7FEFF 		bl	strlen
 7195              	.LVL761:
 7196 140c 0746     		mov	r7, r0
 7197 140e 2618     		adds	r6, r4, r0
 7198 1410 7E4D     		ldr	r5, .L518+52
 7199 1412 0FCD     		ldmia	r5!, {r0, r1, r2, r3}
 7200 1414 E051     		str	r0, [r4, r7]	@ unaligned
 7201 1416 7160     		str	r1, [r6, #4]	@ unaligned
 7202 1418 B260     		str	r2, [r6, #8]	@ unaligned
 7203 141a F360     		str	r3, [r6, #12]	@ unaligned
 7204 141c 2B88     		ldrh	r3, [r5]	@ unaligned
 7205 141e 3382     		strh	r3, [r6, #16]	@ unaligned
1273:TinyBasic.c   ****   strcat(s,"00B2 ;     118 :REM  BC DFLT \"REM\"\n");
 7206              		.loc 1 1273 0
 7207 1420 2046     		mov	r0, r4
 7208 1422 FFF7FEFF 		bl	strlen
 7209              	.LVL762:
 7210 1426 7A4D     		ldr	r5, .L518+56
 7211 1428 0444     		add	r4, r4, r0
 7212 142a 05F12007 		add	r7, r5, #32
 7213              	.L462:
 7214 142e 2E46     		mov	r6, r5
 7215 1430 0FCE     		ldmia	r6!, {r0, r1, r2, r3}
 7216 1432 2060     		str	r0, [r4]	@ unaligned
 7217 1434 6160     		str	r1, [r4, #4]	@ unaligned
 7218 1436 A260     		str	r2, [r4, #8]	@ unaligned
 7219 1438 E360     		str	r3, [r4, #12]	@ unaligned
 7220 143a 3546     		mov	r5, r6
 7221 143c 1034     		adds	r4, r4, #16
 7222 143e BE42     		cmp	r6, r7
 7223 1440 F5D1     		bne	.L462
 7224 1442 3068     		ldr	r0, [r6]	@ unaligned
 7225 1444 2060     		str	r0, [r4]	@ unaligned
1274:TinyBasic.c   ****   strcat(s,"00B2 845245CD;\n");
 7226              		.loc 1 1274 0
 7227 1446 644C     		ldr	r4, .L518
 7228 1448 2046     		mov	r0, r4
 7229 144a FFF7FEFF 		bl	strlen
ARM GAS  C:\Users\doug_000\AppData\Local\Temp\ccbaKQF3.s 			page 151


 7230              	.LVL763:
 7231 144e 0746     		mov	r7, r0
 7232 1450 2618     		adds	r6, r4, r0
 7233 1452 704D     		ldr	r5, .L518+60
 7234 1454 0FCD     		ldmia	r5!, {r0, r1, r2, r3}
 7235 1456 E051     		str	r0, [r4, r7]	@ unaligned
 7236 1458 7160     		str	r1, [r6, #4]	@ unaligned
 7237 145a B260     		str	r2, [r6, #8]	@ unaligned
 7238 145c F360     		str	r3, [r6, #12]	@ unaligned
1275:TinyBasic.c   ****   strcat(s,"00B6 ;     119       NX\n");
 7239              		.loc 1 1275 0
 7240 145e 2046     		mov	r0, r4
 7241 1460 FFF7FEFF 		bl	strlen
 7242              	.LVL764:
 7243 1464 0746     		mov	r7, r0
 7244 1466 2618     		adds	r6, r4, r0
 7245 1468 6B4D     		ldr	r5, .L518+64
 7246 146a 0FCD     		ldmia	r5!, {r0, r1, r2, r3}
 7247 146c E051     		str	r0, [r4, r7]	@ unaligned
 7248 146e 7160     		str	r1, [r6, #4]	@ unaligned
 7249 1470 B260     		str	r2, [r6, #8]	@ unaligned
 7250 1472 F360     		str	r3, [r6, #12]	@ unaligned
 7251 1474 03CD     		ldmia	r5!, {r0, r1}
 7252 1476 3061     		str	r0, [r6, #16]	@ unaligned
 7253 1478 7161     		str	r1, [r6, #20]	@ unaligned
 7254 147a 2B78     		ldrb	r3, [r5]	@ zero_extendqisi2
 7255 147c 3376     		strb	r3, [r6, #24]
1276:TinyBasic.c   ****   strcat(s,"00B6 1D;   120 .\n");
 7256              		.loc 1 1276 0
 7257 147e 2046     		mov	r0, r4
 7258 1480 FFF7FEFF 		bl	strlen
 7259              	.LVL765:
 7260 1484 0746     		mov	r7, r0
 7261 1486 2618     		adds	r6, r4, r0
 7262 1488 644D     		ldr	r5, .L518+68
 7263 148a 0FCD     		ldmia	r5!, {r0, r1, r2, r3}
 7264 148c E051     		str	r0, [r4, r7]	@ unaligned
 7265 148e 7160     		str	r1, [r6, #4]	@ unaligned
 7266 1490 B260     		str	r2, [r6, #8]	@ unaligned
 7267 1492 F360     		str	r3, [r6, #12]	@ unaligned
 7268 1494 2B88     		ldrh	r3, [r5]	@ unaligned
 7269 1496 3382     		strh	r3, [r6, #16]	@ unaligned
1277:TinyBasic.c   ****   strcat(s,"00B7 ;     121 :DFLT BV *            NO KEYWORD...\n");
 7270              		.loc 1 1277 0
 7271 1498 2046     		mov	r0, r4
 7272 149a FFF7FEFF 		bl	strlen
 7273              	.LVL766:
 7274 149e 604D     		ldr	r5, .L518+72
 7275 14a0 0444     		add	r4, r4, r0
 7276 14a2 05F13007 		add	r7, r5, #48
 7277              	.L463:
 7278 14a6 2E46     		mov	r6, r5
 7279 14a8 0FCE     		ldmia	r6!, {r0, r1, r2, r3}
 7280 14aa 2060     		str	r0, [r4]	@ unaligned
 7281 14ac 6160     		str	r1, [r4, #4]	@ unaligned
 7282 14ae A260     		str	r2, [r4, #8]	@ unaligned
 7283 14b0 E360     		str	r3, [r4, #12]	@ unaligned
ARM GAS  C:\Users\doug_000\AppData\Local\Temp\ccbaKQF3.s 			page 152


 7284 14b2 3546     		mov	r5, r6
 7285 14b4 1034     		adds	r4, r4, #16
 7286 14b6 BE42     		cmp	r6, r7
 7287 14b8 F5D1     		bne	.L463
 7288 14ba 3068     		ldr	r0, [r6]	@ unaligned
 7289 14bc 2060     		str	r0, [r4]	@ unaligned
1278:TinyBasic.c   ****   strcat(s,"00B7 A0;   122       BC * \"=\"        TRY FOR LET\n");
 7290              		.loc 1 1278 0
 7291 14be 464C     		ldr	r4, .L518
 7292 14c0 2046     		mov	r0, r4
 7293 14c2 FFF7FEFF 		bl	strlen
 7294              	.LVL767:
 7295 14c6 574D     		ldr	r5, .L518+76
 7296 14c8 0444     		add	r4, r4, r0
 7297 14ca 05F13007 		add	r7, r5, #48
 7298              	.L464:
 7299 14ce 2E46     		mov	r6, r5
 7300 14d0 0FCE     		ldmia	r6!, {r0, r1, r2, r3}
 7301 14d2 2060     		str	r0, [r4]	@ unaligned
 7302 14d4 6160     		str	r1, [r4, #4]	@ unaligned
 7303 14d6 A260     		str	r2, [r4, #8]	@ unaligned
 7304 14d8 E360     		str	r3, [r4, #12]	@ unaligned
 7305 14da 3546     		mov	r5, r6
 7306 14dc 1034     		adds	r4, r4, #16
 7307 14de BE42     		cmp	r6, r7
 7308 14e0 F5D1     		bne	.L464
 7309 14e2 3388     		ldrh	r3, [r6]	@ unaligned
 7310 14e4 2380     		strh	r3, [r4]	@ unaligned
1279:TinyBasic.c   ****   strcat(s,"00B8 80BD; 123       J LET           IT'S A GOOD BET.\n");
 7311              		.loc 1 1279 0
 7312 14e6 3C4C     		ldr	r4, .L518
 7313 14e8 2046     		mov	r0, r4
 7314 14ea FFF7FEFF 		bl	strlen
 7315              	.LVL768:
 7316 14ee 4E4D     		ldr	r5, .L518+80
 7317 14f0 0444     		add	r4, r4, r0
 7318 14f2 05F13007 		add	r7, r5, #48
 7319              	.L465:
 7320 14f6 2E46     		mov	r6, r5
 7321 14f8 0FCE     		ldmia	r6!, {r0, r1, r2, r3}
 7322 14fa 2060     		str	r0, [r4]	@ unaligned
 7323 14fc 6160     		str	r1, [r4, #4]	@ unaligned
 7324 14fe A260     		str	r2, [r4, #8]	@ unaligned
 7325 1500 E360     		str	r3, [r4, #12]	@ unaligned
 7326 1502 3546     		mov	r5, r6
 7327 1504 1034     		adds	r4, r4, #16
 7328 1506 BE42     		cmp	r6, r7
 7329 1508 F5D1     		bne	.L465
 7330 150a 3068     		ldr	r0, [r6]	@ unaligned
 7331 150c 2060     		str	r0, [r4]	@ unaligned
 7332 150e B288     		ldrh	r2, [r6, #4]	@ unaligned
 7333 1510 B379     		ldrb	r3, [r6, #6]	@ zero_extendqisi2
 7334 1512 A280     		strh	r2, [r4, #4]	@ unaligned
 7335 1514 A371     		strb	r3, [r4, #6]
1280:TinyBasic.c   ****   strcat(s,"00BA 3814; 124 .\n");
 7336              		.loc 1 1280 0
 7337 1516 304C     		ldr	r4, .L518
ARM GAS  C:\Users\doug_000\AppData\Local\Temp\ccbaKQF3.s 			page 153


 7338 1518 2046     		mov	r0, r4
 7339 151a FFF7FEFF 		bl	strlen
 7340              	.LVL769:
 7341 151e 0746     		mov	r7, r0
 7342 1520 2618     		adds	r6, r4, r0
 7343 1522 424D     		ldr	r5, .L518+84
 7344 1524 0FCD     		ldmia	r5!, {r0, r1, r2, r3}
 7345 1526 E051     		str	r0, [r4, r7]	@ unaligned
 7346 1528 7160     		str	r1, [r6, #4]	@ unaligned
 7347 152a B260     		str	r2, [r6, #8]	@ unaligned
 7348 152c F360     		str	r3, [r6, #12]	@ unaligned
 7349 152e 2B88     		ldrh	r3, [r5]	@ unaligned
 7350 1530 3382     		strh	r3, [r6, #16]	@ unaligned
1281:TinyBasic.c   ****   strcat(s,"00BC ;     125 .  SUBROUTINES\n");
 7351              		.loc 1 1281 0
 7352 1532 2046     		mov	r0, r4
 7353 1534 FFF7FEFF 		bl	strlen
 7354              	.LVL770:
 7355 1538 0746     		mov	r7, r0
 7356 153a 2618     		adds	r6, r4, r0
 7357 153c 3C4D     		ldr	r5, .L518+88
 7358 153e 0FCD     		ldmia	r5!, {r0, r1, r2, r3}
 7359 1540 E051     		str	r0, [r4, r7]	@ unaligned
 7360 1542 7160     		str	r1, [r6, #4]	@ unaligned
 7361 1544 B260     		str	r2, [r6, #8]	@ unaligned
 7362 1546 F360     		str	r3, [r6, #12]	@ unaligned
 7363 1548 07CD     		ldmia	r5!, {r0, r1, r2}
 7364 154a 3061     		str	r0, [r6, #16]	@ unaligned
 7365 154c 7161     		str	r1, [r6, #20]	@ unaligned
 7366 154e B261     		str	r2, [r6, #24]	@ unaligned
 7367 1550 2A88     		ldrh	r2, [r5]	@ unaligned
 7368 1552 AB78     		ldrb	r3, [r5, #2]	@ zero_extendqisi2
 7369 1554 B283     		strh	r2, [r6, #28]	@ unaligned
 7370 1556 B377     		strb	r3, [r6, #30]
1282:TinyBasic.c   ****   strcat(s,"00BC ;     126 .\n");
 7371              		.loc 1 1282 0
 7372 1558 2046     		mov	r0, r4
 7373 155a FFF7FEFF 		bl	strlen
 7374              	.LVL771:
 7375 155e 0746     		mov	r7, r0
 7376 1560 2618     		adds	r6, r4, r0
 7377 1562 344D     		ldr	r5, .L518+92
 7378 1564 0FCD     		ldmia	r5!, {r0, r1, r2, r3}
 7379 1566 E051     		str	r0, [r4, r7]	@ unaligned
 7380 1568 7160     		str	r1, [r6, #4]	@ unaligned
 7381 156a B260     		str	r2, [r6, #8]	@ unaligned
 7382 156c F360     		str	r3, [r6, #12]	@ unaligned
 7383 156e 2B88     		ldrh	r3, [r5]	@ unaligned
 7384 1570 3382     		strh	r3, [r6, #16]	@ unaligned
1283:TinyBasic.c   ****   strcat(s,"00BC ;     127 :EXPR BC E0 \"-\"       TRY FOR UNARY MINUS\n");
 7385              		.loc 1 1283 0
 7386 1572 2046     		mov	r0, r4
 7387 1574 FFF7FEFF 		bl	strlen
 7388              	.LVL772:
 7389 1578 2F4D     		ldr	r5, .L518+96
 7390 157a 0444     		add	r4, r4, r0
 7391 157c 05F13007 		add	r7, r5, #48
ARM GAS  C:\Users\doug_000\AppData\Local\Temp\ccbaKQF3.s 			page 154


 7392              	.L466:
 7393 1580 2E46     		mov	r6, r5
 7394 1582 0FCE     		ldmia	r6!, {r0, r1, r2, r3}
 7395 1584 2060     		str	r0, [r4]	@ unaligned
 7396 1586 6160     		str	r1, [r4, #4]	@ unaligned
 7397 1588 A260     		str	r2, [r4, #8]	@ unaligned
 7398 158a E360     		str	r3, [r4, #12]	@ unaligned
 7399 158c 3546     		mov	r5, r6
 7400 158e 1034     		adds	r4, r4, #16
 7401 1590 BE42     		cmp	r6, r7
 7402 1592 F5D1     		bne	.L466
 7403 1594 03CD     		ldmia	r5!, {r0, r1}
 7404 1596 2060     		str	r0, [r4]	@ unaligned
 7405 1598 6160     		str	r1, [r4, #4]	@ unaligned
 7406 159a 2B88     		ldrh	r3, [r5]	@ unaligned
 7407 159c 2381     		strh	r3, [r4, #8]	@ unaligned
1284:TinyBasic.c   ****   strcat(s,"00BC 85AD; 128       JS TERM         AHA\n");
 7408              		.loc 1 1284 0
 7409 159e 0E4C     		ldr	r4, .L518
 7410 15a0 2046     		mov	r0, r4
 7411 15a2 FFF7FEFF 		bl	strlen
 7412              	.LVL773:
 7413 15a6 254D     		ldr	r5, .L518+100
 7414 15a8 0444     		add	r4, r4, r0
 7415 15aa 05F12007 		add	r7, r5, #32
 7416              	.L467:
 7417 15ae 2E46     		mov	r6, r5
 7418 15b0 0FCE     		ldmia	r6!, {r0, r1, r2, r3}
 7419 15b2 2060     		str	r0, [r4]	@ unaligned
 7420 15b4 6160     		str	r1, [r4, #4]	@ unaligned
 7421 15b6 A260     		str	r2, [r4, #8]	@ unaligned
 7422 15b8 E360     		str	r3, [r4, #12]	@ unaligned
 7423 15ba 3546     		mov	r5, r6
 7424 15bc 1034     		adds	r4, r4, #16
 7425 15be BE42     		cmp	r6, r7
 7426 15c0 F5D1     		bne	.L467
 7427 15c2 03CD     		ldmia	r5!, {r0, r1}
 7428 15c4 2060     		str	r0, [r4]	@ unaligned
 7429 15c6 6160     		str	r1, [r4, #4]	@ unaligned
 7430 15c8 2B88     		ldrh	r3, [r5]	@ unaligned
 7431 15ca 2381     		strh	r3, [r4, #8]	@ unaligned
1285:TinyBasic.c   ****   strcat(s,"00BE 30D3; 129       NE\n");
 7432              		.loc 1 1285 0
 7433 15cc 024C     		ldr	r4, .L518
 7434 15ce 2046     		mov	r0, r4
 7435 15d0 FFF7FEFF 		bl	strlen
 7436              	.LVL774:
 7437 15d4 0746     		mov	r7, r0
 7438 15d6 33E0     		b	.L519
 7439              	.L520:
 7440              		.align	2
 7441              	.L518:
 7442 15d8 18000000 		.word	.LANCHOR0+24
 7443 15dc 74130000 		.word	.LC152
 7444 15e0 90130000 		.word	.LC153
 7445 15e4 AC130000 		.word	.LC154
 7446 15e8 E8130000 		.word	.LC155
ARM GAS  C:\Users\doug_000\AppData\Local\Temp\ccbaKQF3.s 			page 155


 7447 15ec 04140000 		.word	.LC156
 7448 15f0 18140000 		.word	.LC157
 7449 15f4 3C140000 		.word	.LC158
 7450 15f8 4C140000 		.word	.LC159
 7451 15fc 68140000 		.word	.LC160
 7452 1600 7C140000 		.word	.LC161
 7453 1604 A4140000 		.word	.LC162
 7454 1608 B8140000 		.word	.LC163
 7455 160c D4140000 		.word	.LC164
 7456 1610 E8140000 		.word	.LC165
 7457 1614 0C150000 		.word	.LC166
 7458 1618 1C150000 		.word	.LC167
 7459 161c 38150000 		.word	.LC168
 7460 1620 4C150000 		.word	.LC169
 7461 1624 80150000 		.word	.LC170
 7462 1628 B4150000 		.word	.LC171
 7463 162c EC150000 		.word	.LC172
 7464 1630 00160000 		.word	.LC173
 7465 1634 20160000 		.word	.LC174
 7466 1638 34160000 		.word	.LC175
 7467 163c 70160000 		.word	.LC176
 7468              	.L519:
 7469 1640 2618     		adds	r6, r4, r0
 7470 1642 CC4D     		ldr	r5, .L521
 7471 1644 0FCD     		ldmia	r5!, {r0, r1, r2, r3}
 7472 1646 E051     		str	r0, [r4, r7]	@ unaligned
 7473 1648 7160     		str	r1, [r6, #4]	@ unaligned
 7474 164a B260     		str	r2, [r6, #8]	@ unaligned
 7475 164c F360     		str	r3, [r6, #12]	@ unaligned
 7476 164e 03CD     		ldmia	r5!, {r0, r1}
 7477 1650 3061     		str	r0, [r6, #16]	@ unaligned
 7478 1652 7161     		str	r1, [r6, #20]	@ unaligned
 7479 1654 2B78     		ldrb	r3, [r5]	@ zero_extendqisi2
 7480 1656 3376     		strb	r3, [r6, #24]
1286:TinyBasic.c   ****   strcat(s,"00C0 17;   130       BR E1\n");
 7481              		.loc 1 1286 0
 7482 1658 2046     		mov	r0, r4
 7483 165a FFF7FEFF 		bl	strlen
 7484              	.LVL775:
 7485 165e 0746     		mov	r7, r0
 7486 1660 2618     		adds	r6, r4, r0
 7487 1662 C54D     		ldr	r5, .L521+4
 7488 1664 0FCD     		ldmia	r5!, {r0, r1, r2, r3}
 7489 1666 E051     		str	r0, [r4, r7]	@ unaligned
 7490 1668 7160     		str	r1, [r6, #4]	@ unaligned
 7491 166a B260     		str	r2, [r6, #8]	@ unaligned
 7492 166c F360     		str	r3, [r6, #12]	@ unaligned
 7493 166e 07CD     		ldmia	r5!, {r0, r1, r2}
 7494 1670 3061     		str	r0, [r6, #16]	@ unaligned
 7495 1672 7161     		str	r1, [r6, #20]	@ unaligned
 7496 1674 B261     		str	r2, [r6, #24]	@ unaligned
1287:TinyBasic.c   ****   strcat(s,"00C1 64;   131 :E0   BC E4 \"+\"       IGNORE UNARY PLUS\n");
 7497              		.loc 1 1287 0
 7498 1676 2046     		mov	r0, r4
 7499 1678 FFF7FEFF 		bl	strlen
 7500              	.LVL776:
 7501 167c BF4D     		ldr	r5, .L521+8
ARM GAS  C:\Users\doug_000\AppData\Local\Temp\ccbaKQF3.s 			page 156


 7502 167e 0444     		add	r4, r4, r0
 7503 1680 05F13007 		add	r7, r5, #48
 7504              	.L468:
 7505 1684 2E46     		mov	r6, r5
 7506 1686 0FCE     		ldmia	r6!, {r0, r1, r2, r3}
 7507 1688 2060     		str	r0, [r4]	@ unaligned
 7508 168a 6160     		str	r1, [r4, #4]	@ unaligned
 7509 168c A260     		str	r2, [r4, #8]	@ unaligned
 7510 168e E360     		str	r3, [r4, #12]	@ unaligned
 7511 1690 3546     		mov	r5, r6
 7512 1692 1034     		adds	r4, r4, #16
 7513 1694 BE42     		cmp	r6, r7
 7514 1696 F5D1     		bne	.L468
 7515 1698 03CD     		ldmia	r5!, {r0, r1}
 7516 169a 2060     		str	r0, [r4]	@ unaligned
 7517 169c 6160     		str	r1, [r4, #4]	@ unaligned
1288:TinyBasic.c   ****   strcat(s,"00C2 81AB; 132 :E4   JS TERM\n");
 7518              		.loc 1 1288 0
 7519 169e B84C     		ldr	r4, .L521+12
 7520 16a0 2046     		mov	r0, r4
 7521 16a2 FFF7FEFF 		bl	strlen
 7522              	.LVL777:
 7523 16a6 0746     		mov	r7, r0
 7524 16a8 2618     		adds	r6, r4, r0
 7525 16aa B64D     		ldr	r5, .L521+16
 7526 16ac 0FCD     		ldmia	r5!, {r0, r1, r2, r3}
 7527 16ae E051     		str	r0, [r4, r7]	@ unaligned
 7528 16b0 7160     		str	r1, [r6, #4]	@ unaligned
 7529 16b2 B260     		str	r2, [r6, #8]	@ unaligned
 7530 16b4 F360     		str	r3, [r6, #12]	@ unaligned
 7531 16b6 07CD     		ldmia	r5!, {r0, r1, r2}
 7532 16b8 3061     		str	r0, [r6, #16]	@ unaligned
 7533 16ba 7161     		str	r1, [r6, #20]	@ unaligned
 7534 16bc B261     		str	r2, [r6, #24]	@ unaligned
 7535 16be 2B88     		ldrh	r3, [r5]	@ unaligned
 7536 16c0 B383     		strh	r3, [r6, #28]	@ unaligned
1289:TinyBasic.c   ****   strcat(s,"00C4 30D3; 133 :E1   BC E2 \"+\"       TERMS SEPARATED BY PLUS\n");
 7537              		.loc 1 1289 0
 7538 16c2 2046     		mov	r0, r4
 7539 16c4 FFF7FEFF 		bl	strlen
 7540              	.LVL778:
 7541 16c8 AF4D     		ldr	r5, .L521+20
 7542 16ca 0444     		add	r4, r4, r0
 7543 16cc 05F13007 		add	r7, r5, #48
 7544              	.L469:
 7545 16d0 2E46     		mov	r6, r5
 7546 16d2 0FCE     		ldmia	r6!, {r0, r1, r2, r3}
 7547 16d4 2060     		str	r0, [r4]	@ unaligned
 7548 16d6 6160     		str	r1, [r4, #4]	@ unaligned
 7549 16d8 A260     		str	r2, [r4, #8]	@ unaligned
 7550 16da E360     		str	r3, [r4, #12]	@ unaligned
 7551 16dc 3546     		mov	r5, r6
 7552 16de 1034     		adds	r4, r4, #16
 7553 16e0 BE42     		cmp	r6, r7
 7554 16e2 F5D1     		bne	.L469
 7555 16e4 07CD     		ldmia	r5!, {r0, r1, r2}
 7556 16e6 2060     		str	r0, [r4]	@ unaligned
ARM GAS  C:\Users\doug_000\AppData\Local\Temp\ccbaKQF3.s 			page 157


 7557 16e8 6160     		str	r1, [r4, #4]	@ unaligned
 7558 16ea A260     		str	r2, [r4, #8]	@ unaligned
 7559 16ec 2B88     		ldrh	r3, [r5]	@ unaligned
 7560 16ee A381     		strh	r3, [r4, #12]	@ unaligned
1290:TinyBasic.c   ****   strcat(s,"00C6 85AB; 134       JS TERM\n");
 7561              		.loc 1 1290 0
 7562 16f0 A34C     		ldr	r4, .L521+12
 7563 16f2 2046     		mov	r0, r4
 7564 16f4 FFF7FEFF 		bl	strlen
 7565              	.LVL779:
 7566 16f8 0746     		mov	r7, r0
 7567 16fa 2618     		adds	r6, r4, r0
 7568 16fc A34D     		ldr	r5, .L521+24
 7569 16fe 0FCD     		ldmia	r5!, {r0, r1, r2, r3}
 7570 1700 E051     		str	r0, [r4, r7]	@ unaligned
 7571 1702 7160     		str	r1, [r6, #4]	@ unaligned
 7572 1704 B260     		str	r2, [r6, #8]	@ unaligned
 7573 1706 F360     		str	r3, [r6, #12]	@ unaligned
 7574 1708 07CD     		ldmia	r5!, {r0, r1, r2}
 7575 170a 3061     		str	r0, [r6, #16]	@ unaligned
 7576 170c 7161     		str	r1, [r6, #20]	@ unaligned
 7577 170e B261     		str	r2, [r6, #24]	@ unaligned
 7578 1710 2B88     		ldrh	r3, [r5]	@ unaligned
 7579 1712 B383     		strh	r3, [r6, #28]	@ unaligned
1291:TinyBasic.c   ****   strcat(s,"00C8 30D3; 135       AD\n");
 7580              		.loc 1 1291 0
 7581 1714 2046     		mov	r0, r4
 7582 1716 FFF7FEFF 		bl	strlen
 7583              	.LVL780:
 7584 171a 0746     		mov	r7, r0
 7585 171c 2618     		adds	r6, r4, r0
 7586 171e 9C4D     		ldr	r5, .L521+28
 7587 1720 0FCD     		ldmia	r5!, {r0, r1, r2, r3}
 7588 1722 E051     		str	r0, [r4, r7]	@ unaligned
 7589 1724 7160     		str	r1, [r6, #4]	@ unaligned
 7590 1726 B260     		str	r2, [r6, #8]	@ unaligned
 7591 1728 F360     		str	r3, [r6, #12]	@ unaligned
 7592 172a 03CD     		ldmia	r5!, {r0, r1}
 7593 172c 3061     		str	r0, [r6, #16]	@ unaligned
 7594 172e 7161     		str	r1, [r6, #20]	@ unaligned
 7595 1730 2B78     		ldrb	r3, [r5]	@ zero_extendqisi2
 7596 1732 3376     		strb	r3, [r6, #24]
1292:TinyBasic.c   ****   strcat(s,"00CA 18;   136       BR E1\n");
 7597              		.loc 1 1292 0
 7598 1734 2046     		mov	r0, r4
 7599 1736 FFF7FEFF 		bl	strlen
 7600              	.LVL781:
 7601 173a 0746     		mov	r7, r0
 7602 173c 2618     		adds	r6, r4, r0
 7603 173e 954D     		ldr	r5, .L521+32
 7604 1740 0FCD     		ldmia	r5!, {r0, r1, r2, r3}
 7605 1742 E051     		str	r0, [r4, r7]	@ unaligned
 7606 1744 7160     		str	r1, [r6, #4]	@ unaligned
 7607 1746 B260     		str	r2, [r6, #8]	@ unaligned
 7608 1748 F360     		str	r3, [r6, #12]	@ unaligned
 7609 174a 07CD     		ldmia	r5!, {r0, r1, r2}
 7610 174c 3061     		str	r0, [r6, #16]	@ unaligned
ARM GAS  C:\Users\doug_000\AppData\Local\Temp\ccbaKQF3.s 			page 158


 7611 174e 7161     		str	r1, [r6, #20]	@ unaligned
 7612 1750 B261     		str	r2, [r6, #24]	@ unaligned
1293:TinyBasic.c   ****   strcat(s,"00CB 5A;   137 :E2   BC E3 \"-\"       TERMS SEPARATED BY MINUS\n");
 7613              		.loc 1 1293 0
 7614 1752 2046     		mov	r0, r4
 7615 1754 FFF7FEFF 		bl	strlen
 7616              	.LVL782:
 7617 1758 8F4D     		ldr	r5, .L521+36
 7618 175a 0444     		add	r4, r4, r0
 7619 175c 05F13007 		add	r7, r5, #48
 7620              	.L470:
 7621 1760 2E46     		mov	r6, r5
 7622 1762 0FCE     		ldmia	r6!, {r0, r1, r2, r3}
 7623 1764 2060     		str	r0, [r4]	@ unaligned
 7624 1766 6160     		str	r1, [r4, #4]	@ unaligned
 7625 1768 A260     		str	r2, [r4, #8]	@ unaligned
 7626 176a E360     		str	r3, [r4, #12]	@ unaligned
 7627 176c 3546     		mov	r5, r6
 7628 176e 1034     		adds	r4, r4, #16
 7629 1770 BE42     		cmp	r6, r7
 7630 1772 F5D1     		bne	.L470
 7631 1774 3346     		mov	r3, r6
 7632 1776 07CB     		ldmia	r3!, {r0, r1, r2}
 7633 1778 2060     		str	r0, [r4]	@ unaligned
 7634 177a 6160     		str	r1, [r4, #4]	@ unaligned
 7635 177c A260     		str	r2, [r4, #8]	@ unaligned
 7636 177e 1A88     		ldrh	r2, [r3]	@ unaligned
 7637 1780 9B78     		ldrb	r3, [r3, #2]	@ zero_extendqisi2
 7638 1782 A281     		strh	r2, [r4, #12]	@ unaligned
 7639 1784 A373     		strb	r3, [r4, #14]
1294:TinyBasic.c   ****   strcat(s,"00CC 85AD; 138       JS TERM\n");
 7640              		.loc 1 1294 0
 7641 1786 7E4C     		ldr	r4, .L521+12
 7642 1788 2046     		mov	r0, r4
 7643 178a FFF7FEFF 		bl	strlen
 7644              	.LVL783:
 7645 178e 0746     		mov	r7, r0
 7646 1790 2618     		adds	r6, r4, r0
 7647 1792 824D     		ldr	r5, .L521+40
 7648 1794 0FCD     		ldmia	r5!, {r0, r1, r2, r3}
 7649 1796 E051     		str	r0, [r4, r7]	@ unaligned
 7650 1798 7160     		str	r1, [r6, #4]	@ unaligned
 7651 179a B260     		str	r2, [r6, #8]	@ unaligned
 7652 179c F360     		str	r3, [r6, #12]	@ unaligned
 7653 179e 07CD     		ldmia	r5!, {r0, r1, r2}
 7654 17a0 3061     		str	r0, [r6, #16]	@ unaligned
 7655 17a2 7161     		str	r1, [r6, #20]	@ unaligned
 7656 17a4 B261     		str	r2, [r6, #24]	@ unaligned
 7657 17a6 2B88     		ldrh	r3, [r5]	@ unaligned
 7658 17a8 B383     		strh	r3, [r6, #28]	@ unaligned
1295:TinyBasic.c   ****   strcat(s,"00CE 30D3; 139       SU\n");
 7659              		.loc 1 1295 0
 7660 17aa 2046     		mov	r0, r4
 7661 17ac FFF7FEFF 		bl	strlen
 7662              	.LVL784:
 7663 17b0 0746     		mov	r7, r0
 7664 17b2 2618     		adds	r6, r4, r0
ARM GAS  C:\Users\doug_000\AppData\Local\Temp\ccbaKQF3.s 			page 159


 7665 17b4 7A4D     		ldr	r5, .L521+44
 7666 17b6 0FCD     		ldmia	r5!, {r0, r1, r2, r3}
 7667 17b8 E051     		str	r0, [r4, r7]	@ unaligned
 7668 17ba 7160     		str	r1, [r6, #4]	@ unaligned
 7669 17bc B260     		str	r2, [r6, #8]	@ unaligned
 7670 17be F360     		str	r3, [r6, #12]	@ unaligned
 7671 17c0 03CD     		ldmia	r5!, {r0, r1}
 7672 17c2 3061     		str	r0, [r6, #16]	@ unaligned
 7673 17c4 7161     		str	r1, [r6, #20]	@ unaligned
 7674 17c6 2B78     		ldrb	r3, [r5]	@ zero_extendqisi2
 7675 17c8 3376     		strb	r3, [r6, #24]
1296:TinyBasic.c   ****   strcat(s,"00D0 19;   140       BR E1\n");
 7676              		.loc 1 1296 0
 7677 17ca 2046     		mov	r0, r4
 7678 17cc FFF7FEFF 		bl	strlen
 7679              	.LVL785:
 7680 17d0 0746     		mov	r7, r0
 7681 17d2 2618     		adds	r6, r4, r0
 7682 17d4 734D     		ldr	r5, .L521+48
 7683 17d6 0FCD     		ldmia	r5!, {r0, r1, r2, r3}
 7684 17d8 E051     		str	r0, [r4, r7]	@ unaligned
 7685 17da 7160     		str	r1, [r6, #4]	@ unaligned
 7686 17dc B260     		str	r2, [r6, #8]	@ unaligned
 7687 17de F360     		str	r3, [r6, #12]	@ unaligned
 7688 17e0 07CD     		ldmia	r5!, {r0, r1, r2}
 7689 17e2 3061     		str	r0, [r6, #16]	@ unaligned
 7690 17e4 7161     		str	r1, [r6, #20]	@ unaligned
 7691 17e6 B261     		str	r2, [r6, #24]	@ unaligned
1297:TinyBasic.c   ****   strcat(s,"00D1 54;   141 :E3   RT\n");
 7692              		.loc 1 1297 0
 7693 17e8 2046     		mov	r0, r4
 7694 17ea FFF7FEFF 		bl	strlen
 7695              	.LVL786:
 7696 17ee 0746     		mov	r7, r0
 7697 17f0 2618     		adds	r6, r4, r0
 7698 17f2 6D4D     		ldr	r5, .L521+52
 7699 17f4 0FCD     		ldmia	r5!, {r0, r1, r2, r3}
 7700 17f6 E051     		str	r0, [r4, r7]	@ unaligned
 7701 17f8 7160     		str	r1, [r6, #4]	@ unaligned
 7702 17fa B260     		str	r2, [r6, #8]	@ unaligned
 7703 17fc F360     		str	r3, [r6, #12]	@ unaligned
 7704 17fe 03CD     		ldmia	r5!, {r0, r1}
 7705 1800 3061     		str	r0, [r6, #16]	@ unaligned
 7706 1802 7161     		str	r1, [r6, #20]	@ unaligned
 7707 1804 2B78     		ldrb	r3, [r5]	@ zero_extendqisi2
 7708 1806 3376     		strb	r3, [r6, #24]
1298:TinyBasic.c   ****   strcat(s,"00D2 2F;   142 .\n");
 7709              		.loc 1 1298 0
 7710 1808 2046     		mov	r0, r4
 7711 180a FFF7FEFF 		bl	strlen
 7712              	.LVL787:
 7713 180e 0746     		mov	r7, r0
 7714 1810 2618     		adds	r6, r4, r0
 7715 1812 664D     		ldr	r5, .L521+56
 7716 1814 0FCD     		ldmia	r5!, {r0, r1, r2, r3}
 7717 1816 E051     		str	r0, [r4, r7]	@ unaligned
 7718 1818 7160     		str	r1, [r6, #4]	@ unaligned
ARM GAS  C:\Users\doug_000\AppData\Local\Temp\ccbaKQF3.s 			page 160


 7719 181a B260     		str	r2, [r6, #8]	@ unaligned
 7720 181c F360     		str	r3, [r6, #12]	@ unaligned
 7721 181e 2B88     		ldrh	r3, [r5]	@ unaligned
 7722 1820 3382     		strh	r3, [r6, #16]	@ unaligned
1299:TinyBasic.c   ****   strcat(s,"00D3 ;     143 :TERM JS FACT\n");
 7723              		.loc 1 1299 0
 7724 1822 2046     		mov	r0, r4
 7725 1824 FFF7FEFF 		bl	strlen
 7726              	.LVL788:
 7727 1828 0746     		mov	r7, r0
 7728 182a 2618     		adds	r6, r4, r0
 7729 182c 604D     		ldr	r5, .L521+60
 7730 182e 0FCD     		ldmia	r5!, {r0, r1, r2, r3}
 7731 1830 E051     		str	r0, [r4, r7]	@ unaligned
 7732 1832 7160     		str	r1, [r6, #4]	@ unaligned
 7733 1834 B260     		str	r2, [r6, #8]	@ unaligned
 7734 1836 F360     		str	r3, [r6, #12]	@ unaligned
 7735 1838 07CD     		ldmia	r5!, {r0, r1, r2}
 7736 183a 3061     		str	r0, [r6, #16]	@ unaligned
 7737 183c 7161     		str	r1, [r6, #20]	@ unaligned
 7738 183e B261     		str	r2, [r6, #24]	@ unaligned
 7739 1840 2B88     		ldrh	r3, [r5]	@ unaligned
 7740 1842 B383     		strh	r3, [r6, #28]	@ unaligned
1300:TinyBasic.c   ****   strcat(s,"00D3 30E2; 144 :T0   BC T1 \"*\"       FACTORS SEPARATED BY TIMES\n");
 7741              		.loc 1 1300 0
 7742 1844 2046     		mov	r0, r4
 7743 1846 FFF7FEFF 		bl	strlen
 7744              	.LVL789:
 7745 184a 2044     		add	r0, r0, r4
 7746 184c 5949     		ldr	r1, .L521+64
 7747 184e 4122     		movs	r2, #65
 7748 1850 FFF7FEFF 		bl	memcpy
 7749              	.LVL790:
1301:TinyBasic.c   ****   strcat(s,"00D5 85AA; 145       JS FACT\n");
 7750              		.loc 1 1301 0
 7751 1854 2046     		mov	r0, r4
 7752 1856 FFF7FEFF 		bl	strlen
 7753              	.LVL791:
 7754 185a 0746     		mov	r7, r0
 7755 185c 2618     		adds	r6, r4, r0
 7756 185e 564D     		ldr	r5, .L521+68
 7757 1860 0FCD     		ldmia	r5!, {r0, r1, r2, r3}
 7758 1862 E051     		str	r0, [r4, r7]	@ unaligned
 7759 1864 7160     		str	r1, [r6, #4]	@ unaligned
 7760 1866 B260     		str	r2, [r6, #8]	@ unaligned
 7761 1868 F360     		str	r3, [r6, #12]	@ unaligned
 7762 186a 07CD     		ldmia	r5!, {r0, r1, r2}
 7763 186c 3061     		str	r0, [r6, #16]	@ unaligned
 7764 186e 7161     		str	r1, [r6, #20]	@ unaligned
 7765 1870 B261     		str	r2, [r6, #24]	@ unaligned
 7766 1872 2B88     		ldrh	r3, [r5]	@ unaligned
 7767 1874 B383     		strh	r3, [r6, #28]	@ unaligned
1302:TinyBasic.c   ****   strcat(s,"00D7 30E2; 146       MP\n");
 7768              		.loc 1 1302 0
 7769 1876 2046     		mov	r0, r4
 7770 1878 FFF7FEFF 		bl	strlen
 7771              	.LVL792:
ARM GAS  C:\Users\doug_000\AppData\Local\Temp\ccbaKQF3.s 			page 161


 7772 187c 0746     		mov	r7, r0
 7773 187e 2618     		adds	r6, r4, r0
 7774 1880 4E4D     		ldr	r5, .L521+72
 7775 1882 0FCD     		ldmia	r5!, {r0, r1, r2, r3}
 7776 1884 E051     		str	r0, [r4, r7]	@ unaligned
 7777 1886 7160     		str	r1, [r6, #4]	@ unaligned
 7778 1888 B260     		str	r2, [r6, #8]	@ unaligned
 7779 188a F360     		str	r3, [r6, #12]	@ unaligned
 7780 188c 03CD     		ldmia	r5!, {r0, r1}
 7781 188e 3061     		str	r0, [r6, #16]	@ unaligned
 7782 1890 7161     		str	r1, [r6, #20]	@ unaligned
 7783 1892 2B78     		ldrb	r3, [r5]	@ zero_extendqisi2
 7784 1894 3376     		strb	r3, [r6, #24]
1303:TinyBasic.c   ****   strcat(s,"00D9 1A;   147       BR T0\n");
 7785              		.loc 1 1303 0
 7786 1896 2046     		mov	r0, r4
 7787 1898 FFF7FEFF 		bl	strlen
 7788              	.LVL793:
 7789 189c 0746     		mov	r7, r0
 7790 189e 2618     		adds	r6, r4, r0
 7791 18a0 474D     		ldr	r5, .L521+76
 7792 18a2 0FCD     		ldmia	r5!, {r0, r1, r2, r3}
 7793 18a4 E051     		str	r0, [r4, r7]	@ unaligned
 7794 18a6 7160     		str	r1, [r6, #4]	@ unaligned
 7795 18a8 B260     		str	r2, [r6, #8]	@ unaligned
 7796 18aa F360     		str	r3, [r6, #12]	@ unaligned
 7797 18ac 07CD     		ldmia	r5!, {r0, r1, r2}
 7798 18ae 3061     		str	r0, [r6, #16]	@ unaligned
 7799 18b0 7161     		str	r1, [r6, #20]	@ unaligned
 7800 18b2 B261     		str	r2, [r6, #24]	@ unaligned
1304:TinyBasic.c   ****   strcat(s,"00DA 5A;   148 :T1   BC T2 \"/\"       FACTORS SEPARATED BY DIVIDE\n");
 7801              		.loc 1 1304 0
 7802 18b4 2046     		mov	r0, r4
 7803 18b6 FFF7FEFF 		bl	strlen
 7804              	.LVL794:
 7805 18ba 2044     		add	r0, r0, r4
 7806 18bc 4149     		ldr	r1, .L521+80
 7807 18be 4222     		movs	r2, #66
 7808 18c0 FFF7FEFF 		bl	memcpy
 7809              	.LVL795:
1305:TinyBasic.c   ****   strcat(s,"00DB 85AF; 149       JS  FACT\n");
 7810              		.loc 1 1305 0
 7811 18c4 2046     		mov	r0, r4
 7812 18c6 FFF7FEFF 		bl	strlen
 7813              	.LVL796:
 7814 18ca 0746     		mov	r7, r0
 7815 18cc 2618     		adds	r6, r4, r0
 7816 18ce 3E4D     		ldr	r5, .L521+84
 7817 18d0 0FCD     		ldmia	r5!, {r0, r1, r2, r3}
 7818 18d2 E051     		str	r0, [r4, r7]	@ unaligned
 7819 18d4 7160     		str	r1, [r6, #4]	@ unaligned
 7820 18d6 B260     		str	r2, [r6, #8]	@ unaligned
 7821 18d8 F360     		str	r3, [r6, #12]	@ unaligned
 7822 18da 07CD     		ldmia	r5!, {r0, r1, r2}
 7823 18dc 3061     		str	r0, [r6, #16]	@ unaligned
 7824 18de 7161     		str	r1, [r6, #20]	@ unaligned
 7825 18e0 B261     		str	r2, [r6, #24]	@ unaligned
ARM GAS  C:\Users\doug_000\AppData\Local\Temp\ccbaKQF3.s 			page 162


 7826 18e2 2A88     		ldrh	r2, [r5]	@ unaligned
 7827 18e4 AB78     		ldrb	r3, [r5, #2]	@ zero_extendqisi2
 7828 18e6 B283     		strh	r2, [r6, #28]	@ unaligned
 7829 18e8 B377     		strb	r3, [r6, #30]
1306:TinyBasic.c   ****   strcat(s,"00DD 30E2; 150       DV\n");
 7830              		.loc 1 1306 0
 7831 18ea 2046     		mov	r0, r4
 7832 18ec FFF7FEFF 		bl	strlen
 7833              	.LVL797:
 7834 18f0 0746     		mov	r7, r0
 7835 18f2 2618     		adds	r6, r4, r0
 7836 18f4 354D     		ldr	r5, .L521+88
 7837 18f6 0FCD     		ldmia	r5!, {r0, r1, r2, r3}
 7838 18f8 E051     		str	r0, [r4, r7]	@ unaligned
 7839 18fa 7160     		str	r1, [r6, #4]	@ unaligned
 7840 18fc B260     		str	r2, [r6, #8]	@ unaligned
 7841 18fe F360     		str	r3, [r6, #12]	@ unaligned
 7842 1900 03CD     		ldmia	r5!, {r0, r1}
 7843 1902 3061     		str	r0, [r6, #16]	@ unaligned
 7844 1904 7161     		str	r1, [r6, #20]	@ unaligned
 7845 1906 2B78     		ldrb	r3, [r5]	@ zero_extendqisi2
 7846 1908 3376     		strb	r3, [r6, #24]
1307:TinyBasic.c   ****   strcat(s,"00DF 1B;   151       BR T0\n");
 7847              		.loc 1 1307 0
 7848 190a 2046     		mov	r0, r4
 7849 190c FFF7FEFF 		bl	strlen
 7850              	.LVL798:
 7851 1910 0746     		mov	r7, r0
 7852 1912 2618     		adds	r6, r4, r0
 7853 1914 2E4D     		ldr	r5, .L521+92
 7854 1916 0FCD     		ldmia	r5!, {r0, r1, r2, r3}
 7855 1918 E051     		str	r0, [r4, r7]	@ unaligned
 7856 191a 7160     		str	r1, [r6, #4]	@ unaligned
 7857 191c B260     		str	r2, [r6, #8]	@ unaligned
 7858 191e F360     		str	r3, [r6, #12]	@ unaligned
 7859 1920 07CD     		ldmia	r5!, {r0, r1, r2}
 7860 1922 3061     		str	r0, [r6, #16]	@ unaligned
 7861 1924 7161     		str	r1, [r6, #20]	@ unaligned
 7862 1926 B261     		str	r2, [r6, #24]	@ unaligned
1308:TinyBasic.c   ****   strcat(s,"00E0 54;   152 :T2   RT\n");
 7863              		.loc 1 1308 0
 7864 1928 2046     		mov	r0, r4
 7865 192a FFF7FEFF 		bl	strlen
 7866              	.LVL799:
 7867 192e 0746     		mov	r7, r0
 7868 1930 2618     		adds	r6, r4, r0
 7869 1932 284D     		ldr	r5, .L521+96
 7870 1934 0FCD     		ldmia	r5!, {r0, r1, r2, r3}
 7871 1936 E051     		str	r0, [r4, r7]	@ unaligned
 7872 1938 7160     		str	r1, [r6, #4]	@ unaligned
 7873 193a B260     		str	r2, [r6, #8]	@ unaligned
 7874 193c F360     		str	r3, [r6, #12]	@ unaligned
 7875 193e 03CD     		ldmia	r5!, {r0, r1}
 7876 1940 3061     		str	r0, [r6, #16]	@ unaligned
 7877 1942 7161     		str	r1, [r6, #20]	@ unaligned
 7878 1944 2B78     		ldrb	r3, [r5]	@ zero_extendqisi2
 7879 1946 3376     		strb	r3, [r6, #24]
ARM GAS  C:\Users\doug_000\AppData\Local\Temp\ccbaKQF3.s 			page 163


1309:TinyBasic.c   ****   strcat(s,"00E1 2F;   153 .\n");
 7880              		.loc 1 1309 0
 7881 1948 2046     		mov	r0, r4
 7882 194a FFF7FEFF 		bl	strlen
 7883              	.LVL800:
 7884 194e 0746     		mov	r7, r0
 7885 1950 2618     		adds	r6, r4, r0
 7886 1952 214D     		ldr	r5, .L521+100
 7887 1954 0FCD     		ldmia	r5!, {r0, r1, r2, r3}
 7888 1956 E051     		str	r0, [r4, r7]	@ unaligned
 7889 1958 7160     		str	r1, [r6, #4]	@ unaligned
 7890 195a B260     		str	r2, [r6, #8]	@ unaligned
 7891 195c F360     		str	r3, [r6, #12]	@ unaligned
 7892 195e 2B88     		ldrh	r3, [r5]	@ unaligned
 7893 1960 3382     		strh	r3, [r6, #16]	@ unaligned
1310:TinyBasic.c   ****   strcat(s,"00E2 ;     154 :FACT BC F0 \"RND\"     *RND FUNCTION*\n");
 7894              		.loc 1 1310 0
 7895 1962 2046     		mov	r0, r4
 7896 1964 FFF7FEFF 		bl	strlen
 7897              	.LVL801:
 7898 1968 1C4D     		ldr	r5, .L521+104
 7899 196a 0444     		add	r4, r4, r0
 7900 196c 05F13007 		add	r7, r5, #48
 7901 1970 36E0     		b	.L522
 7902              	.L523:
 7903 1972 00BF     		.align	2
 7904              	.L521:
 7905 1974 9C160000 		.word	.LC177
 7906 1978 B8160000 		.word	.LC178
 7907 197c D4160000 		.word	.LC179
 7908 1980 18000000 		.word	.LANCHOR0+24
 7909 1984 0C170000 		.word	.LC180
 7910 1988 2C170000 		.word	.LC181
 7911 198c 6C170000 		.word	.LC182
 7912 1990 8C170000 		.word	.LC183
 7913 1994 A8170000 		.word	.LC184
 7914 1998 C4170000 		.word	.LC185
 7915 199c 04180000 		.word	.LC186
 7916 19a0 24180000 		.word	.LC187
 7917 19a4 40180000 		.word	.LC188
 7918 19a8 5C180000 		.word	.LC189
 7919 19ac 78180000 		.word	.LC190
 7920 19b0 8C180000 		.word	.LC191
 7921 19b4 AC180000 		.word	.LC192
 7922 19b8 F0180000 		.word	.LC193
 7923 19bc 10190000 		.word	.LC194
 7924 19c0 2C190000 		.word	.LC195
 7925 19c4 48190000 		.word	.LC196
 7926 19c8 8C190000 		.word	.LC197
 7927 19cc AC190000 		.word	.LC198
 7928 19d0 C8190000 		.word	.LC199
 7929 19d4 E4190000 		.word	.LC200
 7930 19d8 001A0000 		.word	.LC201
 7931 19dc 141A0000 		.word	.LC202
 7932              	.L522:
 7933              	.L471:
 7934 19e0 2E46     		mov	r6, r5
ARM GAS  C:\Users\doug_000\AppData\Local\Temp\ccbaKQF3.s 			page 164


 7935 19e2 0FCE     		ldmia	r6!, {r0, r1, r2, r3}
 7936 19e4 2060     		str	r0, [r4]	@ unaligned
 7937 19e6 6160     		str	r1, [r4, #4]	@ unaligned
 7938 19e8 A260     		str	r2, [r4, #8]	@ unaligned
 7939 19ea E360     		str	r3, [r4, #12]	@ unaligned
 7940 19ec 3546     		mov	r5, r6
 7941 19ee 1034     		adds	r4, r4, #16
 7942 19f0 BE42     		cmp	r6, r7
 7943 19f2 F5D1     		bne	.L471
 7944 19f4 3068     		ldr	r0, [r6]	@ unaligned
 7945 19f6 2060     		str	r0, [r4]	@ unaligned
 7946 19f8 3379     		ldrb	r3, [r6, #4]	@ zero_extendqisi2
 7947 19fa 2371     		strb	r3, [r4, #4]
1311:TinyBasic.c   ****   strcat(s,"00E2 97524EC4;\n");
 7948              		.loc 1 1311 0
 7949 19fc CF4C     		ldr	r4, .L524
 7950 19fe 2046     		mov	r0, r4
 7951 1a00 FFF7FEFF 		bl	strlen
 7952              	.LVL802:
 7953 1a04 0746     		mov	r7, r0
 7954 1a06 2618     		adds	r6, r4, r0
 7955 1a08 CD4D     		ldr	r5, .L524+4
 7956 1a0a 0FCD     		ldmia	r5!, {r0, r1, r2, r3}
 7957 1a0c E051     		str	r0, [r4, r7]	@ unaligned
 7958 1a0e 7160     		str	r1, [r6, #4]	@ unaligned
 7959 1a10 B260     		str	r2, [r6, #8]	@ unaligned
 7960 1a12 F360     		str	r3, [r6, #12]	@ unaligned
1312:TinyBasic.c   ****   strcat(s,"00E6 ;     155       LN 257*128      STACK POINTER FOR STORE\n");
 7961              		.loc 1 1312 0
 7962 1a14 2046     		mov	r0, r4
 7963 1a16 FFF7FEFF 		bl	strlen
 7964              	.LVL803:
 7965 1a1a CA4D     		ldr	r5, .L524+8
 7966 1a1c 0444     		add	r4, r4, r0
 7967 1a1e 05F13007 		add	r7, r5, #48
 7968              	.L472:
 7969 1a22 2E46     		mov	r6, r5
 7970 1a24 0FCE     		ldmia	r6!, {r0, r1, r2, r3}
 7971 1a26 2060     		str	r0, [r4]	@ unaligned
 7972 1a28 6160     		str	r1, [r4, #4]	@ unaligned
 7973 1a2a A260     		str	r2, [r4, #8]	@ unaligned
 7974 1a2c E360     		str	r3, [r4, #12]	@ unaligned
 7975 1a2e 3546     		mov	r5, r6
 7976 1a30 1034     		adds	r4, r4, #16
 7977 1a32 BE42     		cmp	r6, r7
 7978 1a34 F5D1     		bne	.L472
 7979 1a36 07CD     		ldmia	r5!, {r0, r1, r2}
 7980 1a38 2060     		str	r0, [r4]	@ unaligned
 7981 1a3a 6160     		str	r1, [r4, #4]	@ unaligned
 7982 1a3c A260     		str	r2, [r4, #8]	@ unaligned
 7983 1a3e 2B88     		ldrh	r3, [r5]	@ unaligned
 7984 1a40 A381     		strh	r3, [r4, #12]	@ unaligned
1313:TinyBasic.c   ****   strcat(s,"00E6 0A;\n");
 7985              		.loc 1 1313 0
 7986 1a42 BE4C     		ldr	r4, .L524
 7987 1a44 2046     		mov	r0, r4
 7988 1a46 FFF7FEFF 		bl	strlen
ARM GAS  C:\Users\doug_000\AppData\Local\Temp\ccbaKQF3.s 			page 165


 7989              	.LVL804:
 7990 1a4a 0546     		mov	r5, r0
 7991 1a4c 2218     		adds	r2, r4, r0
 7992 1a4e BE4B     		ldr	r3, .L524+12
 7993 1a50 03CB     		ldmia	r3!, {r0, r1}
 7994 1a52 6051     		str	r0, [r4, r5]	@ unaligned
 7995 1a54 5160     		str	r1, [r2, #4]	@ unaligned
 7996 1a56 1B88     		ldrh	r3, [r3]	@ unaligned
 7997 1a58 1381     		strh	r3, [r2, #8]	@ unaligned
1314:TinyBasic.c   ****   strcat(s,"00E7 8080; 156       FV              THEN GET RNDM\n");
 7998              		.loc 1 1314 0
 7999 1a5a 2046     		mov	r0, r4
 8000 1a5c FFF7FEFF 		bl	strlen
 8001              	.LVL805:
 8002 1a60 BA4D     		ldr	r5, .L524+16
 8003 1a62 0444     		add	r4, r4, r0
 8004 1a64 05F13007 		add	r7, r5, #48
 8005              	.L473:
 8006 1a68 2E46     		mov	r6, r5
 8007 1a6a 0FCE     		ldmia	r6!, {r0, r1, r2, r3}
 8008 1a6c 2060     		str	r0, [r4]	@ unaligned
 8009 1a6e 6160     		str	r1, [r4, #4]	@ unaligned
 8010 1a70 A260     		str	r2, [r4, #8]	@ unaligned
 8011 1a72 E360     		str	r3, [r4, #12]	@ unaligned
 8012 1a74 3546     		mov	r5, r6
 8013 1a76 1034     		adds	r4, r4, #16
 8014 1a78 BE42     		cmp	r6, r7
 8015 1a7a F5D1     		bne	.L473
 8016 1a7c 3068     		ldr	r0, [r6]	@ unaligned
 8017 1a7e 2060     		str	r0, [r4]	@ unaligned
1315:TinyBasic.c   ****   strcat(s,"00E9 12;   157       LN 2345         R:=R*2345+6789\n");
 8018              		.loc 1 1315 0
 8019 1a80 AE4C     		ldr	r4, .L524
 8020 1a82 2046     		mov	r0, r4
 8021 1a84 FFF7FEFF 		bl	strlen
 8022              	.LVL806:
 8023 1a88 B14D     		ldr	r5, .L524+20
 8024 1a8a 0444     		add	r4, r4, r0
 8025 1a8c 05F13007 		add	r7, r5, #48
 8026              	.L474:
 8027 1a90 2E46     		mov	r6, r5
 8028 1a92 0FCE     		ldmia	r6!, {r0, r1, r2, r3}
 8029 1a94 2060     		str	r0, [r4]	@ unaligned
 8030 1a96 6160     		str	r1, [r4, #4]	@ unaligned
 8031 1a98 A260     		str	r2, [r4, #8]	@ unaligned
 8032 1a9a E360     		str	r3, [r4, #12]	@ unaligned
 8033 1a9c 3546     		mov	r5, r6
 8034 1a9e 1034     		adds	r4, r4, #16
 8035 1aa0 BE42     		cmp	r6, r7
 8036 1aa2 F5D1     		bne	.L474
 8037 1aa4 3068     		ldr	r0, [r6]	@ unaligned
 8038 1aa6 2060     		str	r0, [r4]	@ unaligned
 8039 1aa8 3379     		ldrb	r3, [r6, #4]	@ zero_extendqisi2
 8040 1aaa 2371     		strb	r3, [r4, #4]
1316:TinyBasic.c   ****   strcat(s,"00EA 0A;\n");
 8041              		.loc 1 1316 0
 8042 1aac A34C     		ldr	r4, .L524
ARM GAS  C:\Users\doug_000\AppData\Local\Temp\ccbaKQF3.s 			page 166


 8043 1aae 2046     		mov	r0, r4
 8044 1ab0 FFF7FEFF 		bl	strlen
 8045              	.LVL807:
 8046 1ab4 0546     		mov	r5, r0
 8047 1ab6 2218     		adds	r2, r4, r0
 8048 1ab8 A64B     		ldr	r3, .L524+24
 8049 1aba 03CB     		ldmia	r3!, {r0, r1}
 8050 1abc 6051     		str	r0, [r4, r5]	@ unaligned
 8051 1abe 5160     		str	r1, [r2, #4]	@ unaligned
 8052 1ac0 1B88     		ldrh	r3, [r3]	@ unaligned
 8053 1ac2 1381     		strh	r3, [r2, #8]	@ unaligned
1317:TinyBasic.c   ****   strcat(s,"00EB 0929; 158       MP\n");
 8054              		.loc 1 1317 0
 8055 1ac4 2046     		mov	r0, r4
 8056 1ac6 FFF7FEFF 		bl	strlen
 8057              	.LVL808:
 8058 1aca 0746     		mov	r7, r0
 8059 1acc 2618     		adds	r6, r4, r0
 8060 1ace A24D     		ldr	r5, .L524+28
 8061 1ad0 0FCD     		ldmia	r5!, {r0, r1, r2, r3}
 8062 1ad2 E051     		str	r0, [r4, r7]	@ unaligned
 8063 1ad4 7160     		str	r1, [r6, #4]	@ unaligned
 8064 1ad6 B260     		str	r2, [r6, #8]	@ unaligned
 8065 1ad8 F360     		str	r3, [r6, #12]	@ unaligned
 8066 1ada 03CD     		ldmia	r5!, {r0, r1}
 8067 1adc 3061     		str	r0, [r6, #16]	@ unaligned
 8068 1ade 7161     		str	r1, [r6, #20]	@ unaligned
 8069 1ae0 2B78     		ldrb	r3, [r5]	@ zero_extendqisi2
 8070 1ae2 3376     		strb	r3, [r6, #24]
1318:TinyBasic.c   ****   strcat(s,"00ED 1A;   159       LN 6789\n");
 8071              		.loc 1 1318 0
 8072 1ae4 2046     		mov	r0, r4
 8073 1ae6 FFF7FEFF 		bl	strlen
 8074              	.LVL809:
 8075 1aea 0746     		mov	r7, r0
 8076 1aec 2618     		adds	r6, r4, r0
 8077 1aee 9B4D     		ldr	r5, .L524+32
 8078 1af0 0FCD     		ldmia	r5!, {r0, r1, r2, r3}
 8079 1af2 E051     		str	r0, [r4, r7]	@ unaligned
 8080 1af4 7160     		str	r1, [r6, #4]	@ unaligned
 8081 1af6 B260     		str	r2, [r6, #8]	@ unaligned
 8082 1af8 F360     		str	r3, [r6, #12]	@ unaligned
 8083 1afa 07CD     		ldmia	r5!, {r0, r1, r2}
 8084 1afc 3061     		str	r0, [r6, #16]	@ unaligned
 8085 1afe 7161     		str	r1, [r6, #20]	@ unaligned
 8086 1b00 B261     		str	r2, [r6, #24]	@ unaligned
 8087 1b02 2B88     		ldrh	r3, [r5]	@ unaligned
 8088 1b04 B383     		strh	r3, [r6, #28]	@ unaligned
1319:TinyBasic.c   ****   strcat(s,"00EE 0A;\n");
 8089              		.loc 1 1319 0
 8090 1b06 2046     		mov	r0, r4
 8091 1b08 FFF7FEFF 		bl	strlen
 8092              	.LVL810:
 8093 1b0c 0546     		mov	r5, r0
 8094 1b0e 2218     		adds	r2, r4, r0
 8095 1b10 934B     		ldr	r3, .L524+36
 8096 1b12 03CB     		ldmia	r3!, {r0, r1}
ARM GAS  C:\Users\doug_000\AppData\Local\Temp\ccbaKQF3.s 			page 167


 8097 1b14 6051     		str	r0, [r4, r5]	@ unaligned
 8098 1b16 5160     		str	r1, [r2, #4]	@ unaligned
 8099 1b18 1B88     		ldrh	r3, [r3]	@ unaligned
 8100 1b1a 1381     		strh	r3, [r2, #8]	@ unaligned
1320:TinyBasic.c   ****   strcat(s,"00EF 1A85; 160       AD\n");
 8101              		.loc 1 1320 0
 8102 1b1c 2046     		mov	r0, r4
 8103 1b1e FFF7FEFF 		bl	strlen
 8104              	.LVL811:
 8105 1b22 0746     		mov	r7, r0
 8106 1b24 2618     		adds	r6, r4, r0
 8107 1b26 8F4D     		ldr	r5, .L524+40
 8108 1b28 0FCD     		ldmia	r5!, {r0, r1, r2, r3}
 8109 1b2a E051     		str	r0, [r4, r7]	@ unaligned
 8110 1b2c 7160     		str	r1, [r6, #4]	@ unaligned
 8111 1b2e B260     		str	r2, [r6, #8]	@ unaligned
 8112 1b30 F360     		str	r3, [r6, #12]	@ unaligned
 8113 1b32 03CD     		ldmia	r5!, {r0, r1}
 8114 1b34 3061     		str	r0, [r6, #16]	@ unaligned
 8115 1b36 7161     		str	r1, [r6, #20]	@ unaligned
 8116 1b38 2B78     		ldrb	r3, [r5]	@ zero_extendqisi2
 8117 1b3a 3376     		strb	r3, [r6, #24]
1321:TinyBasic.c   ****   strcat(s,"00F1 18;   161       SV\n");
 8118              		.loc 1 1321 0
 8119 1b3c 2046     		mov	r0, r4
 8120 1b3e FFF7FEFF 		bl	strlen
 8121              	.LVL812:
 8122 1b42 0746     		mov	r7, r0
 8123 1b44 2618     		adds	r6, r4, r0
 8124 1b46 884D     		ldr	r5, .L524+44
 8125 1b48 0FCD     		ldmia	r5!, {r0, r1, r2, r3}
 8126 1b4a E051     		str	r0, [r4, r7]	@ unaligned
 8127 1b4c 7160     		str	r1, [r6, #4]	@ unaligned
 8128 1b4e B260     		str	r2, [r6, #8]	@ unaligned
 8129 1b50 F360     		str	r3, [r6, #12]	@ unaligned
 8130 1b52 03CD     		ldmia	r5!, {r0, r1}
 8131 1b54 3061     		str	r0, [r6, #16]	@ unaligned
 8132 1b56 7161     		str	r1, [r6, #20]	@ unaligned
 8133 1b58 2B78     		ldrb	r3, [r5]	@ zero_extendqisi2
 8134 1b5a 3376     		strb	r3, [r6, #24]
1322:TinyBasic.c   ****   strcat(s,"00F2 13;   162       LB 128          GET IT AGAIN\n");
 8135              		.loc 1 1322 0
 8136 1b5c 2046     		mov	r0, r4
 8137 1b5e FFF7FEFF 		bl	strlen
 8138              	.LVL813:
 8139 1b62 824D     		ldr	r5, .L524+48
 8140 1b64 0444     		add	r4, r4, r0
 8141 1b66 05F13007 		add	r7, r5, #48
 8142              	.L475:
 8143 1b6a 2E46     		mov	r6, r5
 8144 1b6c 0FCE     		ldmia	r6!, {r0, r1, r2, r3}
 8145 1b6e 2060     		str	r0, [r4]	@ unaligned
 8146 1b70 6160     		str	r1, [r4, #4]	@ unaligned
 8147 1b72 A260     		str	r2, [r4, #8]	@ unaligned
 8148 1b74 E360     		str	r3, [r4, #12]	@ unaligned
 8149 1b76 3546     		mov	r5, r6
 8150 1b78 1034     		adds	r4, r4, #16
ARM GAS  C:\Users\doug_000\AppData\Local\Temp\ccbaKQF3.s 			page 168


 8151 1b7a BE42     		cmp	r6, r7
 8152 1b7c F5D1     		bne	.L475
 8153 1b7e 3288     		ldrh	r2, [r6]	@ unaligned
 8154 1b80 B378     		ldrb	r3, [r6, #2]	@ zero_extendqisi2
 8155 1b82 2280     		strh	r2, [r4]	@ unaligned
 8156 1b84 A370     		strb	r3, [r4, #2]
1323:TinyBasic.c   ****   strcat(s,"00F3 0980; 163       FV\n");
 8157              		.loc 1 1323 0
 8158 1b86 6D4C     		ldr	r4, .L524
 8159 1b88 2046     		mov	r0, r4
 8160 1b8a FFF7FEFF 		bl	strlen
 8161              	.LVL814:
 8162 1b8e 0746     		mov	r7, r0
 8163 1b90 2618     		adds	r6, r4, r0
 8164 1b92 774D     		ldr	r5, .L524+52
 8165 1b94 0FCD     		ldmia	r5!, {r0, r1, r2, r3}
 8166 1b96 E051     		str	r0, [r4, r7]	@ unaligned
 8167 1b98 7160     		str	r1, [r6, #4]	@ unaligned
 8168 1b9a B260     		str	r2, [r6, #8]	@ unaligned
 8169 1b9c F360     		str	r3, [r6, #12]	@ unaligned
 8170 1b9e 03CD     		ldmia	r5!, {r0, r1}
 8171 1ba0 3061     		str	r0, [r6, #16]	@ unaligned
 8172 1ba2 7161     		str	r1, [r6, #20]	@ unaligned
 8173 1ba4 2B78     		ldrb	r3, [r5]	@ zero_extendqisi2
 8174 1ba6 3376     		strb	r3, [r6, #24]
1324:TinyBasic.c   ****   strcat(s,"00F5 12;   164       DS\n");
 8175              		.loc 1 1324 0
 8176 1ba8 2046     		mov	r0, r4
 8177 1baa FFF7FEFF 		bl	strlen
 8178              	.LVL815:
 8179 1bae 0746     		mov	r7, r0
 8180 1bb0 2618     		adds	r6, r4, r0
 8181 1bb2 704D     		ldr	r5, .L524+56
 8182 1bb4 0FCD     		ldmia	r5!, {r0, r1, r2, r3}
 8183 1bb6 E051     		str	r0, [r4, r7]	@ unaligned
 8184 1bb8 7160     		str	r1, [r6, #4]	@ unaligned
 8185 1bba B260     		str	r2, [r6, #8]	@ unaligned
 8186 1bbc F360     		str	r3, [r6, #12]	@ unaligned
 8187 1bbe 03CD     		ldmia	r5!, {r0, r1}
 8188 1bc0 3061     		str	r0, [r6, #16]	@ unaligned
 8189 1bc2 7161     		str	r1, [r6, #20]	@ unaligned
 8190 1bc4 2B78     		ldrb	r3, [r5]	@ zero_extendqisi2
 8191 1bc6 3376     		strb	r3, [r6, #24]
1325:TinyBasic.c   ****   strcat(s,"00F6 0B;   165       JS FUNC         GET ARGUMENT\n");
 8192              		.loc 1 1325 0
 8193 1bc8 2046     		mov	r0, r4
 8194 1bca FFF7FEFF 		bl	strlen
 8195              	.LVL816:
 8196 1bce 6A4D     		ldr	r5, .L524+60
 8197 1bd0 0444     		add	r4, r4, r0
 8198 1bd2 05F13007 		add	r7, r5, #48
 8199              	.L476:
 8200 1bd6 2E46     		mov	r6, r5
 8201 1bd8 0FCE     		ldmia	r6!, {r0, r1, r2, r3}
 8202 1bda 2060     		str	r0, [r4]	@ unaligned
 8203 1bdc 6160     		str	r1, [r4, #4]	@ unaligned
 8204 1bde A260     		str	r2, [r4, #8]	@ unaligned
ARM GAS  C:\Users\doug_000\AppData\Local\Temp\ccbaKQF3.s 			page 169


 8205 1be0 E360     		str	r3, [r4, #12]	@ unaligned
 8206 1be2 3546     		mov	r5, r6
 8207 1be4 1034     		adds	r4, r4, #16
 8208 1be6 BE42     		cmp	r6, r7
 8209 1be8 F5D1     		bne	.L476
 8210 1bea 3288     		ldrh	r2, [r6]	@ unaligned
 8211 1bec B378     		ldrb	r3, [r6, #2]	@ zero_extendqisi2
 8212 1bee 2280     		strh	r2, [r4]	@ unaligned
 8213 1bf0 A370     		strb	r3, [r4, #2]
1326:TinyBasic.c   ****   strcat(s,"00F7 3130; 166       BR F1\n");
 8214              		.loc 1 1326 0
 8215 1bf2 524C     		ldr	r4, .L524
 8216 1bf4 2046     		mov	r0, r4
 8217 1bf6 FFF7FEFF 		bl	strlen
 8218              	.LVL817:
 8219 1bfa 0746     		mov	r7, r0
 8220 1bfc 2618     		adds	r6, r4, r0
 8221 1bfe 5F4D     		ldr	r5, .L524+64
 8222 1c00 0FCD     		ldmia	r5!, {r0, r1, r2, r3}
 8223 1c02 E051     		str	r0, [r4, r7]	@ unaligned
 8224 1c04 7160     		str	r1, [r6, #4]	@ unaligned
 8225 1c06 B260     		str	r2, [r6, #8]	@ unaligned
 8226 1c08 F360     		str	r3, [r6, #12]	@ unaligned
 8227 1c0a 07CD     		ldmia	r5!, {r0, r1, r2}
 8228 1c0c 3061     		str	r0, [r6, #16]	@ unaligned
 8229 1c0e 7161     		str	r1, [r6, #20]	@ unaligned
 8230 1c10 B261     		str	r2, [r6, #24]	@ unaligned
1327:TinyBasic.c   ****   strcat(s,"00F9 61;   167 :F0   BR F2           (SKIPPING)\n");
 8231              		.loc 1 1327 0
 8232 1c12 2046     		mov	r0, r4
 8233 1c14 FFF7FEFF 		bl	strlen
 8234              	.LVL818:
 8235 1c18 594D     		ldr	r5, .L524+68
 8236 1c1a 0444     		add	r4, r4, r0
 8237 1c1c 05F13007 		add	r7, r5, #48
 8238              	.L477:
 8239 1c20 2E46     		mov	r6, r5
 8240 1c22 0FCE     		ldmia	r6!, {r0, r1, r2, r3}
 8241 1c24 2060     		str	r0, [r4]	@ unaligned
 8242 1c26 6160     		str	r1, [r4, #4]	@ unaligned
 8243 1c28 A260     		str	r2, [r4, #8]	@ unaligned
 8244 1c2a E360     		str	r3, [r4, #12]	@ unaligned
 8245 1c2c 3546     		mov	r5, r6
 8246 1c2e 1034     		adds	r4, r4, #16
 8247 1c30 BE42     		cmp	r6, r7
 8248 1c32 F5D1     		bne	.L477
 8249 1c34 3378     		ldrb	r3, [r6]	@ zero_extendqisi2
 8250 1c36 2370     		strb	r3, [r4]
1328:TinyBasic.c   ****   strcat(s,"00FA 73;   168 :F1   DS\n");
 8251              		.loc 1 1328 0
 8252 1c38 404C     		ldr	r4, .L524
 8253 1c3a 2046     		mov	r0, r4
 8254 1c3c FFF7FEFF 		bl	strlen
 8255              	.LVL819:
 8256 1c40 0746     		mov	r7, r0
 8257 1c42 2618     		adds	r6, r4, r0
 8258 1c44 4F4D     		ldr	r5, .L524+72
ARM GAS  C:\Users\doug_000\AppData\Local\Temp\ccbaKQF3.s 			page 170


 8259 1c46 0FCD     		ldmia	r5!, {r0, r1, r2, r3}
 8260 1c48 E051     		str	r0, [r4, r7]	@ unaligned
 8261 1c4a 7160     		str	r1, [r6, #4]	@ unaligned
 8262 1c4c B260     		str	r2, [r6, #8]	@ unaligned
 8263 1c4e F360     		str	r3, [r6, #12]	@ unaligned
 8264 1c50 03CD     		ldmia	r5!, {r0, r1}
 8265 1c52 3061     		str	r0, [r6, #16]	@ unaligned
 8266 1c54 7161     		str	r1, [r6, #20]	@ unaligned
 8267 1c56 2B78     		ldrb	r3, [r5]	@ zero_extendqisi2
 8268 1c58 3376     		strb	r3, [r6, #24]
1329:TinyBasic.c   ****   strcat(s,"00FB 0B;   169       SX 2            PUSH TOP INTO STACK\n");
 8269              		.loc 1 1329 0
 8270 1c5a 2046     		mov	r0, r4
 8271 1c5c FFF7FEFF 		bl	strlen
 8272              	.LVL820:
 8273 1c60 494D     		ldr	r5, .L524+76
 8274 1c62 0444     		add	r4, r4, r0
 8275 1c64 05F13007 		add	r7, r5, #48
 8276              	.L478:
 8277 1c68 2E46     		mov	r6, r5
 8278 1c6a 0FCE     		ldmia	r6!, {r0, r1, r2, r3}
 8279 1c6c 2060     		str	r0, [r4]	@ unaligned
 8280 1c6e 6160     		str	r1, [r4, #4]	@ unaligned
 8281 1c70 A260     		str	r2, [r4, #8]	@ unaligned
 8282 1c72 E360     		str	r3, [r4, #12]	@ unaligned
 8283 1c74 3546     		mov	r5, r6
 8284 1c76 1034     		adds	r4, r4, #16
 8285 1c78 BE42     		cmp	r6, r7
 8286 1c7a F5D1     		bne	.L478
 8287 1c7c 03CD     		ldmia	r5!, {r0, r1}
 8288 1c7e 2060     		str	r0, [r4]	@ unaligned
 8289 1c80 6160     		str	r1, [r4, #4]	@ unaligned
 8290 1c82 2B88     		ldrh	r3, [r5]	@ unaligned
 8291 1c84 2381     		strh	r3, [r4, #8]	@ unaligned
1330:TinyBasic.c   ****   strcat(s,"00FC 02;   170       SX 4\n");
 8292              		.loc 1 1330 0
 8293 1c86 2D4C     		ldr	r4, .L524
 8294 1c88 2046     		mov	r0, r4
 8295 1c8a FFF7FEFF 		bl	strlen
 8296              	.LVL821:
 8297 1c8e 0746     		mov	r7, r0
 8298 1c90 2618     		adds	r6, r4, r0
 8299 1c92 3E4D     		ldr	r5, .L524+80
 8300 1c94 0FCD     		ldmia	r5!, {r0, r1, r2, r3}
 8301 1c96 E051     		str	r0, [r4, r7]	@ unaligned
 8302 1c98 7160     		str	r1, [r6, #4]	@ unaligned
 8303 1c9a B260     		str	r2, [r6, #8]	@ unaligned
 8304 1c9c F360     		str	r3, [r6, #12]	@ unaligned
 8305 1c9e 03CD     		ldmia	r5!, {r0, r1}
 8306 1ca0 3061     		str	r0, [r6, #16]	@ unaligned
 8307 1ca2 7161     		str	r1, [r6, #20]	@ unaligned
 8308 1ca4 2A88     		ldrh	r2, [r5]	@ unaligned
 8309 1ca6 AB78     		ldrb	r3, [r5, #2]	@ zero_extendqisi2
 8310 1ca8 3283     		strh	r2, [r6, #24]	@ unaligned
 8311 1caa B376     		strb	r3, [r6, #26]
1331:TinyBasic.c   ****   strcat(s,"00FD 04;   171       SX 2\n");
 8312              		.loc 1 1331 0
ARM GAS  C:\Users\doug_000\AppData\Local\Temp\ccbaKQF3.s 			page 171


 8313 1cac 2046     		mov	r0, r4
 8314 1cae FFF7FEFF 		bl	strlen
 8315              	.LVL822:
 8316 1cb2 0746     		mov	r7, r0
 8317 1cb4 2618     		adds	r6, r4, r0
 8318 1cb6 364D     		ldr	r5, .L524+84
 8319 1cb8 0FCD     		ldmia	r5!, {r0, r1, r2, r3}
 8320 1cba E051     		str	r0, [r4, r7]	@ unaligned
 8321 1cbc 7160     		str	r1, [r6, #4]	@ unaligned
 8322 1cbe B260     		str	r2, [r6, #8]	@ unaligned
 8323 1cc0 F360     		str	r3, [r6, #12]	@ unaligned
 8324 1cc2 03CD     		ldmia	r5!, {r0, r1}
 8325 1cc4 3061     		str	r0, [r6, #16]	@ unaligned
 8326 1cc6 7161     		str	r1, [r6, #20]	@ unaligned
 8327 1cc8 2A88     		ldrh	r2, [r5]	@ unaligned
 8328 1cca AB78     		ldrb	r3, [r5, #2]	@ zero_extendqisi2
 8329 1ccc 3283     		strh	r2, [r6, #24]	@ unaligned
 8330 1cce B376     		strb	r3, [r6, #26]
1332:TinyBasic.c   ****   strcat(s,"00FE 02;   172       SX 3\n");
 8331              		.loc 1 1332 0
 8332 1cd0 2046     		mov	r0, r4
 8333 1cd2 FFF7FEFF 		bl	strlen
 8334              	.LVL823:
 8335 1cd6 0746     		mov	r7, r0
 8336 1cd8 2618     		adds	r6, r4, r0
 8337 1cda 2E4D     		ldr	r5, .L524+88
 8338 1cdc 0FCD     		ldmia	r5!, {r0, r1, r2, r3}
 8339 1cde E051     		str	r0, [r4, r7]	@ unaligned
 8340 1ce0 7160     		str	r1, [r6, #4]	@ unaligned
 8341 1ce2 B260     		str	r2, [r6, #8]	@ unaligned
 8342 1ce4 F360     		str	r3, [r6, #12]	@ unaligned
 8343 1ce6 03CD     		ldmia	r5!, {r0, r1}
 8344 1ce8 3061     		str	r0, [r6, #16]	@ unaligned
 8345 1cea 7161     		str	r1, [r6, #20]	@ unaligned
 8346 1cec 2A88     		ldrh	r2, [r5]	@ unaligned
 8347 1cee AB78     		ldrb	r3, [r5, #2]	@ zero_extendqisi2
 8348 1cf0 3283     		strh	r2, [r6, #24]	@ unaligned
 8349 1cf2 B376     		strb	r3, [r6, #26]
1333:TinyBasic.c   ****   strcat(s,"00FF 03;   173       SX 5\n");
 8350              		.loc 1 1333 0
 8351 1cf4 2046     		mov	r0, r4
 8352 1cf6 FFF7FEFF 		bl	strlen
 8353              	.LVL824:
 8354 1cfa 0746     		mov	r7, r0
 8355 1cfc 2618     		adds	r6, r4, r0
 8356 1cfe 264D     		ldr	r5, .L524+92
 8357 1d00 0FCD     		ldmia	r5!, {r0, r1, r2, r3}
 8358 1d02 E051     		str	r0, [r4, r7]	@ unaligned
 8359 1d04 7160     		str	r1, [r6, #4]	@ unaligned
 8360 1d06 B260     		str	r2, [r6, #8]	@ unaligned
 8361 1d08 F360     		str	r3, [r6, #12]	@ unaligned
 8362 1d0a 03CD     		ldmia	r5!, {r0, r1}
 8363 1d0c 3061     		str	r0, [r6, #16]	@ unaligned
 8364 1d0e 7161     		str	r1, [r6, #20]	@ unaligned
 8365 1d10 2A88     		ldrh	r2, [r5]	@ unaligned
 8366 1d12 AB78     		ldrb	r3, [r5, #2]	@ zero_extendqisi2
 8367 1d14 3283     		strh	r2, [r6, #24]	@ unaligned
ARM GAS  C:\Users\doug_000\AppData\Local\Temp\ccbaKQF3.s 			page 172


 8368 1d16 B376     		strb	r3, [r6, #26]
1334:TinyBasic.c   ****   strcat(s,"0100 05;   174       SX 3\n");
 8369              		.loc 1 1334 0
 8370 1d18 2046     		mov	r0, r4
 8371 1d1a FFF7FEFF 		bl	strlen
 8372              	.LVL825:
 8373 1d1e 0746     		mov	r7, r0
 8374 1d20 2618     		adds	r6, r4, r0
 8375 1d22 1E4D     		ldr	r5, .L524+96
 8376 1d24 0FCD     		ldmia	r5!, {r0, r1, r2, r3}
 8377 1d26 E051     		str	r0, [r4, r7]	@ unaligned
 8378 1d28 7160     		str	r1, [r6, #4]	@ unaligned
 8379 1d2a B260     		str	r2, [r6, #8]	@ unaligned
 8380 1d2c F360     		str	r3, [r6, #12]	@ unaligned
 8381 1d2e 03CD     		ldmia	r5!, {r0, r1}
 8382 1d30 3061     		str	r0, [r6, #16]	@ unaligned
 8383 1d32 7161     		str	r1, [r6, #20]	@ unaligned
 8384 1d34 2A88     		ldrh	r2, [r5]	@ unaligned
 8385 1d36 AB78     		ldrb	r3, [r5, #2]	@ zero_extendqisi2
 8386 1d38 3283     		strh	r2, [r6, #24]	@ unaligned
 8387 1d3a 31E0     		b	.L525
 8388              	.L526:
 8389              		.align	2
 8390              	.L524:
 8391 1d3c 18000000 		.word	.LANCHOR0+24
 8392 1d40 4C1A0000 		.word	.LC203
 8393 1d44 5C1A0000 		.word	.LC204
 8394 1d48 9C1A0000 		.word	.LC205
 8395 1d4c A81A0000 		.word	.LC206
 8396 1d50 DC1A0000 		.word	.LC207
 8397 1d54 141B0000 		.word	.LC208
 8398 1d58 201B0000 		.word	.LC209
 8399 1d5c 3C1B0000 		.word	.LC210
 8400 1d60 5C1B0000 		.word	.LC211
 8401 1d64 681B0000 		.word	.LC212
 8402 1d68 841B0000 		.word	.LC213
 8403 1d6c A01B0000 		.word	.LC214
 8404 1d70 D41B0000 		.word	.LC215
 8405 1d74 F01B0000 		.word	.LC216
 8406 1d78 0C1C0000 		.word	.LC217
 8407 1d7c 401C0000 		.word	.LC218
 8408 1d80 5C1C0000 		.word	.LC219
 8409 1d84 901C0000 		.word	.LC220
 8410 1d88 AC1C0000 		.word	.LC221
 8411 1d8c E81C0000 		.word	.LC222
 8412 1d90 041D0000 		.word	.LC223
 8413 1d94 201D0000 		.word	.LC224
 8414 1d98 3C1D0000 		.word	.LC225
 8415 1d9c 581D0000 		.word	.LC226
 8416              	.L525:
 8417 1da0 B376     		strb	r3, [r6, #26]
1335:TinyBasic.c   ****   strcat(s,"0101 03;   175       DV              PERFORM MOD FUNCTION\n");
 8418              		.loc 1 1335 0
 8419 1da2 2046     		mov	r0, r4
 8420 1da4 FFF7FEFF 		bl	strlen
 8421              	.LVL826:
 8422 1da8 CE4D     		ldr	r5, .L527
ARM GAS  C:\Users\doug_000\AppData\Local\Temp\ccbaKQF3.s 			page 173


 8423 1daa 0444     		add	r4, r4, r0
 8424 1dac 05F13007 		add	r7, r5, #48
 8425              	.L479:
 8426 1db0 2E46     		mov	r6, r5
 8427 1db2 0FCE     		ldmia	r6!, {r0, r1, r2, r3}
 8428 1db4 2060     		str	r0, [r4]	@ unaligned
 8429 1db6 6160     		str	r1, [r4, #4]	@ unaligned
 8430 1db8 A260     		str	r2, [r4, #8]	@ unaligned
 8431 1dba E360     		str	r3, [r4, #12]	@ unaligned
 8432 1dbc 3546     		mov	r5, r6
 8433 1dbe 1034     		adds	r4, r4, #16
 8434 1dc0 BE42     		cmp	r6, r7
 8435 1dc2 F5D1     		bne	.L479
 8436 1dc4 03CD     		ldmia	r5!, {r0, r1}
 8437 1dc6 2060     		str	r0, [r4]	@ unaligned
 8438 1dc8 6160     		str	r1, [r4, #4]	@ unaligned
 8439 1dca 2A88     		ldrh	r2, [r5]	@ unaligned
 8440 1dcc AB78     		ldrb	r3, [r5, #2]	@ zero_extendqisi2
 8441 1dce 2281     		strh	r2, [r4, #8]	@ unaligned
 8442 1dd0 A372     		strb	r3, [r4, #10]
1336:TinyBasic.c   ****   strcat(s,"0102 1B;   176       MP\n");
 8443              		.loc 1 1336 0
 8444 1dd2 C54C     		ldr	r4, .L527+4
 8445 1dd4 2046     		mov	r0, r4
 8446 1dd6 FFF7FEFF 		bl	strlen
 8447              	.LVL827:
 8448 1dda 0746     		mov	r7, r0
 8449 1ddc 2618     		adds	r6, r4, r0
 8450 1dde C34D     		ldr	r5, .L527+8
 8451 1de0 0FCD     		ldmia	r5!, {r0, r1, r2, r3}
 8452 1de2 E051     		str	r0, [r4, r7]	@ unaligned
 8453 1de4 7160     		str	r1, [r6, #4]	@ unaligned
 8454 1de6 B260     		str	r2, [r6, #8]	@ unaligned
 8455 1de8 F360     		str	r3, [r6, #12]	@ unaligned
 8456 1dea 03CD     		ldmia	r5!, {r0, r1}
 8457 1dec 3061     		str	r0, [r6, #16]	@ unaligned
 8458 1dee 7161     		str	r1, [r6, #20]	@ unaligned
 8459 1df0 2B78     		ldrb	r3, [r5]	@ zero_extendqisi2
 8460 1df2 3376     		strb	r3, [r6, #24]
1337:TinyBasic.c   ****   strcat(s,"0103 1A;   177       SU\n");
 8461              		.loc 1 1337 0
 8462 1df4 2046     		mov	r0, r4
 8463 1df6 FFF7FEFF 		bl	strlen
 8464              	.LVL828:
 8465 1dfa 0746     		mov	r7, r0
 8466 1dfc 2618     		adds	r6, r4, r0
 8467 1dfe BC4D     		ldr	r5, .L527+12
 8468 1e00 0FCD     		ldmia	r5!, {r0, r1, r2, r3}
 8469 1e02 E051     		str	r0, [r4, r7]	@ unaligned
 8470 1e04 7160     		str	r1, [r6, #4]	@ unaligned
 8471 1e06 B260     		str	r2, [r6, #8]	@ unaligned
 8472 1e08 F360     		str	r3, [r6, #12]	@ unaligned
 8473 1e0a 03CD     		ldmia	r5!, {r0, r1}
 8474 1e0c 3061     		str	r0, [r6, #16]	@ unaligned
 8475 1e0e 7161     		str	r1, [r6, #20]	@ unaligned
 8476 1e10 2B78     		ldrb	r3, [r5]	@ zero_extendqisi2
 8477 1e12 3376     		strb	r3, [r6, #24]
ARM GAS  C:\Users\doug_000\AppData\Local\Temp\ccbaKQF3.s 			page 174


1338:TinyBasic.c   ****   strcat(s,"0104 19;   178       DS              PERFORM ABS FUNCTION\n");
 8478              		.loc 1 1338 0
 8479 1e14 2046     		mov	r0, r4
 8480 1e16 FFF7FEFF 		bl	strlen
 8481              	.LVL829:
 8482 1e1a B64D     		ldr	r5, .L527+16
 8483 1e1c 0444     		add	r4, r4, r0
 8484 1e1e 05F13007 		add	r7, r5, #48
 8485              	.L480:
 8486 1e22 2E46     		mov	r6, r5
 8487 1e24 0FCE     		ldmia	r6!, {r0, r1, r2, r3}
 8488 1e26 2060     		str	r0, [r4]	@ unaligned
 8489 1e28 6160     		str	r1, [r4, #4]	@ unaligned
 8490 1e2a A260     		str	r2, [r4, #8]	@ unaligned
 8491 1e2c E360     		str	r3, [r4, #12]	@ unaligned
 8492 1e2e 3546     		mov	r5, r6
 8493 1e30 1034     		adds	r4, r4, #16
 8494 1e32 BE42     		cmp	r6, r7
 8495 1e34 F5D1     		bne	.L480
 8496 1e36 03CD     		ldmia	r5!, {r0, r1}
 8497 1e38 2060     		str	r0, [r4]	@ unaligned
 8498 1e3a 6160     		str	r1, [r4, #4]	@ unaligned
 8499 1e3c 2A88     		ldrh	r2, [r5]	@ unaligned
 8500 1e3e AB78     		ldrb	r3, [r5, #2]	@ zero_extendqisi2
 8501 1e40 2281     		strh	r2, [r4, #8]	@ unaligned
 8502 1e42 A372     		strb	r3, [r4, #10]
1339:TinyBasic.c   ****   strcat(s,"0105 0B;   179       LB 6\n");
 8503              		.loc 1 1339 0
 8504 1e44 A84C     		ldr	r4, .L527+4
 8505 1e46 2046     		mov	r0, r4
 8506 1e48 FFF7FEFF 		bl	strlen
 8507              	.LVL830:
 8508 1e4c 0746     		mov	r7, r0
 8509 1e4e 2618     		adds	r6, r4, r0
 8510 1e50 A94D     		ldr	r5, .L527+20
 8511 1e52 0FCD     		ldmia	r5!, {r0, r1, r2, r3}
 8512 1e54 E051     		str	r0, [r4, r7]	@ unaligned
 8513 1e56 7160     		str	r1, [r6, #4]	@ unaligned
 8514 1e58 B260     		str	r2, [r6, #8]	@ unaligned
 8515 1e5a F360     		str	r3, [r6, #12]	@ unaligned
 8516 1e5c 03CD     		ldmia	r5!, {r0, r1}
 8517 1e5e 3061     		str	r0, [r6, #16]	@ unaligned
 8518 1e60 7161     		str	r1, [r6, #20]	@ unaligned
 8519 1e62 2A88     		ldrh	r2, [r5]	@ unaligned
 8520 1e64 AB78     		ldrb	r3, [r5, #2]	@ zero_extendqisi2
 8521 1e66 3283     		strh	r2, [r6, #24]	@ unaligned
 8522 1e68 B376     		strb	r3, [r6, #26]
1340:TinyBasic.c   ****   strcat(s,"0106 0906; 180       LN 0\n");
 8523              		.loc 1 1340 0
 8524 1e6a 2046     		mov	r0, r4
 8525 1e6c FFF7FEFF 		bl	strlen
 8526              	.LVL831:
 8527 1e70 0746     		mov	r7, r0
 8528 1e72 2618     		adds	r6, r4, r0
 8529 1e74 A14D     		ldr	r5, .L527+24
 8530 1e76 0FCD     		ldmia	r5!, {r0, r1, r2, r3}
 8531 1e78 E051     		str	r0, [r4, r7]	@ unaligned
ARM GAS  C:\Users\doug_000\AppData\Local\Temp\ccbaKQF3.s 			page 175


 8532 1e7a 7160     		str	r1, [r6, #4]	@ unaligned
 8533 1e7c B260     		str	r2, [r6, #8]	@ unaligned
 8534 1e7e F360     		str	r3, [r6, #12]	@ unaligned
 8535 1e80 03CD     		ldmia	r5!, {r0, r1}
 8536 1e82 3061     		str	r0, [r6, #16]	@ unaligned
 8537 1e84 7161     		str	r1, [r6, #20]	@ unaligned
 8538 1e86 2A88     		ldrh	r2, [r5]	@ unaligned
 8539 1e88 AB78     		ldrb	r3, [r5, #2]	@ zero_extendqisi2
 8540 1e8a 3283     		strh	r2, [r6, #24]	@ unaligned
 8541 1e8c B376     		strb	r3, [r6, #26]
1341:TinyBasic.c   ****   strcat(s,"0108 0A;\n");
 8542              		.loc 1 1341 0
 8543 1e8e 2046     		mov	r0, r4
 8544 1e90 FFF7FEFF 		bl	strlen
 8545              	.LVL832:
 8546 1e94 0546     		mov	r5, r0
 8547 1e96 2218     		adds	r2, r4, r0
 8548 1e98 994B     		ldr	r3, .L527+28
 8549 1e9a 03CB     		ldmia	r3!, {r0, r1}
 8550 1e9c 6051     		str	r0, [r4, r5]	@ unaligned
 8551 1e9e 5160     		str	r1, [r2, #4]	@ unaligned
 8552 1ea0 1B88     		ldrh	r3, [r3]	@ unaligned
 8553 1ea2 1381     		strh	r3, [r2, #8]	@ unaligned
1342:TinyBasic.c   ****   strcat(s,"0109 0000; 181       CP              (SKIP IF + OR 0)\n");
 8554              		.loc 1 1342 0
 8555 1ea4 2046     		mov	r0, r4
 8556 1ea6 FFF7FEFF 		bl	strlen
 8557              	.LVL833:
 8558 1eaa 964D     		ldr	r5, .L527+32
 8559 1eac 0444     		add	r4, r4, r0
 8560 1eae 05F13007 		add	r7, r5, #48
 8561              	.L481:
 8562 1eb2 2E46     		mov	r6, r5
 8563 1eb4 0FCE     		ldmia	r6!, {r0, r1, r2, r3}
 8564 1eb6 2060     		str	r0, [r4]	@ unaligned
 8565 1eb8 6160     		str	r1, [r4, #4]	@ unaligned
 8566 1eba A260     		str	r2, [r4, #8]	@ unaligned
 8567 1ebc E360     		str	r3, [r4, #12]	@ unaligned
 8568 1ebe 3546     		mov	r5, r6
 8569 1ec0 1034     		adds	r4, r4, #16
 8570 1ec2 BE42     		cmp	r6, r7
 8571 1ec4 F5D1     		bne	.L481
 8572 1ec6 3068     		ldr	r0, [r6]	@ unaligned
 8573 1ec8 2060     		str	r0, [r4]	@ unaligned
 8574 1eca B288     		ldrh	r2, [r6, #4]	@ unaligned
 8575 1ecc B379     		ldrb	r3, [r6, #6]	@ zero_extendqisi2
 8576 1ece A280     		strh	r2, [r4, #4]	@ unaligned
 8577 1ed0 A371     		strb	r3, [r4, #6]
1343:TinyBasic.c   ****   strcat(s,"010B 1C;   182       NE\n");
 8578              		.loc 1 1343 0
 8579 1ed2 854C     		ldr	r4, .L527+4
 8580 1ed4 2046     		mov	r0, r4
 8581 1ed6 FFF7FEFF 		bl	strlen
 8582              	.LVL834:
 8583 1eda 0746     		mov	r7, r0
 8584 1edc 2618     		adds	r6, r4, r0
 8585 1ede 8A4D     		ldr	r5, .L527+36
ARM GAS  C:\Users\doug_000\AppData\Local\Temp\ccbaKQF3.s 			page 176


 8586 1ee0 0FCD     		ldmia	r5!, {r0, r1, r2, r3}
 8587 1ee2 E051     		str	r0, [r4, r7]	@ unaligned
 8588 1ee4 7160     		str	r1, [r6, #4]	@ unaligned
 8589 1ee6 B260     		str	r2, [r6, #8]	@ unaligned
 8590 1ee8 F360     		str	r3, [r6, #12]	@ unaligned
 8591 1eea 03CD     		ldmia	r5!, {r0, r1}
 8592 1eec 3061     		str	r0, [r6, #16]	@ unaligned
 8593 1eee 7161     		str	r1, [r6, #20]	@ unaligned
 8594 1ef0 2B78     		ldrb	r3, [r5]	@ zero_extendqisi2
 8595 1ef2 3376     		strb	r3, [r6, #24]
1344:TinyBasic.c   ****   strcat(s,"010C 17;   183       RT\n");
 8596              		.loc 1 1344 0
 8597 1ef4 2046     		mov	r0, r4
 8598 1ef6 FFF7FEFF 		bl	strlen
 8599              	.LVL835:
 8600 1efa 0746     		mov	r7, r0
 8601 1efc 2618     		adds	r6, r4, r0
 8602 1efe 834D     		ldr	r5, .L527+40
 8603 1f00 0FCD     		ldmia	r5!, {r0, r1, r2, r3}
 8604 1f02 E051     		str	r0, [r4, r7]	@ unaligned
 8605 1f04 7160     		str	r1, [r6, #4]	@ unaligned
 8606 1f06 B260     		str	r2, [r6, #8]	@ unaligned
 8607 1f08 F360     		str	r3, [r6, #12]	@ unaligned
 8608 1f0a 03CD     		ldmia	r5!, {r0, r1}
 8609 1f0c 3061     		str	r0, [r6, #16]	@ unaligned
 8610 1f0e 7161     		str	r1, [r6, #20]	@ unaligned
 8611 1f10 2B78     		ldrb	r3, [r5]	@ zero_extendqisi2
 8612 1f12 3376     		strb	r3, [r6, #24]
1345:TinyBasic.c   ****   strcat(s,"010D 2F;   184 :F2   BC F3 \"USR\"     *USR FUNCTION*\n");
 8613              		.loc 1 1345 0
 8614 1f14 2046     		mov	r0, r4
 8615 1f16 FFF7FEFF 		bl	strlen
 8616              	.LVL836:
 8617 1f1a 7D4D     		ldr	r5, .L527+44
 8618 1f1c 0444     		add	r4, r4, r0
 8619 1f1e 05F13007 		add	r7, r5, #48
 8620              	.L482:
 8621 1f22 2E46     		mov	r6, r5
 8622 1f24 0FCE     		ldmia	r6!, {r0, r1, r2, r3}
 8623 1f26 2060     		str	r0, [r4]	@ unaligned
 8624 1f28 6160     		str	r1, [r4, #4]	@ unaligned
 8625 1f2a A260     		str	r2, [r4, #8]	@ unaligned
 8626 1f2c E360     		str	r3, [r4, #12]	@ unaligned
 8627 1f2e 3546     		mov	r5, r6
 8628 1f30 1034     		adds	r4, r4, #16
 8629 1f32 BE42     		cmp	r6, r7
 8630 1f34 F5D1     		bne	.L482
 8631 1f36 3068     		ldr	r0, [r6]	@ unaligned
 8632 1f38 2060     		str	r0, [r4]	@ unaligned
 8633 1f3a 3379     		ldrb	r3, [r6, #4]	@ zero_extendqisi2
 8634 1f3c 2371     		strb	r3, [r4, #4]
1346:TinyBasic.c   ****   strcat(s,"010E 8F5553D2;\n");
 8635              		.loc 1 1346 0
 8636 1f3e 6A4C     		ldr	r4, .L527+4
 8637 1f40 2046     		mov	r0, r4
 8638 1f42 FFF7FEFF 		bl	strlen
 8639              	.LVL837:
ARM GAS  C:\Users\doug_000\AppData\Local\Temp\ccbaKQF3.s 			page 177


 8640 1f46 0746     		mov	r7, r0
 8641 1f48 2618     		adds	r6, r4, r0
 8642 1f4a 724D     		ldr	r5, .L527+48
 8643 1f4c 0FCD     		ldmia	r5!, {r0, r1, r2, r3}
 8644 1f4e E051     		str	r0, [r4, r7]	@ unaligned
 8645 1f50 7160     		str	r1, [r6, #4]	@ unaligned
 8646 1f52 B260     		str	r2, [r6, #8]	@ unaligned
 8647 1f54 F360     		str	r3, [r6, #12]	@ unaligned
1347:TinyBasic.c   ****   strcat(s,"0112 ;     185       BC * \"(\"        3 ARGUMENTS POSSIBLE\n");
 8648              		.loc 1 1347 0
 8649 1f56 2046     		mov	r0, r4
 8650 1f58 FFF7FEFF 		bl	strlen
 8651              	.LVL838:
 8652 1f5c 6E4D     		ldr	r5, .L527+52
 8653 1f5e 0444     		add	r4, r4, r0
 8654 1f60 05F13007 		add	r7, r5, #48
 8655              	.L483:
 8656 1f64 2E46     		mov	r6, r5
 8657 1f66 0FCE     		ldmia	r6!, {r0, r1, r2, r3}
 8658 1f68 2060     		str	r0, [r4]	@ unaligned
 8659 1f6a 6160     		str	r1, [r4, #4]	@ unaligned
 8660 1f6c A260     		str	r2, [r4, #8]	@ unaligned
 8661 1f6e E360     		str	r3, [r4, #12]	@ unaligned
 8662 1f70 3546     		mov	r5, r6
 8663 1f72 1034     		adds	r4, r4, #16
 8664 1f74 BE42     		cmp	r6, r7
 8665 1f76 F5D1     		bne	.L483
 8666 1f78 03CD     		ldmia	r5!, {r0, r1}
 8667 1f7a 2060     		str	r0, [r4]	@ unaligned
 8668 1f7c 6160     		str	r1, [r4, #4]	@ unaligned
 8669 1f7e 2A88     		ldrh	r2, [r5]	@ unaligned
 8670 1f80 AB78     		ldrb	r3, [r5, #2]	@ zero_extendqisi2
 8671 1f82 2281     		strh	r2, [r4, #8]	@ unaligned
 8672 1f84 A372     		strb	r3, [r4, #10]
1348:TinyBasic.c   ****   strcat(s,"0112 80A8; 186       JS EXPR         ONE REQUIRED\n");
 8673              		.loc 1 1348 0
 8674 1f86 584C     		ldr	r4, .L527+4
 8675 1f88 2046     		mov	r0, r4
 8676 1f8a FFF7FEFF 		bl	strlen
 8677              	.LVL839:
 8678 1f8e 634D     		ldr	r5, .L527+56
 8679 1f90 0444     		add	r4, r4, r0
 8680 1f92 05F13007 		add	r7, r5, #48
 8681              	.L484:
 8682 1f96 2E46     		mov	r6, r5
 8683 1f98 0FCE     		ldmia	r6!, {r0, r1, r2, r3}
 8684 1f9a 2060     		str	r0, [r4]	@ unaligned
 8685 1f9c 6160     		str	r1, [r4, #4]	@ unaligned
 8686 1f9e A260     		str	r2, [r4, #8]	@ unaligned
 8687 1fa0 E360     		str	r3, [r4, #12]	@ unaligned
 8688 1fa2 3546     		mov	r5, r6
 8689 1fa4 1034     		adds	r4, r4, #16
 8690 1fa6 BE42     		cmp	r6, r7
 8691 1fa8 F5D1     		bne	.L484
 8692 1faa 3288     		ldrh	r2, [r6]	@ unaligned
 8693 1fac B378     		ldrb	r3, [r6, #2]	@ zero_extendqisi2
 8694 1fae 2280     		strh	r2, [r4]	@ unaligned
ARM GAS  C:\Users\doug_000\AppData\Local\Temp\ccbaKQF3.s 			page 178


 8695 1fb0 A370     		strb	r3, [r4, #2]
1349:TinyBasic.c   ****   strcat(s,"0114 30BC; 187       JS ARG\n");
 8696              		.loc 1 1349 0
 8697 1fb2 4D4C     		ldr	r4, .L527+4
 8698 1fb4 2046     		mov	r0, r4
 8699 1fb6 FFF7FEFF 		bl	strlen
 8700              	.LVL840:
 8701 1fba 0746     		mov	r7, r0
 8702 1fbc 2618     		adds	r6, r4, r0
 8703 1fbe 584D     		ldr	r5, .L527+60
 8704 1fc0 0FCD     		ldmia	r5!, {r0, r1, r2, r3}
 8705 1fc2 E051     		str	r0, [r4, r7]	@ unaligned
 8706 1fc4 7160     		str	r1, [r6, #4]	@ unaligned
 8707 1fc6 B260     		str	r2, [r6, #8]	@ unaligned
 8708 1fc8 F360     		str	r3, [r6, #12]	@ unaligned
 8709 1fca 07CD     		ldmia	r5!, {r0, r1, r2}
 8710 1fcc 3061     		str	r0, [r6, #16]	@ unaligned
 8711 1fce 7161     		str	r1, [r6, #20]	@ unaligned
 8712 1fd0 B261     		str	r2, [r6, #24]	@ unaligned
 8713 1fd2 2B78     		ldrb	r3, [r5]	@ zero_extendqisi2
 8714 1fd4 3377     		strb	r3, [r6, #28]
1350:TinyBasic.c   ****   strcat(s,"0116 312A; 188       JS ARG\n");
 8715              		.loc 1 1350 0
 8716 1fd6 2046     		mov	r0, r4
 8717 1fd8 FFF7FEFF 		bl	strlen
 8718              	.LVL841:
 8719 1fdc 0746     		mov	r7, r0
 8720 1fde 2618     		adds	r6, r4, r0
 8721 1fe0 504D     		ldr	r5, .L527+64
 8722 1fe2 0FCD     		ldmia	r5!, {r0, r1, r2, r3}
 8723 1fe4 E051     		str	r0, [r4, r7]	@ unaligned
 8724 1fe6 7160     		str	r1, [r6, #4]	@ unaligned
 8725 1fe8 B260     		str	r2, [r6, #8]	@ unaligned
 8726 1fea F360     		str	r3, [r6, #12]	@ unaligned
 8727 1fec 07CD     		ldmia	r5!, {r0, r1, r2}
 8728 1fee 3061     		str	r0, [r6, #16]	@ unaligned
 8729 1ff0 7161     		str	r1, [r6, #20]	@ unaligned
 8730 1ff2 B261     		str	r2, [r6, #24]	@ unaligned
 8731 1ff4 2B78     		ldrb	r3, [r5]	@ zero_extendqisi2
 8732 1ff6 3377     		strb	r3, [r6, #28]
1351:TinyBasic.c   ****   strcat(s,"0118 312A; 189       BC * \")\"\n");
 8733              		.loc 1 1351 0
 8734 1ff8 2046     		mov	r0, r4
 8735 1ffa FFF7FEFF 		bl	strlen
 8736              	.LVL842:
 8737 1ffe 0746     		mov	r7, r0
 8738 2000 2618     		adds	r6, r4, r0
 8739 2002 494D     		ldr	r5, .L527+68
 8740 2004 0FCD     		ldmia	r5!, {r0, r1, r2, r3}
 8741 2006 E051     		str	r0, [r4, r7]	@ unaligned
 8742 2008 7160     		str	r1, [r6, #4]	@ unaligned
 8743 200a B260     		str	r2, [r6, #8]	@ unaligned
 8744 200c F360     		str	r3, [r6, #12]	@ unaligned
 8745 200e 07CD     		ldmia	r5!, {r0, r1, r2}
 8746 2010 3061     		str	r0, [r6, #16]	@ unaligned
 8747 2012 7161     		str	r1, [r6, #20]	@ unaligned
 8748 2014 B261     		str	r2, [r6, #24]	@ unaligned
ARM GAS  C:\Users\doug_000\AppData\Local\Temp\ccbaKQF3.s 			page 179


 8749 2016 2A88     		ldrh	r2, [r5]	@ unaligned
 8750 2018 AB78     		ldrb	r3, [r5, #2]	@ zero_extendqisi2
 8751 201a B283     		strh	r2, [r6, #28]	@ unaligned
 8752 201c B377     		strb	r3, [r6, #30]
1352:TinyBasic.c   ****   strcat(s,"011A 80A9; 190       US              GO DO IT\n");
 8753              		.loc 1 1352 0
 8754 201e 2046     		mov	r0, r4
 8755 2020 FFF7FEFF 		bl	strlen
 8756              	.LVL843:
 8757 2024 414D     		ldr	r5, .L527+72
 8758 2026 0444     		add	r4, r4, r0
 8759 2028 05F12007 		add	r7, r5, #32
 8760              	.L485:
 8761 202c 2E46     		mov	r6, r5
 8762 202e 0FCE     		ldmia	r6!, {r0, r1, r2, r3}
 8763 2030 2060     		str	r0, [r4]	@ unaligned
 8764 2032 6160     		str	r1, [r4, #4]	@ unaligned
 8765 2034 A260     		str	r2, [r4, #8]	@ unaligned
 8766 2036 E360     		str	r3, [r4, #12]	@ unaligned
 8767 2038 3546     		mov	r5, r6
 8768 203a 1034     		adds	r4, r4, #16
 8769 203c BE42     		cmp	r6, r7
 8770 203e F5D1     		bne	.L485
 8771 2040 3346     		mov	r3, r6
 8772 2042 07CB     		ldmia	r3!, {r0, r1, r2}
 8773 2044 2060     		str	r0, [r4]	@ unaligned
 8774 2046 6160     		str	r1, [r4, #4]	@ unaligned
 8775 2048 A260     		str	r2, [r4, #8]	@ unaligned
 8776 204a 1A88     		ldrh	r2, [r3]	@ unaligned
 8777 204c 9B78     		ldrb	r3, [r3, #2]	@ zero_extendqisi2
 8778 204e A281     		strh	r2, [r4, #12]	@ unaligned
 8779 2050 A373     		strb	r3, [r4, #14]
1353:TinyBasic.c   ****   strcat(s,"011C 2E;   191       RT\n");
 8780              		.loc 1 1353 0
 8781 2052 254C     		ldr	r4, .L527+4
 8782 2054 2046     		mov	r0, r4
 8783 2056 FFF7FEFF 		bl	strlen
 8784              	.LVL844:
 8785 205a 0746     		mov	r7, r0
 8786 205c 2618     		adds	r6, r4, r0
 8787 205e 344D     		ldr	r5, .L527+76
 8788 2060 0FCD     		ldmia	r5!, {r0, r1, r2, r3}
 8789 2062 E051     		str	r0, [r4, r7]	@ unaligned
 8790 2064 7160     		str	r1, [r6, #4]	@ unaligned
 8791 2066 B260     		str	r2, [r6, #8]	@ unaligned
 8792 2068 F360     		str	r3, [r6, #12]	@ unaligned
 8793 206a 03CD     		ldmia	r5!, {r0, r1}
 8794 206c 3061     		str	r0, [r6, #16]	@ unaligned
 8795 206e 7161     		str	r1, [r6, #20]	@ unaligned
 8796 2070 2B78     		ldrb	r3, [r5]	@ zero_extendqisi2
 8797 2072 3376     		strb	r3, [r6, #24]
1354:TinyBasic.c   ****   strcat(s,"011D 2F;   192 :F3   BV F4           VARIABLE?\n");
 8798              		.loc 1 1354 0
 8799 2074 2046     		mov	r0, r4
 8800 2076 FFF7FEFF 		bl	strlen
 8801              	.LVL845:
 8802 207a 2E4E     		ldr	r6, .L527+80
ARM GAS  C:\Users\doug_000\AppData\Local\Temp\ccbaKQF3.s 			page 180


 8803 207c 0444     		add	r4, r4, r0
 8804 207e 06F13007 		add	r7, r6, #48
 8805              	.L486:
 8806 2082 3546     		mov	r5, r6
 8807 2084 0FCD     		ldmia	r5!, {r0, r1, r2, r3}
 8808 2086 2060     		str	r0, [r4]	@ unaligned
 8809 2088 6160     		str	r1, [r4, #4]	@ unaligned
 8810 208a A260     		str	r2, [r4, #8]	@ unaligned
 8811 208c E360     		str	r3, [r4, #12]	@ unaligned
 8812 208e 2E46     		mov	r6, r5
 8813 2090 1034     		adds	r4, r4, #16
 8814 2092 BD42     		cmp	r5, r7
 8815 2094 F5D1     		bne	.L486
1355:TinyBasic.c   ****   strcat(s,"011E A2;   193       FV              YES.  GET IT\n");
 8816              		.loc 1 1355 0
 8817 2096 144C     		ldr	r4, .L527+4
 8818 2098 2046     		mov	r0, r4
 8819 209a FFF7FEFF 		bl	strlen
 8820              	.LVL846:
 8821 209e 264D     		ldr	r5, .L527+84
 8822 20a0 0444     		add	r4, r4, r0
 8823 20a2 05F13007 		add	r7, r5, #48
 8824              	.L487:
 8825 20a6 2E46     		mov	r6, r5
 8826 20a8 0FCE     		ldmia	r6!, {r0, r1, r2, r3}
 8827 20aa 2060     		str	r0, [r4]	@ unaligned
 8828 20ac 6160     		str	r1, [r4, #4]	@ unaligned
 8829 20ae A260     		str	r2, [r4, #8]	@ unaligned
 8830 20b0 E360     		str	r3, [r4, #12]	@ unaligned
 8831 20b2 3546     		mov	r5, r6
 8832 20b4 1034     		adds	r4, r4, #16
 8833 20b6 BE42     		cmp	r6, r7
 8834 20b8 F5D1     		bne	.L487
 8835 20ba 3288     		ldrh	r2, [r6]	@ unaligned
 8836 20bc B378     		ldrb	r3, [r6, #2]	@ zero_extendqisi2
 8837 20be 2280     		strh	r2, [r4]	@ unaligned
 8838 20c0 A370     		strb	r3, [r4, #2]
1356:TinyBasic.c   ****   strcat(s,"011F 12;   194       RT\n");
 8839              		.loc 1 1356 0
 8840 20c2 094C     		ldr	r4, .L527+4
 8841 20c4 2046     		mov	r0, r4
 8842 20c6 FFF7FEFF 		bl	strlen
 8843              	.LVL847:
 8844 20ca 0746     		mov	r7, r0
 8845 20cc 2618     		adds	r6, r4, r0
 8846 20ce 1B4D     		ldr	r5, .L527+88
 8847 20d0 0FCD     		ldmia	r5!, {r0, r1, r2, r3}
 8848 20d2 E051     		str	r0, [r4, r7]	@ unaligned
 8849 20d4 7160     		str	r1, [r6, #4]	@ unaligned
 8850 20d6 B260     		str	r2, [r6, #8]	@ unaligned
 8851 20d8 F360     		str	r3, [r6, #12]	@ unaligned
 8852 20da 03CD     		ldmia	r5!, {r0, r1}
 8853 20dc 3061     		str	r0, [r6, #16]	@ unaligned
 8854 20de 7161     		str	r1, [r6, #20]	@ unaligned
 8855 20e0 2EE0     		b	.L528
 8856              	.L529:
 8857 20e2 00BF     		.align	2
ARM GAS  C:\Users\doug_000\AppData\Local\Temp\ccbaKQF3.s 			page 181


 8858              	.L527:
 8859 20e4 741D0000 		.word	.LC227
 8860 20e8 18000000 		.word	.LANCHOR0+24
 8861 20ec B01D0000 		.word	.LC228
 8862 20f0 CC1D0000 		.word	.LC229
 8863 20f4 E81D0000 		.word	.LC230
 8864 20f8 241E0000 		.word	.LC231
 8865 20fc 401E0000 		.word	.LC232
 8866 2100 5C1E0000 		.word	.LC233
 8867 2104 681E0000 		.word	.LC234
 8868 2108 A01E0000 		.word	.LC235
 8869 210c BC1E0000 		.word	.LC236
 8870 2110 D81E0000 		.word	.LC237
 8871 2114 101F0000 		.word	.LC238
 8872 2118 201F0000 		.word	.LC239
 8873 211c 5C1F0000 		.word	.LC240
 8874 2120 901F0000 		.word	.LC241
 8875 2124 B01F0000 		.word	.LC242
 8876 2128 D01F0000 		.word	.LC243
 8877 212c F01F0000 		.word	.LC244
 8878 2130 20200000 		.word	.LC245
 8879 2134 3C200000 		.word	.LC246
 8880 2138 6C200000 		.word	.LC247
 8881 213c A0200000 		.word	.LC248
 8882              	.L528:
 8883 2140 2B78     		ldrb	r3, [r5]	@ zero_extendqisi2
 8884 2142 3376     		strb	r3, [r6, #24]
1357:TinyBasic.c   ****   strcat(s,"0120 2F;   195 :F4   BN F5           NUMBER?\n");
 8885              		.loc 1 1357 0
 8886 2144 2046     		mov	r0, r4
 8887 2146 FFF7FEFF 		bl	strlen
 8888              	.LVL848:
 8889 214a D24D     		ldr	r5, .L530
 8890 214c 0444     		add	r4, r4, r0
 8891 214e 05F12007 		add	r7, r5, #32
 8892              	.L488:
 8893 2152 2E46     		mov	r6, r5
 8894 2154 0FCE     		ldmia	r6!, {r0, r1, r2, r3}
 8895 2156 2060     		str	r0, [r4]	@ unaligned
 8896 2158 6160     		str	r1, [r4, #4]	@ unaligned
 8897 215a A260     		str	r2, [r4, #8]	@ unaligned
 8898 215c E360     		str	r3, [r4, #12]	@ unaligned
 8899 215e 3546     		mov	r5, r6
 8900 2160 1034     		adds	r4, r4, #16
 8901 2162 BE42     		cmp	r6, r7
 8902 2164 F5D1     		bne	.L488
 8903 2166 07CD     		ldmia	r5!, {r0, r1, r2}
 8904 2168 2060     		str	r0, [r4]	@ unaligned
 8905 216a 6160     		str	r1, [r4, #4]	@ unaligned
 8906 216c A260     		str	r2, [r4, #8]	@ unaligned
 8907 216e 2B88     		ldrh	r3, [r5]	@ unaligned
 8908 2170 A381     		strh	r3, [r4, #12]	@ unaligned
1358:TinyBasic.c   ****   strcat(s,"0121 C1;   196       RT              GOT IT.\n");
 8909              		.loc 1 1358 0
 8910 2172 C94C     		ldr	r4, .L530+4
 8911 2174 2046     		mov	r0, r4
 8912 2176 FFF7FEFF 		bl	strlen
ARM GAS  C:\Users\doug_000\AppData\Local\Temp\ccbaKQF3.s 			page 182


 8913              	.LVL849:
 8914 217a C84D     		ldr	r5, .L530+8
 8915 217c 0444     		add	r4, r4, r0
 8916 217e 05F12007 		add	r7, r5, #32
 8917              	.L489:
 8918 2182 2E46     		mov	r6, r5
 8919 2184 0FCE     		ldmia	r6!, {r0, r1, r2, r3}
 8920 2186 2060     		str	r0, [r4]	@ unaligned
 8921 2188 6160     		str	r1, [r4, #4]	@ unaligned
 8922 218a A260     		str	r2, [r4, #8]	@ unaligned
 8923 218c E360     		str	r3, [r4, #12]	@ unaligned
 8924 218e 3546     		mov	r5, r6
 8925 2190 1034     		adds	r4, r4, #16
 8926 2192 BE42     		cmp	r6, r7
 8927 2194 F5D1     		bne	.L489
 8928 2196 07CD     		ldmia	r5!, {r0, r1, r2}
 8929 2198 2060     		str	r0, [r4]	@ unaligned
 8930 219a 6160     		str	r1, [r4, #4]	@ unaligned
 8931 219c A260     		str	r2, [r4, #8]	@ unaligned
 8932 219e 2B88     		ldrh	r3, [r5]	@ unaligned
 8933 21a0 A381     		strh	r3, [r4, #12]	@ unaligned
1359:TinyBasic.c   ****   strcat(s,"0122 2F;   197 :F5   BC * \"(\"        OTHERWISE MUST BE (EXPR)\n");
 8934              		.loc 1 1359 0
 8935 21a2 BD4C     		ldr	r4, .L530+4
 8936 21a4 2046     		mov	r0, r4
 8937 21a6 FFF7FEFF 		bl	strlen
 8938              	.LVL850:
 8939 21aa BD4D     		ldr	r5, .L530+12
 8940 21ac 0444     		add	r4, r4, r0
 8941 21ae 05F13007 		add	r7, r5, #48
 8942              	.L490:
 8943 21b2 2E46     		mov	r6, r5
 8944 21b4 0FCE     		ldmia	r6!, {r0, r1, r2, r3}
 8945 21b6 2060     		str	r0, [r4]	@ unaligned
 8946 21b8 6160     		str	r1, [r4, #4]	@ unaligned
 8947 21ba A260     		str	r2, [r4, #8]	@ unaligned
 8948 21bc E360     		str	r3, [r4, #12]	@ unaligned
 8949 21be 3546     		mov	r5, r6
 8950 21c0 1034     		adds	r4, r4, #16
 8951 21c2 BE42     		cmp	r6, r7
 8952 21c4 F5D1     		bne	.L490
 8953 21c6 3346     		mov	r3, r6
 8954 21c8 07CB     		ldmia	r3!, {r0, r1, r2}
 8955 21ca 2060     		str	r0, [r4]	@ unaligned
 8956 21cc 6160     		str	r1, [r4, #4]	@ unaligned
 8957 21ce A260     		str	r2, [r4, #8]	@ unaligned
 8958 21d0 1A88     		ldrh	r2, [r3]	@ unaligned
 8959 21d2 9B78     		ldrb	r3, [r3, #2]	@ zero_extendqisi2
 8960 21d4 A281     		strh	r2, [r4, #12]	@ unaligned
 8961 21d6 A373     		strb	r3, [r4, #14]
1360:TinyBasic.c   ****   strcat(s,"0123 80A8; 198 :F6   JS EXPR\n");
 8962              		.loc 1 1360 0
 8963 21d8 AF4C     		ldr	r4, .L530+4
 8964 21da 2046     		mov	r0, r4
 8965 21dc FFF7FEFF 		bl	strlen
 8966              	.LVL851:
 8967 21e0 0746     		mov	r7, r0
ARM GAS  C:\Users\doug_000\AppData\Local\Temp\ccbaKQF3.s 			page 183


 8968 21e2 2618     		adds	r6, r4, r0
 8969 21e4 AF4D     		ldr	r5, .L530+16
 8970 21e6 0FCD     		ldmia	r5!, {r0, r1, r2, r3}
 8971 21e8 E051     		str	r0, [r4, r7]	@ unaligned
 8972 21ea 7160     		str	r1, [r6, #4]	@ unaligned
 8973 21ec B260     		str	r2, [r6, #8]	@ unaligned
 8974 21ee F360     		str	r3, [r6, #12]	@ unaligned
 8975 21f0 07CD     		ldmia	r5!, {r0, r1, r2}
 8976 21f2 3061     		str	r0, [r6, #16]	@ unaligned
 8977 21f4 7161     		str	r1, [r6, #20]	@ unaligned
 8978 21f6 B261     		str	r2, [r6, #24]	@ unaligned
 8979 21f8 2B88     		ldrh	r3, [r5]	@ unaligned
 8980 21fa B383     		strh	r3, [r6, #28]	@ unaligned
1361:TinyBasic.c   ****   strcat(s,"0125 30BC; 199       BC * \")\"\n");
 8981              		.loc 1 1361 0
 8982 21fc 2046     		mov	r0, r4
 8983 21fe FFF7FEFF 		bl	strlen
 8984              	.LVL852:
 8985 2202 0746     		mov	r7, r0
 8986 2204 2618     		adds	r6, r4, r0
 8987 2206 A84D     		ldr	r5, .L530+20
 8988 2208 0FCD     		ldmia	r5!, {r0, r1, r2, r3}
 8989 220a E051     		str	r0, [r4, r7]	@ unaligned
 8990 220c 7160     		str	r1, [r6, #4]	@ unaligned
 8991 220e B260     		str	r2, [r6, #8]	@ unaligned
 8992 2210 F360     		str	r3, [r6, #12]	@ unaligned
 8993 2212 07CD     		ldmia	r5!, {r0, r1, r2}
 8994 2214 3061     		str	r0, [r6, #16]	@ unaligned
 8995 2216 7161     		str	r1, [r6, #20]	@ unaligned
 8996 2218 B261     		str	r2, [r6, #24]	@ unaligned
 8997 221a 2A88     		ldrh	r2, [r5]	@ unaligned
 8998 221c AB78     		ldrb	r3, [r5, #2]	@ zero_extendqisi2
 8999 221e B283     		strh	r2, [r6, #28]	@ unaligned
 9000 2220 B377     		strb	r3, [r6, #30]
1362:TinyBasic.c   ****   strcat(s,"0127 80A9; 200       RT\n");
 9001              		.loc 1 1362 0
 9002 2222 2046     		mov	r0, r4
 9003 2224 FFF7FEFF 		bl	strlen
 9004              	.LVL853:
 9005 2228 0746     		mov	r7, r0
 9006 222a 2618     		adds	r6, r4, r0
 9007 222c 9F4D     		ldr	r5, .L530+24
 9008 222e 0FCD     		ldmia	r5!, {r0, r1, r2, r3}
 9009 2230 E051     		str	r0, [r4, r7]	@ unaligned
 9010 2232 7160     		str	r1, [r6, #4]	@ unaligned
 9011 2234 B260     		str	r2, [r6, #8]	@ unaligned
 9012 2236 F360     		str	r3, [r6, #12]	@ unaligned
 9013 2238 03CD     		ldmia	r5!, {r0, r1}
 9014 223a 3061     		str	r0, [r6, #16]	@ unaligned
 9015 223c 7161     		str	r1, [r6, #20]	@ unaligned
 9016 223e 2B78     		ldrb	r3, [r5]	@ zero_extendqisi2
 9017 2240 3376     		strb	r3, [r6, #24]
1363:TinyBasic.c   ****   strcat(s,"0129 2F;   201 .\n");
 9018              		.loc 1 1363 0
 9019 2242 2046     		mov	r0, r4
 9020 2244 FFF7FEFF 		bl	strlen
 9021              	.LVL854:
ARM GAS  C:\Users\doug_000\AppData\Local\Temp\ccbaKQF3.s 			page 184


 9022 2248 0746     		mov	r7, r0
 9023 224a 2618     		adds	r6, r4, r0
 9024 224c 984D     		ldr	r5, .L530+28
 9025 224e 0FCD     		ldmia	r5!, {r0, r1, r2, r3}
 9026 2250 E051     		str	r0, [r4, r7]	@ unaligned
 9027 2252 7160     		str	r1, [r6, #4]	@ unaligned
 9028 2254 B260     		str	r2, [r6, #8]	@ unaligned
 9029 2256 F360     		str	r3, [r6, #12]	@ unaligned
 9030 2258 2B88     		ldrh	r3, [r5]	@ unaligned
 9031 225a 3382     		strh	r3, [r6, #16]	@ unaligned
1364:TinyBasic.c   ****   strcat(s,"012A ;     202 :ARG  BC A0 \",\"        COMMA?\n");
 9032              		.loc 1 1364 0
 9033 225c 2046     		mov	r0, r4
 9034 225e FFF7FEFF 		bl	strlen
 9035              	.LVL855:
 9036 2262 944D     		ldr	r5, .L530+32
 9037 2264 0444     		add	r4, r4, r0
 9038 2266 05F12007 		add	r7, r5, #32
 9039              	.L491:
 9040 226a 2E46     		mov	r6, r5
 9041 226c 0FCE     		ldmia	r6!, {r0, r1, r2, r3}
 9042 226e 2060     		str	r0, [r4]	@ unaligned
 9043 2270 6160     		str	r1, [r4, #4]	@ unaligned
 9044 2272 A260     		str	r2, [r4, #8]	@ unaligned
 9045 2274 E360     		str	r3, [r4, #12]	@ unaligned
 9046 2276 3546     		mov	r5, r6
 9047 2278 1034     		adds	r4, r4, #16
 9048 227a BE42     		cmp	r6, r7
 9049 227c F5D1     		bne	.L491
 9050 227e 07CD     		ldmia	r5!, {r0, r1, r2}
 9051 2280 2060     		str	r0, [r4]	@ unaligned
 9052 2282 6160     		str	r1, [r4, #4]	@ unaligned
 9053 2284 A260     		str	r2, [r4, #8]	@ unaligned
 9054 2286 2B88     		ldrh	r3, [r5]	@ unaligned
 9055 2288 A381     		strh	r3, [r4, #12]	@ unaligned
1365:TinyBasic.c   ****   strcat(s,"012A 83AC; 203       J  EXPR          YES, GET EXPRESSION\n");
 9056              		.loc 1 1365 0
 9057 228a 834C     		ldr	r4, .L530+4
 9058 228c 2046     		mov	r0, r4
 9059 228e FFF7FEFF 		bl	strlen
 9060              	.LVL856:
 9061 2292 894D     		ldr	r5, .L530+36
 9062 2294 0444     		add	r4, r4, r0
 9063 2296 05F13007 		add	r7, r5, #48
 9064              	.L492:
 9065 229a 2E46     		mov	r6, r5
 9066 229c 0FCE     		ldmia	r6!, {r0, r1, r2, r3}
 9067 229e 2060     		str	r0, [r4]	@ unaligned
 9068 22a0 6160     		str	r1, [r4, #4]	@ unaligned
 9069 22a2 A260     		str	r2, [r4, #8]	@ unaligned
 9070 22a4 E360     		str	r3, [r4, #12]	@ unaligned
 9071 22a6 3546     		mov	r5, r6
 9072 22a8 1034     		adds	r4, r4, #16
 9073 22aa BE42     		cmp	r6, r7
 9074 22ac F5D1     		bne	.L492
 9075 22ae 03CD     		ldmia	r5!, {r0, r1}
 9076 22b0 2060     		str	r0, [r4]	@ unaligned
ARM GAS  C:\Users\doug_000\AppData\Local\Temp\ccbaKQF3.s 			page 185


 9077 22b2 6160     		str	r1, [r4, #4]	@ unaligned
 9078 22b4 2A88     		ldrh	r2, [r5]	@ unaligned
 9079 22b6 AB78     		ldrb	r3, [r5, #2]	@ zero_extendqisi2
 9080 22b8 2281     		strh	r2, [r4, #8]	@ unaligned
 9081 22ba A372     		strb	r3, [r4, #10]
1366:TinyBasic.c   ****   strcat(s,"012C 38BC; 204 :A0   DS               NO, DUPLICATE STACK TOP\n");
 9082              		.loc 1 1366 0
 9083 22bc 764C     		ldr	r4, .L530+4
 9084 22be 2046     		mov	r0, r4
 9085 22c0 FFF7FEFF 		bl	strlen
 9086              	.LVL857:
 9087 22c4 7D4D     		ldr	r5, .L530+40
 9088 22c6 0444     		add	r4, r4, r0
 9089 22c8 05F13007 		add	r7, r5, #48
 9090              	.L493:
 9091 22cc 2E46     		mov	r6, r5
 9092 22ce 0FCE     		ldmia	r6!, {r0, r1, r2, r3}
 9093 22d0 2060     		str	r0, [r4]	@ unaligned
 9094 22d2 6160     		str	r1, [r4, #4]	@ unaligned
 9095 22d4 A260     		str	r2, [r4, #8]	@ unaligned
 9096 22d6 E360     		str	r3, [r4, #12]	@ unaligned
 9097 22d8 3546     		mov	r5, r6
 9098 22da 1034     		adds	r4, r4, #16
 9099 22dc BE42     		cmp	r6, r7
 9100 22de F5D1     		bne	.L493
 9101 22e0 3346     		mov	r3, r6
 9102 22e2 07CB     		ldmia	r3!, {r0, r1, r2}
 9103 22e4 2060     		str	r0, [r4]	@ unaligned
 9104 22e6 6160     		str	r1, [r4, #4]	@ unaligned
 9105 22e8 A260     		str	r2, [r4, #8]	@ unaligned
 9106 22ea 1A88     		ldrh	r2, [r3]	@ unaligned
 9107 22ec 9B78     		ldrb	r3, [r3, #2]	@ zero_extendqisi2
 9108 22ee A281     		strh	r2, [r4, #12]	@ unaligned
 9109 22f0 A373     		strb	r3, [r4, #14]
1367:TinyBasic.c   ****   strcat(s,"012E 0B;   205       RT\n");
 9110              		.loc 1 1367 0
 9111 22f2 694C     		ldr	r4, .L530+4
 9112 22f4 2046     		mov	r0, r4
 9113 22f6 FFF7FEFF 		bl	strlen
 9114              	.LVL858:
 9115 22fa 0746     		mov	r7, r0
 9116 22fc 2618     		adds	r6, r4, r0
 9117 22fe 704D     		ldr	r5, .L530+44
 9118 2300 0FCD     		ldmia	r5!, {r0, r1, r2, r3}
 9119 2302 E051     		str	r0, [r4, r7]	@ unaligned
 9120 2304 7160     		str	r1, [r6, #4]	@ unaligned
 9121 2306 B260     		str	r2, [r6, #8]	@ unaligned
 9122 2308 F360     		str	r3, [r6, #12]	@ unaligned
 9123 230a 03CD     		ldmia	r5!, {r0, r1}
 9124 230c 3061     		str	r0, [r6, #16]	@ unaligned
 9125 230e 7161     		str	r1, [r6, #20]	@ unaligned
 9126 2310 2B78     		ldrb	r3, [r5]	@ zero_extendqisi2
 9127 2312 3376     		strb	r3, [r6, #24]
1368:TinyBasic.c   ****   strcat(s,"012F 2F;   206 .\n");
 9128              		.loc 1 1368 0
 9129 2314 2046     		mov	r0, r4
 9130 2316 FFF7FEFF 		bl	strlen
ARM GAS  C:\Users\doug_000\AppData\Local\Temp\ccbaKQF3.s 			page 186


 9131              	.LVL859:
 9132 231a 0746     		mov	r7, r0
 9133 231c 2618     		adds	r6, r4, r0
 9134 231e 694D     		ldr	r5, .L530+48
 9135 2320 0FCD     		ldmia	r5!, {r0, r1, r2, r3}
 9136 2322 E051     		str	r0, [r4, r7]	@ unaligned
 9137 2324 7160     		str	r1, [r6, #4]	@ unaligned
 9138 2326 B260     		str	r2, [r6, #8]	@ unaligned
 9139 2328 F360     		str	r3, [r6, #12]	@ unaligned
 9140 232a 2B88     		ldrh	r3, [r5]	@ unaligned
 9141 232c 3382     		strh	r3, [r6, #16]	@ unaligned
1369:TinyBasic.c   ****   strcat(s,"0130 ;     207 :FUNC BC * \"(\"\n");
 9142              		.loc 1 1369 0
 9143 232e 2046     		mov	r0, r4
 9144 2330 FFF7FEFF 		bl	strlen
 9145              	.LVL860:
 9146 2334 0746     		mov	r7, r0
 9147 2336 2618     		adds	r6, r4, r0
 9148 2338 634D     		ldr	r5, .L530+52
 9149 233a 0FCD     		ldmia	r5!, {r0, r1, r2, r3}
 9150 233c E051     		str	r0, [r4, r7]	@ unaligned
 9151 233e 7160     		str	r1, [r6, #4]	@ unaligned
 9152 2340 B260     		str	r2, [r6, #8]	@ unaligned
 9153 2342 F360     		str	r3, [r6, #12]	@ unaligned
 9154 2344 07CD     		ldmia	r5!, {r0, r1, r2}
 9155 2346 3061     		str	r0, [r6, #16]	@ unaligned
 9156 2348 7161     		str	r1, [r6, #20]	@ unaligned
 9157 234a B261     		str	r2, [r6, #24]	@ unaligned
 9158 234c 2A88     		ldrh	r2, [r5]	@ unaligned
 9159 234e AB78     		ldrb	r3, [r5, #2]	@ zero_extendqisi2
 9160 2350 B283     		strh	r2, [r6, #28]	@ unaligned
 9161 2352 B377     		strb	r3, [r6, #30]
1370:TinyBasic.c   ****   strcat(s,"0130 80A8; 208       BR F6\n");
 9162              		.loc 1 1370 0
 9163 2354 2046     		mov	r0, r4
 9164 2356 FFF7FEFF 		bl	strlen
 9165              	.LVL861:
 9166 235a 0746     		mov	r7, r0
 9167 235c 2618     		adds	r6, r4, r0
 9168 235e 5B4D     		ldr	r5, .L530+56
 9169 2360 0FCD     		ldmia	r5!, {r0, r1, r2, r3}
 9170 2362 E051     		str	r0, [r4, r7]	@ unaligned
 9171 2364 7160     		str	r1, [r6, #4]	@ unaligned
 9172 2366 B260     		str	r2, [r6, #8]	@ unaligned
 9173 2368 F360     		str	r3, [r6, #12]	@ unaligned
 9174 236a 07CD     		ldmia	r5!, {r0, r1, r2}
 9175 236c 3061     		str	r0, [r6, #16]	@ unaligned
 9176 236e 7161     		str	r1, [r6, #20]	@ unaligned
 9177 2370 B261     		str	r2, [r6, #24]	@ unaligned
1371:TinyBasic.c   ****   strcat(s,"0132 52;   209       RT\n");
 9178              		.loc 1 1371 0
 9179 2372 2046     		mov	r0, r4
 9180 2374 FFF7FEFF 		bl	strlen
 9181              	.LVL862:
 9182 2378 0746     		mov	r7, r0
 9183 237a 2618     		adds	r6, r4, r0
 9184 237c 544D     		ldr	r5, .L530+60
ARM GAS  C:\Users\doug_000\AppData\Local\Temp\ccbaKQF3.s 			page 187


 9185 237e 0FCD     		ldmia	r5!, {r0, r1, r2, r3}
 9186 2380 E051     		str	r0, [r4, r7]	@ unaligned
 9187 2382 7160     		str	r1, [r6, #4]	@ unaligned
 9188 2384 B260     		str	r2, [r6, #8]	@ unaligned
 9189 2386 F360     		str	r3, [r6, #12]	@ unaligned
 9190 2388 03CD     		ldmia	r5!, {r0, r1}
 9191 238a 3061     		str	r0, [r6, #16]	@ unaligned
 9192 238c 7161     		str	r1, [r6, #20]	@ unaligned
 9193 238e 2B78     		ldrb	r3, [r5]	@ zero_extendqisi2
 9194 2390 3376     		strb	r3, [r6, #24]
1372:TinyBasic.c   ****   strcat(s,"0133 2F;   210 .\n");
 9195              		.loc 1 1372 0
 9196 2392 2046     		mov	r0, r4
 9197 2394 FFF7FEFF 		bl	strlen
 9198              	.LVL863:
 9199 2398 0746     		mov	r7, r0
 9200 239a 2618     		adds	r6, r4, r0
 9201 239c 4D4D     		ldr	r5, .L530+64
 9202 239e 0FCD     		ldmia	r5!, {r0, r1, r2, r3}
 9203 23a0 E051     		str	r0, [r4, r7]	@ unaligned
 9204 23a2 7160     		str	r1, [r6, #4]	@ unaligned
 9205 23a4 B260     		str	r2, [r6, #8]	@ unaligned
 9206 23a6 F360     		str	r3, [r6, #12]	@ unaligned
 9207 23a8 2B88     		ldrh	r3, [r5]	@ unaligned
 9208 23aa 3382     		strh	r3, [r6, #16]	@ unaligned
1373:TinyBasic.c   ****   strcat(s,"0134 ;     211 :RELO BC R0 \"=\"        CONVERT RELATION OPERATORS\n");
 9209              		.loc 1 1373 0
 9210 23ac 2046     		mov	r0, r4
 9211 23ae FFF7FEFF 		bl	strlen
 9212              	.LVL864:
 9213 23b2 2044     		add	r0, r0, r4
 9214 23b4 4849     		ldr	r1, .L530+68
 9215 23b6 4222     		movs	r2, #66
 9216 23b8 FFF7FEFF 		bl	memcpy
 9217              	.LVL865:
1374:TinyBasic.c   ****   strcat(s,"0134 84BD; 212       LB 2             TO CODE BYTE ON STACK\n");
 9218              		.loc 1 1374 0
 9219 23bc 2046     		mov	r0, r4
 9220 23be FFF7FEFF 		bl	strlen
 9221              	.LVL866:
 9222 23c2 464D     		ldr	r5, .L530+72
 9223 23c4 0444     		add	r4, r4, r0
 9224 23c6 05F13007 		add	r7, r5, #48
 9225              	.L494:
 9226 23ca 2E46     		mov	r6, r5
 9227 23cc 0FCE     		ldmia	r6!, {r0, r1, r2, r3}
 9228 23ce 2060     		str	r0, [r4]	@ unaligned
 9229 23d0 6160     		str	r1, [r4, #4]	@ unaligned
 9230 23d2 A260     		str	r2, [r4, #8]	@ unaligned
 9231 23d4 E360     		str	r3, [r4, #12]	@ unaligned
 9232 23d6 3546     		mov	r5, r6
 9233 23d8 1034     		adds	r4, r4, #16
 9234 23da BE42     		cmp	r6, r7
 9235 23dc F5D1     		bne	.L494
 9236 23de 07CD     		ldmia	r5!, {r0, r1, r2}
 9237 23e0 2060     		str	r0, [r4]	@ unaligned
 9238 23e2 6160     		str	r1, [r4, #4]	@ unaligned
ARM GAS  C:\Users\doug_000\AppData\Local\Temp\ccbaKQF3.s 			page 188


 9239 23e4 A260     		str	r2, [r4, #8]	@ unaligned
 9240 23e6 2B78     		ldrb	r3, [r5]	@ zero_extendqisi2
 9241 23e8 2373     		strb	r3, [r4, #12]
1375:TinyBasic.c   ****   strcat(s,"0136 0902; 213       RT               =\n");
 9242              		.loc 1 1375 0
 9243 23ea 2B4C     		ldr	r4, .L530+4
 9244 23ec 2046     		mov	r0, r4
 9245 23ee FFF7FEFF 		bl	strlen
 9246              	.LVL867:
 9247 23f2 3B4D     		ldr	r5, .L530+76
 9248 23f4 0444     		add	r4, r4, r0
 9249 23f6 05F12007 		add	r7, r5, #32
 9250              	.L495:
 9251 23fa 2E46     		mov	r6, r5
 9252 23fc 0FCE     		ldmia	r6!, {r0, r1, r2, r3}
 9253 23fe 2060     		str	r0, [r4]	@ unaligned
 9254 2400 6160     		str	r1, [r4, #4]	@ unaligned
 9255 2402 A260     		str	r2, [r4, #8]	@ unaligned
 9256 2404 E360     		str	r3, [r4, #12]	@ unaligned
 9257 2406 3546     		mov	r5, r6
 9258 2408 1034     		adds	r4, r4, #16
 9259 240a BE42     		cmp	r6, r7
 9260 240c F5D1     		bne	.L495
 9261 240e 03CD     		ldmia	r5!, {r0, r1}
 9262 2410 2060     		str	r0, [r4]	@ unaligned
 9263 2412 6160     		str	r1, [r4, #4]	@ unaligned
 9264 2414 2B78     		ldrb	r3, [r5]	@ zero_extendqisi2
 9265 2416 2372     		strb	r3, [r4, #8]
1376:TinyBasic.c   ****   strcat(s,"0138 2F;   214 :R0   BC R4 \"<\"\n");
 9266              		.loc 1 1376 0
 9267 2418 1F4C     		ldr	r4, .L530+4
 9268 241a 2046     		mov	r0, r4
 9269 241c FFF7FEFF 		bl	strlen
 9270              	.LVL868:
 9271 2420 0746     		mov	r7, r0
 9272 2422 2618     		adds	r6, r4, r0
 9273 2424 2F4D     		ldr	r5, .L530+80
 9274 2426 0FCD     		ldmia	r5!, {r0, r1, r2, r3}
 9275 2428 E051     		str	r0, [r4, r7]	@ unaligned
 9276 242a 7160     		str	r1, [r6, #4]	@ unaligned
 9277 242c B260     		str	r2, [r6, #8]	@ unaligned
 9278 242e F360     		str	r3, [r6, #12]	@ unaligned
 9279 2430 0FCD     		ldmia	r5!, {r0, r1, r2, r3}
 9280 2432 3061     		str	r0, [r6, #16]	@ unaligned
 9281 2434 7161     		str	r1, [r6, #20]	@ unaligned
 9282 2436 B261     		str	r2, [r6, #24]	@ unaligned
 9283 2438 F361     		str	r3, [r6, #28]	@ unaligned
1377:TinyBasic.c   ****   strcat(s,"0139 8EBC; 215       BC R1 \"=\"\n");
 9284              		.loc 1 1377 0
 9285 243a 2046     		mov	r0, r4
 9286 243c FFF7FEFF 		bl	strlen
 9287              	.LVL869:
 9288 2440 0746     		mov	r7, r0
 9289 2442 2618     		adds	r6, r4, r0
 9290 2444 284D     		ldr	r5, .L530+84
 9291 2446 0FCD     		ldmia	r5!, {r0, r1, r2, r3}
 9292 2448 E051     		str	r0, [r4, r7]	@ unaligned
ARM GAS  C:\Users\doug_000\AppData\Local\Temp\ccbaKQF3.s 			page 189


 9293 244a 7160     		str	r1, [r6, #4]	@ unaligned
 9294 244c B260     		str	r2, [r6, #8]	@ unaligned
 9295 244e F360     		str	r3, [r6, #12]	@ unaligned
 9296 2450 0FCD     		ldmia	r5!, {r0, r1, r2, r3}
 9297 2452 3061     		str	r0, [r6, #16]	@ unaligned
 9298 2454 7161     		str	r1, [r6, #20]	@ unaligned
 9299 2456 B261     		str	r2, [r6, #24]	@ unaligned
 9300 2458 F361     		str	r3, [r6, #28]	@ unaligned
1378:TinyBasic.c   ****   strcat(s,"013B 84BD; 216       LB 3             <=\n");
 9301              		.loc 1 1378 0
 9302 245a 2046     		mov	r0, r4
 9303 245c FFF7FEFF 		bl	strlen
 9304              	.LVL870:
 9305 2460 224D     		ldr	r5, .L530+88
 9306 2462 0444     		add	r4, r4, r0
 9307 2464 05F12007 		add	r7, r5, #32
 9308              	.L496:
 9309 2468 2E46     		mov	r6, r5
 9310 246a 0FCE     		ldmia	r6!, {r0, r1, r2, r3}
 9311 246c 2060     		str	r0, [r4]	@ unaligned
 9312 246e 6160     		str	r1, [r4, #4]	@ unaligned
 9313 2470 A260     		str	r2, [r4, #8]	@ unaligned
 9314 2472 E360     		str	r3, [r4, #12]	@ unaligned
 9315 2474 3546     		mov	r5, r6
 9316 2476 1034     		adds	r4, r4, #16
 9317 2478 BE42     		cmp	r6, r7
 9318 247a F5D1     		bne	.L496
 9319 247c 03CD     		ldmia	r5!, {r0, r1}
 9320 247e 2060     		str	r0, [r4]	@ unaligned
 9321 2480 6160     		str	r1, [r4, #4]	@ unaligned
 9322 2482 2B88     		ldrh	r3, [r5]	@ unaligned
 9323 2484 2381     		strh	r3, [r4, #8]	@ unaligned
1379:TinyBasic.c   ****   strcat(s,"013D 0903; 217       RT\n");
 9324              		.loc 1 1379 0
 9325 2486 044C     		ldr	r4, .L530+4
 9326 2488 2046     		mov	r0, r4
 9327 248a FFF7FEFF 		bl	strlen
 9328              	.LVL871:
 9329 248e 0746     		mov	r7, r0
 9330 2490 2EE0     		b	.L531
 9331              	.L532:
 9332 2492 00BF     		.align	2
 9333              	.L530:
 9334 2494 BC200000 		.word	.LC249
 9335 2498 18000000 		.word	.LANCHOR0+24
 9336 249c EC200000 		.word	.LC250
 9337 24a0 1C210000 		.word	.LC251
 9338 24a4 5C210000 		.word	.LC252
 9339 24a8 7C210000 		.word	.LC253
 9340 24ac 9C210000 		.word	.LC254
 9341 24b0 B8210000 		.word	.LC255
 9342 24b4 CC210000 		.word	.LC256
 9343 24b8 FC210000 		.word	.LC257
 9344 24bc 38220000 		.word	.LC258
 9345 24c0 78220000 		.word	.LC259
 9346 24c4 94220000 		.word	.LC260
 9347 24c8 A8220000 		.word	.LC261
ARM GAS  C:\Users\doug_000\AppData\Local\Temp\ccbaKQF3.s 			page 190


 9348 24cc C8220000 		.word	.LC262
 9349 24d0 E4220000 		.word	.LC263
 9350 24d4 00230000 		.word	.LC264
 9351 24d8 14230000 		.word	.LC265
 9352 24dc 58230000 		.word	.LC266
 9353 24e0 98230000 		.word	.LC267
 9354 24e4 C4230000 		.word	.LC268
 9355 24e8 E4230000 		.word	.LC269
 9356 24ec 04240000 		.word	.LC270
 9357              	.L531:
 9358 24f0 2618     		adds	r6, r4, r0
 9359 24f2 954D     		ldr	r5, .L533
 9360 24f4 0FCD     		ldmia	r5!, {r0, r1, r2, r3}
 9361 24f6 E051     		str	r0, [r4, r7]	@ unaligned
 9362 24f8 7160     		str	r1, [r6, #4]	@ unaligned
 9363 24fa B260     		str	r2, [r6, #8]	@ unaligned
 9364 24fc F360     		str	r3, [r6, #12]	@ unaligned
 9365 24fe 03CD     		ldmia	r5!, {r0, r1}
 9366 2500 3061     		str	r0, [r6, #16]	@ unaligned
 9367 2502 7161     		str	r1, [r6, #20]	@ unaligned
 9368 2504 2B78     		ldrb	r3, [r5]	@ zero_extendqisi2
 9369 2506 3376     		strb	r3, [r6, #24]
1380:TinyBasic.c   ****   strcat(s,"013F 2F;   218 :R1   BC R3 \">\"\n");
 9370              		.loc 1 1380 0
 9371 2508 2046     		mov	r0, r4
 9372 250a FFF7FEFF 		bl	strlen
 9373              	.LVL872:
 9374 250e 0746     		mov	r7, r0
 9375 2510 2618     		adds	r6, r4, r0
 9376 2512 8E4D     		ldr	r5, .L533+4
 9377 2514 0FCD     		ldmia	r5!, {r0, r1, r2, r3}
 9378 2516 E051     		str	r0, [r4, r7]	@ unaligned
 9379 2518 7160     		str	r1, [r6, #4]	@ unaligned
 9380 251a B260     		str	r2, [r6, #8]	@ unaligned
 9381 251c F360     		str	r3, [r6, #12]	@ unaligned
 9382 251e 0FCD     		ldmia	r5!, {r0, r1, r2, r3}
 9383 2520 3061     		str	r0, [r6, #16]	@ unaligned
 9384 2522 7161     		str	r1, [r6, #20]	@ unaligned
 9385 2524 B261     		str	r2, [r6, #24]	@ unaligned
 9386 2526 F361     		str	r3, [r6, #28]	@ unaligned
1381:TinyBasic.c   ****   strcat(s,"0140 84BE; 219       LB 5             <>\n");
 9387              		.loc 1 1381 0
 9388 2528 2046     		mov	r0, r4
 9389 252a FFF7FEFF 		bl	strlen
 9390              	.LVL873:
 9391 252e 884D     		ldr	r5, .L533+8
 9392 2530 0444     		add	r4, r4, r0
 9393 2532 05F12007 		add	r7, r5, #32
 9394              	.L497:
 9395 2536 2E46     		mov	r6, r5
 9396 2538 0FCE     		ldmia	r6!, {r0, r1, r2, r3}
 9397 253a 2060     		str	r0, [r4]	@ unaligned
 9398 253c 6160     		str	r1, [r4, #4]	@ unaligned
 9399 253e A260     		str	r2, [r4, #8]	@ unaligned
 9400 2540 E360     		str	r3, [r4, #12]	@ unaligned
 9401 2542 3546     		mov	r5, r6
 9402 2544 1034     		adds	r4, r4, #16
ARM GAS  C:\Users\doug_000\AppData\Local\Temp\ccbaKQF3.s 			page 191


 9403 2546 BE42     		cmp	r6, r7
 9404 2548 F5D1     		bne	.L497
 9405 254a 03CD     		ldmia	r5!, {r0, r1}
 9406 254c 2060     		str	r0, [r4]	@ unaligned
 9407 254e 6160     		str	r1, [r4, #4]	@ unaligned
 9408 2550 2B88     		ldrh	r3, [r5]	@ unaligned
 9409 2552 2381     		strh	r3, [r4, #8]	@ unaligned
1382:TinyBasic.c   ****   strcat(s,"0142 0905; 220       RT\n");
 9410              		.loc 1 1382 0
 9411 2554 7F4C     		ldr	r4, .L533+12
 9412 2556 2046     		mov	r0, r4
 9413 2558 FFF7FEFF 		bl	strlen
 9414              	.LVL874:
 9415 255c 0746     		mov	r7, r0
 9416 255e 2618     		adds	r6, r4, r0
 9417 2560 7D4D     		ldr	r5, .L533+16
 9418 2562 0FCD     		ldmia	r5!, {r0, r1, r2, r3}
 9419 2564 E051     		str	r0, [r4, r7]	@ unaligned
 9420 2566 7160     		str	r1, [r6, #4]	@ unaligned
 9421 2568 B260     		str	r2, [r6, #8]	@ unaligned
 9422 256a F360     		str	r3, [r6, #12]	@ unaligned
 9423 256c 03CD     		ldmia	r5!, {r0, r1}
 9424 256e 3061     		str	r0, [r6, #16]	@ unaligned
 9425 2570 7161     		str	r1, [r6, #20]	@ unaligned
 9426 2572 2B78     		ldrb	r3, [r5]	@ zero_extendqisi2
 9427 2574 3376     		strb	r3, [r6, #24]
1383:TinyBasic.c   ****   strcat(s,"0144 2F;   221 :R3   LB 1             <\n");
 9428              		.loc 1 1383 0
 9429 2576 2046     		mov	r0, r4
 9430 2578 FFF7FEFF 		bl	strlen
 9431              	.LVL875:
 9432 257c 774D     		ldr	r5, .L533+20
 9433 257e 0444     		add	r4, r4, r0
 9434 2580 05F12007 		add	r7, r5, #32
 9435              	.L498:
 9436 2584 2E46     		mov	r6, r5
 9437 2586 0FCE     		ldmia	r6!, {r0, r1, r2, r3}
 9438 2588 2060     		str	r0, [r4]	@ unaligned
 9439 258a 6160     		str	r1, [r4, #4]	@ unaligned
 9440 258c A260     		str	r2, [r4, #8]	@ unaligned
 9441 258e E360     		str	r3, [r4, #12]	@ unaligned
 9442 2590 3546     		mov	r5, r6
 9443 2592 1034     		adds	r4, r4, #16
 9444 2594 BE42     		cmp	r6, r7
 9445 2596 F5D1     		bne	.L498
 9446 2598 03CD     		ldmia	r5!, {r0, r1}
 9447 259a 2060     		str	r0, [r4]	@ unaligned
 9448 259c 6160     		str	r1, [r4, #4]	@ unaligned
 9449 259e 2B78     		ldrb	r3, [r5]	@ zero_extendqisi2
 9450 25a0 2372     		strb	r3, [r4, #8]
1384:TinyBasic.c   ****   strcat(s,"0145 0901; 222       RT\n");
 9451              		.loc 1 1384 0
 9452 25a2 6C4C     		ldr	r4, .L533+12
 9453 25a4 2046     		mov	r0, r4
 9454 25a6 FFF7FEFF 		bl	strlen
 9455              	.LVL876:
 9456 25aa 0746     		mov	r7, r0
ARM GAS  C:\Users\doug_000\AppData\Local\Temp\ccbaKQF3.s 			page 192


 9457 25ac 2618     		adds	r6, r4, r0
 9458 25ae 6C4D     		ldr	r5, .L533+24
 9459 25b0 0FCD     		ldmia	r5!, {r0, r1, r2, r3}
 9460 25b2 E051     		str	r0, [r4, r7]	@ unaligned
 9461 25b4 7160     		str	r1, [r6, #4]	@ unaligned
 9462 25b6 B260     		str	r2, [r6, #8]	@ unaligned
 9463 25b8 F360     		str	r3, [r6, #12]	@ unaligned
 9464 25ba 03CD     		ldmia	r5!, {r0, r1}
 9465 25bc 3061     		str	r0, [r6, #16]	@ unaligned
 9466 25be 7161     		str	r1, [r6, #20]	@ unaligned
 9467 25c0 2B78     		ldrb	r3, [r5]	@ zero_extendqisi2
 9468 25c2 3376     		strb	r3, [r6, #24]
1385:TinyBasic.c   ****   strcat(s,"0147 2F;   223 :R4   BC * \">\"\n");
 9469              		.loc 1 1385 0
 9470 25c4 2046     		mov	r0, r4
 9471 25c6 FFF7FEFF 		bl	strlen
 9472              	.LVL877:
 9473 25ca 0746     		mov	r7, r0
 9474 25cc 2618     		adds	r6, r4, r0
 9475 25ce 654D     		ldr	r5, .L533+28
 9476 25d0 0FCD     		ldmia	r5!, {r0, r1, r2, r3}
 9477 25d2 E051     		str	r0, [r4, r7]	@ unaligned
 9478 25d4 7160     		str	r1, [r6, #4]	@ unaligned
 9479 25d6 B260     		str	r2, [r6, #8]	@ unaligned
 9480 25d8 F360     		str	r3, [r6, #12]	@ unaligned
 9481 25da 07CD     		ldmia	r5!, {r0, r1, r2}
 9482 25dc 3061     		str	r0, [r6, #16]	@ unaligned
 9483 25de 7161     		str	r1, [r6, #20]	@ unaligned
 9484 25e0 B261     		str	r2, [r6, #24]	@ unaligned
 9485 25e2 2A88     		ldrh	r2, [r5]	@ unaligned
 9486 25e4 AB78     		ldrb	r3, [r5, #2]	@ zero_extendqisi2
 9487 25e6 B283     		strh	r2, [r6, #28]	@ unaligned
 9488 25e8 B377     		strb	r3, [r6, #30]
1386:TinyBasic.c   ****   strcat(s,"0148 80BE; 224       BC R5 \"=\"\n");
 9489              		.loc 1 1386 0
 9490 25ea 2046     		mov	r0, r4
 9491 25ec FFF7FEFF 		bl	strlen
 9492              	.LVL878:
 9493 25f0 0746     		mov	r7, r0
 9494 25f2 2618     		adds	r6, r4, r0
 9495 25f4 5C4D     		ldr	r5, .L533+32
 9496 25f6 0FCD     		ldmia	r5!, {r0, r1, r2, r3}
 9497 25f8 E051     		str	r0, [r4, r7]	@ unaligned
 9498 25fa 7160     		str	r1, [r6, #4]	@ unaligned
 9499 25fc B260     		str	r2, [r6, #8]	@ unaligned
 9500 25fe F360     		str	r3, [r6, #12]	@ unaligned
 9501 2600 0FCD     		ldmia	r5!, {r0, r1, r2, r3}
 9502 2602 3061     		str	r0, [r6, #16]	@ unaligned
 9503 2604 7161     		str	r1, [r6, #20]	@ unaligned
 9504 2606 B261     		str	r2, [r6, #24]	@ unaligned
 9505 2608 F361     		str	r3, [r6, #28]	@ unaligned
1387:TinyBasic.c   ****   strcat(s,"014A 84BD; 225       LB 6             >=\n");
 9506              		.loc 1 1387 0
 9507 260a 2046     		mov	r0, r4
 9508 260c FFF7FEFF 		bl	strlen
 9509              	.LVL879:
 9510 2610 564D     		ldr	r5, .L533+36
ARM GAS  C:\Users\doug_000\AppData\Local\Temp\ccbaKQF3.s 			page 193


 9511 2612 0444     		add	r4, r4, r0
 9512 2614 05F12007 		add	r7, r5, #32
 9513              	.L499:
 9514 2618 2E46     		mov	r6, r5
 9515 261a 0FCE     		ldmia	r6!, {r0, r1, r2, r3}
 9516 261c 2060     		str	r0, [r4]	@ unaligned
 9517 261e 6160     		str	r1, [r4, #4]	@ unaligned
 9518 2620 A260     		str	r2, [r4, #8]	@ unaligned
 9519 2622 E360     		str	r3, [r4, #12]	@ unaligned
 9520 2624 3546     		mov	r5, r6
 9521 2626 1034     		adds	r4, r4, #16
 9522 2628 BE42     		cmp	r6, r7
 9523 262a F5D1     		bne	.L499
 9524 262c 03CD     		ldmia	r5!, {r0, r1}
 9525 262e 2060     		str	r0, [r4]	@ unaligned
 9526 2630 6160     		str	r1, [r4, #4]	@ unaligned
 9527 2632 2B88     		ldrh	r3, [r5]	@ unaligned
 9528 2634 2381     		strh	r3, [r4, #8]	@ unaligned
1388:TinyBasic.c   ****   strcat(s,"014C 0906; 226       RT\n");
 9529              		.loc 1 1388 0
 9530 2636 474C     		ldr	r4, .L533+12
 9531 2638 2046     		mov	r0, r4
 9532 263a FFF7FEFF 		bl	strlen
 9533              	.LVL880:
 9534 263e 0746     		mov	r7, r0
 9535 2640 2618     		adds	r6, r4, r0
 9536 2642 4B4D     		ldr	r5, .L533+40
 9537 2644 0FCD     		ldmia	r5!, {r0, r1, r2, r3}
 9538 2646 E051     		str	r0, [r4, r7]	@ unaligned
 9539 2648 7160     		str	r1, [r6, #4]	@ unaligned
 9540 264a B260     		str	r2, [r6, #8]	@ unaligned
 9541 264c F360     		str	r3, [r6, #12]	@ unaligned
 9542 264e 03CD     		ldmia	r5!, {r0, r1}
 9543 2650 3061     		str	r0, [r6, #16]	@ unaligned
 9544 2652 7161     		str	r1, [r6, #20]	@ unaligned
 9545 2654 2B78     		ldrb	r3, [r5]	@ zero_extendqisi2
 9546 2656 3376     		strb	r3, [r6, #24]
1389:TinyBasic.c   ****   strcat(s,"014E 2F;   227 :R5   BC R6 \"<\"\n");
 9547              		.loc 1 1389 0
 9548 2658 2046     		mov	r0, r4
 9549 265a FFF7FEFF 		bl	strlen
 9550              	.LVL881:
 9551 265e 0746     		mov	r7, r0
 9552 2660 2618     		adds	r6, r4, r0
 9553 2662 444D     		ldr	r5, .L533+44
 9554 2664 0FCD     		ldmia	r5!, {r0, r1, r2, r3}
 9555 2666 E051     		str	r0, [r4, r7]	@ unaligned
 9556 2668 7160     		str	r1, [r6, #4]	@ unaligned
 9557 266a B260     		str	r2, [r6, #8]	@ unaligned
 9558 266c F360     		str	r3, [r6, #12]	@ unaligned
 9559 266e 0FCD     		ldmia	r5!, {r0, r1, r2, r3}
 9560 2670 3061     		str	r0, [r6, #16]	@ unaligned
 9561 2672 7161     		str	r1, [r6, #20]	@ unaligned
 9562 2674 B261     		str	r2, [r6, #24]	@ unaligned
 9563 2676 F361     		str	r3, [r6, #28]	@ unaligned
1390:TinyBasic.c   ****   strcat(s,"014F 84BC; 228       LB 5             ><\n");
 9564              		.loc 1 1390 0
ARM GAS  C:\Users\doug_000\AppData\Local\Temp\ccbaKQF3.s 			page 194


 9565 2678 2046     		mov	r0, r4
 9566 267a FFF7FEFF 		bl	strlen
 9567              	.LVL882:
 9568 267e 3E4D     		ldr	r5, .L533+48
 9569 2680 0444     		add	r4, r4, r0
 9570 2682 05F12007 		add	r7, r5, #32
 9571              	.L500:
 9572 2686 2E46     		mov	r6, r5
 9573 2688 0FCE     		ldmia	r6!, {r0, r1, r2, r3}
 9574 268a 2060     		str	r0, [r4]	@ unaligned
 9575 268c 6160     		str	r1, [r4, #4]	@ unaligned
 9576 268e A260     		str	r2, [r4, #8]	@ unaligned
 9577 2690 E360     		str	r3, [r4, #12]	@ unaligned
 9578 2692 3546     		mov	r5, r6
 9579 2694 1034     		adds	r4, r4, #16
 9580 2696 BE42     		cmp	r6, r7
 9581 2698 F5D1     		bne	.L500
 9582 269a 03CD     		ldmia	r5!, {r0, r1}
 9583 269c 2060     		str	r0, [r4]	@ unaligned
 9584 269e 6160     		str	r1, [r4, #4]	@ unaligned
 9585 26a0 2B88     		ldrh	r3, [r5]	@ unaligned
 9586 26a2 2381     		strh	r3, [r4, #8]	@ unaligned
1391:TinyBasic.c   ****   strcat(s,"0151 0905; 229       RT\n");
 9587              		.loc 1 1391 0
 9588 26a4 2B4C     		ldr	r4, .L533+12
 9589 26a6 2046     		mov	r0, r4
 9590 26a8 FFF7FEFF 		bl	strlen
 9591              	.LVL883:
 9592 26ac 0746     		mov	r7, r0
 9593 26ae 2618     		adds	r6, r4, r0
 9594 26b0 324D     		ldr	r5, .L533+52
 9595 26b2 0FCD     		ldmia	r5!, {r0, r1, r2, r3}
 9596 26b4 E051     		str	r0, [r4, r7]	@ unaligned
 9597 26b6 7160     		str	r1, [r6, #4]	@ unaligned
 9598 26b8 B260     		str	r2, [r6, #8]	@ unaligned
 9599 26ba F360     		str	r3, [r6, #12]	@ unaligned
 9600 26bc 03CD     		ldmia	r5!, {r0, r1}
 9601 26be 3061     		str	r0, [r6, #16]	@ unaligned
 9602 26c0 7161     		str	r1, [r6, #20]	@ unaligned
 9603 26c2 2B78     		ldrb	r3, [r5]	@ zero_extendqisi2
 9604 26c4 3376     		strb	r3, [r6, #24]
1392:TinyBasic.c   ****   strcat(s,"0153 2F;   230 :R6   LB 4             >\n");
 9605              		.loc 1 1392 0
 9606 26c6 2046     		mov	r0, r4
 9607 26c8 FFF7FEFF 		bl	strlen
 9608              	.LVL884:
 9609 26cc 2C4D     		ldr	r5, .L533+56
 9610 26ce 0444     		add	r4, r4, r0
 9611 26d0 05F12007 		add	r7, r5, #32
 9612              	.L501:
 9613 26d4 2E46     		mov	r6, r5
 9614 26d6 0FCE     		ldmia	r6!, {r0, r1, r2, r3}
 9615 26d8 2060     		str	r0, [r4]	@ unaligned
 9616 26da 6160     		str	r1, [r4, #4]	@ unaligned
 9617 26dc A260     		str	r2, [r4, #8]	@ unaligned
 9618 26de E360     		str	r3, [r4, #12]	@ unaligned
 9619 26e0 3546     		mov	r5, r6
ARM GAS  C:\Users\doug_000\AppData\Local\Temp\ccbaKQF3.s 			page 195


 9620 26e2 1034     		adds	r4, r4, #16
 9621 26e4 BE42     		cmp	r6, r7
 9622 26e6 F5D1     		bne	.L501
 9623 26e8 03CD     		ldmia	r5!, {r0, r1}
 9624 26ea 2060     		str	r0, [r4]	@ unaligned
 9625 26ec 6160     		str	r1, [r4, #4]	@ unaligned
 9626 26ee 2B78     		ldrb	r3, [r5]	@ zero_extendqisi2
 9627 26f0 2372     		strb	r3, [r4, #8]
1393:TinyBasic.c   ****   strcat(s,"0154 0904; 231       RT\n");
 9628              		.loc 1 1393 0
 9629 26f2 184D     		ldr	r5, .L533+12
 9630 26f4 2846     		mov	r0, r5
 9631 26f6 FFF7FEFF 		bl	strlen
 9632              	.LVL885:
 9633 26fa 0746     		mov	r7, r0
 9634 26fc 2E18     		adds	r6, r5, r0
 9635 26fe 214C     		ldr	r4, .L533+60
 9636 2700 0FCC     		ldmia	r4!, {r0, r1, r2, r3}
 9637 2702 E851     		str	r0, [r5, r7]	@ unaligned
 9638 2704 7160     		str	r1, [r6, #4]	@ unaligned
 9639 2706 B260     		str	r2, [r6, #8]	@ unaligned
 9640 2708 F360     		str	r3, [r6, #12]	@ unaligned
 9641 270a 03CC     		ldmia	r4!, {r0, r1}
 9642 270c 3061     		str	r0, [r6, #16]	@ unaligned
 9643 270e 7161     		str	r1, [r6, #20]	@ unaligned
 9644 2710 2378     		ldrb	r3, [r4]	@ zero_extendqisi2
 9645 2712 3376     		strb	r3, [r6, #24]
1394:TinyBasic.c   ****   strcat(s,"0156 2F;   232 .\n");
 9646              		.loc 1 1394 0
 9647 2714 2846     		mov	r0, r5
 9648 2716 FFF7FEFF 		bl	strlen
 9649              	.LVL886:
 9650 271a 0746     		mov	r7, r0
 9651 271c 2E18     		adds	r6, r5, r0
 9652 271e 1A4C     		ldr	r4, .L533+64
 9653 2720 0FCC     		ldmia	r4!, {r0, r1, r2, r3}
 9654 2722 E851     		str	r0, [r5, r7]	@ unaligned
 9655 2724 7160     		str	r1, [r6, #4]	@ unaligned
 9656 2726 B260     		str	r2, [r6, #8]	@ unaligned
 9657 2728 F360     		str	r3, [r6, #12]	@ unaligned
 9658 272a 2388     		ldrh	r3, [r4]	@ unaligned
 9659 272c 3382     		strh	r3, [r6, #16]	@ unaligned
1395:TinyBasic.c   ****   strcat(s,"0157 ;    0000\n");
 9660              		.loc 1 1395 0
 9661 272e 2846     		mov	r0, r5
 9662 2730 FFF7FEFF 		bl	strlen
 9663              	.LVL887:
 9664 2734 0746     		mov	r7, r0
 9665 2736 2E18     		adds	r6, r5, r0
 9666 2738 144C     		ldr	r4, .L533+68
 9667 273a 0FCC     		ldmia	r4!, {r0, r1, r2, r3}
 9668 273c E851     		str	r0, [r5, r7]	@ unaligned
 9669 273e 7160     		str	r1, [r6, #4]	@ unaligned
 9670 2740 B260     		str	r2, [r6, #8]	@ unaligned
 9671 2742 F360     		str	r3, [r6, #12]	@ unaligned
1396:TinyBasic.c   ****   return s;} /* ~DefaultIL */
 9672              		.loc 1 1396 0
ARM GAS  C:\Users\doug_000\AppData\Local\Temp\ccbaKQF3.s 			page 196


 9673 2744 2846     		mov	r0, r5
 9674 2746 F8BD     		pop	{r3, r4, r5, r6, r7, pc}
 9675              	.L534:
 9676              		.align	2
 9677              	.L533:
 9678 2748 30240000 		.word	.LC271
 9679 274c 4C240000 		.word	.LC272
 9680 2750 6C240000 		.word	.LC273
 9681 2754 18000000 		.word	.LANCHOR0+24
 9682 2758 98240000 		.word	.LC274
 9683 275c B4240000 		.word	.LC275
 9684 2760 E0240000 		.word	.LC276
 9685 2764 FC240000 		.word	.LC277
 9686 2768 1C250000 		.word	.LC278
 9687 276c 3C250000 		.word	.LC279
 9688 2770 68250000 		.word	.LC280
 9689 2774 84250000 		.word	.LC281
 9690 2778 A4250000 		.word	.LC282
 9691 277c D0250000 		.word	.LC283
 9692 2780 EC250000 		.word	.LC284
 9693 2784 18260000 		.word	.LC285
 9694 2788 34260000 		.word	.LC286
 9695 278c 48260000 		.word	.LC287
 9696              		.cfi_endproc
 9697              	.LFE34:
 9698              		.size	DefaultIL, .-DefaultIL
 9699              		.section	.text.StartTinyBasic,"ax",%progbits
 9700              		.align	2
 9701              		.global	StartTinyBasic
 9702              		.thumb
 9703              		.thumb_func
 9704              		.type	StartTinyBasic, %function
 9705              	StartTinyBasic:
 9706              	.LFB35:
1397:TinyBasic.c   **** 
1398:TinyBasic.c   **** /**************************** Startup Code ****************************/
1399:TinyBasic.c   **** 
1400:TinyBasic.c   **** void StartTinyBasic(char* ILtext) {
 9707              		.loc 1 1400 0
 9708              		.cfi_startproc
 9709              		@ args = 0, pretend = 0, frame = 0
 9710              		@ frame_needed = 0, uses_anonymous_args = 0
 9711              	.LVL888:
 9712 0000 10B5     		push	{r4, lr}
 9713              		.cfi_def_cfa_offset 8
 9714              		.cfi_offset 4, -8
 9715              		.cfi_offset 14, -4
 9716 0002 0446     		mov	r4, r0
 9717              	.LVL889:
1401:TinyBasic.c   ****   int nx;
1402:TinyBasic.c   ****   for (nx=0; nx<CoreTop; nx++) Core[nx] = 0;          /* clear Core.. */
 9718              		.loc 1 1402 0
 9719 0004 0023     		movs	r3, #0
 9720 0006 03E0     		b	.L536
 9721              	.LVL890:
 9722              	.L537:
 9723              		.loc 1 1402 0 is_stmt 0 discriminator 3
ARM GAS  C:\Users\doug_000\AppData\Local\Temp\ccbaKQF3.s 			page 197


 9724 0008 0021     		movs	r1, #0
 9725 000a 264A     		ldr	r2, .L548
 9726 000c D154     		strb	r1, [r2, r3]
 9727 000e 0133     		adds	r3, r3, #1
 9728              	.LVL891:
 9729              	.L536:
 9730              		.loc 1 1402 0 discriminator 1
 9731 0010 B3F5804F 		cmp	r3, #16384
 9732 0014 F8DB     		blt	.L537
1403:TinyBasic.c   ****   Poke2(ExpnStk,8191);                          /* random number seed */
 9733              		.loc 1 1403 0 is_stmt 1
 9734 0016 8020     		movs	r0, #128
 9735              	.LVL892:
 9736 0018 41F6FF71 		movw	r1, #8191
 9737 001c FFF7FEFF 		bl	Poke2
 9738              	.LVL893:
1404:TinyBasic.c   ****   Core[BScode] = 8; /* backspace */
 9739              		.loc 1 1404 0
 9740 0020 204B     		ldr	r3, .L548
 9741 0022 0822     		movs	r2, #8
 9742 0024 83F80F21 		strb	r2, [r3, #271]
1405:TinyBasic.c   ****   Core[CanCode] = 27; /*escape */
 9743              		.loc 1 1405 0
 9744 0028 1B22     		movs	r2, #27
 9745 002a 83F81021 		strb	r2, [r3, #272]
 9746              	.LVL894:
1406:TinyBasic.c   ****   for (nx=0; nx<32; nx++) DeCaps[nx] = '\0';     /* fill caps table.. */
 9747              		.loc 1 1406 0
 9748 002e 0023     		movs	r3, #0
 9749 0030 03E0     		b	.L538
 9750              	.LVL895:
 9751              	.L539:
 9752              		.loc 1 1406 0 is_stmt 0 discriminator 3
 9753 0032 0021     		movs	r1, #0
 9754 0034 1C4A     		ldr	r2, .L548+4
 9755 0036 D154     		strb	r1, [r2, r3]
 9756 0038 0133     		adds	r3, r3, #1
 9757              	.LVL896:
 9758              	.L538:
 9759              		.loc 1 1406 0 discriminator 1
 9760 003a 1F2B     		cmp	r3, #31
 9761 003c F9DD     		ble	.L539
 9762 003e 2023     		movs	r3, #32
 9763              	.LVL897:
 9764 0040 02E0     		b	.L540
 9765              	.LVL898:
 9766              	.L541:
1407:TinyBasic.c   ****   for (nx=32; nx<127; nx++) DeCaps[nx] = (char)nx;
 9767              		.loc 1 1407 0 is_stmt 1 discriminator 3
 9768 0042 194A     		ldr	r2, .L548+4
 9769 0044 D354     		strb	r3, [r2, r3]
 9770 0046 0133     		adds	r3, r3, #1
 9771              	.LVL899:
 9772              	.L540:
 9773              		.loc 1 1407 0 is_stmt 0 discriminator 1
 9774 0048 7E2B     		cmp	r3, #126
 9775 004a FADD     		ble	.L541
ARM GAS  C:\Users\doug_000\AppData\Local\Temp\ccbaKQF3.s 			page 198


 9776 004c 4123     		movs	r3, #65
 9777              	.LVL900:
 9778 004e 04E0     		b	.L542
 9779              	.LVL901:
 9780              	.L543:
1408:TinyBasic.c   ****   for (nx=65; nx<91; nx++) DeCaps[nx+32] = (char)nx;
 9781              		.loc 1 1408 0 is_stmt 1 discriminator 3
 9782 0050 03F12002 		add	r2, r3, #32
 9783 0054 1449     		ldr	r1, .L548+4
 9784 0056 8B54     		strb	r3, [r1, r2]
 9785 0058 0133     		adds	r3, r3, #1
 9786              	.LVL902:
 9787              	.L542:
 9788              		.loc 1 1408 0 is_stmt 0 discriminator 1
 9789 005a 5A2B     		cmp	r3, #90
 9790 005c F8DD     		ble	.L543
1409:TinyBasic.c   ****   DeCaps[9] = ' ';
 9791              		.loc 1 1409 0 is_stmt 1
 9792 005e 124B     		ldr	r3, .L548+4
 9793              	.LVL903:
 9794 0060 2022     		movs	r2, #32
 9795 0062 5A72     		strb	r2, [r3, #9]
1410:TinyBasic.c   ****   DeCaps[10] = '\r';
 9796              		.loc 1 1410 0
 9797 0064 0D22     		movs	r2, #13
 9798 0066 9A72     		strb	r2, [r3, #10]
1411:TinyBasic.c   ****   DeCaps[13] = '\r';
 9799              		.loc 1 1411 0
 9800 0068 5A73     		strb	r2, [r3, #13]
1412:TinyBasic.c   ****   DeCaps[127] = '\0';
 9801              		.loc 1 1412 0
 9802 006a 0022     		movs	r2, #0
 9803 006c 83F87F20 		strb	r2, [r3, #127]
1413:TinyBasic.c   ****   if (ILtext == NULL) ILtext = DefaultIL();  /* no IL given, use mine */
 9804              		.loc 1 1413 0
 9805 0070 14B9     		cbnz	r4, .L544
 9806              		.loc 1 1413 0 is_stmt 0 discriminator 1
 9807 0072 FFF7FEFF 		bl	DefaultIL
 9808              	.LVL904:
 9809 0076 0446     		mov	r4, r0
 9810              	.LVL905:
 9811              	.L544:
1414:TinyBasic.c   ****   ConvtIL(ILtext);              /* convert IL assembly code to binary */
 9812              		.loc 1 1414 0 is_stmt 1
 9813 0078 2046     		mov	r0, r4
 9814 007a FFF7FEFF 		bl	ConvtIL
 9815              	.LVL906:
1415:TinyBasic.c   ****   ColdStart();
 9816              		.loc 1 1415 0
 9817 007e FFF7FEFF 		bl	ColdStart
 9818              	.LVL907:
1416:TinyBasic.c   ****   Interp();                                               /* go do it */
 9819              		.loc 1 1416 0
 9820 0082 FFF7FEFF 		bl	Interp
 9821              	.LVL908:
1417:TinyBasic.c   ****   if (oFile != NULL) IoFileClose(oFile);         /* close output file */
 9822              		.loc 1 1417 0
ARM GAS  C:\Users\doug_000\AppData\Local\Temp\ccbaKQF3.s 			page 199


 9823 0086 094B     		ldr	r3, .L548+8
 9824 0088 1868     		ldr	r0, [r3]
 9825 008a 08B1     		cbz	r0, .L545
 9826              		.loc 1 1417 0 is_stmt 0 discriminator 1
 9827 008c FFF7FEFF 		bl	fclose
 9828              	.LVL909:
 9829              	.L545:
1418:TinyBasic.c   ****   if (inFile != NULL) IoFileClose(inFile);        /* close input file */
 9830              		.loc 1 1418 0 is_stmt 1
 9831 0090 064B     		ldr	r3, .L548+8
 9832 0092 5868     		ldr	r0, [r3, #4]
 9833 0094 08B1     		cbz	r0, .L546
 9834              		.loc 1 1418 0 is_stmt 0 discriminator 1
 9835 0096 FFF7FEFF 		bl	fclose
 9836              	.LVL910:
 9837              	.L546:
1419:TinyBasic.c   ****   oFile = NULL;
 9838              		.loc 1 1419 0 is_stmt 1
 9839 009a 044B     		ldr	r3, .L548+8
 9840 009c 0022     		movs	r2, #0
 9841 009e 1A60     		str	r2, [r3]
1420:TinyBasic.c   ****   inFile = NULL;} /* ~StartTinyBasic */
 9842              		.loc 1 1420 0
 9843 00a0 5A60     		str	r2, [r3, #4]
 9844 00a2 10BD     		pop	{r4, pc}
 9845              	.LVL911:
 9846              	.L549:
 9847              		.align	2
 9848              	.L548:
 9849 00a4 00000000 		.word	Core
 9850 00a8 00000000 		.word	DeCaps
 9851 00ac 00000000 		.word	.LANCHOR0
 9852              		.cfi_endproc
 9853              	.LFE35:
 9854              		.size	StartTinyBasic, .-StartTinyBasic
 9855              		.section	.text.mainTinyBASIC,"ax",%progbits
 9856              		.align	2
 9857              		.global	mainTinyBASIC
 9858              		.thumb
 9859              		.thumb_func
 9860              		.type	mainTinyBASIC, %function
 9861              	mainTinyBASIC:
 9862              	.LFB36:
1421:TinyBasic.c   **** 
1422:TinyBasic.c   **** int mainTinyBASIC(int argc, char* argv[]) {
 9863              		.loc 1 1422 0
 9864              		.cfi_startproc
 9865              		@ args = 0, pretend = 0, frame = 0
 9866              		@ frame_needed = 0, uses_anonymous_args = 0
 9867              	.LVL912:
 9868 0000 2DE9F843 		push	{r3, r4, r5, r6, r7, r8, r9, lr}
 9869              		.cfi_def_cfa_offset 32
 9870              		.cfi_offset 3, -32
 9871              		.cfi_offset 4, -28
 9872              		.cfi_offset 5, -24
 9873              		.cfi_offset 6, -20
 9874              		.cfi_offset 7, -16
ARM GAS  C:\Users\doug_000\AppData\Local\Temp\ccbaKQF3.s 			page 200


 9875              		.cfi_offset 8, -12
 9876              		.cfi_offset 9, -8
 9877              		.cfi_offset 14, -4
 9878 0004 0646     		mov	r6, r0
 9879 0006 0D46     		mov	r5, r1
 9880              	.LVL913:
1423:TinyBasic.c   ****   int nx;
1424:TinyBasic.c   ****   long int len;
1425:TinyBasic.c   ****   char* IL = NULL;
1426:TinyBasic.c   ****   FileType tmpFile;
1427:TinyBasic.c   ****   inFile = NULL;
 9881              		.loc 1 1427 0
 9882 0008 4A4B     		ldr	r3, .L563
 9883 000a 0020     		movs	r0, #0
 9884              	.LVL914:
 9885 000c 5860     		str	r0, [r3, #4]
1428:TinyBasic.c   ****   oFile = NULL;
 9886              		.loc 1 1428 0
 9887 000e 1860     		str	r0, [r3]
 9888              	.LVL915:
1425:TinyBasic.c   ****   FileType tmpFile;
 9889              		.loc 1 1425 0
 9890 0010 0746     		mov	r7, r0
1429:TinyBasic.c   ****   for (nx=1; nx<argc; nx++) {         /* look for command-line args.. */
 9891              		.loc 1 1429 0
 9892 0012 0124     		movs	r4, #1
 9893 0014 74E0     		b	.L551
 9894              	.LVL916:
 9895              	.L559:
1430:TinyBasic.c   ****     if (strcmp(argv[nx],"-b")==0 && ++nx<argc) {     /* alt IL file.. */
 9896              		.loc 1 1430 0
 9897 0016 55F82400 		ldr	r0, [r5, r4, lsl #2]
 9898 001a 4749     		ldr	r1, .L563+4
 9899 001c FFF7FEFF 		bl	strcmp
 9900              	.LVL917:
 9901 0020 0028     		cmp	r0, #0
 9902 0022 40D1     		bne	.L552
 9903              		.loc 1 1430 0 is_stmt 0 discriminator 1
 9904 0024 0134     		adds	r4, r4, #1
 9905              	.LVL918:
 9906 0026 B442     		cmp	r4, r6
 9907 0028 3DDA     		bge	.L552
1431:TinyBasic.c   ****       tmpFile = fopen(argv[nx],"r");
 9908              		.loc 1 1431 0 is_stmt 1
 9909 002a 4FEA8409 		lsl	r9, r4, #2
 9910 002e 55F82400 		ldr	r0, [r5, r4, lsl #2]
 9911 0032 4249     		ldr	r1, .L563+8
 9912 0034 FFF7FEFF 		bl	fopen
 9913              	.LVL919:
1432:TinyBasic.c   ****       if (tmpFile != NULL) if (fseek(tmpFile,0,SEEK_END)==0) {
 9914              		.loc 1 1432 0
 9915 0038 8046     		mov	r8, r0
 9916 003a 0028     		cmp	r0, #0
 9917 003c 5FD0     		beq	.L553
 9918              		.loc 1 1432 0 is_stmt 0 discriminator 1
 9919 003e 0021     		movs	r1, #0
 9920 0040 0222     		movs	r2, #2
ARM GAS  C:\Users\doug_000\AppData\Local\Temp\ccbaKQF3.s 			page 201


 9921 0042 FFF7FEFF 		bl	fseek
 9922              	.LVL920:
 9923 0046 40BB     		cbnz	r0, .L554
1433:TinyBasic.c   ****         len = ftell(tmpFile);                      /* get file size.. */
 9924              		.loc 1 1433 0 is_stmt 1
 9925 0048 4046     		mov	r0, r8
 9926 004a FFF7FEFF 		bl	ftell
 9927              	.LVL921:
 9928 004e 8146     		mov	r9, r0
 9929              	.LVL922:
1434:TinyBasic.c   ****         if (fseek(tmpFile,0,SEEK_SET)==0) if (len>9) {
 9930              		.loc 1 1434 0
 9931 0050 4046     		mov	r0, r8
 9932              	.LVL923:
 9933 0052 0021     		movs	r1, #0
 9934 0054 0A46     		mov	r2, r1
 9935 0056 FFF7FEFF 		bl	fseek
 9936              	.LVL924:
 9937 005a 0028     		cmp	r0, #0
 9938 005c 4FD1     		bne	.L553
 9939              		.loc 1 1434 0 is_stmt 0 discriminator 1
 9940 005e B9F1090F 		cmp	r9, #9
 9941 0062 4CDD     		ble	.L553
1435:TinyBasic.c   ****           len = len/8+len;            /* allow for line end expansion */
 9942              		.loc 1 1435 0 is_stmt 1
 9943 0064 4B46     		mov	r3, r9
 9944 0066 B9F1000F 		cmp	r9, #0
 9945 006a 01DA     		bge	.L555
 9946 006c 09F10703 		add	r3, r9, #7
 9947              	.L555:
 9948 0070 09EBE309 		add	r9, r9, r3, asr #3
 9949              	.LVL925:
1436:TinyBasic.c   ****           IL = (char*)malloc(len+1);
 9950              		.loc 1 1436 0
 9951 0074 09F10100 		add	r0, r9, #1
 9952 0078 FFF7FEFF 		bl	malloc
 9953              	.LVL926:
1437:TinyBasic.c   ****           if (IL != NULL) len = fread(IL,1,len,tmpFile);
 9954              		.loc 1 1437 0
 9955 007c 0746     		mov	r7, r0
 9956 007e 28B1     		cbz	r0, .L556
 9957              		.loc 1 1437 0 is_stmt 0 discriminator 1
 9958 0080 0121     		movs	r1, #1
 9959 0082 4A46     		mov	r2, r9
 9960 0084 4346     		mov	r3, r8
 9961 0086 FFF7FEFF 		bl	fread
 9962              	.LVL927:
 9963 008a 8146     		mov	r9, r0
 9964              	.LVL928:
 9965              	.L556:
1438:TinyBasic.c   ****           IL[len] = '\0';
 9966              		.loc 1 1438 0 is_stmt 1
 9967 008c 0023     		movs	r3, #0
 9968 008e 07F80930 		strb	r3, [r7, r9]
1439:TinyBasic.c   ****           IoFileClose(tmpFile);}}
 9969              		.loc 1 1439 0
 9970 0092 4046     		mov	r0, r8
ARM GAS  C:\Users\doug_000\AppData\Local\Temp\ccbaKQF3.s 			page 202


 9971 0094 FFF7FEFF 		bl	fclose
 9972              	.LVL929:
 9973 0098 31E0     		b	.L553
 9974              	.LVL930:
 9975              	.L554:
1440:TinyBasic.c   ****       else printf("Could not open file %s", argv[nx]);}
 9976              		.loc 1 1440 0
 9977 009a 2948     		ldr	r0, .L563+12
 9978 009c 55F80910 		ldr	r1, [r5, r9]
 9979 00a0 FFF7FEFF 		bl	printf
 9980              	.LVL931:
 9981 00a4 2BE0     		b	.L553
 9982              	.LVL932:
 9983              	.L552:
1441:TinyBasic.c   ****     else if (strcmp(argv[nx],"-o")==0 && ++nx<argc)    /* output file */
 9984              		.loc 1 1441 0
 9985 00a6 55F82400 		ldr	r0, [r5, r4, lsl #2]
 9986 00aa 2649     		ldr	r1, .L563+16
 9987 00ac FFF7FEFF 		bl	strcmp
 9988              	.LVL933:
 9989 00b0 50B9     		cbnz	r0, .L557
 9990              		.loc 1 1441 0 is_stmt 0 discriminator 1
 9991 00b2 0134     		adds	r4, r4, #1
 9992              	.LVL934:
 9993 00b4 B442     		cmp	r4, r6
 9994 00b6 07DA     		bge	.L557
1442:TinyBasic.c   ****       oFile = fopen(argv[nx],"w");
 9995              		.loc 1 1442 0 is_stmt 1
 9996 00b8 55F82400 		ldr	r0, [r5, r4, lsl #2]
 9997 00bc 2249     		ldr	r1, .L563+20
 9998 00be FFF7FEFF 		bl	fopen
 9999              	.LVL935:
 10000 00c2 1C4B     		ldr	r3, .L563
 10001 00c4 1860     		str	r0, [r3]
 10002 00c6 1AE0     		b	.L553
 10003              	.L557:
1443:TinyBasic.c   ****     else if (strcmp(argv[nx],"-i")==0 && ++nx<argc)     /* input file */
 10004              		.loc 1 1443 0
 10005 00c8 55F82400 		ldr	r0, [r5, r4, lsl #2]
 10006 00cc 1F49     		ldr	r1, .L563+24
 10007 00ce FFF7FEFF 		bl	strcmp
 10008              	.LVL936:
 10009 00d2 50B9     		cbnz	r0, .L558
 10010              		.loc 1 1443 0 is_stmt 0 discriminator 1
 10011 00d4 0134     		adds	r4, r4, #1
 10012              	.LVL937:
 10013 00d6 B442     		cmp	r4, r6
 10014 00d8 07DA     		bge	.L558
1444:TinyBasic.c   ****       inFile = fopen(argv[nx],"r");
 10015              		.loc 1 1444 0 is_stmt 1
 10016 00da 55F82400 		ldr	r0, [r5, r4, lsl #2]
 10017 00de 1749     		ldr	r1, .L563+8
 10018 00e0 FFF7FEFF 		bl	fopen
 10019              	.LVL938:
 10020 00e4 134B     		ldr	r3, .L563
 10021 00e6 5860     		str	r0, [r3, #4]
 10022 00e8 09E0     		b	.L553
ARM GAS  C:\Users\doug_000\AppData\Local\Temp\ccbaKQF3.s 			page 203


 10023              	.L558:
1445:TinyBasic.c   ****     else if (inFile==NULL)  /* default (unadorned) is also input file */
 10024              		.loc 1 1445 0
 10025 00ea 124B     		ldr	r3, .L563
 10026 00ec 5B68     		ldr	r3, [r3, #4]
 10027 00ee 33B9     		cbnz	r3, .L553
1446:TinyBasic.c   ****       inFile = fopen(argv[nx],"r");}             /* ignore other args */
 10028              		.loc 1 1446 0
 10029 00f0 55F82400 		ldr	r0, [r5, r4, lsl #2]
 10030 00f4 1149     		ldr	r1, .L563+8
 10031 00f6 FFF7FEFF 		bl	fopen
 10032              	.LVL939:
 10033 00fa 0E4B     		ldr	r3, .L563
 10034 00fc 5860     		str	r0, [r3, #4]
 10035              	.L553:
1429:TinyBasic.c   ****     if (strcmp(argv[nx],"-b")==0 && ++nx<argc) {     /* alt IL file.. */
 10036              		.loc 1 1429 0 discriminator 2
 10037 00fe 0134     		adds	r4, r4, #1
 10038              	.LVL940:
 10039              	.L551:
1429:TinyBasic.c   ****     if (strcmp(argv[nx],"-b")==0 && ++nx<argc) {     /* alt IL file.. */
 10040              		.loc 1 1429 0 is_stmt 0 discriminator 1
 10041 0100 B442     		cmp	r4, r6
 10042 0102 88DB     		blt	.L559
1447:TinyBasic.c   **** 
1448:TinyBasic.c   **** #ifdef DefaultInputFile
1449:TinyBasic.c   ****   if (inFile==NULL) inFile = fopen(DefaultInputFile,"r");
 10043              		.loc 1 1449 0 is_stmt 1
 10044 0104 0B4B     		ldr	r3, .L563
 10045 0106 5B68     		ldr	r3, [r3, #4]
 10046 0108 2BB9     		cbnz	r3, .L560
 10047              		.loc 1 1449 0 is_stmt 0 discriminator 1
 10048 010a 1148     		ldr	r0, .L563+28
 10049 010c 0B49     		ldr	r1, .L563+8
 10050 010e FFF7FEFF 		bl	fopen
 10051              	.LVL941:
 10052 0112 084B     		ldr	r3, .L563
 10053 0114 5860     		str	r0, [r3, #4]
 10054              	.L560:
1450:TinyBasic.c   **** #endif
1451:TinyBasic.c   **** #ifdef DefaultOutputFile
1452:TinyBasic.c   ****   if (oFile==NULL) oFile = fopen(DefaultOutputFile,"w");
 10055              		.loc 1 1452 0 is_stmt 1
 10056 0116 074B     		ldr	r3, .L563
 10057 0118 1B68     		ldr	r3, [r3]
 10058 011a 2BB9     		cbnz	r3, .L561
 10059              		.loc 1 1452 0 is_stmt 0 discriminator 1
 10060 011c 0D48     		ldr	r0, .L563+32
 10061 011e 0A49     		ldr	r1, .L563+20
 10062 0120 FFF7FEFF 		bl	fopen
 10063              	.LVL942:
 10064 0124 034B     		ldr	r3, .L563
 10065 0126 1860     		str	r0, [r3]
 10066              	.L561:
1453:TinyBasic.c   **** #endif
1454:TinyBasic.c   **** 
1455:TinyBasic.c   ****   StartTinyBasic(IL);                                     /* go do it */
ARM GAS  C:\Users\doug_000\AppData\Local\Temp\ccbaKQF3.s 			page 204


 10067              		.loc 1 1455 0 is_stmt 1
 10068 0128 3846     		mov	r0, r7
 10069 012a FFF7FEFF 		bl	StartTinyBasic
 10070              	.LVL943:
1456:TinyBasic.c   ****   return 0;} /* ~main */
 10071              		.loc 1 1456 0
 10072 012e 0020     		movs	r0, #0
 10073 0130 BDE8F883 		pop	{r3, r4, r5, r6, r7, r8, r9, pc}
 10074              	.LVL944:
 10075              	.L564:
 10076              		.align	2
 10077              	.L563:
 10078 0134 00000000 		.word	.LANCHOR0
 10079 0138 58260000 		.word	.LC288
 10080 013c 5C260000 		.word	.LC289
 10081 0140 60260000 		.word	.LC290
 10082 0144 78260000 		.word	.LC291
 10083 0148 7C260000 		.word	.LC292
 10084 014c 80260000 		.word	.LC293
 10085 0150 84260000 		.word	.LC294
 10086 0154 90260000 		.word	.LC295
 10087              		.cfi_endproc
 10088              	.LFE36:
 10089              		.size	mainTinyBASIC, .-mainTinyBASIC
 10090              		.global	oFile
 10091              		.global	inFile
 10092              		.global	Broken
 10093              		.comm	XQhere,4,4
 10094              		.comm	ILend,4,4
 10095              		.comm	UserEnd,4,4
 10096              		.comm	SrcEnd,4,4
 10097              		.comm	InLend,4,4
 10098              		.comm	ExpnTop,4,4
 10099              		.comm	SubStk,4,4
 10100              		.comm	SvPt,4,4
 10101              		.comm	BP,4,4
 10102              		.comm	ILPC,4,4
 10103              		.comm	Lino,4,4
 10104              		.comm	DeCaps,128,4
 10105              		.comm	Core,16384,4
 10106              		.comm	Watchee,4,4
 10107              		.global	Watcher
 10108              		.global	LogHere
 10109              		.comm	DebugLog,16384,4
 10110              		.section	.rodata.str1.4,"aMS",%progbits,1
 10111              		.align	2
 10112              	.LC0:
 10113 0000 0D00     		.ascii	"\015\000"
 10114 0002 0000     		.space	2
 10115              	.LC1:
 10116 0004 205B5374 		.ascii	" [Stk \000"
 10116      6B2000
 10117 000b 00       		.space	1
 10118              	.LC2:
 10119 000c 2000     		.ascii	" \000"
 10120 000e 0000     		.space	2
 10121              	.LC3:
ARM GAS  C:\Users\doug_000\AppData\Local\Temp\ccbaKQF3.s 			page 205


 10122 0010 5D00     		.ascii	"]\000"
 10123 0012 0000     		.space	2
 10124              	.LC4:
 10125 0014 205B4578 		.ascii	" [Exp \000"
 10125      702000
 10126 001b 00       		.space	1
 10127              	.LC5:
 10128 001c 2E00     		.ascii	".\000"
 10129 001e 0000     		.space	2
 10130              	.LC6:
 10131 0020 20205B56 		.ascii	"  [Vars\000"
 10131      61727300 
 10132              	.LC7:
 10133 0028 3D00     		.ascii	"=\000"
 10134 002a 0000     		.space	2
 10135              	.LC8:
 10136 002c 3A2000   		.ascii	": \000"
 10137 002f 00       		.space	1
 10138              	.LC9:
 10139 0030 20202000 		.ascii	"   \000"
 10140              	.LC10:
 10141 0034 202000   		.ascii	"  \000"
 10142 0037 00       		.space	1
 10143              	.LC11:
 10144 0038 45727220 		.ascii	"Err \000"
 10144      00
 10145 003d 000000   		.space	3
 10146              	.LC12:
 10147 0040 2020494C 		.ascii	"  IL+\000"
 10147      2B00
 10148 0046 0000     		.space	2
 10149              	.LC13:
 10150 0048 2300     		.ascii	"#\000"
 10151 004a 0000     		.space	2
 10152              	.LC14:
 10153 004c 2100     		.ascii	"!\000"
 10154 004e 0000     		.space	2
 10155              	.LC15:
 10156 0050 2A2A2A20 		.ascii	"*** Activity Log @ \000"
 10156      41637469 
 10156      76697479 
 10156      204C6F67 
 10156      20402000 
 10157              	.LC16:
 10158 0064 202A2A2A 		.ascii	" ***\000"
 10158      00
 10159 0069 000000   		.space	3
 10160              	.LC17:
 10161 006c 2A2A2A2A 		.ascii	"*****\000"
 10161      2A00
 10162 0072 0000     		.space	2
 10163              	.LC18:
 10164 0074 54696E79 		.ascii	"Tiny Basic error #\000"
 10164      20426173 
 10164      69632065 
 10164      72726F72 
 10164      202300
ARM GAS  C:\Users\doug_000\AppData\Local\Temp\ccbaKQF3.s 			page 206


 10165 0087 00       		.space	1
 10166              	.LC19:
 10167 0088 20617420 		.ascii	" at line \000"
 10167      6C696E65 
 10167      2000
 10168 0092 0000     		.space	2
 10169              	.LC20:
 10170 0094 205B4250 		.ascii	" [BP=\000"
 10170      3D00
 10171 009a 0000     		.space	2
 10172              	.LC21:
 10173 009c 2C205442 		.ascii	", TB@\000"
 10173      4000
 10174 00a2 0000     		.space	2
 10175              	.LC22:
 10176 00a4 2C20494C 		.ascii	", IL@\000"
 10176      4000
 10177 00aa 0000     		.space	2
 10178              	.LC23:
 10179 00ac 205B2300 		.ascii	" [#\000"
 10180              	.LC24:
 10181 00b0 2A2A2A20 		.ascii	"*** User Break ***\000"
 10181      55736572 
 10181      20427265 
 10181      616B202A 
 10181      2A2A00
 10182 00c3 00       		.space	1
 10183              	.LC25:
 10184 00c4 5B494C3D 		.ascii	"[IL=\000"
 10184      00
 10185 00c9 000000   		.space	3
 10186              	.LC26:
 10187 00cc 2A2A2A20 		.ascii	"*** Watched \000"
 10187      57617463 
 10187      68656420 
 10187      00
 10188 00d9 000000   		.space	3
 10189              	.LC27:
 10190 00dc 203D2000 		.ascii	" = \000"
 10191              	.LC28:
 10192 00e0 202A2A2A 		.ascii	" *** \000"
 10192      2000
 10193 00e6 0000     		.space	2
 10194              	.LC29:
 10195 00e8 5B494C2B 		.ascii	"[IL+\000"
 10195      00
 10196 00ed 000000   		.space	3
 10197              	.LC30:
 10198 00f0 5B2A2A20 		.ascii	"[** Watch \000"
 10198      57617463 
 10198      682000
 10199 00fb 00       		.space	1
 10200              	.LC31:
 10201 00fc 30303030 		.ascii	"0000 ;       1 .  ORIGINAL TINY BASIC INTERMEDIATE "
 10201      203B2020 
 10201      20202020 
 10201      2031202E 
ARM GAS  C:\Users\doug_000\AppData\Local\Temp\ccbaKQF3.s 			page 207


 10201      20204F52 
 10202 012f 494E5445 		.ascii	"INTERPRETER\012\000"
 10202      52505245 
 10202      5445520A 
 10202      00
 10203              	.LC32:
 10204 013c 30303030 		.ascii	"0000 ;       2 .\012\000"
 10204      203B2020 
 10204      20202020 
 10204      2032202E 
 10204      0A00
 10205 014e 0000     		.space	2
 10206              	.LC33:
 10207 0150 30303030 		.ascii	"0000 ;       3 .  EXECUTIVE INITIALIZATION\012\000"
 10207      203B2020 
 10207      20202020 
 10207      2033202E 
 10207      20204558 
 10208              	.LC34:
 10209 017c 30303030 		.ascii	"0000 ;       4 .\012\000"
 10209      203B2020 
 10209      20202020 
 10209      2034202E 
 10209      0A00
 10210 018e 0000     		.space	2
 10211              	.LC35:
 10212 0190 30303030 		.ascii	"0000 ;       5 :STRT PC \":Q^\"        COLON, X-ON\012"
 10212      203B2020 
 10212      20202020 
 10212      2035203A 
 10212      53545254 
 10213 01c1 00       		.ascii	"\000"
 10214 01c2 0000     		.space	2
 10215              	.LC36:
 10216 01c4 30303030 		.ascii	"0000 243A91;\012\000"
 10216      20323433 
 10216      4139313B 
 10216      0A00
 10217 01d2 0000     		.space	2
 10218              	.LC37:
 10219 01d4 30303033 		.ascii	"0003 ;       6       GL\012\000"
 10219      203B2020 
 10219      20202020 
 10219      20362020 
 10219      20202020 
 10220 01ed 000000   		.space	3
 10221              	.LC38:
 10222 01f0 30303033 		.ascii	"0003 27;     7       SB\012\000"
 10222      2032373B 
 10222      20202020 
 10222      20372020 
 10222      20202020 
 10223 0209 000000   		.space	3
 10224              	.LC39:
 10225 020c 30303034 		.ascii	"0004 10;     8       BE L0           BRANCH IF NOT "
 10225      2031303B 
 10225      20202020 
ARM GAS  C:\Users\doug_000\AppData\Local\Temp\ccbaKQF3.s 			page 208


 10225      20382020 
 10225      20202020 
 10226 023f 454D5054 		.ascii	"EMPTY\012\000"
 10226      590A00
 10227 0246 0000     		.space	2
 10228              	.LC40:
 10229 0248 30303035 		.ascii	"0005 E1;     9       BR STRT         TRY AGAIN IF N"
 10229      2045313B 
 10229      20202020 
 10229      20392020 
 10229      20202020 
 10230 027b 554C4C20 		.ascii	"ULL LINE\012\000"
 10230      4C494E45 
 10230      0A00
 10231 0285 000000   		.space	3
 10232              	.LC41:
 10233 0288 30303036 		.ascii	"0006 59;    10 :L0   BN STMT         TEST FOR LINE "
 10233      2035393B 
 10233      20202020 
 10233      3130203A 
 10233      4C302020 
 10234 02bb 4E554D42 		.ascii	"NUMBER\012\000"
 10234      45520A00 
 10235 02c3 00       		.space	1
 10236              	.LC42:
 10237 02c4 30303037 		.ascii	"0007 C5;    11       IL              IF SO, INSERT "
 10237      2043353B 
 10237      20202020 
 10237      31312020 
 10237      20202020 
 10238 02f7 494E544F 		.ascii	"INTO PROGRAM\012\000"
 10238      2050524F 
 10238      4752414D 
 10238      0A00
 10239 0305 000000   		.space	3
 10240              	.LC43:
 10241 0308 30303038 		.ascii	"0008 2A;    12       BR STRT         GO GET NEXT\012"
 10241      2032413B 
 10241      20202020 
 10241      31322020 
 10241      20202020 
 10242 0339 00       		.ascii	"\000"
 10243 033a 0000     		.space	2
 10244              	.LC44:
 10245 033c 30303039 		.ascii	"0009 56;    13 :XEC  SB              SAVE POINTERS "
 10245      2035363B 
 10245      20202020 
 10245      3133203A 
 10245      58454320 
 10246 036f 464F5220 		.ascii	"FOR RUN WITH\012\000"
 10246      52554E20 
 10246      57495448 
 10246      0A00
 10247 037d 000000   		.space	3
 10248              	.LC45:
 10249 0380 30303041 		.ascii	"000A 10;    14       RB                CONCATENATED"
 10249      2031303B 
ARM GAS  C:\Users\doug_000\AppData\Local\Temp\ccbaKQF3.s 			page 209


 10249      20202020 
 10249      31342020 
 10249      20202020 
 10250 03b3 20494E50 		.ascii	" INPUT\012\000"
 10250      55540A00 
 10251 03bb 00       		.space	1
 10252              	.LC46:
 10253 03bc 30303042 		.ascii	"000B 11;    15       XQ\012\000"
 10253      2031313B 
 10253      20202020 
 10253      31352020 
 10253      20202020 
 10254 03d5 000000   		.space	3
 10255              	.LC47:
 10256 03d8 30303043 		.ascii	"000C 2C;    16 .\012\000"
 10256      2032433B 
 10256      20202020 
 10256      3136202E 
 10256      0A00
 10257 03ea 0000     		.space	2
 10258              	.LC48:
 10259 03ec 30303044 		.ascii	"000D ;      17 .  STATEMENT EXECUTOR\012\000"
 10259      203B2020 
 10259      20202020 
 10259      3137202E 
 10259      20205354 
 10260 0412 0000     		.space	2
 10261              	.LC49:
 10262 0414 30303044 		.ascii	"000D ;      18 .\012\000"
 10262      203B2020 
 10262      20202020 
 10262      3138202E 
 10262      0A00
 10263 0426 0000     		.space	2
 10264              	.LC50:
 10265 0428 30303044 		.ascii	"000D ;      19 :STMT BC GOTO \"LET\"\012\000"
 10265      203B2020 
 10265      20202020 
 10265      3139203A 
 10265      53544D54 
 10266              	.LC51:
 10267 044c 30303044 		.ascii	"000D 8B4C45D4;\012\000"
 10267      20384234 
 10267      43343544 
 10267      343B0A00 
 10268              	.LC52:
 10269 045c 30303131 		.ascii	"0011 ;      20       BV *            MUST BE A VARI"
 10269      203B2020 
 10269      20202020 
 10269      32302020 
 10269      20202020 
 10270 048f 41424C45 		.ascii	"ABLE NAME\012\000"
 10270      204E414D 
 10270      450A00
 10271 049a 0000     		.space	2
 10272              	.LC53:
 10273 049c 30303131 		.ascii	"0011 A0;    21       BC * \"=\"\012\000"
ARM GAS  C:\Users\doug_000\AppData\Local\Temp\ccbaKQF3.s 			page 210


 10273      2041303B 
 10273      20202020 
 10273      32312020 
 10273      20202020 
 10274 04bb 00       		.space	1
 10275              	.LC54:
 10276 04bc 30303132 		.ascii	"0012 80BD;  22 :LET  JS EXPR         GO GET EXPRESS"
 10276      20383042 
 10276      443B2020 
 10276      3232203A 
 10276      4C455420 
 10277 04ef 494F4E0A 		.ascii	"ION\012\000"
 10277      00
 10278              	.LC55:
 10279 04f4 30303134 		.ascii	"0014 30BC;  23       BE *            IF STATEMENT E"
 10279      20333042 
 10279      433B2020 
 10279      32332020 
 10279      20202020 
 10280 0527 4E442C0A 		.ascii	"ND,\012\000"
 10280      00
 10281              	.LC56:
 10282 052c 30303136 		.ascii	"0016 E0;    24       SV                STORE RESULT"
 10282      2045303B 
 10282      20202020 
 10282      32342020 
 10282      20202020 
 10283 055f 0A00     		.ascii	"\012\000"
 10284 0561 000000   		.space	3
 10285              	.LC57:
 10286 0564 30303137 		.ascii	"0017 13;    25       NX\012\000"
 10286      2031333B 
 10286      20202020 
 10286      32352020 
 10286      20202020 
 10287 057d 000000   		.space	3
 10288              	.LC58:
 10289 0580 30303138 		.ascii	"0018 1D;    26 .\012\000"
 10289      2031443B 
 10289      20202020 
 10289      3236202E 
 10289      0A00
 10290 0592 0000     		.space	2
 10291              	.LC59:
 10292 0594 30303139 		.ascii	"0019 ;      27 :GOTO BC PRNT \"GO\"\012\000"
 10292      203B2020 
 10292      20202020 
 10292      3237203A 
 10292      474F544F 
 10293 05b7 00       		.space	1
 10294              	.LC60:
 10295 05b8 30303139 		.ascii	"0019 9447CF;\012\000"
 10295      20393434 
 10295      3743463B 
 10295      0A00
 10296 05c6 0000     		.space	2
 10297              	.LC61:
ARM GAS  C:\Users\doug_000\AppData\Local\Temp\ccbaKQF3.s 			page 211


 10298 05c8 30303143 		.ascii	"001C ;      28       BC GOSB \"TO\"\012\000"
 10298      203B2020 
 10298      20202020 
 10298      32382020 
 10298      20202020 
 10299 05eb 00       		.space	1
 10300              	.LC62:
 10301 05ec 30303143 		.ascii	"001C 8854CF;\012\000"
 10301      20383835 
 10301      3443463B 
 10301      0A00
 10302 05fa 0000     		.space	2
 10303              	.LC63:
 10304 05fc 30303146 		.ascii	"001F ;      29       JS EXPR         GET LINE NUMBE"
 10304      203B2020 
 10304      20202020 
 10304      32392020 
 10304      20202020 
 10305 062f 520A00   		.ascii	"R\012\000"
 10306 0632 0000     		.space	2
 10307              	.LC64:
 10308 0634 30303146 		.ascii	"001F 30BC;  30       BE *\012\000"
 10308      20333042 
 10308      433B2020 
 10308      33302020 
 10308      20202020 
 10309 064f 00       		.space	1
 10310              	.LC65:
 10311 0650 30303231 		.ascii	"0021 E0;    31       SB              (DO THIS FOR S"
 10311      2045303B 
 10311      20202020 
 10311      33312020 
 10311      20202020 
 10312 0683 54415254 		.ascii	"TARTING)\012\000"
 10312      494E4729 
 10312      0A00
 10313 068d 000000   		.space	3
 10314              	.LC66:
 10315 0690 30303232 		.ascii	"0022 10;    32       RB\012\000"
 10315      2031303B 
 10315      20202020 
 10315      33322020 
 10315      20202020 
 10316 06a9 000000   		.space	3
 10317              	.LC67:
 10318 06ac 30303233 		.ascii	"0023 11;    33       GO              GO THERE\012\000"
 10318      2031313B 
 10318      20202020 
 10318      33332020 
 10318      20202020 
 10319 06db 00       		.space	1
 10320              	.LC68:
 10321 06dc 30303234 		.ascii	"0024 16;    34 .\012\000"
 10321      2031363B 
 10321      20202020 
 10321      3334202E 
 10321      0A00
ARM GAS  C:\Users\doug_000\AppData\Local\Temp\ccbaKQF3.s 			page 212


 10322 06ee 0000     		.space	2
 10323              	.LC69:
 10324 06f0 30303235 		.ascii	"0025 ;      35 :GOSB BC * \"SUB\"      NO OTHER WOR"
 10324      203B2020 
 10324      20202020 
 10324      3335203A 
 10324      474F5342 
 10325 0721 44204245 		.ascii	"D BEGINS \"GO...\"\012\000"
 10325      47494E53 
 10325      2022474F 
 10325      2E2E2E22 
 10325      0A00
 10326 0733 00       		.space	1
 10327              	.LC70:
 10328 0734 30303235 		.ascii	"0025 805355C2;\012\000"
 10328      20383035 
 10328      33353543 
 10328      323B0A00 
 10329              	.LC71:
 10330 0744 30303239 		.ascii	"0029 ;      36       JS EXPR\012\000"
 10330      203B2020 
 10330      20202020 
 10330      33362020 
 10330      20202020 
 10331 0762 0000     		.space	2
 10332              	.LC72:
 10333 0764 30303239 		.ascii	"0029 30BC;  37       BE *\012\000"
 10333      20333042 
 10333      433B2020 
 10333      33372020 
 10333      20202020 
 10334 077f 00       		.space	1
 10335              	.LC73:
 10336 0780 30303242 		.ascii	"002B E0;    38       GS\012\000"
 10336      2045303B 
 10336      20202020 
 10336      33382020 
 10336      20202020 
 10337 0799 000000   		.space	3
 10338              	.LC74:
 10339 079c 30303243 		.ascii	"002C 14;    39       GO\012\000"
 10339      2031343B 
 10339      20202020 
 10339      33392020 
 10339      20202020 
 10340 07b5 000000   		.space	3
 10341              	.LC75:
 10342 07b8 30303244 		.ascii	"002D 16;    40 .\012\000"
 10342      2031363B 
 10342      20202020 
 10342      3430202E 
 10342      0A00
 10343 07ca 0000     		.space	2
 10344              	.LC76:
 10345 07cc 30303245 		.ascii	"002E ;      41 :PRNT BC SKIP \"PR\"\012\000"
 10345      203B2020 
 10345      20202020 
ARM GAS  C:\Users\doug_000\AppData\Local\Temp\ccbaKQF3.s 			page 213


 10345      3431203A 
 10345      50524E54 
 10346 07ef 00       		.space	1
 10347              	.LC77:
 10348 07f0 30303245 		.ascii	"002E 9050D2;\012\000"
 10348      20393035 
 10348      3044323B 
 10348      0A00
 10349 07fe 0000     		.space	2
 10350              	.LC78:
 10351 0800 30303331 		.ascii	"0031 ;      42       BC P0 \"INT\"     OPTIONALLY O"
 10351      203B2020 
 10351      20202020 
 10351      34322020 
 10351      20202020 
 10352 0831 4D495420 		.ascii	"MIT \"INT\"\012\000"
 10352      22494E54 
 10352      220A00
 10353              	.LC79:
 10354 083c 30303331 		.ascii	"0031 83494ED4;\012\000"
 10354      20383334 
 10354      39344544 
 10354      343B0A00 
 10355              	.LC80:
 10356 084c 30303335 		.ascii	"0035 ;      43 :P0   BE P3\012\000"
 10356      203B2020 
 10356      20202020 
 10356      3433203A 
 10356      50302020 
 10357              	.LC81:
 10358 0868 30303335 		.ascii	"0035 E5;    44       BR P6           IF DONE, GO TO"
 10358      2045353B 
 10358      20202020 
 10358      34342020 
 10358      20202020 
 10359 089b 20454E44 		.ascii	" END\012\000"
 10359      0A00
 10360 08a1 000000   		.space	3
 10361              	.LC82:
 10362 08a4 30303336 		.ascii	"0036 71;    45 :P1   BC P4 \";\"\012\000"
 10362      2037313B 
 10362      20202020 
 10362      3435203A 
 10362      50312020 
 10363              	.LC83:
 10364 08c4 30303337 		.ascii	"0037 88BB;  46 :P2   BE P3\012\000"
 10364      20383842 
 10364      423B2020 
 10364      3436203A 
 10364      50322020 
 10365              	.LC84:
 10366 08e0 30303339 		.ascii	"0039 E1;    47       NX              NO CRLF IF END"
 10366      2045313B 
 10366      20202020 
 10366      34372020 
 10366      20202020 
 10367 0913 45442042 		.ascii	"ED BY ; OR ,\012\000"
ARM GAS  C:\Users\doug_000\AppData\Local\Temp\ccbaKQF3.s 			page 214


 10367      59203B20 
 10367      4F52202C 
 10367      0A00
 10368 0921 000000   		.space	3
 10369              	.LC85:
 10370 0924 30303341 		.ascii	"003A 1D;    48 :P3   BC P7 '\"'\012\000"
 10370      2031443B 
 10370      20202020 
 10370      3438203A 
 10370      50332020 
 10371              	.LC86:
 10372 0944 30303342 		.ascii	"003B 8FA2;  49       PQ              QUOTE MARKS ST"
 10372      20384641 
 10372      323B2020 
 10372      34392020 
 10372      20202020 
 10373 0977 52494E47 		.ascii	"RING\012\000"
 10373      0A00
 10374 097d 000000   		.space	3
 10375              	.LC87:
 10376 0980 30303344 		.ascii	"003D 21;    50       BR P1           GO CHECK DELIM"
 10376      2032313B 
 10376      20202020 
 10376      35302020 
 10376      20202020 
 10377 09b3 49544552 		.ascii	"ITER\012\000"
 10377      0A00
 10378 09b9 000000   		.space	3
 10379              	.LC88:
 10380 09bc 30303345 		.ascii	"003E 58;    51 :SKIP BR IF           (ON THE WAY TH"
 10380      2035383B 
 10380      20202020 
 10380      3531203A 
 10380      534B4950 
 10381 09ef 5255290A 		.ascii	"RU)\012\000"
 10381      00
 10382              	.LC89:
 10383 09f4 30303346 		.ascii	"003F 6F;    52 :P4   BC P5 \",\"\012\000"
 10383      2036463B 
 10383      20202020 
 10383      3532203A 
 10383      50342020 
 10384              	.LC90:
 10385 0a14 30303430 		.ascii	"0040 83AC;  53       PT              COMMA SPACING\012"
 10385      20383341 
 10385      433B2020 
 10385      35332020 
 10385      20202020 
 10386 0a47 00       		.ascii	"\000"
 10387              	.LC91:
 10388 0a48 30303432 		.ascii	"0042 22;    54       BR P2\012\000"
 10388      2032323B 
 10388      20202020 
 10388      35342020 
 10388      20202020 
 10389              	.LC92:
 10390 0a64 30303433 		.ascii	"0043 55;    55 :P5   BC P6 \":\"\012\000"
ARM GAS  C:\Users\doug_000\AppData\Local\Temp\ccbaKQF3.s 			page 215


 10390      2035353B 
 10390      20202020 
 10390      3535203A 
 10390      50352020 
 10391              	.LC93:
 10392 0a84 30303434 		.ascii	"0044 83BA;  56       PC \"S^\"         OUTPUT X-OFF"
 10392      20383342 
 10392      413B2020 
 10392      35362020 
 10392      20202020 
 10393 0ab5 0A00     		.ascii	"\012\000"
 10394 0ab7 00       		.space	1
 10395              	.LC94:
 10396 0ab8 30303436 		.ascii	"0046 2493;  57 :P6   BE *\012\000"
 10396      20323439 
 10396      333B2020 
 10396      3537203A 
 10396      50362020 
 10397 0ad3 00       		.space	1
 10398              	.LC95:
 10399 0ad4 30303438 		.ascii	"0048 E0;    58       NL              THEN CRLF\012\000"
 10399      2045303B 
 10399      20202020 
 10399      35382020 
 10399      20202020 
 10400              	.LC96:
 10401 0b04 30303439 		.ascii	"0049 23;    59       NX\012\000"
 10401      2032333B 
 10401      20202020 
 10401      35392020 
 10401      20202020 
 10402 0b1d 000000   		.space	3
 10403              	.LC97:
 10404 0b20 30303441 		.ascii	"004A 1D;    60 :P7   JS EXPR         TRY FOR AN EXP"
 10404      2031443B 
 10404      20202020 
 10404      3630203A 
 10404      50372020 
 10405 0b53 52455353 		.ascii	"RESSION\012\000"
 10405      494F4E0A 
 10405      00
 10406              	.LC98:
 10407 0b5c 30303442 		.ascii	"004B 30BC;  61       PN\012\000"
 10407      20333042 
 10407      433B2020 
 10407      36312020 
 10407      20202020 
 10408 0b75 000000   		.space	3
 10409              	.LC99:
 10410 0b78 30303444 		.ascii	"004D 20;    62       BR P1\012\000"
 10410      2032303B 
 10410      20202020 
 10410      36322020 
 10410      20202020 
 10411              	.LC100:
 10412 0b94 30303445 		.ascii	"004E 48;    63 .\012\000"
 10412      2034383B 
ARM GAS  C:\Users\doug_000\AppData\Local\Temp\ccbaKQF3.s 			page 216


 10412      20202020 
 10412      3633202E 
 10412      0A00
 10413 0ba6 0000     		.space	2
 10414              	.LC101:
 10415 0ba8 30303446 		.ascii	"004F ;      64 :IF   BC INPT \"IF\"\012\000"
 10415      203B2020 
 10415      20202020 
 10415      3634203A 
 10415      49462020 
 10416 0bcb 00       		.space	1
 10417              	.LC102:
 10418 0bcc 30303446 		.ascii	"004F 9149C6;\012\000"
 10418      20393134 
 10418      3943363B 
 10418      0A00
 10419 0bda 0000     		.space	2
 10420              	.LC103:
 10421 0bdc 30303532 		.ascii	"0052 ;      65       JS EXPR\012\000"
 10421      203B2020 
 10421      20202020 
 10421      36352020 
 10421      20202020 
 10422 0bfa 0000     		.space	2
 10423              	.LC104:
 10424 0bfc 30303532 		.ascii	"0052 30BC;  66       JS RELO\012\000"
 10424      20333042 
 10424      433B2020 
 10424      36362020 
 10424      20202020 
 10425 0c1a 0000     		.space	2
 10426              	.LC105:
 10427 0c1c 30303534 		.ascii	"0054 3134;  67       JS EXPR\012\000"
 10427      20333133 
 10427      343B2020 
 10427      36372020 
 10427      20202020 
 10428 0c3a 0000     		.space	2
 10429              	.LC106:
 10430 0c3c 30303536 		.ascii	"0056 30BC;  68       BC I1 \"THEN\"    OPTIONAL NOI"
 10430      20333042 
 10430      433B2020 
 10430      36382020 
 10430      20202020 
 10431 0c6d 5345574F 		.ascii	"SEWORD\012\000"
 10431      52440A00 
 10432 0c75 000000   		.space	3
 10433              	.LC107:
 10434 0c78 30303538 		.ascii	"0058 84544845CE;\012\000"
 10434      20383435 
 10434      34343834 
 10434      3543453B 
 10434      0A00
 10435 0c8a 0000     		.space	2
 10436              	.LC108:
 10437 0c8c 30303544 		.ascii	"005D ;      69 :I1   CP              COMPARE SKIPS "
 10437      203B2020 
ARM GAS  C:\Users\doug_000\AppData\Local\Temp\ccbaKQF3.s 			page 217


 10437      20202020 
 10437      3639203A 
 10437      49312020 
 10438 0cbf 4E455854 		.ascii	"NEXT IF TRUE\012\000"
 10438      20494620 
 10438      54525545 
 10438      0A00
 10439 0ccd 000000   		.space	3
 10440              	.LC109:
 10441 0cd0 30303544 		.ascii	"005D 1C;    70       NX              FALSE.\012\000"
 10441      2031433B 
 10441      20202020 
 10441      37302020 
 10441      20202020 
 10442 0cfd 000000   		.space	3
 10443              	.LC110:
 10444 0d00 30303545 		.ascii	"005E 1D;    71       J STMT          TRUE. GO PROCE"
 10444      2031443B 
 10444      20202020 
 10444      37312020 
 10444      20202020 
 10445 0d33 53532053 		.ascii	"SS STATEMENT\012\000"
 10445      54415445 
 10445      4D454E54 
 10445      0A00
 10446 0d41 000000   		.space	3
 10447              	.LC111:
 10448 0d44 30303546 		.ascii	"005F 380D;  72 .\012\000"
 10448      20333830 
 10448      443B2020 
 10448      3732202E 
 10448      0A00
 10449 0d56 0000     		.space	2
 10450              	.LC112:
 10451 0d58 30303631 		.ascii	"0061 ;      73 :INPT BC RETN \"INPUT\"\012\000"
 10451      203B2020 
 10451      20202020 
 10451      3733203A 
 10451      494E5054 
 10452 0d7e 0000     		.space	2
 10453              	.LC113:
 10454 0d80 30303631 		.ascii	"0061 9A494E5055D4;\012\000"
 10454      20394134 
 10454      39344535 
 10454      30353544 
 10454      343B0A00 
 10455              	.LC114:
 10456 0d94 30303637 		.ascii	"0067 ;      74 :I2   BV *            GET VARIABLE\012"
 10456      203B2020 
 10456      20202020 
 10456      3734203A 
 10456      49322020 
 10457 0dc6 00       		.ascii	"\000"
 10458 0dc7 00       		.space	1
 10459              	.LC115:
 10460 0dc8 30303637 		.ascii	"0067 A0;    75       SB              SWAP POINTERS\012"
 10460      2041303B 
ARM GAS  C:\Users\doug_000\AppData\Local\Temp\ccbaKQF3.s 			page 218


 10460      20202020 
 10460      37352020 
 10460      20202020 
 10461 0dfb 00       		.ascii	"\000"
 10462              	.LC116:
 10463 0dfc 30303638 		.ascii	"0068 10;    76       BE I4\012\000"
 10463      2031303B 
 10463      20202020 
 10463      37362020 
 10463      20202020 
 10464              	.LC117:
 10465 0e18 30303639 		.ascii	"0069 E7;    77 :I3   PC \"? Q^\"       LINE IS EMPT"
 10465      2045373B 
 10465      20202020 
 10465      3737203A 
 10465      49332020 
 10466 0e49 593B2054 		.ascii	"Y; TYPE PROMPT\012\000"
 10466      59504520 
 10466      50524F4D 
 10466      50540A00 
 10467 0e59 000000   		.space	3
 10468              	.LC118:
 10469 0e5c 30303641 		.ascii	"006A 243F2091;\012\000"
 10469      20323433 
 10469      46323039 
 10469      313B0A00 
 10470              	.LC119:
 10471 0e6c 30303645 		.ascii	"006E ;      78       GL              READ INPUT LIN"
 10471      203B2020 
 10471      20202020 
 10471      37382020 
 10471      20202020 
 10472 0e9f 450A00   		.ascii	"E\012\000"
 10473 0ea2 0000     		.space	2
 10474              	.LC120:
 10475 0ea4 30303645 		.ascii	"006E 27;    79       BE I4           DID ANYTHING C"
 10475      2032373B 
 10475      20202020 
 10475      37392020 
 10475      20202020 
 10476 0ed7 4F4D453F 		.ascii	"OME?\012\000"
 10476      0A00
 10477 0edd 000000   		.space	3
 10478              	.LC121:
 10479 0ee0 30303646 		.ascii	"006F E1;    80       BR I3           NO, TRY AGAIN\012"
 10479      2045313B 
 10479      20202020 
 10479      38302020 
 10479      20202020 
 10480 0f13 00       		.ascii	"\000"
 10481              	.LC122:
 10482 0f14 30303730 		.ascii	"0070 59;    81 :I4   BC I5 \",\"       OPTIONAL COM"
 10482      2035393B 
 10482      20202020 
 10482      3831203A 
 10482      49342020 
 10483 0f45 4D410A00 		.ascii	"MA\012\000"
ARM GAS  C:\Users\doug_000\AppData\Local\Temp\ccbaKQF3.s 			page 219


 10484 0f49 000000   		.space	3
 10485              	.LC123:
 10486 0f4c 30303731 		.ascii	"0071 81AC;  82 :I5   JS EXPR         READ A NUMBER\012"
 10486      20383141 
 10486      433B2020 
 10486      3832203A 
 10486      49352020 
 10487 0f7f 00       		.ascii	"\000"
 10488              	.LC124:
 10489 0f80 30303733 		.ascii	"0073 30BC;  83       SV              STORE INTO VAR"
 10489      20333042 
 10489      433B2020 
 10489      38332020 
 10489      20202020 
 10490 0fb3 4941424C 		.ascii	"IABLE\012\000"
 10490      450A00
 10491 0fba 0000     		.space	2
 10492              	.LC125:
 10493 0fbc 30303735 		.ascii	"0075 13;    84       RB              SWAP BACK\012\000"
 10493      2031333B 
 10493      20202020 
 10493      38342020 
 10493      20202020 
 10494              	.LC126:
 10495 0fec 30303736 		.ascii	"0076 11;    85       BC I6 \",\"       ANOTHER?\012"
 10495      2031313B 
 10495      20202020 
 10495      38352020 
 10495      20202020 
 10496 101a 00       		.ascii	"\000"
 10497 101b 00       		.space	1
 10498              	.LC127:
 10499 101c 30303737 		.ascii	"0077 82AC;  86       BR I2           YES IF COMMA\012"
 10499      20383241 
 10499      433B2020 
 10499      38362020 
 10499      20202020 
 10500 104e 00       		.ascii	"\000"
 10501 104f 00       		.space	1
 10502              	.LC128:
 10503 1050 30303739 		.ascii	"0079 4D;    87 :I6   BE *            OTHERWISE QUIT"
 10503      2034443B 
 10503      20202020 
 10503      3837203A 
 10503      49362020 
 10504 1083 0A00     		.ascii	"\012\000"
 10505 1085 000000   		.space	3
 10506              	.LC129:
 10507 1088 30303741 		.ascii	"007A E0;    88       NX\012\000"
 10507      2045303B 
 10507      20202020 
 10507      38382020 
 10507      20202020 
 10508 10a1 000000   		.space	3
 10509              	.LC130:
 10510 10a4 30303742 		.ascii	"007B 1D;    89 .\012\000"
 10510      2031443B 
ARM GAS  C:\Users\doug_000\AppData\Local\Temp\ccbaKQF3.s 			page 220


 10510      20202020 
 10510      3839202E 
 10510      0A00
 10511 10b6 0000     		.space	2
 10512              	.LC131:
 10513 10b8 30303743 		.ascii	"007C ;      90 :RETN BC END \"RETURN\"\012\000"
 10513      203B2020 
 10513      20202020 
 10513      3930203A 
 10513      5245544E 
 10514 10de 0000     		.space	2
 10515              	.LC132:
 10516 10e0 30303743 		.ascii	"007C 895245545552CE;\012\000"
 10516      20383935 
 10516      32343535 
 10516      34353535 
 10516      3243453B 
 10517 10f6 0000     		.space	2
 10518              	.LC133:
 10519 10f8 30303833 		.ascii	"0083 ;      91       BE *\012\000"
 10519      203B2020 
 10519      20202020 
 10519      39312020 
 10519      20202020 
 10520 1113 00       		.space	1
 10521              	.LC134:
 10522 1114 30303833 		.ascii	"0083 E0;    92       RS              RECOVER SAVED "
 10522      2045303B 
 10522      20202020 
 10522      39322020 
 10522      20202020 
 10523 1147 4C494E45 		.ascii	"LINE\012\000"
 10523      0A00
 10524 114d 000000   		.space	3
 10525              	.LC135:
 10526 1150 30303834 		.ascii	"0084 15;    93       NX\012\000"
 10526      2031353B 
 10526      20202020 
 10526      39332020 
 10526      20202020 
 10527 1169 000000   		.space	3
 10528              	.LC136:
 10529 116c 30303835 		.ascii	"0085 1D;    94 .\012\000"
 10529      2031443B 
 10529      20202020 
 10529      3934202E 
 10529      0A00
 10530 117e 0000     		.space	2
 10531              	.LC137:
 10532 1180 30303836 		.ascii	"0086 ;      95 :END  BC LIST \"END\"\012\000"
 10532      203B2020 
 10532      20202020 
 10532      3935203A 
 10532      454E4420 
 10533              	.LC138:
 10534 11a4 30303836 		.ascii	"0086 85454EC4;\012\000"
 10534      20383534 
ARM GAS  C:\Users\doug_000\AppData\Local\Temp\ccbaKQF3.s 			page 221


 10534      35344543 
 10534      343B0A00 
 10535              	.LC139:
 10536 11b4 30303841 		.ascii	"008A ;      96       BE *\012\000"
 10536      203B2020 
 10536      20202020 
 10536      39362020 
 10536      20202020 
 10537 11cf 00       		.space	1
 10538              	.LC140:
 10539 11d0 30303841 		.ascii	"008A E0;    97       WS\012\000"
 10539      2045303B 
 10539      20202020 
 10539      39372020 
 10539      20202020 
 10540 11e9 000000   		.space	3
 10541              	.LC141:
 10542 11ec 30303842 		.ascii	"008B 2D;    98 .\012\000"
 10542      2032443B 
 10542      20202020 
 10542      3938202E 
 10542      0A00
 10543 11fe 0000     		.space	2
 10544              	.LC142:
 10545 1200 30303843 		.ascii	"008C ;      99 :LIST BC RUN \"LIST\"\012\000"
 10545      203B2020 
 10545      20202020 
 10545      3939203A 
 10545      4C495354 
 10546              	.LC143:
 10547 1224 30303843 		.ascii	"008C 984C4953D4;\012\000"
 10547      20393834 
 10547      43343935 
 10547      3344343B 
 10547      0A00
 10548 1236 0000     		.space	2
 10549              	.LC144:
 10550 1238 30303931 		.ascii	"0091 ;     100       BE L2\012\000"
 10550      203B2020 
 10550      20202031 
 10550      30302020 
 10550      20202020 
 10551              	.LC145:
 10552 1254 30303931 		.ascii	"0091 EC;   101 :L1   PC \"@^@^@^@^J^@^\" PUNCH LEAD"
 10552      2045433B 
 10552      20202031 
 10552      3031203A 
 10552      4C312020 
 10553 1285 45520A00 		.ascii	"ER\012\000"
 10554 1289 000000   		.space	3
 10555              	.LC146:
 10556 128c 30303932 		.ascii	"0092 24000000000A80;\012\000"
 10556      20323430 
 10556      30303030 
 10556      30303030 
 10556      4138303B 
 10557 12a2 0000     		.space	2
ARM GAS  C:\Users\doug_000\AppData\Local\Temp\ccbaKQF3.s 			page 222


 10558              	.LC147:
 10559 12a4 30303939 		.ascii	"0099 ;     102       LS              LIST\012\000"
 10559      203B2020 
 10559      20202031 
 10559      30322020 
 10559      20202020 
 10560 12cf 00       		.space	1
 10561              	.LC148:
 10562 12d0 30303939 		.ascii	"0099 1F;   103       PC \"S^\"         PUNCH X-OFF\012"
 10562      2031463B 
 10562      20202031 
 10562      30332020 
 10562      20202020 
 10563 1301 00       		.ascii	"\000"
 10564 1302 0000     		.space	2
 10565              	.LC149:
 10566 1304 30303941 		.ascii	"009A 2493; 104       NL\012\000"
 10566      20323439 
 10566      333B2031 
 10566      30342020 
 10566      20202020 
 10567 131d 000000   		.space	3
 10568              	.LC150:
 10569 1320 30303943 		.ascii	"009C 23;   105       NX\012\000"
 10569      2032333B 
 10569      20202031 
 10569      30352020 
 10569      20202020 
 10570 1339 000000   		.space	3
 10571              	.LC151:
 10572 133c 30303944 		.ascii	"009D 1D;   106 :L2   JS EXPR         GET A LINE NUM"
 10572      2031443B 
 10572      20202031 
 10572      3036203A 
 10572      4C322020 
 10573 136f 4245520A 		.ascii	"BER\012\000"
 10573      00
 10574              	.LC152:
 10575 1374 30303945 		.ascii	"009E 30BC; 107       BE L3\012\000"
 10575      20333042 
 10575      433B2031 
 10575      30372020 
 10575      20202020 
 10576              	.LC153:
 10577 1390 30304130 		.ascii	"00A0 E1;   108       BR L1\012\000"
 10577      2045313B 
 10577      20202031 
 10577      30382020 
 10577      20202020 
 10578              	.LC154:
 10579 13ac 30304131 		.ascii	"00A1 50;   109 :L3   BC * \",\"        SEPARATED BY"
 10579      2035303B 
 10579      20202031 
 10579      3039203A 
 10579      4C332020 
 10580 13dd 20434F4D 		.ascii	" COMMAS\012\000"
 10580      4D41530A 
ARM GAS  C:\Users\doug_000\AppData\Local\Temp\ccbaKQF3.s 			page 223


 10580      00
 10581 13e6 0000     		.space	2
 10582              	.LC155:
 10583 13e8 30304132 		.ascii	"00A2 80AC; 110       BR L2\012\000"
 10583      20383041 
 10583      433B2031 
 10583      31302020 
 10583      20202020 
 10584              	.LC156:
 10585 1404 30304134 		.ascii	"00A4 59;   111 .\012\000"
 10585      2035393B 
 10585      20202031 
 10585      3131202E 
 10585      0A00
 10586 1416 0000     		.space	2
 10587              	.LC157:
 10588 1418 30304135 		.ascii	"00A5 ;     112 :RUN  BC CLER \"RUN\"\012\000"
 10588      203B2020 
 10588      20202031 
 10588      3132203A 
 10588      52554E20 
 10589              	.LC158:
 10590 143c 30304135 		.ascii	"00A5 855255CE;\012\000"
 10590      20383535 
 10590      32353543 
 10590      453B0A00 
 10591              	.LC159:
 10592 144c 30304139 		.ascii	"00A9 ;     113       J XEC\012\000"
 10592      203B2020 
 10592      20202031 
 10592      31332020 
 10592      20202020 
 10593              	.LC160:
 10594 1468 30304139 		.ascii	"00A9 380A; 114 .\012\000"
 10594      20333830 
 10594      413B2031 
 10594      3134202E 
 10594      0A00
 10595 147a 0000     		.space	2
 10596              	.LC161:
 10597 147c 30304142 		.ascii	"00AB ;     115 :CLER BC REM \"CLEAR\"\012\000"
 10597      203B2020 
 10597      20202031 
 10597      3135203A 
 10597      434C4552 
 10598 14a1 000000   		.space	3
 10599              	.LC162:
 10600 14a4 30304142 		.ascii	"00AB 86434C4541D2;\012\000"
 10600      20383634 
 10600      33344334 
 10600      35343144 
 10600      323B0A00 
 10601              	.LC163:
 10602 14b8 30304231 		.ascii	"00B1 ;     116       MT\012\000"
 10602      203B2020 
 10602      20202031 
 10602      31362020 
ARM GAS  C:\Users\doug_000\AppData\Local\Temp\ccbaKQF3.s 			page 224


 10602      20202020 
 10603 14d1 000000   		.space	3
 10604              	.LC164:
 10605 14d4 30304231 		.ascii	"00B1 2B;   117 .\012\000"
 10605      2032423B 
 10605      20202031 
 10605      3137202E 
 10605      0A00
 10606 14e6 0000     		.space	2
 10607              	.LC165:
 10608 14e8 30304232 		.ascii	"00B2 ;     118 :REM  BC DFLT \"REM\"\012\000"
 10608      203B2020 
 10608      20202031 
 10608      3138203A 
 10608      52454D20 
 10609              	.LC166:
 10610 150c 30304232 		.ascii	"00B2 845245CD;\012\000"
 10610      20383435 
 10610      32343543 
 10610      443B0A00 
 10611              	.LC167:
 10612 151c 30304236 		.ascii	"00B6 ;     119       NX\012\000"
 10612      203B2020 
 10612      20202031 
 10612      31392020 
 10612      20202020 
 10613 1535 000000   		.space	3
 10614              	.LC168:
 10615 1538 30304236 		.ascii	"00B6 1D;   120 .\012\000"
 10615      2031443B 
 10615      20202031 
 10615      3230202E 
 10615      0A00
 10616 154a 0000     		.space	2
 10617              	.LC169:
 10618 154c 30304237 		.ascii	"00B7 ;     121 :DFLT BV *            NO KEYWORD...\012"
 10618      203B2020 
 10618      20202031 
 10618      3231203A 
 10618      44464C54 
 10619 157f 00       		.ascii	"\000"
 10620              	.LC170:
 10621 1580 30304237 		.ascii	"00B7 A0;   122       BC * \"=\"        TRY FOR LET\012"
 10621      2041303B 
 10621      20202031 
 10621      32322020 
 10621      20202020 
 10622 15b1 00       		.ascii	"\000"
 10623 15b2 0000     		.space	2
 10624              	.LC171:
 10625 15b4 30304238 		.ascii	"00B8 80BD; 123       J LET           IT'S A GOOD BE"
 10625      20383042 
 10625      443B2031 
 10625      32332020 
 10625      20202020 
 10626 15e7 542E0A00 		.ascii	"T.\012\000"
 10627 15eb 00       		.space	1
ARM GAS  C:\Users\doug_000\AppData\Local\Temp\ccbaKQF3.s 			page 225


 10628              	.LC172:
 10629 15ec 30304241 		.ascii	"00BA 3814; 124 .\012\000"
 10629      20333831 
 10629      343B2031 
 10629      3234202E 
 10629      0A00
 10630 15fe 0000     		.space	2
 10631              	.LC173:
 10632 1600 30304243 		.ascii	"00BC ;     125 .  SUBROUTINES\012\000"
 10632      203B2020 
 10632      20202031 
 10632      3235202E 
 10632      20205355 
 10633 161f 00       		.space	1
 10634              	.LC174:
 10635 1620 30304243 		.ascii	"00BC ;     126 .\012\000"
 10635      203B2020 
 10635      20202031 
 10635      3236202E 
 10635      0A00
 10636 1632 0000     		.space	2
 10637              	.LC175:
 10638 1634 30304243 		.ascii	"00BC ;     127 :EXPR BC E0 \"-\"       TRY FOR UNAR"
 10638      203B2020 
 10638      20202031 
 10638      3237203A 
 10638      45585052 
 10639 1665 59204D49 		.ascii	"Y MINUS\012\000"
 10639      4E55530A 
 10639      00
 10640 166e 0000     		.space	2
 10641              	.LC176:
 10642 1670 30304243 		.ascii	"00BC 85AD; 128       JS TERM         AHA\012\000"
 10642      20383541 
 10642      443B2031 
 10642      32382020 
 10642      20202020 
 10643 169a 0000     		.space	2
 10644              	.LC177:
 10645 169c 30304245 		.ascii	"00BE 30D3; 129       NE\012\000"
 10645      20333044 
 10645      333B2031 
 10645      32392020 
 10645      20202020 
 10646 16b5 000000   		.space	3
 10647              	.LC178:
 10648 16b8 30304330 		.ascii	"00C0 17;   130       BR E1\012\000"
 10648      2031373B 
 10648      20202031 
 10648      33302020 
 10648      20202020 
 10649              	.LC179:
 10650 16d4 30304331 		.ascii	"00C1 64;   131 :E0   BC E4 \"+\"       IGNORE UNARY"
 10650      2036343B 
 10650      20202031 
 10650      3331203A 
 10650      45302020 
ARM GAS  C:\Users\doug_000\AppData\Local\Temp\ccbaKQF3.s 			page 226


 10651 1705 20504C55 		.ascii	" PLUS\012\000"
 10651      530A00
 10652              	.LC180:
 10653 170c 30304332 		.ascii	"00C2 81AB; 132 :E4   JS TERM\012\000"
 10653      20383141 
 10653      423B2031 
 10653      3332203A 
 10653      45342020 
 10654 172a 0000     		.space	2
 10655              	.LC181:
 10656 172c 30304334 		.ascii	"00C4 30D3; 133 :E1   BC E2 \"+\"       TERMS SEPARA"
 10656      20333044 
 10656      333B2031 
 10656      3333203A 
 10656      45312020 
 10657 175d 54454420 		.ascii	"TED BY PLUS\012\000"
 10657      42592050 
 10657      4C55530A 
 10657      00
 10658 176a 0000     		.space	2
 10659              	.LC182:
 10660 176c 30304336 		.ascii	"00C6 85AB; 134       JS TERM\012\000"
 10660      20383541 
 10660      423B2031 
 10660      33342020 
 10660      20202020 
 10661 178a 0000     		.space	2
 10662              	.LC183:
 10663 178c 30304338 		.ascii	"00C8 30D3; 135       AD\012\000"
 10663      20333044 
 10663      333B2031 
 10663      33352020 
 10663      20202020 
 10664 17a5 000000   		.space	3
 10665              	.LC184:
 10666 17a8 30304341 		.ascii	"00CA 18;   136       BR E1\012\000"
 10666      2031383B 
 10666      20202031 
 10666      33362020 
 10666      20202020 
 10667              	.LC185:
 10668 17c4 30304342 		.ascii	"00CB 5A;   137 :E2   BC E3 \"-\"       TERMS SEPARA"
 10668      2035413B 
 10668      20202031 
 10668      3337203A 
 10668      45322020 
 10669 17f5 54454420 		.ascii	"TED BY MINUS\012\000"
 10669      4259204D 
 10669      494E5553 
 10669      0A00
 10670 1803 00       		.space	1
 10671              	.LC186:
 10672 1804 30304343 		.ascii	"00CC 85AD; 138       JS TERM\012\000"
 10672      20383541 
 10672      443B2031 
 10672      33382020 
 10672      20202020 
ARM GAS  C:\Users\doug_000\AppData\Local\Temp\ccbaKQF3.s 			page 227


 10673 1822 0000     		.space	2
 10674              	.LC187:
 10675 1824 30304345 		.ascii	"00CE 30D3; 139       SU\012\000"
 10675      20333044 
 10675      333B2031 
 10675      33392020 
 10675      20202020 
 10676 183d 000000   		.space	3
 10677              	.LC188:
 10678 1840 30304430 		.ascii	"00D0 19;   140       BR E1\012\000"
 10678      2031393B 
 10678      20202031 
 10678      34302020 
 10678      20202020 
 10679              	.LC189:
 10680 185c 30304431 		.ascii	"00D1 54;   141 :E3   RT\012\000"
 10680      2035343B 
 10680      20202031 
 10680      3431203A 
 10680      45332020 
 10681 1875 000000   		.space	3
 10682              	.LC190:
 10683 1878 30304432 		.ascii	"00D2 2F;   142 .\012\000"
 10683      2032463B 
 10683      20202031 
 10683      3432202E 
 10683      0A00
 10684 188a 0000     		.space	2
 10685              	.LC191:
 10686 188c 30304433 		.ascii	"00D3 ;     143 :TERM JS FACT\012\000"
 10686      203B2020 
 10686      20202031 
 10686      3433203A 
 10686      5445524D 
 10687 18aa 0000     		.space	2
 10688              	.LC192:
 10689 18ac 30304433 		.ascii	"00D3 30E2; 144 :T0   BC T1 \"*\"       FACTORS SEPA"
 10689      20333045 
 10689      323B2031 
 10689      3434203A 
 10689      54302020 
 10690 18dd 52415445 		.ascii	"RATED BY TIMES\012\000"
 10690      44204259 
 10690      2054494D 
 10690      45530A00 
 10691 18ed 000000   		.space	3
 10692              	.LC193:
 10693 18f0 30304435 		.ascii	"00D5 85AA; 145       JS FACT\012\000"
 10693      20383541 
 10693      413B2031 
 10693      34352020 
 10693      20202020 
 10694 190e 0000     		.space	2
 10695              	.LC194:
 10696 1910 30304437 		.ascii	"00D7 30E2; 146       MP\012\000"
 10696      20333045 
 10696      323B2031 
ARM GAS  C:\Users\doug_000\AppData\Local\Temp\ccbaKQF3.s 			page 228


 10696      34362020 
 10696      20202020 
 10697 1929 000000   		.space	3
 10698              	.LC195:
 10699 192c 30304439 		.ascii	"00D9 1A;   147       BR T0\012\000"
 10699      2031413B 
 10699      20202031 
 10699      34372020 
 10699      20202020 
 10700              	.LC196:
 10701 1948 30304441 		.ascii	"00DA 5A;   148 :T1   BC T2 \"/\"       FACTORS SEPA"
 10701      2035413B 
 10701      20202031 
 10701      3438203A 
 10701      54312020 
 10702 1979 52415445 		.ascii	"RATED BY DIVIDE\012\000"
 10702      44204259 
 10702      20444956 
 10702      4944450A 
 10702      00
 10703 198a 0000     		.space	2
 10704              	.LC197:
 10705 198c 30304442 		.ascii	"00DB 85AF; 149       JS  FACT\012\000"
 10705      20383541 
 10705      463B2031 
 10705      34392020 
 10705      20202020 
 10706 19ab 00       		.space	1
 10707              	.LC198:
 10708 19ac 30304444 		.ascii	"00DD 30E2; 150       DV\012\000"
 10708      20333045 
 10708      323B2031 
 10708      35302020 
 10708      20202020 
 10709 19c5 000000   		.space	3
 10710              	.LC199:
 10711 19c8 30304446 		.ascii	"00DF 1B;   151       BR T0\012\000"
 10711      2031423B 
 10711      20202031 
 10711      35312020 
 10711      20202020 
 10712              	.LC200:
 10713 19e4 30304530 		.ascii	"00E0 54;   152 :T2   RT\012\000"
 10713      2035343B 
 10713      20202031 
 10713      3532203A 
 10713      54322020 
 10714 19fd 000000   		.space	3
 10715              	.LC201:
 10716 1a00 30304531 		.ascii	"00E1 2F;   153 .\012\000"
 10716      2032463B 
 10716      20202031 
 10716      3533202E 
 10716      0A00
 10717 1a12 0000     		.space	2
 10718              	.LC202:
 10719 1a14 30304532 		.ascii	"00E2 ;     154 :FACT BC F0 \"RND\"     *RND FUNCTIO"
ARM GAS  C:\Users\doug_000\AppData\Local\Temp\ccbaKQF3.s 			page 229


 10719      203B2020 
 10719      20202031 
 10719      3534203A 
 10719      46414354 
 10720 1a45 4E2A0A00 		.ascii	"N*\012\000"
 10721 1a49 000000   		.space	3
 10722              	.LC203:
 10723 1a4c 30304532 		.ascii	"00E2 97524EC4;\012\000"
 10723      20393735 
 10723      32344543 
 10723      343B0A00 
 10724              	.LC204:
 10725 1a5c 30304536 		.ascii	"00E6 ;     155       LN 257*128      STACK POINTER "
 10725      203B2020 
 10725      20202031 
 10725      35352020 
 10725      20202020 
 10726 1a8f 464F5220 		.ascii	"FOR STORE\012\000"
 10726      53544F52 
 10726      450A00
 10727 1a9a 0000     		.space	2
 10728              	.LC205:
 10729 1a9c 30304536 		.ascii	"00E6 0A;\012\000"
 10729      2030413B 
 10729      0A00
 10730 1aa6 0000     		.space	2
 10731              	.LC206:
 10732 1aa8 30304537 		.ascii	"00E7 8080; 156       FV              THEN GET RNDM\012"
 10732      20383038 
 10732      303B2031 
 10732      35362020 
 10732      20202020 
 10733 1adb 00       		.ascii	"\000"
 10734              	.LC207:
 10735 1adc 30304539 		.ascii	"00E9 12;   157       LN 2345         R:=R*2345+6789"
 10735      2031323B 
 10735      20202031 
 10735      35372020 
 10735      20202020 
 10736 1b0f 0A00     		.ascii	"\012\000"
 10737 1b11 000000   		.space	3
 10738              	.LC208:
 10739 1b14 30304541 		.ascii	"00EA 0A;\012\000"
 10739      2030413B 
 10739      0A00
 10740 1b1e 0000     		.space	2
 10741              	.LC209:
 10742 1b20 30304542 		.ascii	"00EB 0929; 158       MP\012\000"
 10742      20303932 
 10742      393B2031 
 10742      35382020 
 10742      20202020 
 10743 1b39 000000   		.space	3
 10744              	.LC210:
 10745 1b3c 30304544 		.ascii	"00ED 1A;   159       LN 6789\012\000"
 10745      2031413B 
 10745      20202031 
ARM GAS  C:\Users\doug_000\AppData\Local\Temp\ccbaKQF3.s 			page 230


 10745      35392020 
 10745      20202020 
 10746 1b5a 0000     		.space	2
 10747              	.LC211:
 10748 1b5c 30304545 		.ascii	"00EE 0A;\012\000"
 10748      2030413B 
 10748      0A00
 10749 1b66 0000     		.space	2
 10750              	.LC212:
 10751 1b68 30304546 		.ascii	"00EF 1A85; 160       AD\012\000"
 10751      20314138 
 10751      353B2031 
 10751      36302020 
 10751      20202020 
 10752 1b81 000000   		.space	3
 10753              	.LC213:
 10754 1b84 30304631 		.ascii	"00F1 18;   161       SV\012\000"
 10754      2031383B 
 10754      20202031 
 10754      36312020 
 10754      20202020 
 10755 1b9d 000000   		.space	3
 10756              	.LC214:
 10757 1ba0 30304632 		.ascii	"00F2 13;   162       LB 128          GET IT AGAIN\012"
 10757      2031333B 
 10757      20202031 
 10757      36322020 
 10757      20202020 
 10758 1bd2 00       		.ascii	"\000"
 10759 1bd3 00       		.space	1
 10760              	.LC215:
 10761 1bd4 30304633 		.ascii	"00F3 0980; 163       FV\012\000"
 10761      20303938 
 10761      303B2031 
 10761      36332020 
 10761      20202020 
 10762 1bed 000000   		.space	3
 10763              	.LC216:
 10764 1bf0 30304635 		.ascii	"00F5 12;   164       DS\012\000"
 10764      2031323B 
 10764      20202031 
 10764      36342020 
 10764      20202020 
 10765 1c09 000000   		.space	3
 10766              	.LC217:
 10767 1c0c 30304636 		.ascii	"00F6 0B;   165       JS FUNC         GET ARGUMENT\012"
 10767      2030423B 
 10767      20202031 
 10767      36352020 
 10767      20202020 
 10768 1c3e 00       		.ascii	"\000"
 10769 1c3f 00       		.space	1
 10770              	.LC218:
 10771 1c40 30304637 		.ascii	"00F7 3130; 166       BR F1\012\000"
 10771      20333133 
 10771      303B2031 
 10771      36362020 
ARM GAS  C:\Users\doug_000\AppData\Local\Temp\ccbaKQF3.s 			page 231


 10771      20202020 
 10772              	.LC219:
 10773 1c5c 30304639 		.ascii	"00F9 61;   167 :F0   BR F2           (SKIPPING)\012"
 10773      2036313B 
 10773      20202031 
 10773      3637203A 
 10773      46302020 
 10774 1c8c 00       		.ascii	"\000"
 10775 1c8d 000000   		.space	3
 10776              	.LC220:
 10777 1c90 30304641 		.ascii	"00FA 73;   168 :F1   DS\012\000"
 10777      2037333B 
 10777      20202031 
 10777      3638203A 
 10777      46312020 
 10778 1ca9 000000   		.space	3
 10779              	.LC221:
 10780 1cac 30304642 		.ascii	"00FB 0B;   169       SX 2            PUSH TOP INTO "
 10780      2030423B 
 10780      20202031 
 10780      36392020 
 10780      20202020 
 10781 1cdf 53544143 		.ascii	"STACK\012\000"
 10781      4B0A00
 10782 1ce6 0000     		.space	2
 10783              	.LC222:
 10784 1ce8 30304643 		.ascii	"00FC 02;   170       SX 4\012\000"
 10784      2030323B 
 10784      20202031 
 10784      37302020 
 10784      20202020 
 10785 1d03 00       		.space	1
 10786              	.LC223:
 10787 1d04 30304644 		.ascii	"00FD 04;   171       SX 2\012\000"
 10787      2030343B 
 10787      20202031 
 10787      37312020 
 10787      20202020 
 10788 1d1f 00       		.space	1
 10789              	.LC224:
 10790 1d20 30304645 		.ascii	"00FE 02;   172       SX 3\012\000"
 10790      2030323B 
 10790      20202031 
 10790      37322020 
 10790      20202020 
 10791 1d3b 00       		.space	1
 10792              	.LC225:
 10793 1d3c 30304646 		.ascii	"00FF 03;   173       SX 5\012\000"
 10793      2030333B 
 10793      20202031 
 10793      37332020 
 10793      20202020 
 10794 1d57 00       		.space	1
 10795              	.LC226:
 10796 1d58 30313030 		.ascii	"0100 05;   174       SX 3\012\000"
 10796      2030353B 
 10796      20202031 
ARM GAS  C:\Users\doug_000\AppData\Local\Temp\ccbaKQF3.s 			page 232


 10796      37342020 
 10796      20202020 
 10797 1d73 00       		.space	1
 10798              	.LC227:
 10799 1d74 30313031 		.ascii	"0101 03;   175       DV              PERFORM MOD FU"
 10799      2030333B 
 10799      20202031 
 10799      37352020 
 10799      20202020 
 10800 1da7 4E435449 		.ascii	"NCTION\012\000"
 10800      4F4E0A00 
 10801 1daf 00       		.space	1
 10802              	.LC228:
 10803 1db0 30313032 		.ascii	"0102 1B;   176       MP\012\000"
 10803      2031423B 
 10803      20202031 
 10803      37362020 
 10803      20202020 
 10804 1dc9 000000   		.space	3
 10805              	.LC229:
 10806 1dcc 30313033 		.ascii	"0103 1A;   177       SU\012\000"
 10806      2031413B 
 10806      20202031 
 10806      37372020 
 10806      20202020 
 10807 1de5 000000   		.space	3
 10808              	.LC230:
 10809 1de8 30313034 		.ascii	"0104 19;   178       DS              PERFORM ABS FU"
 10809      2031393B 
 10809      20202031 
 10809      37382020 
 10809      20202020 
 10810 1e1b 4E435449 		.ascii	"NCTION\012\000"
 10810      4F4E0A00 
 10811 1e23 00       		.space	1
 10812              	.LC231:
 10813 1e24 30313035 		.ascii	"0105 0B;   179       LB 6\012\000"
 10813      2030423B 
 10813      20202031 
 10813      37392020 
 10813      20202020 
 10814 1e3f 00       		.space	1
 10815              	.LC232:
 10816 1e40 30313036 		.ascii	"0106 0906; 180       LN 0\012\000"
 10816      20303930 
 10816      363B2031 
 10816      38302020 
 10816      20202020 
 10817 1e5b 00       		.space	1
 10818              	.LC233:
 10819 1e5c 30313038 		.ascii	"0108 0A;\012\000"
 10819      2030413B 
 10819      0A00
 10820 1e66 0000     		.space	2
 10821              	.LC234:
 10822 1e68 30313039 		.ascii	"0109 0000; 181       CP              (SKIP IF + OR "
 10822      20303030 
ARM GAS  C:\Users\doug_000\AppData\Local\Temp\ccbaKQF3.s 			page 233


 10822      303B2031 
 10822      38312020 
 10822      20202020 
 10823 1e9b 30290A00 		.ascii	"0)\012\000"
 10824 1e9f 00       		.space	1
 10825              	.LC235:
 10826 1ea0 30313042 		.ascii	"010B 1C;   182       NE\012\000"
 10826      2031433B 
 10826      20202031 
 10826      38322020 
 10826      20202020 
 10827 1eb9 000000   		.space	3
 10828              	.LC236:
 10829 1ebc 30313043 		.ascii	"010C 17;   183       RT\012\000"
 10829      2031373B 
 10829      20202031 
 10829      38332020 
 10829      20202020 
 10830 1ed5 000000   		.space	3
 10831              	.LC237:
 10832 1ed8 30313044 		.ascii	"010D 2F;   184 :F2   BC F3 \"USR\"     *USR FUNCTIO"
 10832      2032463B 
 10832      20202031 
 10832      3834203A 
 10832      46322020 
 10833 1f09 4E2A0A00 		.ascii	"N*\012\000"
 10834 1f0d 000000   		.space	3
 10835              	.LC238:
 10836 1f10 30313045 		.ascii	"010E 8F5553D2;\012\000"
 10836      20384635 
 10836      35353344 
 10836      323B0A00 
 10837              	.LC239:
 10838 1f20 30313132 		.ascii	"0112 ;     185       BC * \"(\"        3 ARGUMENTS "
 10838      203B2020 
 10838      20202031 
 10838      38352020 
 10838      20202020 
 10839 1f51 504F5353 		.ascii	"POSSIBLE\012\000"
 10839      49424C45 
 10839      0A00
 10840 1f5b 00       		.space	1
 10841              	.LC240:
 10842 1f5c 30313132 		.ascii	"0112 80A8; 186       JS EXPR         ONE REQUIRED\012"
 10842      20383041 
 10842      383B2031 
 10842      38362020 
 10842      20202020 
 10843 1f8e 00       		.ascii	"\000"
 10844 1f8f 00       		.space	1
 10845              	.LC241:
 10846 1f90 30313134 		.ascii	"0114 30BC; 187       JS ARG\012\000"
 10846      20333042 
 10846      433B2031 
 10846      38372020 
 10846      20202020 
 10847 1fad 000000   		.space	3
ARM GAS  C:\Users\doug_000\AppData\Local\Temp\ccbaKQF3.s 			page 234


 10848              	.LC242:
 10849 1fb0 30313136 		.ascii	"0116 312A; 188       JS ARG\012\000"
 10849      20333132 
 10849      413B2031 
 10849      38382020 
 10849      20202020 
 10850 1fcd 000000   		.space	3
 10851              	.LC243:
 10852 1fd0 30313138 		.ascii	"0118 312A; 189       BC * \")\"\012\000"
 10852      20333132 
 10852      413B2031 
 10852      38392020 
 10852      20202020 
 10853 1fef 00       		.space	1
 10854              	.LC244:
 10855 1ff0 30313141 		.ascii	"011A 80A9; 190       US              GO DO IT\012\000"
 10855      20383041 
 10855      393B2031 
 10855      39302020 
 10855      20202020 
 10856 201f 00       		.space	1
 10857              	.LC245:
 10858 2020 30313143 		.ascii	"011C 2E;   191       RT\012\000"
 10858      2032453B 
 10858      20202031 
 10858      39312020 
 10858      20202020 
 10859 2039 000000   		.space	3
 10860              	.LC246:
 10861 203c 30313144 		.ascii	"011D 2F;   192 :F3   BV F4           VARIABLE?\012\000"
 10861      2032463B 
 10861      20202031 
 10861      3932203A 
 10861      46332020 
 10862              	.LC247:
 10863 206c 30313145 		.ascii	"011E A2;   193       FV              YES.  GET IT\012"
 10863      2041323B 
 10863      20202031 
 10863      39332020 
 10863      20202020 
 10864 209e 00       		.ascii	"\000"
 10865 209f 00       		.space	1
 10866              	.LC248:
 10867 20a0 30313146 		.ascii	"011F 12;   194       RT\012\000"
 10867      2031323B 
 10867      20202031 
 10867      39342020 
 10867      20202020 
 10868 20b9 000000   		.space	3
 10869              	.LC249:
 10870 20bc 30313230 		.ascii	"0120 2F;   195 :F4   BN F5           NUMBER?\012\000"
 10870      2032463B 
 10870      20202031 
 10870      3935203A 
 10870      46342020 
 10871 20ea 0000     		.space	2
 10872              	.LC250:
ARM GAS  C:\Users\doug_000\AppData\Local\Temp\ccbaKQF3.s 			page 235


 10873 20ec 30313231 		.ascii	"0121 C1;   196       RT              GOT IT.\012\000"
 10873      2043313B 
 10873      20202031 
 10873      39362020 
 10873      20202020 
 10874 211a 0000     		.space	2
 10875              	.LC251:
 10876 211c 30313232 		.ascii	"0122 2F;   197 :F5   BC * \"(\"        OTHERWISE MU"
 10876      2032463B 
 10876      20202031 
 10876      3937203A 
 10876      46352020 
 10877 214d 53542042 		.ascii	"ST BE (EXPR)\012\000"
 10877      45202845 
 10877      58505229 
 10877      0A00
 10878 215b 00       		.space	1
 10879              	.LC252:
 10880 215c 30313233 		.ascii	"0123 80A8; 198 :F6   JS EXPR\012\000"
 10880      20383041 
 10880      383B2031 
 10880      3938203A 
 10880      46362020 
 10881 217a 0000     		.space	2
 10882              	.LC253:
 10883 217c 30313235 		.ascii	"0125 30BC; 199       BC * \")\"\012\000"
 10883      20333042 
 10883      433B2031 
 10883      39392020 
 10883      20202020 
 10884 219b 00       		.space	1
 10885              	.LC254:
 10886 219c 30313237 		.ascii	"0127 80A9; 200       RT\012\000"
 10886      20383041 
 10886      393B2032 
 10886      30302020 
 10886      20202020 
 10887 21b5 000000   		.space	3
 10888              	.LC255:
 10889 21b8 30313239 		.ascii	"0129 2F;   201 .\012\000"
 10889      2032463B 
 10889      20202032 
 10889      3031202E 
 10889      0A00
 10890 21ca 0000     		.space	2
 10891              	.LC256:
 10892 21cc 30313241 		.ascii	"012A ;     202 :ARG  BC A0 \",\"        COMMA?\012\000"
 10892      203B2020 
 10892      20202032 
 10892      3032203A 
 10892      41524720 
 10893 21fa 0000     		.space	2
 10894              	.LC257:
 10895 21fc 30313241 		.ascii	"012A 83AC; 203       J  EXPR          YES, GET EXPR"
 10895      20383341 
 10895      433B2032 
 10895      30332020 
ARM GAS  C:\Users\doug_000\AppData\Local\Temp\ccbaKQF3.s 			page 236


 10895      20202020 
 10896 222f 45535349 		.ascii	"ESSION\012\000"
 10896      4F4E0A00 
 10897 2237 00       		.space	1
 10898              	.LC258:
 10899 2238 30313243 		.ascii	"012C 38BC; 204 :A0   DS               NO, DUPLICATE"
 10899      20333842 
 10899      433B2032 
 10899      3034203A 
 10899      41302020 
 10900 226b 20535441 		.ascii	" STACK TOP\012\000"
 10900      434B2054 
 10900      4F500A00 
 10901 2277 00       		.space	1
 10902              	.LC259:
 10903 2278 30313245 		.ascii	"012E 0B;   205       RT\012\000"
 10903      2030423B 
 10903      20202032 
 10903      30352020 
 10903      20202020 
 10904 2291 000000   		.space	3
 10905              	.LC260:
 10906 2294 30313246 		.ascii	"012F 2F;   206 .\012\000"
 10906      2032463B 
 10906      20202032 
 10906      3036202E 
 10906      0A00
 10907 22a6 0000     		.space	2
 10908              	.LC261:
 10909 22a8 30313330 		.ascii	"0130 ;     207 :FUNC BC * \"(\"\012\000"
 10909      203B2020 
 10909      20202032 
 10909      3037203A 
 10909      46554E43 
 10910 22c7 00       		.space	1
 10911              	.LC262:
 10912 22c8 30313330 		.ascii	"0130 80A8; 208       BR F6\012\000"
 10912      20383041 
 10912      383B2032 
 10912      30382020 
 10912      20202020 
 10913              	.LC263:
 10914 22e4 30313332 		.ascii	"0132 52;   209       RT\012\000"
 10914      2035323B 
 10914      20202032 
 10914      30392020 
 10914      20202020 
 10915 22fd 000000   		.space	3
 10916              	.LC264:
 10917 2300 30313333 		.ascii	"0133 2F;   210 .\012\000"
 10917      2032463B 
 10917      20202032 
 10917      3130202E 
 10917      0A00
 10918 2312 0000     		.space	2
 10919              	.LC265:
 10920 2314 30313334 		.ascii	"0134 ;     211 :RELO BC R0 \"=\"        CONVERT REL"
ARM GAS  C:\Users\doug_000\AppData\Local\Temp\ccbaKQF3.s 			page 237


 10920      203B2020 
 10920      20202032 
 10920      3131203A 
 10920      52454C4F 
 10921 2345 4154494F 		.ascii	"ATION OPERATORS\012\000"
 10921      4E204F50 
 10921      45524154 
 10921      4F52530A 
 10921      00
 10922 2356 0000     		.space	2
 10923              	.LC266:
 10924 2358 30313334 		.ascii	"0134 84BD; 212       LB 2             TO CODE BYTE "
 10924      20383442 
 10924      443B2032 
 10924      31322020 
 10924      20202020 
 10925 238b 4F4E2053 		.ascii	"ON STACK\012\000"
 10925      5441434B 
 10925      0A00
 10926 2395 000000   		.space	3
 10927              	.LC267:
 10928 2398 30313336 		.ascii	"0136 0902; 213       RT               =\012\000"
 10928      20303930 
 10928      323B2032 
 10928      31332020 
 10928      20202020 
 10929 23c1 000000   		.space	3
 10930              	.LC268:
 10931 23c4 30313338 		.ascii	"0138 2F;   214 :R0   BC R4 \"<\"\012\000"
 10931      2032463B 
 10931      20202032 
 10931      3134203A 
 10931      52302020 
 10932              	.LC269:
 10933 23e4 30313339 		.ascii	"0139 8EBC; 215       BC R1 \"=\"\012\000"
 10933      20384542 
 10933      433B2032 
 10933      31352020 
 10933      20202020 
 10934              	.LC270:
 10935 2404 30313342 		.ascii	"013B 84BD; 216       LB 3             <=\012\000"
 10935      20383442 
 10935      443B2032 
 10935      31362020 
 10935      20202020 
 10936 242e 0000     		.space	2
 10937              	.LC271:
 10938 2430 30313344 		.ascii	"013D 0903; 217       RT\012\000"
 10938      20303930 
 10938      333B2032 
 10938      31372020 
 10938      20202020 
 10939 2449 000000   		.space	3
 10940              	.LC272:
 10941 244c 30313346 		.ascii	"013F 2F;   218 :R1   BC R3 \">\"\012\000"
 10941      2032463B 
 10941      20202032 
ARM GAS  C:\Users\doug_000\AppData\Local\Temp\ccbaKQF3.s 			page 238


 10941      3138203A 
 10941      52312020 
 10942              	.LC273:
 10943 246c 30313430 		.ascii	"0140 84BE; 219       LB 5             <>\012\000"
 10943      20383442 
 10943      453B2032 
 10943      31392020 
 10943      20202020 
 10944 2496 0000     		.space	2
 10945              	.LC274:
 10946 2498 30313432 		.ascii	"0142 0905; 220       RT\012\000"
 10946      20303930 
 10946      353B2032 
 10946      32302020 
 10946      20202020 
 10947 24b1 000000   		.space	3
 10948              	.LC275:
 10949 24b4 30313434 		.ascii	"0144 2F;   221 :R3   LB 1             <\012\000"
 10949      2032463B 
 10949      20202032 
 10949      3231203A 
 10949      52332020 
 10950 24dd 000000   		.space	3
 10951              	.LC276:
 10952 24e0 30313435 		.ascii	"0145 0901; 222       RT\012\000"
 10952      20303930 
 10952      313B2032 
 10952      32322020 
 10952      20202020 
 10953 24f9 000000   		.space	3
 10954              	.LC277:
 10955 24fc 30313437 		.ascii	"0147 2F;   223 :R4   BC * \">\"\012\000"
 10955      2032463B 
 10955      20202032 
 10955      3233203A 
 10955      52342020 
 10956 251b 00       		.space	1
 10957              	.LC278:
 10958 251c 30313438 		.ascii	"0148 80BE; 224       BC R5 \"=\"\012\000"
 10958      20383042 
 10958      453B2032 
 10958      32342020 
 10958      20202020 
 10959              	.LC279:
 10960 253c 30313441 		.ascii	"014A 84BD; 225       LB 6             >=\012\000"
 10960      20383442 
 10960      443B2032 
 10960      32352020 
 10960      20202020 
 10961 2566 0000     		.space	2
 10962              	.LC280:
 10963 2568 30313443 		.ascii	"014C 0906; 226       RT\012\000"
 10963      20303930 
 10963      363B2032 
 10963      32362020 
 10963      20202020 
 10964 2581 000000   		.space	3
ARM GAS  C:\Users\doug_000\AppData\Local\Temp\ccbaKQF3.s 			page 239


 10965              	.LC281:
 10966 2584 30313445 		.ascii	"014E 2F;   227 :R5   BC R6 \"<\"\012\000"
 10966      2032463B 
 10966      20202032 
 10966      3237203A 
 10966      52352020 
 10967              	.LC282:
 10968 25a4 30313446 		.ascii	"014F 84BC; 228       LB 5             ><\012\000"
 10968      20383442 
 10968      433B2032 
 10968      32382020 
 10968      20202020 
 10969 25ce 0000     		.space	2
 10970              	.LC283:
 10971 25d0 30313531 		.ascii	"0151 0905; 229       RT\012\000"
 10971      20303930 
 10971      353B2032 
 10971      32392020 
 10971      20202020 
 10972 25e9 000000   		.space	3
 10973              	.LC284:
 10974 25ec 30313533 		.ascii	"0153 2F;   230 :R6   LB 4             >\012\000"
 10974      2032463B 
 10974      20202032 
 10974      3330203A 
 10974      52362020 
 10975 2615 000000   		.space	3
 10976              	.LC285:
 10977 2618 30313534 		.ascii	"0154 0904; 231       RT\012\000"
 10977      20303930 
 10977      343B2032 
 10977      33312020 
 10977      20202020 
 10978 2631 000000   		.space	3
 10979              	.LC286:
 10980 2634 30313536 		.ascii	"0156 2F;   232 .\012\000"
 10980      2032463B 
 10980      20202032 
 10980      3332202E 
 10980      0A00
 10981 2646 0000     		.space	2
 10982              	.LC287:
 10983 2648 30313537 		.ascii	"0157 ;    0000\012\000"
 10983      203B2020 
 10983      20203030 
 10983      30300A00 
 10984              	.LC288:
 10985 2658 2D6200   		.ascii	"-b\000"
 10986 265b 00       		.space	1
 10987              	.LC289:
 10988 265c 7200     		.ascii	"r\000"
 10989 265e 0000     		.space	2
 10990              	.LC290:
 10991 2660 436F756C 		.ascii	"Could not open file %s\000"
 10991      64206E6F 
 10991      74206F70 
 10991      656E2066 
ARM GAS  C:\Users\doug_000\AppData\Local\Temp\ccbaKQF3.s 			page 240


 10991      696C6520 
 10992 2677 00       		.space	1
 10993              	.LC291:
 10994 2678 2D6F00   		.ascii	"-o\000"
 10995 267b 00       		.space	1
 10996              	.LC292:
 10997 267c 7700     		.ascii	"w\000"
 10998 267e 0000     		.space	2
 10999              	.LC293:
 11000 2680 2D6900   		.ascii	"-i\000"
 11001 2683 00       		.space	1
 11002              	.LC294:
 11003 2684 54426173 		.ascii	"TBasm.txt\000"
 11003      6D2E7478 
 11003      7400
 11004 268e 0000     		.space	2
 11005              	.LC295:
 11006 2690 54426F75 		.ascii	"TBout.txt\000"
 11006      742E7478 
 11006      7400
 11007 269a 0000     		.bss
 11008              		.align	2
 11009              		.set	.LANCHOR0,. + 0
 11010              		.type	oFile, %object
 11011              		.size	oFile, 4
 11012              	oFile:
 11013 0000 00000000 		.space	4
 11014              		.type	inFile, %object
 11015              		.size	inFile, 4
 11016              	inFile:
 11017 0004 00000000 		.space	4
 11018              		.type	Broken, %object
 11019              		.size	Broken, 4
 11020              	Broken:
 11021 0008 00000000 		.space	4
 11022              		.type	LogHere, %object
 11023              		.size	LogHere, 4
 11024              	LogHere:
 11025 000c 00000000 		.space	4
 11026              		.type	Debugging, %object
 11027              		.size	Debugging, 4
 11028              	Debugging:
 11029 0010 00000000 		.space	4
 11030              		.type	Watcher, %object
 11031              		.size	Watcher, 4
 11032              	Watcher:
 11033 0014 00000000 		.space	4
 11034              		.type	s.5951, %object
 11035              		.size	s.5951, 9000
 11036              	s.5951:
 11037 0018 00000000 		.space	9000
 11037      00000000 
 11037      00000000 
 11037      00000000 
 11037      00000000 
 11038              		.text
 11039              	.Letext0:
ARM GAS  C:\Users\doug_000\AppData\Local\Temp\ccbaKQF3.s 			page 241


 11040              		.file 2 "c:\\program files (x86)\\cypress\\psoc creator\\4.0\\psoc creator\\import\\gnu\\arm\\4.9.
 11041              		.file 3 "c:\\program files (x86)\\cypress\\psoc creator\\4.0\\psoc creator\\import\\gnu\\arm\\4.9.
 11042              		.file 4 "c:\\program files (x86)\\cypress\\psoc creator\\4.0\\psoc creator\\import\\gnu\\arm\\4.9.
 11043              		.file 5 "c:\\program files (x86)\\cypress\\psoc creator\\4.0\\psoc creator\\import\\gnu\\arm\\4.9.
 11044              		.file 6 "c:\\program files (x86)\\cypress\\psoc creator\\4.0\\psoc creator\\import\\gnu\\arm\\4.9.
 11045              		.file 7 "c:\\program files (x86)\\cypress\\psoc creator\\4.0\\psoc creator\\import\\gnu\\arm\\4.9.
 11046              		.file 8 "c:\\program files (x86)\\cypress\\psoc creator\\4.0\\psoc creator\\import\\gnu\\arm\\4.9.
 11047              		.file 9 "<built-in>"
 11048              		.section	.debug_info,"",%progbits
 11049              	.Ldebug_info0:
 11050 0000 883D0000 		.4byte	0x3d88
 11051 0004 0400     		.2byte	0x4
 11052 0006 00000000 		.4byte	.Ldebug_abbrev0
 11053 000a 04       		.byte	0x4
 11054 000b 01       		.uleb128 0x1
 11055 000c 8E060000 		.4byte	.LASF206
 11056 0010 01       		.byte	0x1
 11057 0011 AA070000 		.4byte	.LASF207
 11058 0015 15060000 		.4byte	.LASF208
 11059 0019 00000000 		.4byte	.Ldebug_ranges0+0
 11060 001d 00000000 		.4byte	0
 11061 0021 00000000 		.4byte	.Ldebug_line0
 11062 0025 02       		.uleb128 0x2
 11063 0026 08       		.byte	0x8
 11064 0027 07       		.byte	0x7
 11065 0028 88000000 		.4byte	.LASF0
 11066 002c 02       		.uleb128 0x2
 11067 002d 04       		.byte	0x4
 11068 002e 07       		.byte	0x7
 11069 002f 58020000 		.4byte	.LASF1
 11070 0033 03       		.uleb128 0x3
 11071 0034 04       		.byte	0x4
 11072 0035 05       		.byte	0x5
 11073 0036 696E7400 		.ascii	"int\000"
 11074 003a 02       		.uleb128 0x2
 11075 003b 01       		.byte	0x1
 11076 003c 06       		.byte	0x6
 11077 003d 15010000 		.4byte	.LASF2
 11078 0041 02       		.uleb128 0x2
 11079 0042 01       		.byte	0x1
 11080 0043 08       		.byte	0x8
 11081 0044 57040000 		.4byte	.LASF3
 11082 0048 02       		.uleb128 0x2
 11083 0049 02       		.byte	0x2
 11084 004a 05       		.byte	0x5
 11085 004b 7F040000 		.4byte	.LASF4
 11086 004f 02       		.uleb128 0x2
 11087 0050 02       		.byte	0x2
 11088 0051 07       		.byte	0x7
 11089 0052 DC020000 		.4byte	.LASF5
 11090 0056 02       		.uleb128 0x2
 11091 0057 04       		.byte	0x4
 11092 0058 05       		.byte	0x5
 11093 0059 68010000 		.4byte	.LASF6
 11094 005d 02       		.uleb128 0x2
 11095 005e 04       		.byte	0x4
 11096 005f 07       		.byte	0x7
ARM GAS  C:\Users\doug_000\AppData\Local\Temp\ccbaKQF3.s 			page 242


 11097 0060 8C020000 		.4byte	.LASF7
 11098 0064 02       		.uleb128 0x2
 11099 0065 08       		.byte	0x8
 11100 0066 05       		.byte	0x5
 11101 0067 07010000 		.4byte	.LASF8
 11102 006b 04       		.uleb128 0x4
 11103 006c 28000000 		.4byte	.LASF9
 11104 0070 02       		.byte	0x2
 11105 0071 D4       		.byte	0xd4
 11106 0072 2C000000 		.4byte	0x2c
 11107 0076 05       		.uleb128 0x5
 11108 0077 04       		.byte	0x4
 11109 0078 04       		.uleb128 0x4
 11110 0079 3E040000 		.4byte	.LASF10
 11111 007d 03       		.byte	0x3
 11112 007e 07       		.byte	0x7
 11113 007f 33000000 		.4byte	0x33
 11114 0083 04       		.uleb128 0x4
 11115 0084 19040000 		.4byte	.LASF11
 11116 0088 04       		.byte	0x4
 11117 0089 10       		.byte	0x10
 11118 008a 56000000 		.4byte	0x56
 11119 008e 04       		.uleb128 0x4
 11120 008f 5B050000 		.4byte	.LASF12
 11121 0093 04       		.byte	0x4
 11122 0094 27       		.byte	0x27
 11123 0095 56000000 		.4byte	0x56
 11124 0099 06       		.uleb128 0x6
 11125 009a 4C030000 		.4byte	.LASF13
 11126 009e 02       		.byte	0x2
 11127 009f 6101     		.2byte	0x161
 11128 00a1 2C000000 		.4byte	0x2c
 11129 00a5 07       		.uleb128 0x7
 11130 00a6 04       		.byte	0x4
 11131 00a7 04       		.byte	0x4
 11132 00a8 4A       		.byte	0x4a
 11133 00a9 C4000000 		.4byte	0xc4
 11134 00ad 08       		.uleb128 0x8
 11135 00ae 2F030000 		.4byte	.LASF14
 11136 00b2 04       		.byte	0x4
 11137 00b3 4C       		.byte	0x4c
 11138 00b4 99000000 		.4byte	0x99
 11139 00b8 08       		.uleb128 0x8
 11140 00b9 65020000 		.4byte	.LASF15
 11141 00bd 04       		.byte	0x4
 11142 00be 4D       		.byte	0x4d
 11143 00bf C4000000 		.4byte	0xc4
 11144 00c3 00       		.byte	0
 11145 00c4 09       		.uleb128 0x9
 11146 00c5 41000000 		.4byte	0x41
 11147 00c9 D4000000 		.4byte	0xd4
 11148 00cd 0A       		.uleb128 0xa
 11149 00ce D4000000 		.4byte	0xd4
 11150 00d2 03       		.byte	0x3
 11151 00d3 00       		.byte	0
 11152 00d4 02       		.uleb128 0x2
 11153 00d5 04       		.byte	0x4
ARM GAS  C:\Users\doug_000\AppData\Local\Temp\ccbaKQF3.s 			page 243


 11154 00d6 07       		.byte	0x7
 11155 00d7 AA030000 		.4byte	.LASF16
 11156 00db 0B       		.uleb128 0xb
 11157 00dc 08       		.byte	0x8
 11158 00dd 04       		.byte	0x4
 11159 00de 47       		.byte	0x47
 11160 00df FC000000 		.4byte	0xfc
 11161 00e3 0C       		.uleb128 0xc
 11162 00e4 2F050000 		.4byte	.LASF17
 11163 00e8 04       		.byte	0x4
 11164 00e9 49       		.byte	0x49
 11165 00ea 33000000 		.4byte	0x33
 11166 00ee 00       		.byte	0
 11167 00ef 0C       		.uleb128 0xc
 11168 00f0 37050000 		.4byte	.LASF18
 11169 00f4 04       		.byte	0x4
 11170 00f5 4E       		.byte	0x4e
 11171 00f6 A5000000 		.4byte	0xa5
 11172 00fa 04       		.byte	0x4
 11173 00fb 00       		.byte	0
 11174 00fc 04       		.uleb128 0x4
 11175 00fd A7040000 		.4byte	.LASF19
 11176 0101 04       		.byte	0x4
 11177 0102 4F       		.byte	0x4f
 11178 0103 DB000000 		.4byte	0xdb
 11179 0107 04       		.uleb128 0x4
 11180 0108 F9010000 		.4byte	.LASF20
 11181 010c 04       		.byte	0x4
 11182 010d 53       		.byte	0x53
 11183 010e 78000000 		.4byte	0x78
 11184 0112 04       		.uleb128 0x4
 11185 0113 D3050000 		.4byte	.LASF21
 11186 0117 05       		.byte	0x5
 11187 0118 16       		.byte	0x16
 11188 0119 5D000000 		.4byte	0x5d
 11189 011d 0D       		.uleb128 0xd
 11190 011e 0A020000 		.4byte	.LASF26
 11191 0122 18       		.byte	0x18
 11192 0123 05       		.byte	0x5
 11193 0124 2D       		.byte	0x2d
 11194 0125 70010000 		.4byte	0x170
 11195 0129 0C       		.uleb128 0xc
 11196 012a A4050000 		.4byte	.LASF22
 11197 012e 05       		.byte	0x5
 11198 012f 2F       		.byte	0x2f
 11199 0130 70010000 		.4byte	0x170
 11200 0134 00       		.byte	0
 11201 0135 0E       		.uleb128 0xe
 11202 0136 5F6B00   		.ascii	"_k\000"
 11203 0139 05       		.byte	0x5
 11204 013a 30       		.byte	0x30
 11205 013b 33000000 		.4byte	0x33
 11206 013f 04       		.byte	0x4
 11207 0140 0C       		.uleb128 0xc
 11208 0141 0A050000 		.4byte	.LASF23
 11209 0145 05       		.byte	0x5
 11210 0146 30       		.byte	0x30
ARM GAS  C:\Users\doug_000\AppData\Local\Temp\ccbaKQF3.s 			page 244


 11211 0147 33000000 		.4byte	0x33
 11212 014b 08       		.byte	0x8
 11213 014c 0C       		.uleb128 0xc
 11214 014d EC010000 		.4byte	.LASF24
 11215 0151 05       		.byte	0x5
 11216 0152 30       		.byte	0x30
 11217 0153 33000000 		.4byte	0x33
 11218 0157 0C       		.byte	0xc
 11219 0158 0C       		.uleb128 0xc
 11220 0159 22070000 		.4byte	.LASF25
 11221 015d 05       		.byte	0x5
 11222 015e 30       		.byte	0x30
 11223 015f 33000000 		.4byte	0x33
 11224 0163 10       		.byte	0x10
 11225 0164 0E       		.uleb128 0xe
 11226 0165 5F7800   		.ascii	"_x\000"
 11227 0168 05       		.byte	0x5
 11228 0169 31       		.byte	0x31
 11229 016a 76010000 		.4byte	0x176
 11230 016e 14       		.byte	0x14
 11231 016f 00       		.byte	0
 11232 0170 0F       		.uleb128 0xf
 11233 0171 04       		.byte	0x4
 11234 0172 1D010000 		.4byte	0x11d
 11235 0176 09       		.uleb128 0x9
 11236 0177 12010000 		.4byte	0x112
 11237 017b 86010000 		.4byte	0x186
 11238 017f 0A       		.uleb128 0xa
 11239 0180 D4000000 		.4byte	0xd4
 11240 0184 00       		.byte	0
 11241 0185 00       		.byte	0
 11242 0186 0D       		.uleb128 0xd
 11243 0187 42020000 		.4byte	.LASF27
 11244 018b 24       		.byte	0x24
 11245 018c 05       		.byte	0x5
 11246 018d 35       		.byte	0x35
 11247 018e FF010000 		.4byte	0x1ff
 11248 0192 0C       		.uleb128 0xc
 11249 0193 F8000000 		.4byte	.LASF28
 11250 0197 05       		.byte	0x5
 11251 0198 37       		.byte	0x37
 11252 0199 33000000 		.4byte	0x33
 11253 019d 00       		.byte	0
 11254 019e 0C       		.uleb128 0xc
 11255 019f 7B050000 		.4byte	.LASF29
 11256 01a3 05       		.byte	0x5
 11257 01a4 38       		.byte	0x38
 11258 01a5 33000000 		.4byte	0x33
 11259 01a9 04       		.byte	0x4
 11260 01aa 0C       		.uleb128 0xc
 11261 01ab 2D010000 		.4byte	.LASF30
 11262 01af 05       		.byte	0x5
 11263 01b0 39       		.byte	0x39
 11264 01b1 33000000 		.4byte	0x33
 11265 01b5 08       		.byte	0x8
 11266 01b6 0C       		.uleb128 0xc
 11267 01b7 DE070000 		.4byte	.LASF31
ARM GAS  C:\Users\doug_000\AppData\Local\Temp\ccbaKQF3.s 			page 245


 11268 01bb 05       		.byte	0x5
 11269 01bc 3A       		.byte	0x3a
 11270 01bd 33000000 		.4byte	0x33
 11271 01c1 0C       		.byte	0xc
 11272 01c2 0C       		.uleb128 0xc
 11273 01c3 E7030000 		.4byte	.LASF32
 11274 01c7 05       		.byte	0x5
 11275 01c8 3B       		.byte	0x3b
 11276 01c9 33000000 		.4byte	0x33
 11277 01cd 10       		.byte	0x10
 11278 01ce 0C       		.uleb128 0xc
 11279 01cf 96030000 		.4byte	.LASF33
 11280 01d3 05       		.byte	0x5
 11281 01d4 3C       		.byte	0x3c
 11282 01d5 33000000 		.4byte	0x33
 11283 01d9 14       		.byte	0x14
 11284 01da 0C       		.uleb128 0xc
 11285 01db 27070000 		.4byte	.LASF34
 11286 01df 05       		.byte	0x5
 11287 01e0 3D       		.byte	0x3d
 11288 01e1 33000000 		.4byte	0x33
 11289 01e5 18       		.byte	0x18
 11290 01e6 0C       		.uleb128 0xc
 11291 01e7 89040000 		.4byte	.LASF35
 11292 01eb 05       		.byte	0x5
 11293 01ec 3E       		.byte	0x3e
 11294 01ed 33000000 		.4byte	0x33
 11295 01f1 1C       		.byte	0x1c
 11296 01f2 0C       		.uleb128 0xc
 11297 01f3 89070000 		.4byte	.LASF36
 11298 01f7 05       		.byte	0x5
 11299 01f8 3F       		.byte	0x3f
 11300 01f9 33000000 		.4byte	0x33
 11301 01fd 20       		.byte	0x20
 11302 01fe 00       		.byte	0
 11303 01ff 10       		.uleb128 0x10
 11304 0200 3C010000 		.4byte	.LASF37
 11305 0204 0801     		.2byte	0x108
 11306 0206 05       		.byte	0x5
 11307 0207 48       		.byte	0x48
 11308 0208 3F020000 		.4byte	0x23f
 11309 020c 0C       		.uleb128 0xc
 11310 020d DF010000 		.4byte	.LASF38
 11311 0211 05       		.byte	0x5
 11312 0212 49       		.byte	0x49
 11313 0213 3F020000 		.4byte	0x23f
 11314 0217 00       		.byte	0
 11315 0218 0C       		.uleb128 0xc
 11316 0219 00000000 		.4byte	.LASF39
 11317 021d 05       		.byte	0x5
 11318 021e 4A       		.byte	0x4a
 11319 021f 3F020000 		.4byte	0x23f
 11320 0223 80       		.byte	0x80
 11321 0224 11       		.uleb128 0x11
 11322 0225 BC050000 		.4byte	.LASF40
 11323 0229 05       		.byte	0x5
 11324 022a 4C       		.byte	0x4c
ARM GAS  C:\Users\doug_000\AppData\Local\Temp\ccbaKQF3.s 			page 246


 11325 022b 12010000 		.4byte	0x112
 11326 022f 0001     		.2byte	0x100
 11327 0231 11       		.uleb128 0x11
 11328 0232 7E010000 		.4byte	.LASF41
 11329 0236 05       		.byte	0x5
 11330 0237 4F       		.byte	0x4f
 11331 0238 12010000 		.4byte	0x112
 11332 023c 0401     		.2byte	0x104
 11333 023e 00       		.byte	0
 11334 023f 09       		.uleb128 0x9
 11335 0240 76000000 		.4byte	0x76
 11336 0244 4F020000 		.4byte	0x24f
 11337 0248 0A       		.uleb128 0xa
 11338 0249 D4000000 		.4byte	0xd4
 11339 024d 1F       		.byte	0x1f
 11340 024e 00       		.byte	0
 11341 024f 10       		.uleb128 0x10
 11342 0250 F7030000 		.4byte	.LASF42
 11343 0254 9001     		.2byte	0x190
 11344 0256 05       		.byte	0x5
 11345 0257 5B       		.byte	0x5b
 11346 0258 8D020000 		.4byte	0x28d
 11347 025c 0C       		.uleb128 0xc
 11348 025d A4050000 		.4byte	.LASF22
 11349 0261 05       		.byte	0x5
 11350 0262 5C       		.byte	0x5c
 11351 0263 8D020000 		.4byte	0x28d
 11352 0267 00       		.byte	0
 11353 0268 0C       		.uleb128 0xc
 11354 0269 E5040000 		.4byte	.LASF43
 11355 026d 05       		.byte	0x5
 11356 026e 5D       		.byte	0x5d
 11357 026f 33000000 		.4byte	0x33
 11358 0273 04       		.byte	0x4
 11359 0274 0C       		.uleb128 0xc
 11360 0275 E7010000 		.4byte	.LASF44
 11361 0279 05       		.byte	0x5
 11362 027a 5F       		.byte	0x5f
 11363 027b 93020000 		.4byte	0x293
 11364 027f 08       		.byte	0x8
 11365 0280 0C       		.uleb128 0xc
 11366 0281 3C010000 		.4byte	.LASF37
 11367 0285 05       		.byte	0x5
 11368 0286 60       		.byte	0x60
 11369 0287 FF010000 		.4byte	0x1ff
 11370 028b 88       		.byte	0x88
 11371 028c 00       		.byte	0
 11372 028d 0F       		.uleb128 0xf
 11373 028e 04       		.byte	0x4
 11374 028f 4F020000 		.4byte	0x24f
 11375 0293 09       		.uleb128 0x9
 11376 0294 A3020000 		.4byte	0x2a3
 11377 0298 A3020000 		.4byte	0x2a3
 11378 029c 0A       		.uleb128 0xa
 11379 029d D4000000 		.4byte	0xd4
 11380 02a1 1F       		.byte	0x1f
 11381 02a2 00       		.byte	0
ARM GAS  C:\Users\doug_000\AppData\Local\Temp\ccbaKQF3.s 			page 247


 11382 02a3 0F       		.uleb128 0xf
 11383 02a4 04       		.byte	0x4
 11384 02a5 A9020000 		.4byte	0x2a9
 11385 02a9 12       		.uleb128 0x12
 11386 02aa 0D       		.uleb128 0xd
 11387 02ab 93040000 		.4byte	.LASF45
 11388 02af 08       		.byte	0x8
 11389 02b0 05       		.byte	0x5
 11390 02b1 73       		.byte	0x73
 11391 02b2 CF020000 		.4byte	0x2cf
 11392 02b6 0C       		.uleb128 0xc
 11393 02b7 27010000 		.4byte	.LASF46
 11394 02bb 05       		.byte	0x5
 11395 02bc 74       		.byte	0x74
 11396 02bd CF020000 		.4byte	0x2cf
 11397 02c1 00       		.byte	0
 11398 02c2 0C       		.uleb128 0xc
 11399 02c3 13000000 		.4byte	.LASF47
 11400 02c7 05       		.byte	0x5
 11401 02c8 75       		.byte	0x75
 11402 02c9 33000000 		.4byte	0x33
 11403 02cd 04       		.byte	0x4
 11404 02ce 00       		.byte	0
 11405 02cf 0F       		.uleb128 0xf
 11406 02d0 04       		.byte	0x4
 11407 02d1 41000000 		.4byte	0x41
 11408 02d5 0D       		.uleb128 0xd
 11409 02d6 B2040000 		.4byte	.LASF48
 11410 02da 68       		.byte	0x68
 11411 02db 05       		.byte	0x5
 11412 02dc B3       		.byte	0xb3
 11413 02dd FF030000 		.4byte	0x3ff
 11414 02e1 0E       		.uleb128 0xe
 11415 02e2 5F7000   		.ascii	"_p\000"
 11416 02e5 05       		.byte	0x5
 11417 02e6 B4       		.byte	0xb4
 11418 02e7 CF020000 		.4byte	0x2cf
 11419 02eb 00       		.byte	0
 11420 02ec 0E       		.uleb128 0xe
 11421 02ed 5F7200   		.ascii	"_r\000"
 11422 02f0 05       		.byte	0x5
 11423 02f1 B5       		.byte	0xb5
 11424 02f2 33000000 		.4byte	0x33
 11425 02f6 04       		.byte	0x4
 11426 02f7 0E       		.uleb128 0xe
 11427 02f8 5F7700   		.ascii	"_w\000"
 11428 02fb 05       		.byte	0x5
 11429 02fc B6       		.byte	0xb6
 11430 02fd 33000000 		.4byte	0x33
 11431 0301 08       		.byte	0x8
 11432 0302 0C       		.uleb128 0xc
 11433 0303 77010000 		.4byte	.LASF49
 11434 0307 05       		.byte	0x5
 11435 0308 B7       		.byte	0xb7
 11436 0309 48000000 		.4byte	0x48
 11437 030d 0C       		.byte	0xc
 11438 030e 0C       		.uleb128 0xc
ARM GAS  C:\Users\doug_000\AppData\Local\Temp\ccbaKQF3.s 			page 248


 11439 030f 9E020000 		.4byte	.LASF50
 11440 0313 05       		.byte	0x5
 11441 0314 B8       		.byte	0xb8
 11442 0315 48000000 		.4byte	0x48
 11443 0319 0E       		.byte	0xe
 11444 031a 0E       		.uleb128 0xe
 11445 031b 5F626600 		.ascii	"_bf\000"
 11446 031f 05       		.byte	0x5
 11447 0320 B9       		.byte	0xb9
 11448 0321 AA020000 		.4byte	0x2aa
 11449 0325 10       		.byte	0x10
 11450 0326 0C       		.uleb128 0xc
 11451 0327 B0000000 		.4byte	.LASF51
 11452 032b 05       		.byte	0x5
 11453 032c BA       		.byte	0xba
 11454 032d 33000000 		.4byte	0x33
 11455 0331 18       		.byte	0x18
 11456 0332 0C       		.uleb128 0xc
 11457 0333 53010000 		.4byte	.LASF52
 11458 0337 05       		.byte	0x5
 11459 0338 C1       		.byte	0xc1
 11460 0339 76000000 		.4byte	0x76
 11461 033d 1C       		.byte	0x1c
 11462 033e 0C       		.uleb128 0xc
 11463 033f 32020000 		.4byte	.LASF53
 11464 0343 05       		.byte	0x5
 11465 0344 C3       		.byte	0xc3
 11466 0345 62050000 		.4byte	0x562
 11467 0349 20       		.byte	0x20
 11468 034a 0C       		.uleb128 0xc
 11469 034b 8F030000 		.4byte	.LASF54
 11470 034f 05       		.byte	0x5
 11471 0350 C5       		.byte	0xc5
 11472 0351 91050000 		.4byte	0x591
 11473 0355 24       		.byte	0x24
 11474 0356 0C       		.uleb128 0xc
 11475 0357 49050000 		.4byte	.LASF55
 11476 035b 05       		.byte	0x5
 11477 035c C8       		.byte	0xc8
 11478 035d B5050000 		.4byte	0x5b5
 11479 0361 28       		.byte	0x28
 11480 0362 0C       		.uleb128 0xc
 11481 0363 A3070000 		.4byte	.LASF56
 11482 0367 05       		.byte	0x5
 11483 0368 C9       		.byte	0xc9
 11484 0369 CF050000 		.4byte	0x5cf
 11485 036d 2C       		.byte	0x2c
 11486 036e 0E       		.uleb128 0xe
 11487 036f 5F756200 		.ascii	"_ub\000"
 11488 0373 05       		.byte	0x5
 11489 0374 CC       		.byte	0xcc
 11490 0375 AA020000 		.4byte	0x2aa
 11491 0379 30       		.byte	0x30
 11492 037a 0E       		.uleb128 0xe
 11493 037b 5F757000 		.ascii	"_up\000"
 11494 037f 05       		.byte	0x5
 11495 0380 CD       		.byte	0xcd
ARM GAS  C:\Users\doug_000\AppData\Local\Temp\ccbaKQF3.s 			page 249


 11496 0381 CF020000 		.4byte	0x2cf
 11497 0385 38       		.byte	0x38
 11498 0386 0E       		.uleb128 0xe
 11499 0387 5F757200 		.ascii	"_ur\000"
 11500 038b 05       		.byte	0x5
 11501 038c CE       		.byte	0xce
 11502 038d 33000000 		.4byte	0x33
 11503 0391 3C       		.byte	0x3c
 11504 0392 0C       		.uleb128 0xc
 11505 0393 21010000 		.4byte	.LASF57
 11506 0397 05       		.byte	0x5
 11507 0398 D1       		.byte	0xd1
 11508 0399 D5050000 		.4byte	0x5d5
 11509 039d 40       		.byte	0x40
 11510 039e 0C       		.uleb128 0xc
 11511 039f 70070000 		.4byte	.LASF58
 11512 03a3 05       		.byte	0x5
 11513 03a4 D2       		.byte	0xd2
 11514 03a5 E5050000 		.4byte	0x5e5
 11515 03a9 43       		.byte	0x43
 11516 03aa 0E       		.uleb128 0xe
 11517 03ab 5F6C6200 		.ascii	"_lb\000"
 11518 03af 05       		.byte	0x5
 11519 03b0 D5       		.byte	0xd5
 11520 03b1 AA020000 		.4byte	0x2aa
 11521 03b5 44       		.byte	0x44
 11522 03b6 0C       		.uleb128 0xc
 11523 03b7 8D010000 		.4byte	.LASF59
 11524 03bb 05       		.byte	0x5
 11525 03bc D8       		.byte	0xd8
 11526 03bd 33000000 		.4byte	0x33
 11527 03c1 4C       		.byte	0x4c
 11528 03c2 0C       		.uleb128 0xc
 11529 03c3 AA010000 		.4byte	.LASF60
 11530 03c7 05       		.byte	0x5
 11531 03c8 D9       		.byte	0xd9
 11532 03c9 83000000 		.4byte	0x83
 11533 03cd 50       		.byte	0x50
 11534 03ce 0C       		.uleb128 0xc
 11535 03cf 51000000 		.4byte	.LASF61
 11536 03d3 05       		.byte	0x5
 11537 03d4 DC       		.byte	0xdc
 11538 03d5 1D040000 		.4byte	0x41d
 11539 03d9 54       		.byte	0x54
 11540 03da 0C       		.uleb128 0xc
 11541 03db 5B030000 		.4byte	.LASF62
 11542 03df 05       		.byte	0x5
 11543 03e0 E0       		.byte	0xe0
 11544 03e1 07010000 		.4byte	0x107
 11545 03e5 58       		.byte	0x58
 11546 03e6 0C       		.uleb128 0xc
 11547 03e7 BA040000 		.4byte	.LASF63
 11548 03eb 05       		.byte	0x5
 11549 03ec E2       		.byte	0xe2
 11550 03ed FC000000 		.4byte	0xfc
 11551 03f1 5C       		.byte	0x5c
 11552 03f2 0C       		.uleb128 0xc
ARM GAS  C:\Users\doug_000\AppData\Local\Temp\ccbaKQF3.s 			page 250


 11553 03f3 61030000 		.4byte	.LASF64
 11554 03f7 05       		.byte	0x5
 11555 03f8 E3       		.byte	0xe3
 11556 03f9 33000000 		.4byte	0x33
 11557 03fd 64       		.byte	0x64
 11558 03fe 00       		.byte	0
 11559 03ff 13       		.uleb128 0x13
 11560 0400 33000000 		.4byte	0x33
 11561 0404 1D040000 		.4byte	0x41d
 11562 0408 14       		.uleb128 0x14
 11563 0409 1D040000 		.4byte	0x41d
 11564 040d 14       		.uleb128 0x14
 11565 040e 76000000 		.4byte	0x76
 11566 0412 14       		.uleb128 0x14
 11567 0413 55050000 		.4byte	0x555
 11568 0417 14       		.uleb128 0x14
 11569 0418 33000000 		.4byte	0x33
 11570 041c 00       		.byte	0
 11571 041d 0F       		.uleb128 0xf
 11572 041e 04       		.byte	0x4
 11573 041f 23040000 		.4byte	0x423
 11574 0423 15       		.uleb128 0x15
 11575 0424 12050000 		.4byte	.LASF65
 11576 0428 2804     		.2byte	0x428
 11577 042a 05       		.byte	0x5
 11578 042b 3902     		.2byte	0x239
 11579 042d 55050000 		.4byte	0x555
 11580 0431 16       		.uleb128 0x16
 11581 0432 68050000 		.4byte	.LASF66
 11582 0436 05       		.byte	0x5
 11583 0437 3B02     		.2byte	0x23b
 11584 0439 33000000 		.4byte	0x33
 11585 043d 00       		.byte	0
 11586 043e 16       		.uleb128 0x16
 11587 043f 86010000 		.4byte	.LASF67
 11588 0443 05       		.byte	0x5
 11589 0444 4002     		.2byte	0x240
 11590 0446 3C060000 		.4byte	0x63c
 11591 044a 04       		.byte	0x4
 11592 044b 16       		.uleb128 0x16
 11593 044c 75020000 		.4byte	.LASF68
 11594 0450 05       		.byte	0x5
 11595 0451 4002     		.2byte	0x240
 11596 0453 3C060000 		.4byte	0x63c
 11597 0457 08       		.byte	0x8
 11598 0458 16       		.uleb128 0x16
 11599 0459 02020000 		.4byte	.LASF69
 11600 045d 05       		.byte	0x5
 11601 045e 4002     		.2byte	0x240
 11602 0460 3C060000 		.4byte	0x63c
 11603 0464 0C       		.byte	0xc
 11604 0465 16       		.uleb128 0x16
 11605 0466 E0040000 		.4byte	.LASF70
 11606 046a 05       		.byte	0x5
 11607 046b 4202     		.2byte	0x242
 11608 046d 33000000 		.4byte	0x33
 11609 0471 10       		.byte	0x10
ARM GAS  C:\Users\doug_000\AppData\Local\Temp\ccbaKQF3.s 			page 251


 11610 0472 16       		.uleb128 0x16
 11611 0473 37000000 		.4byte	.LASF71
 11612 0477 05       		.byte	0x5
 11613 0478 4302     		.2byte	0x243
 11614 047a 1E080000 		.4byte	0x81e
 11615 047e 14       		.byte	0x14
 11616 047f 16       		.uleb128 0x16
 11617 0480 03060000 		.4byte	.LASF72
 11618 0484 05       		.byte	0x5
 11619 0485 4502     		.2byte	0x245
 11620 0487 33000000 		.4byte	0x33
 11621 048b 30       		.byte	0x30
 11622 048c 16       		.uleb128 0x16
 11623 048d EA040000 		.4byte	.LASF73
 11624 0491 05       		.byte	0x5
 11625 0492 4602     		.2byte	0x246
 11626 0494 86050000 		.4byte	0x586
 11627 0498 34       		.byte	0x34
 11628 0499 16       		.uleb128 0x16
 11629 049a 0E040000 		.4byte	.LASF74
 11630 049e 05       		.byte	0x5
 11631 049f 4802     		.2byte	0x248
 11632 04a1 33000000 		.4byte	0x33
 11633 04a5 38       		.byte	0x38
 11634 04a6 16       		.uleb128 0x16
 11635 04a7 00050000 		.4byte	.LASF75
 11636 04ab 05       		.byte	0x5
 11637 04ac 4A02     		.2byte	0x24a
 11638 04ae 39080000 		.4byte	0x839
 11639 04b2 3C       		.byte	0x3c
 11640 04b3 16       		.uleb128 0x16
 11641 04b4 27030000 		.4byte	.LASF76
 11642 04b8 05       		.byte	0x5
 11643 04b9 4D02     		.2byte	0x24d
 11644 04bb 70010000 		.4byte	0x170
 11645 04bf 40       		.byte	0x40
 11646 04c0 16       		.uleb128 0x16
 11647 04c1 38020000 		.4byte	.LASF77
 11648 04c5 05       		.byte	0x5
 11649 04c6 4E02     		.2byte	0x24e
 11650 04c8 33000000 		.4byte	0x33
 11651 04cc 44       		.byte	0x44
 11652 04cd 16       		.uleb128 0x16
 11653 04ce CA070000 		.4byte	.LASF78
 11654 04d2 05       		.byte	0x5
 11655 04d3 4F02     		.2byte	0x24f
 11656 04d5 70010000 		.4byte	0x170
 11657 04d9 48       		.byte	0x48
 11658 04da 16       		.uleb128 0x16
 11659 04db 34040000 		.4byte	.LASF79
 11660 04df 05       		.byte	0x5
 11661 04e0 5002     		.2byte	0x250
 11662 04e2 3F080000 		.4byte	0x83f
 11663 04e6 4C       		.byte	0x4c
 11664 04e7 16       		.uleb128 0x16
 11665 04e8 7D020000 		.4byte	.LASF80
 11666 04ec 05       		.byte	0x5
ARM GAS  C:\Users\doug_000\AppData\Local\Temp\ccbaKQF3.s 			page 252


 11667 04ed 5302     		.2byte	0x253
 11668 04ef 33000000 		.4byte	0x33
 11669 04f3 50       		.byte	0x50
 11670 04f4 16       		.uleb128 0x16
 11671 04f5 A2010000 		.4byte	.LASF81
 11672 04f9 05       		.byte	0x5
 11673 04fa 5402     		.2byte	0x254
 11674 04fc 55050000 		.4byte	0x555
 11675 0500 54       		.byte	0x54
 11676 0501 16       		.uleb128 0x16
 11677 0502 71040000 		.4byte	.LASF82
 11678 0506 05       		.byte	0x5
 11679 0507 7702     		.2byte	0x277
 11680 0509 FC070000 		.4byte	0x7fc
 11681 050d 58       		.byte	0x58
 11682 050e 17       		.uleb128 0x17
 11683 050f F7030000 		.4byte	.LASF42
 11684 0513 05       		.byte	0x5
 11685 0514 7B02     		.2byte	0x27b
 11686 0516 8D020000 		.4byte	0x28d
 11687 051a 4801     		.2byte	0x148
 11688 051c 17       		.uleb128 0x17
 11689 051d F6020000 		.4byte	.LASF83
 11690 0521 05       		.byte	0x5
 11691 0522 7C02     		.2byte	0x27c
 11692 0524 4F020000 		.4byte	0x24f
 11693 0528 4C01     		.2byte	0x14c
 11694 052a 17       		.uleb128 0x17
 11695 052b 5C070000 		.4byte	.LASF84
 11696 052f 05       		.byte	0x5
 11697 0530 8002     		.2byte	0x280
 11698 0532 50080000 		.4byte	0x850
 11699 0536 DC02     		.2byte	0x2dc
 11700 0538 17       		.uleb128 0x17
 11701 0539 5B010000 		.4byte	.LASF85
 11702 053d 05       		.byte	0x5
 11703 053e 8502     		.2byte	0x285
 11704 0540 01060000 		.4byte	0x601
 11705 0544 E002     		.2byte	0x2e0
 11706 0546 17       		.uleb128 0x17
 11707 0547 37010000 		.4byte	.LASF86
 11708 054b 05       		.byte	0x5
 11709 054c 8602     		.2byte	0x286
 11710 054e 5C080000 		.4byte	0x85c
 11711 0552 EC02     		.2byte	0x2ec
 11712 0554 00       		.byte	0
 11713 0555 0F       		.uleb128 0xf
 11714 0556 04       		.byte	0x4
 11715 0557 5B050000 		.4byte	0x55b
 11716 055b 02       		.uleb128 0x2
 11717 055c 01       		.byte	0x1
 11718 055d 08       		.byte	0x8
 11719 055e 6F050000 		.4byte	.LASF87
 11720 0562 0F       		.uleb128 0xf
 11721 0563 04       		.byte	0x4
 11722 0564 FF030000 		.4byte	0x3ff
 11723 0568 13       		.uleb128 0x13
ARM GAS  C:\Users\doug_000\AppData\Local\Temp\ccbaKQF3.s 			page 253


 11724 0569 33000000 		.4byte	0x33
 11725 056d 86050000 		.4byte	0x586
 11726 0571 14       		.uleb128 0x14
 11727 0572 1D040000 		.4byte	0x41d
 11728 0576 14       		.uleb128 0x14
 11729 0577 76000000 		.4byte	0x76
 11730 057b 14       		.uleb128 0x14
 11731 057c 86050000 		.4byte	0x586
 11732 0580 14       		.uleb128 0x14
 11733 0581 33000000 		.4byte	0x33
 11734 0585 00       		.byte	0
 11735 0586 0F       		.uleb128 0xf
 11736 0587 04       		.byte	0x4
 11737 0588 8C050000 		.4byte	0x58c
 11738 058c 18       		.uleb128 0x18
 11739 058d 5B050000 		.4byte	0x55b
 11740 0591 0F       		.uleb128 0xf
 11741 0592 04       		.byte	0x4
 11742 0593 68050000 		.4byte	0x568
 11743 0597 13       		.uleb128 0x13
 11744 0598 8E000000 		.4byte	0x8e
 11745 059c B5050000 		.4byte	0x5b5
 11746 05a0 14       		.uleb128 0x14
 11747 05a1 1D040000 		.4byte	0x41d
 11748 05a5 14       		.uleb128 0x14
 11749 05a6 76000000 		.4byte	0x76
 11750 05aa 14       		.uleb128 0x14
 11751 05ab 8E000000 		.4byte	0x8e
 11752 05af 14       		.uleb128 0x14
 11753 05b0 33000000 		.4byte	0x33
 11754 05b4 00       		.byte	0
 11755 05b5 0F       		.uleb128 0xf
 11756 05b6 04       		.byte	0x4
 11757 05b7 97050000 		.4byte	0x597
 11758 05bb 13       		.uleb128 0x13
 11759 05bc 33000000 		.4byte	0x33
 11760 05c0 CF050000 		.4byte	0x5cf
 11761 05c4 14       		.uleb128 0x14
 11762 05c5 1D040000 		.4byte	0x41d
 11763 05c9 14       		.uleb128 0x14
 11764 05ca 76000000 		.4byte	0x76
 11765 05ce 00       		.byte	0
 11766 05cf 0F       		.uleb128 0xf
 11767 05d0 04       		.byte	0x4
 11768 05d1 BB050000 		.4byte	0x5bb
 11769 05d5 09       		.uleb128 0x9
 11770 05d6 41000000 		.4byte	0x41
 11771 05da E5050000 		.4byte	0x5e5
 11772 05de 0A       		.uleb128 0xa
 11773 05df D4000000 		.4byte	0xd4
 11774 05e3 02       		.byte	0x2
 11775 05e4 00       		.byte	0
 11776 05e5 09       		.uleb128 0x9
 11777 05e6 41000000 		.4byte	0x41
 11778 05ea F5050000 		.4byte	0x5f5
 11779 05ee 0A       		.uleb128 0xa
 11780 05ef D4000000 		.4byte	0xd4
ARM GAS  C:\Users\doug_000\AppData\Local\Temp\ccbaKQF3.s 			page 254


 11781 05f3 00       		.byte	0
 11782 05f4 00       		.byte	0
 11783 05f5 06       		.uleb128 0x6
 11784 05f6 A0040000 		.4byte	.LASF88
 11785 05fa 05       		.byte	0x5
 11786 05fb 1D01     		.2byte	0x11d
 11787 05fd D5020000 		.4byte	0x2d5
 11788 0601 19       		.uleb128 0x19
 11789 0602 31070000 		.4byte	.LASF89
 11790 0606 0C       		.byte	0xc
 11791 0607 05       		.byte	0x5
 11792 0608 2101     		.2byte	0x121
 11793 060a 36060000 		.4byte	0x636
 11794 060e 16       		.uleb128 0x16
 11795 060f A4050000 		.4byte	.LASF22
 11796 0613 05       		.byte	0x5
 11797 0614 2301     		.2byte	0x123
 11798 0616 36060000 		.4byte	0x636
 11799 061a 00       		.byte	0
 11800 061b 16       		.uleb128 0x16
 11801 061c C3020000 		.4byte	.LASF90
 11802 0620 05       		.byte	0x5
 11803 0621 2401     		.2byte	0x124
 11804 0623 33000000 		.4byte	0x33
 11805 0627 04       		.byte	0x4
 11806 0628 16       		.uleb128 0x16
 11807 0629 9A040000 		.4byte	.LASF91
 11808 062d 05       		.byte	0x5
 11809 062e 2501     		.2byte	0x125
 11810 0630 3C060000 		.4byte	0x63c
 11811 0634 08       		.byte	0x8
 11812 0635 00       		.byte	0
 11813 0636 0F       		.uleb128 0xf
 11814 0637 04       		.byte	0x4
 11815 0638 01060000 		.4byte	0x601
 11816 063c 0F       		.uleb128 0xf
 11817 063d 04       		.byte	0x4
 11818 063e F5050000 		.4byte	0x5f5
 11819 0642 19       		.uleb128 0x19
 11820 0643 2F000000 		.4byte	.LASF92
 11821 0647 0E       		.byte	0xe
 11822 0648 05       		.byte	0x5
 11823 0649 3D01     		.2byte	0x13d
 11824 064b 77060000 		.4byte	0x677
 11825 064f 16       		.uleb128 0x16
 11826 0650 19050000 		.4byte	.LASF93
 11827 0654 05       		.byte	0x5
 11828 0655 3E01     		.2byte	0x13e
 11829 0657 77060000 		.4byte	0x677
 11830 065b 00       		.byte	0
 11831 065c 16       		.uleb128 0x16
 11832 065d 9E050000 		.4byte	.LASF94
 11833 0661 05       		.byte	0x5
 11834 0662 3F01     		.2byte	0x13f
 11835 0664 77060000 		.4byte	0x677
 11836 0668 06       		.byte	0x6
 11837 0669 16       		.uleb128 0x16
ARM GAS  C:\Users\doug_000\AppData\Local\Temp\ccbaKQF3.s 			page 255


 11838 066a CE050000 		.4byte	.LASF95
 11839 066e 05       		.byte	0x5
 11840 066f 4001     		.2byte	0x140
 11841 0671 4F000000 		.4byte	0x4f
 11842 0675 0C       		.byte	0xc
 11843 0676 00       		.byte	0
 11844 0677 09       		.uleb128 0x9
 11845 0678 4F000000 		.4byte	0x4f
 11846 067c 87060000 		.4byte	0x687
 11847 0680 0A       		.uleb128 0xa
 11848 0681 D4000000 		.4byte	0xd4
 11849 0685 02       		.byte	0x2
 11850 0686 00       		.byte	0
 11851 0687 1A       		.uleb128 0x1a
 11852 0688 D0       		.byte	0xd0
 11853 0689 05       		.byte	0x5
 11854 068a 5802     		.2byte	0x258
 11855 068c 88070000 		.4byte	0x788
 11856 0690 16       		.uleb128 0x16
 11857 0691 7A060000 		.4byte	.LASF96
 11858 0695 05       		.byte	0x5
 11859 0696 5A02     		.2byte	0x25a
 11860 0698 2C000000 		.4byte	0x2c
 11861 069c 00       		.byte	0
 11862 069d 16       		.uleb128 0x16
 11863 069e AA050000 		.4byte	.LASF97
 11864 06a2 05       		.byte	0x5
 11865 06a3 5B02     		.2byte	0x25b
 11866 06a5 55050000 		.4byte	0x555
 11867 06a9 04       		.byte	0x4
 11868 06aa 16       		.uleb128 0x16
 11869 06ab 0B030000 		.4byte	.LASF98
 11870 06af 05       		.byte	0x5
 11871 06b0 5C02     		.2byte	0x25c
 11872 06b2 88070000 		.4byte	0x788
 11873 06b6 08       		.byte	0x8
 11874 06b7 16       		.uleb128 0x16
 11875 06b8 94070000 		.4byte	.LASF99
 11876 06bc 05       		.byte	0x5
 11877 06bd 5D02     		.2byte	0x25d
 11878 06bf 86010000 		.4byte	0x186
 11879 06c3 24       		.byte	0x24
 11880 06c4 16       		.uleb128 0x16
 11881 06c5 12020000 		.4byte	.LASF100
 11882 06c9 05       		.byte	0x5
 11883 06ca 5E02     		.2byte	0x25e
 11884 06cc 33000000 		.4byte	0x33
 11885 06d0 48       		.byte	0x48
 11886 06d1 16       		.uleb128 0x16
 11887 06d2 C3040000 		.4byte	.LASF101
 11888 06d6 05       		.byte	0x5
 11889 06d7 5F02     		.2byte	0x25f
 11890 06d9 25000000 		.4byte	0x25
 11891 06dd 50       		.byte	0x50
 11892 06de 16       		.uleb128 0x16
 11893 06df D5030000 		.4byte	.LASF102
 11894 06e3 05       		.byte	0x5
ARM GAS  C:\Users\doug_000\AppData\Local\Temp\ccbaKQF3.s 			page 256


 11895 06e4 6002     		.2byte	0x260
 11896 06e6 42060000 		.4byte	0x642
 11897 06ea 58       		.byte	0x58
 11898 06eb 16       		.uleb128 0x16
 11899 06ec D3040000 		.4byte	.LASF103
 11900 06f0 05       		.byte	0x5
 11901 06f1 6102     		.2byte	0x261
 11902 06f3 FC000000 		.4byte	0xfc
 11903 06f7 68       		.byte	0x68
 11904 06f8 16       		.uleb128 0x16
 11905 06f9 BC070000 		.4byte	.LASF104
 11906 06fd 05       		.byte	0x5
 11907 06fe 6202     		.2byte	0x262
 11908 0700 FC000000 		.4byte	0xfc
 11909 0704 70       		.byte	0x70
 11910 0705 16       		.uleb128 0x16
 11911 0706 EA000000 		.4byte	.LASF105
 11912 070a 05       		.byte	0x5
 11913 070b 6302     		.2byte	0x263
 11914 070d FC000000 		.4byte	0xfc
 11915 0711 78       		.byte	0x78
 11916 0712 16       		.uleb128 0x16
 11917 0713 48070000 		.4byte	.LASF106
 11918 0717 05       		.byte	0x5
 11919 0718 6402     		.2byte	0x264
 11920 071a 98070000 		.4byte	0x798
 11921 071e 80       		.byte	0x80
 11922 071f 16       		.uleb128 0x16
 11923 0720 FF020000 		.4byte	.LASF107
 11924 0724 05       		.byte	0x5
 11925 0725 6502     		.2byte	0x265
 11926 0727 A8070000 		.4byte	0x7a8
 11927 072b 88       		.byte	0x88
 11928 072c 16       		.uleb128 0x16
 11929 072d DB050000 		.4byte	.LASF108
 11930 0731 05       		.byte	0x5
 11931 0732 6602     		.2byte	0x266
 11932 0734 33000000 		.4byte	0x33
 11933 0738 A0       		.byte	0xa0
 11934 0739 16       		.uleb128 0x16
 11935 073a CA010000 		.4byte	.LASF109
 11936 073e 05       		.byte	0x5
 11937 073f 6702     		.2byte	0x267
 11938 0741 FC000000 		.4byte	0xfc
 11939 0745 A4       		.byte	0xa4
 11940 0746 16       		.uleb128 0x16
 11941 0747 C9000000 		.4byte	.LASF110
 11942 074b 05       		.byte	0x5
 11943 074c 6802     		.2byte	0x268
 11944 074e FC000000 		.4byte	0xfc
 11945 0752 AC       		.byte	0xac
 11946 0753 16       		.uleb128 0x16
 11947 0754 B9010000 		.4byte	.LASF111
 11948 0758 05       		.byte	0x5
 11949 0759 6902     		.2byte	0x269
 11950 075b FC000000 		.4byte	0xfc
 11951 075f B4       		.byte	0xb4
ARM GAS  C:\Users\doug_000\AppData\Local\Temp\ccbaKQF3.s 			page 257


 11952 0760 16       		.uleb128 0x16
 11953 0761 57000000 		.4byte	.LASF112
 11954 0765 05       		.byte	0x5
 11955 0766 6A02     		.2byte	0x26a
 11956 0768 FC000000 		.4byte	0xfc
 11957 076c BC       		.byte	0xbc
 11958 076d 16       		.uleb128 0x16
 11959 076e 66000000 		.4byte	.LASF113
 11960 0772 05       		.byte	0x5
 11961 0773 6B02     		.2byte	0x26b
 11962 0775 FC000000 		.4byte	0xfc
 11963 0779 C4       		.byte	0xc4
 11964 077a 16       		.uleb128 0x16
 11965 077b 76040000 		.4byte	.LASF114
 11966 077f 05       		.byte	0x5
 11967 0780 6C02     		.2byte	0x26c
 11968 0782 33000000 		.4byte	0x33
 11969 0786 CC       		.byte	0xcc
 11970 0787 00       		.byte	0
 11971 0788 09       		.uleb128 0x9
 11972 0789 5B050000 		.4byte	0x55b
 11973 078d 98070000 		.4byte	0x798
 11974 0791 0A       		.uleb128 0xa
 11975 0792 D4000000 		.4byte	0xd4
 11976 0796 19       		.byte	0x19
 11977 0797 00       		.byte	0
 11978 0798 09       		.uleb128 0x9
 11979 0799 5B050000 		.4byte	0x55b
 11980 079d A8070000 		.4byte	0x7a8
 11981 07a1 0A       		.uleb128 0xa
 11982 07a2 D4000000 		.4byte	0xd4
 11983 07a6 07       		.byte	0x7
 11984 07a7 00       		.byte	0
 11985 07a8 09       		.uleb128 0x9
 11986 07a9 5B050000 		.4byte	0x55b
 11987 07ad B8070000 		.4byte	0x7b8
 11988 07b1 0A       		.uleb128 0xa
 11989 07b2 D4000000 		.4byte	0xd4
 11990 07b6 17       		.byte	0x17
 11991 07b7 00       		.byte	0
 11992 07b8 1A       		.uleb128 0x1a
 11993 07b9 F0       		.byte	0xf0
 11994 07ba 05       		.byte	0x5
 11995 07bb 7102     		.2byte	0x271
 11996 07bd DC070000 		.4byte	0x7dc
 11997 07c1 16       		.uleb128 0x16
 11998 07c2 C3030000 		.4byte	.LASF115
 11999 07c6 05       		.byte	0x5
 12000 07c7 7402     		.2byte	0x274
 12001 07c9 DC070000 		.4byte	0x7dc
 12002 07cd 00       		.byte	0
 12003 07ce 16       		.uleb128 0x16
 12004 07cf 3F070000 		.4byte	.LASF116
 12005 07d3 05       		.byte	0x5
 12006 07d4 7502     		.2byte	0x275
 12007 07d6 EC070000 		.4byte	0x7ec
 12008 07da 78       		.byte	0x78
ARM GAS  C:\Users\doug_000\AppData\Local\Temp\ccbaKQF3.s 			page 258


 12009 07db 00       		.byte	0
 12010 07dc 09       		.uleb128 0x9
 12011 07dd CF020000 		.4byte	0x2cf
 12012 07e1 EC070000 		.4byte	0x7ec
 12013 07e5 0A       		.uleb128 0xa
 12014 07e6 D4000000 		.4byte	0xd4
 12015 07ea 1D       		.byte	0x1d
 12016 07eb 00       		.byte	0
 12017 07ec 09       		.uleb128 0x9
 12018 07ed 2C000000 		.4byte	0x2c
 12019 07f1 FC070000 		.4byte	0x7fc
 12020 07f5 0A       		.uleb128 0xa
 12021 07f6 D4000000 		.4byte	0xd4
 12022 07fa 1D       		.byte	0x1d
 12023 07fb 00       		.byte	0
 12024 07fc 1B       		.uleb128 0x1b
 12025 07fd F0       		.byte	0xf0
 12026 07fe 05       		.byte	0x5
 12027 07ff 5602     		.2byte	0x256
 12028 0801 1E080000 		.4byte	0x81e
 12029 0805 1C       		.uleb128 0x1c
 12030 0806 12050000 		.4byte	.LASF65
 12031 080a 05       		.byte	0x5
 12032 080b 6D02     		.2byte	0x26d
 12033 080d 87060000 		.4byte	0x687
 12034 0811 1C       		.uleb128 0x1c
 12035 0812 76070000 		.4byte	.LASF117
 12036 0816 05       		.byte	0x5
 12037 0817 7602     		.2byte	0x276
 12038 0819 B8070000 		.4byte	0x7b8
 12039 081d 00       		.byte	0
 12040 081e 09       		.uleb128 0x9
 12041 081f 5B050000 		.4byte	0x55b
 12042 0823 2E080000 		.4byte	0x82e
 12043 0827 0A       		.uleb128 0xa
 12044 0828 D4000000 		.4byte	0xd4
 12045 082c 18       		.byte	0x18
 12046 082d 00       		.byte	0
 12047 082e 1D       		.uleb128 0x1d
 12048 082f 39080000 		.4byte	0x839
 12049 0833 14       		.uleb128 0x14
 12050 0834 1D040000 		.4byte	0x41d
 12051 0838 00       		.byte	0
 12052 0839 0F       		.uleb128 0xf
 12053 083a 04       		.byte	0x4
 12054 083b 2E080000 		.4byte	0x82e
 12055 083f 0F       		.uleb128 0xf
 12056 0840 04       		.byte	0x4
 12057 0841 70010000 		.4byte	0x170
 12058 0845 1D       		.uleb128 0x1d
 12059 0846 50080000 		.4byte	0x850
 12060 084a 14       		.uleb128 0x14
 12061 084b 33000000 		.4byte	0x33
 12062 084f 00       		.byte	0
 12063 0850 0F       		.uleb128 0xf
 12064 0851 04       		.byte	0x4
 12065 0852 56080000 		.4byte	0x856
ARM GAS  C:\Users\doug_000\AppData\Local\Temp\ccbaKQF3.s 			page 259


 12066 0856 0F       		.uleb128 0xf
 12067 0857 04       		.byte	0x4
 12068 0858 45080000 		.4byte	0x845
 12069 085c 09       		.uleb128 0x9
 12070 085d F5050000 		.4byte	0x5f5
 12071 0861 6C080000 		.4byte	0x86c
 12072 0865 0A       		.uleb128 0xa
 12073 0866 D4000000 		.4byte	0xd4
 12074 086a 02       		.byte	0x2
 12075 086b 00       		.byte	0
 12076 086c 04       		.uleb128 0x4
 12077 086d 7B030000 		.4byte	.LASF118
 12078 0871 06       		.byte	0x6
 12079 0872 34       		.byte	0x34
 12080 0873 F5050000 		.4byte	0x5f5
 12081 0877 0F       		.uleb128 0xf
 12082 0878 04       		.byte	0x4
 12083 0879 7D080000 		.4byte	0x87d
 12084 087d 1E       		.uleb128 0x1e
 12085 087e 1F       		.uleb128 0x1f
 12086 087f 42030000 		.4byte	.LASF120
 12087 0883 01       		.byte	0x1
 12088 0884 1B       		.byte	0x1b
 12089 0885 5B050000 		.4byte	0x55b
 12090 0889 00000000 		.4byte	.LFB0
 12091 088d 14000000 		.4byte	.LFE0-.LFB0
 12092 0891 01       		.uleb128 0x1
 12093 0892 9C       		.byte	0x9c
 12094 0893 C6080000 		.4byte	0x8c6
 12095 0897 20       		.uleb128 0x20
 12096 0898 666900   		.ascii	"fi\000"
 12097 089b 01       		.byte	0x1
 12098 089c 1B       		.byte	0x1b
 12099 089d C6080000 		.4byte	0x8c6
 12100 08a1 00000000 		.4byte	.LLST0
 12101 08a5 21       		.uleb128 0x21
 12102 08a6 63686E00 		.ascii	"chn\000"
 12103 08aa 01       		.byte	0x1
 12104 08ab 1C       		.byte	0x1c
 12105 08ac 33000000 		.4byte	0x33
 12106 08b0 21000000 		.4byte	.LLST1
 12107 08b4 22       		.uleb128 0x22
 12108 08b5 06000000 		.4byte	.LVL1
 12109 08b9 233C0000 		.4byte	0x3c23
 12110 08bd 23       		.uleb128 0x23
 12111 08be 01       		.uleb128 0x1
 12112 08bf 50       		.byte	0x50
 12113 08c0 03       		.uleb128 0x3
 12114 08c1 F3       		.byte	0xf3
 12115 08c2 01       		.uleb128 0x1
 12116 08c3 50       		.byte	0x50
 12117 08c4 00       		.byte	0
 12118 08c5 00       		.byte	0
 12119 08c6 0F       		.uleb128 0xf
 12120 08c7 04       		.byte	0x4
 12121 08c8 6C080000 		.4byte	0x86c
 12122 08cc 24       		.uleb128 0x24
ARM GAS  C:\Users\doug_000\AppData\Local\Temp\ccbaKQF3.s 			page 260


 12123 08cd DA030000 		.4byte	.LASF122
 12124 08d1 01       		.byte	0x1
 12125 08d2 5A       		.byte	0x5a
 12126 08d3 00000000 		.4byte	.LFB1
 12127 08d7 14000000 		.4byte	.LFE1-.LFB1
 12128 08db 01       		.uleb128 0x1
 12129 08dc 9C       		.byte	0x9c
 12130 08dd FE080000 		.4byte	0x8fe
 12131 08e1 20       		.uleb128 0x20
 12132 08e2 6C6F6300 		.ascii	"loc\000"
 12133 08e6 01       		.byte	0x1
 12134 08e7 5A       		.byte	0x5a
 12135 08e8 33000000 		.4byte	0x33
 12136 08ec 3F000000 		.4byte	.LLST2
 12137 08f0 25       		.uleb128 0x25
 12138 08f1 A0030000 		.4byte	.LASF119
 12139 08f5 01       		.byte	0x1
 12140 08f6 5A       		.byte	0x5a
 12141 08f7 33000000 		.4byte	0x33
 12142 08fb 01       		.uleb128 0x1
 12143 08fc 51       		.byte	0x51
 12144 08fd 00       		.byte	0
 12145 08fe 1F       		.uleb128 0x1f
 12146 08ff B3030000 		.4byte	.LASF121
 12147 0903 01       		.byte	0x1
 12148 0904 5E       		.byte	0x5e
 12149 0905 33000000 		.4byte	0x33
 12150 0909 00000000 		.4byte	.LFB2
 12151 090d 14000000 		.4byte	.LFE2-.LFB2
 12152 0911 01       		.uleb128 0x1
 12153 0912 9C       		.byte	0x9c
 12154 0913 27090000 		.4byte	0x927
 12155 0917 20       		.uleb128 0x20
 12156 0918 6C6F6300 		.ascii	"loc\000"
 12157 091c 01       		.byte	0x1
 12158 091d 5E       		.byte	0x5e
 12159 091e 33000000 		.4byte	0x33
 12160 0922 5F000000 		.4byte	.LLST3
 12161 0926 00       		.byte	0
 12162 0927 24       		.uleb128 0x24
 12163 0928 FE050000 		.4byte	.LASF123
 12164 092c 01       		.byte	0x1
 12165 092d 63       		.byte	0x63
 12166 092e 00000000 		.4byte	.LFB3
 12167 0932 FC000000 		.4byte	.LFE3-.LFB3
 12168 0936 01       		.uleb128 0x1
 12169 0937 9C       		.byte	0x9c
 12170 0938 BB090000 		.4byte	0x9bb
 12171 093c 20       		.uleb128 0x20
 12172 093d 636800   		.ascii	"ch\000"
 12173 0940 01       		.byte	0x1
 12174 0941 63       		.byte	0x63
 12175 0942 5B050000 		.4byte	0x55b
 12176 0946 8D000000 		.4byte	.LLST4
 12177 094a 26       		.uleb128 0x26
 12178 094b 12000000 		.4byte	.LVL11
 12179 094f 383C0000 		.4byte	0x3c38
ARM GAS  C:\Users\doug_000\AppData\Local\Temp\ccbaKQF3.s 			page 261


 12180 0953 5E090000 		.4byte	0x95e
 12181 0957 23       		.uleb128 0x23
 12182 0958 01       		.uleb128 0x1
 12183 0959 50       		.byte	0x50
 12184 095a 02       		.uleb128 0x2
 12185 095b 74       		.byte	0x74
 12186 095c 00       		.sleb128 0
 12187 095d 00       		.byte	0
 12188 095e 26       		.uleb128 0x26
 12189 095f 1E000000 		.4byte	.LVL14
 12190 0963 383C0000 		.4byte	0x3c38
 12191 0967 71090000 		.4byte	0x971
 12192 096b 23       		.uleb128 0x23
 12193 096c 01       		.uleb128 0x1
 12194 096d 50       		.byte	0x50
 12195 096e 01       		.uleb128 0x1
 12196 096f 3A       		.byte	0x3a
 12197 0970 00       		.byte	0
 12198 0971 26       		.uleb128 0x26
 12199 0972 64000000 		.4byte	.LVL15
 12200 0976 523C0000 		.4byte	0x3c52
 12201 097a 84090000 		.4byte	0x984
 12202 097e 23       		.uleb128 0x23
 12203 097f 01       		.uleb128 0x1
 12204 0980 51       		.byte	0x51
 12205 0981 01       		.uleb128 0x1
 12206 0982 3A       		.byte	0x3a
 12207 0983 00       		.byte	0
 12208 0984 26       		.uleb128 0x26
 12209 0985 6C000000 		.4byte	.LVL16
 12210 0989 523C0000 		.4byte	0x3c52
 12211 098d 97090000 		.4byte	0x997
 12212 0991 23       		.uleb128 0x23
 12213 0992 01       		.uleb128 0x1
 12214 0993 51       		.byte	0x51
 12215 0994 01       		.uleb128 0x1
 12216 0995 3A       		.byte	0x3a
 12217 0996 00       		.byte	0
 12218 0997 26       		.uleb128 0x26
 12219 0998 D0000000 		.4byte	.LVL17
 12220 099c 523C0000 		.4byte	0x3c52
 12221 09a0 AA090000 		.4byte	0x9aa
 12222 09a4 23       		.uleb128 0x23
 12223 09a5 01       		.uleb128 0x1
 12224 09a6 51       		.byte	0x51
 12225 09a7 01       		.uleb128 0x1
 12226 09a8 3A       		.byte	0x3a
 12227 09a9 00       		.byte	0
 12228 09aa 22       		.uleb128 0x22
 12229 09ab D8000000 		.4byte	.LVL18
 12230 09af 523C0000 		.4byte	0x3c52
 12231 09b3 23       		.uleb128 0x23
 12232 09b4 01       		.uleb128 0x1
 12233 09b5 51       		.byte	0x51
 12234 09b6 02       		.uleb128 0x2
 12235 09b7 74       		.byte	0x74
 12236 09b8 00       		.sleb128 0
ARM GAS  C:\Users\doug_000\AppData\Local\Temp\ccbaKQF3.s 			page 262


 12237 09b9 00       		.byte	0
 12238 09ba 00       		.byte	0
 12239 09bb 1F       		.uleb128 0x1f
 12240 09bc 8B050000 		.4byte	.LASF124
 12241 09c0 01       		.byte	0x1
 12242 09c1 6E       		.byte	0x6e
 12243 09c2 5B050000 		.4byte	0x55b
 12244 09c6 00000000 		.4byte	.LFB4
 12245 09ca 80000000 		.4byte	.LFE4-.LFB4
 12246 09ce 01       		.uleb128 0x1
 12247 09cf 9C       		.byte	0x9c
 12248 09d0 220A0000 		.4byte	0xa22
 12249 09d4 21       		.uleb128 0x21
 12250 09d5 636800   		.ascii	"ch\000"
 12251 09d8 01       		.byte	0x1
 12252 09d9 6F       		.byte	0x6f
 12253 09da 5B050000 		.4byte	0x55b
 12254 09de C7000000 		.4byte	.LLST5
 12255 09e2 27       		.uleb128 0x27
 12256 09e3 0C000000 		.4byte	.LVL19
 12257 09e7 7E080000 		.4byte	0x87e
 12258 09eb 27       		.uleb128 0x27
 12259 09ec 1E000000 		.4byte	.LVL23
 12260 09f0 723C0000 		.4byte	0x3c72
 12261 09f4 26       		.uleb128 0x26
 12262 09f5 2A000000 		.4byte	.LVL25
 12263 09f9 27090000 		.4byte	0x927
 12264 09fd 080A0000 		.4byte	0xa08
 12265 0a01 23       		.uleb128 0x23
 12266 0a02 01       		.uleb128 0x1
 12267 0a03 50       		.byte	0x50
 12268 0a04 02       		.uleb128 0x2
 12269 0a05 74       		.byte	0x74
 12270 0a06 00       		.sleb128 0
 12271 0a07 00       		.byte	0
 12272 0a08 27       		.uleb128 0x27
 12273 0a09 46000000 		.4byte	.LVL27
 12274 0a0d 873C0000 		.4byte	0x3c87
 12275 0a11 22       		.uleb128 0x22
 12276 0a12 60000000 		.4byte	.LVL29
 12277 0a16 383C0000 		.4byte	0x3c38
 12278 0a1a 23       		.uleb128 0x23
 12279 0a1b 01       		.uleb128 0x1
 12280 0a1c 50       		.byte	0x50
 12281 0a1d 02       		.uleb128 0x2
 12282 0a1e 74       		.byte	0x74
 12283 0a1f 00       		.sleb128 0
 12284 0a20 00       		.byte	0
 12285 0a21 00       		.byte	0
 12286 0a22 28       		.uleb128 0x28
 12287 0a23 85020000 		.4byte	.LASF209
 12288 0a27 01       		.byte	0x1
 12289 0a28 81       		.byte	0x81
 12290 0a29 33000000 		.4byte	0x33
 12291 0a2d 00000000 		.4byte	.LFB5
 12292 0a31 0C000000 		.4byte	.LFE5-.LFB5
 12293 0a35 01       		.uleb128 0x1
ARM GAS  C:\Users\doug_000\AppData\Local\Temp\ccbaKQF3.s 			page 263


 12294 0a36 9C       		.byte	0x9c
 12295 0a37 24       		.uleb128 0x24
 12296 0a38 74050000 		.4byte	.LASF125
 12297 0a3c 01       		.byte	0x1
 12298 0a3d 83       		.byte	0x83
 12299 0a3e 00000000 		.4byte	.LFB6
 12300 0a42 14000000 		.4byte	.LFE6-.LFB6
 12301 0a46 01       		.uleb128 0x1
 12302 0a47 9C       		.byte	0x9c
 12303 0a48 650A0000 		.4byte	0xa65
 12304 0a4c 29       		.uleb128 0x29
 12305 0a4d 84050000 		.4byte	.LASF126
 12306 0a51 01       		.byte	0x1
 12307 0a52 83       		.byte	0x83
 12308 0a53 55050000 		.4byte	0x555
 12309 0a57 12010000 		.4byte	.LLST6
 12310 0a5b 27       		.uleb128 0x27
 12311 0a5c 0C000000 		.4byte	.LVL36
 12312 0a60 27090000 		.4byte	0x927
 12313 0a64 00       		.byte	0
 12314 0a65 24       		.uleb128 0x24
 12315 0a66 80030000 		.4byte	.LASF127
 12316 0a6a 01       		.byte	0x1
 12317 0a6b 86       		.byte	0x86
 12318 0a6c 00000000 		.4byte	.LFB7
 12319 0a70 10000000 		.4byte	.LFE7-.LFB7
 12320 0a74 01       		.uleb128 0x1
 12321 0a75 9C       		.byte	0x9c
 12322 0a76 8E0A0000 		.4byte	0xa8e
 12323 0a7a 22       		.uleb128 0x22
 12324 0a7b 08000000 		.4byte	.LVL37
 12325 0a7f 370A0000 		.4byte	0xa37
 12326 0a83 23       		.uleb128 0x23
 12327 0a84 01       		.uleb128 0x1
 12328 0a85 50       		.byte	0x50
 12329 0a86 05       		.uleb128 0x5
 12330 0a87 03       		.byte	0x3
 12331 0a88 00000000 		.4byte	.LC0
 12332 0a8c 00       		.byte	0
 12333 0a8d 00       		.byte	0
 12334 0a8e 24       		.uleb128 0x24
 12335 0a8f E0030000 		.4byte	.LASF128
 12336 0a93 01       		.byte	0x1
 12337 0a94 89       		.byte	0x89
 12338 0a95 00000000 		.4byte	.LFB8
 12339 0a99 44000000 		.4byte	.LFE8-.LFB8
 12340 0a9d 01       		.uleb128 0x1
 12341 0a9e 9C       		.byte	0x9c
 12342 0a9f 280B0000 		.4byte	0xb28
 12343 0aa3 29       		.uleb128 0x29
 12344 0aa4 87060000 		.4byte	.LASF129
 12345 0aa8 01       		.byte	0x1
 12346 0aa9 89       		.byte	0x89
 12347 0aaa 33000000 		.4byte	0x33
 12348 0aae 30010000 		.4byte	.LLST7
 12349 0ab2 26       		.uleb128 0x26
 12350 0ab3 0C000000 		.4byte	.LVL40
ARM GAS  C:\Users\doug_000\AppData\Local\Temp\ccbaKQF3.s 			page 264


 12351 0ab7 27090000 		.4byte	0x927
 12352 0abb C60A0000 		.4byte	0xac6
 12353 0abf 23       		.uleb128 0x23
 12354 0ac0 01       		.uleb128 0x1
 12355 0ac1 50       		.byte	0x50
 12356 0ac2 02       		.uleb128 0x2
 12357 0ac3 08       		.byte	0x8
 12358 0ac4 2D       		.byte	0x2d
 12359 0ac5 00       		.byte	0
 12360 0ac6 26       		.uleb128 0x26
 12361 0ac7 22000000 		.4byte	.LVL42
 12362 0acb 8E0A0000 		.4byte	0xa8e
 12363 0acf F40A0000 		.4byte	0xaf4
 12364 0ad3 23       		.uleb128 0x23
 12365 0ad4 01       		.uleb128 0x1
 12366 0ad5 50       		.byte	0x50
 12367 0ad6 1C       		.uleb128 0x1c
 12368 0ad7 74       		.byte	0x74
 12369 0ad8 00       		.sleb128 0
 12370 0ad9 F7       		.byte	0xf7
 12371 0ada 33       		.uleb128 0x33
 12372 0adb F7       		.byte	0xf7
 12373 0adc 25       		.uleb128 0x25
 12374 0add 0C       		.byte	0xc
 12375 0ade 67666666 		.4byte	0x66666667
 12376 0ae2 F7       		.byte	0xf7
 12377 0ae3 25       		.uleb128 0x25
 12378 0ae4 1E       		.byte	0x1e
 12379 0ae5 08       		.byte	0x8
 12380 0ae6 20       		.byte	0x20
 12381 0ae7 F7       		.byte	0xf7
 12382 0ae8 25       		.uleb128 0x25
 12383 0ae9 25       		.byte	0x25
 12384 0aea F7       		.byte	0xf7
 12385 0aeb 2C       		.uleb128 0x2c
 12386 0aec 32       		.byte	0x32
 12387 0aed 26       		.byte	0x26
 12388 0aee 74       		.byte	0x74
 12389 0aef 00       		.sleb128 0
 12390 0af0 4F       		.byte	0x4f
 12391 0af1 26       		.byte	0x26
 12392 0af2 1C       		.byte	0x1c
 12393 0af3 00       		.byte	0
 12394 0af4 22       		.uleb128 0x22
 12395 0af5 3E000000 		.4byte	.LVL43
 12396 0af9 27090000 		.4byte	0x927
 12397 0afd 23       		.uleb128 0x23
 12398 0afe 01       		.uleb128 0x1
 12399 0aff 50       		.byte	0x50
 12400 0b00 25       		.uleb128 0x25
 12401 0b01 74       		.byte	0x74
 12402 0b02 00       		.sleb128 0
 12403 0b03 74       		.byte	0x74
 12404 0b04 00       		.sleb128 0
 12405 0b05 F7       		.byte	0xf7
 12406 0b06 33       		.uleb128 0x33
 12407 0b07 F7       		.byte	0xf7
ARM GAS  C:\Users\doug_000\AppData\Local\Temp\ccbaKQF3.s 			page 265


 12408 0b08 25       		.uleb128 0x25
 12409 0b09 0C       		.byte	0xc
 12410 0b0a 67666666 		.4byte	0x66666667
 12411 0b0e F7       		.byte	0xf7
 12412 0b0f 25       		.uleb128 0x25
 12413 0b10 1E       		.byte	0x1e
 12414 0b11 08       		.byte	0x8
 12415 0b12 20       		.byte	0x20
 12416 0b13 F7       		.byte	0xf7
 12417 0b14 25       		.uleb128 0x25
 12418 0b15 25       		.byte	0x25
 12419 0b16 F7       		.byte	0xf7
 12420 0b17 2C       		.uleb128 0x2c
 12421 0b18 32       		.byte	0x32
 12422 0b19 26       		.byte	0x26
 12423 0b1a 74       		.byte	0x74
 12424 0b1b 00       		.sleb128 0
 12425 0b1c 4F       		.byte	0x4f
 12426 0b1d 26       		.byte	0x26
 12427 0b1e 1C       		.byte	0x1c
 12428 0b1f 35       		.byte	0x35
 12429 0b20 1E       		.byte	0x1e
 12430 0b21 31       		.byte	0x31
 12431 0b22 24       		.byte	0x24
 12432 0b23 1C       		.byte	0x1c
 12433 0b24 23       		.byte	0x23
 12434 0b25 30       		.uleb128 0x30
 12435 0b26 00       		.byte	0
 12436 0b27 00       		.byte	0
 12437 0b28 24       		.uleb128 0x24
 12438 0b29 F0030000 		.4byte	.LASF130
 12439 0b2d 01       		.byte	0x1
 12440 0b2e 92       		.byte	0x92
 12441 0b2f 00000000 		.4byte	.LFB9
 12442 0b33 28000000 		.4byte	.LFE9-.LFB9
 12443 0b37 01       		.uleb128 0x1
 12444 0b38 9C       		.byte	0x9c
 12445 0b39 A60B0000 		.4byte	0xba6
 12446 0b3d 20       		.uleb128 0x20
 12447 0b3e 6E756D00 		.ascii	"num\000"
 12448 0b42 01       		.byte	0x1
 12449 0b43 92       		.byte	0x92
 12450 0b44 33000000 		.4byte	0x33
 12451 0b48 4E010000 		.4byte	.LLST8
 12452 0b4c 20       		.uleb128 0x20
 12453 0b4d 6E6400   		.ascii	"nd\000"
 12454 0b50 01       		.byte	0x1
 12455 0b51 92       		.byte	0x92
 12456 0b52 33000000 		.4byte	0x33
 12457 0b56 BA010000 		.4byte	.LLST9
 12458 0b5a 26       		.uleb128 0x26
 12459 0b5b 10000000 		.4byte	.LVL48
 12460 0b5f 280B0000 		.4byte	0xb28
 12461 0b63 790B0000 		.4byte	0xb79
 12462 0b67 23       		.uleb128 0x23
 12463 0b68 01       		.uleb128 0x1
 12464 0b69 51       		.byte	0x51
ARM GAS  C:\Users\doug_000\AppData\Local\Temp\ccbaKQF3.s 			page 266


 12465 0b6a 05       		.uleb128 0x5
 12466 0b6b F3       		.byte	0xf3
 12467 0b6c 01       		.uleb128 0x1
 12468 0b6d 51       		.byte	0x51
 12469 0b6e 31       		.byte	0x31
 12470 0b6f 1C       		.byte	0x1c
 12471 0b70 23       		.uleb128 0x23
 12472 0b71 01       		.uleb128 0x1
 12473 0b72 50       		.byte	0x50
 12474 0b73 04       		.uleb128 0x4
 12475 0b74 74       		.byte	0x74
 12476 0b75 00       		.sleb128 0
 12477 0b76 34       		.byte	0x34
 12478 0b77 26       		.byte	0x26
 12479 0b78 00       		.byte	0
 12480 0b79 26       		.uleb128 0x26
 12481 0b7a 1E000000 		.4byte	.LVL51
 12482 0b7e 27090000 		.4byte	0x927
 12483 0b82 910B0000 		.4byte	0xb91
 12484 0b86 23       		.uleb128 0x23
 12485 0b87 01       		.uleb128 0x1
 12486 0b88 50       		.byte	0x50
 12487 0b89 06       		.uleb128 0x6
 12488 0b8a 74       		.byte	0x74
 12489 0b8b 00       		.sleb128 0
 12490 0b8c 3F       		.byte	0x3f
 12491 0b8d 1A       		.byte	0x1a
 12492 0b8e 23       		.byte	0x23
 12493 0b8f 37       		.uleb128 0x37
 12494 0b90 00       		.byte	0
 12495 0b91 22       		.uleb128 0x22
 12496 0b92 26000000 		.4byte	.LVL54
 12497 0b96 27090000 		.4byte	0x927
 12498 0b9a 23       		.uleb128 0x23
 12499 0b9b 01       		.uleb128 0x1
 12500 0b9c 50       		.byte	0x50
 12501 0b9d 06       		.uleb128 0x6
 12502 0b9e 74       		.byte	0x74
 12503 0b9f 00       		.sleb128 0
 12504 0ba0 3F       		.byte	0x3f
 12505 0ba1 1A       		.byte	0x1a
 12506 0ba2 23       		.byte	0x23
 12507 0ba3 30       		.uleb128 0x30
 12508 0ba4 00       		.byte	0
 12509 0ba5 00       		.byte	0
 12510 0ba6 24       		.uleb128 0x24
 12511 0ba7 4A010000 		.4byte	.LASF131
 12512 0bab 01       		.byte	0x1
 12513 0bac 98       		.byte	0x98
 12514 0bad 00000000 		.4byte	.LFB10
 12515 0bb1 50000000 		.4byte	.LFE10-.LFB10
 12516 0bb5 01       		.uleb128 0x1
 12517 0bb6 9C       		.byte	0x9c
 12518 0bb7 440C0000 		.4byte	0xc44
 12519 0bbb 21       		.uleb128 0x21
 12520 0bbc 697800   		.ascii	"ix\000"
 12521 0bbf 01       		.byte	0x1
ARM GAS  C:\Users\doug_000\AppData\Local\Temp\ccbaKQF3.s 			page 267


 12522 0bc0 99       		.byte	0x99
 12523 0bc1 33000000 		.4byte	0x33
 12524 0bc5 E8010000 		.4byte	.LLST10
 12525 0bc9 27       		.uleb128 0x27
 12526 0bca 06000000 		.4byte	.LVL55
 12527 0bce 650A0000 		.4byte	0xa65
 12528 0bd2 26       		.uleb128 0x26
 12529 0bd3 0C000000 		.4byte	.LVL56
 12530 0bd7 370A0000 		.4byte	0xa37
 12531 0bdb E90B0000 		.4byte	0xbe9
 12532 0bdf 23       		.uleb128 0x23
 12533 0be0 01       		.uleb128 0x1
 12534 0be1 50       		.byte	0x50
 12535 0be2 05       		.uleb128 0x5
 12536 0be3 03       		.byte	0x3
 12537 0be4 04000000 		.4byte	.LC1
 12538 0be8 00       		.byte	0
 12539 0be9 26       		.uleb128 0x26
 12540 0bea 16000000 		.4byte	.LVL57
 12541 0bee 280B0000 		.4byte	0xb28
 12542 0bf2 FC0B0000 		.4byte	0xbfc
 12543 0bf6 23       		.uleb128 0x23
 12544 0bf7 01       		.uleb128 0x1
 12545 0bf8 51       		.byte	0x51
 12546 0bf9 01       		.uleb128 0x1
 12547 0bfa 35       		.byte	0x35
 12548 0bfb 00       		.byte	0
 12549 0bfc 26       		.uleb128 0x26
 12550 0bfd 20000000 		.4byte	.LVL59
 12551 0c01 370A0000 		.4byte	0xa37
 12552 0c05 130C0000 		.4byte	0xc13
 12553 0c09 23       		.uleb128 0x23
 12554 0c0a 01       		.uleb128 0x1
 12555 0c0b 50       		.byte	0x50
 12556 0c0c 05       		.uleb128 0x5
 12557 0c0d 03       		.byte	0x3
 12558 0c0e 0C000000 		.4byte	.LC2
 12559 0c12 00       		.byte	0
 12560 0c13 26       		.uleb128 0x26
 12561 0c14 26000000 		.4byte	.LVL60
 12562 0c18 FE080000 		.4byte	0x8fe
 12563 0c1c 270C0000 		.4byte	0xc27
 12564 0c20 23       		.uleb128 0x23
 12565 0c21 01       		.uleb128 0x1
 12566 0c22 50       		.byte	0x50
 12567 0c23 02       		.uleb128 0x2
 12568 0c24 74       		.byte	0x74
 12569 0c25 00       		.sleb128 0
 12570 0c26 00       		.byte	0
 12571 0c27 27       		.uleb128 0x27
 12572 0c28 2A000000 		.4byte	.LVL61
 12573 0c2c 8E0A0000 		.4byte	0xa8e
 12574 0c30 22       		.uleb128 0x22
 12575 0c31 3A000000 		.4byte	.LVL63
 12576 0c35 370A0000 		.4byte	0xa37
 12577 0c39 23       		.uleb128 0x23
 12578 0c3a 01       		.uleb128 0x1
ARM GAS  C:\Users\doug_000\AppData\Local\Temp\ccbaKQF3.s 			page 268


 12579 0c3b 50       		.byte	0x50
 12580 0c3c 05       		.uleb128 0x5
 12581 0c3d 03       		.byte	0x3
 12582 0c3e 10000000 		.4byte	.LC3
 12583 0c42 00       		.byte	0
 12584 0c43 00       		.byte	0
 12585 0c44 24       		.uleb128 0x24
 12586 0c45 9F000000 		.4byte	.LASF132
 12587 0c49 01       		.byte	0x1
 12588 0c4a A0       		.byte	0xa0
 12589 0c4b 00000000 		.4byte	.LFB11
 12590 0c4f 70000000 		.4byte	.LFE11-.LFB11
 12591 0c53 01       		.uleb128 0x1
 12592 0c54 9C       		.byte	0x9c
 12593 0c55 020D0000 		.4byte	0xd02
 12594 0c59 21       		.uleb128 0x21
 12595 0c5a 697800   		.ascii	"ix\000"
 12596 0c5d 01       		.byte	0x1
 12597 0c5e A1       		.byte	0xa1
 12598 0c5f 33000000 		.4byte	0x33
 12599 0c63 13020000 		.4byte	.LLST11
 12600 0c67 27       		.uleb128 0x27
 12601 0c68 06000000 		.4byte	.LVL65
 12602 0c6c 650A0000 		.4byte	0xa65
 12603 0c70 26       		.uleb128 0x26
 12604 0c71 0C000000 		.4byte	.LVL66
 12605 0c75 370A0000 		.4byte	0xa37
 12606 0c79 870C0000 		.4byte	0xc87
 12607 0c7d 23       		.uleb128 0x23
 12608 0c7e 01       		.uleb128 0x1
 12609 0c7f 50       		.byte	0x50
 12610 0c80 05       		.uleb128 0x5
 12611 0c81 03       		.byte	0x3
 12612 0c82 14000000 		.4byte	.LC4
 12613 0c86 00       		.byte	0
 12614 0c87 26       		.uleb128 0x26
 12615 0c88 16000000 		.4byte	.LVL67
 12616 0c8c 280B0000 		.4byte	0xb28
 12617 0c90 9A0C0000 		.4byte	0xc9a
 12618 0c94 23       		.uleb128 0x23
 12619 0c95 01       		.uleb128 0x1
 12620 0c96 51       		.byte	0x51
 12621 0c97 01       		.uleb128 0x1
 12622 0c98 33       		.byte	0x33
 12623 0c99 00       		.byte	0
 12624 0c9a 26       		.uleb128 0x26
 12625 0c9b 26000000 		.4byte	.LVL69
 12626 0c9f 370A0000 		.4byte	0xa37
 12627 0ca3 B10C0000 		.4byte	0xcb1
 12628 0ca7 23       		.uleb128 0x23
 12629 0ca8 01       		.uleb128 0x1
 12630 0ca9 50       		.byte	0x50
 12631 0caa 05       		.uleb128 0x5
 12632 0cab 03       		.byte	0x3
 12633 0cac 0C000000 		.4byte	.LC2
 12634 0cb0 00       		.byte	0
 12635 0cb1 26       		.uleb128 0x26
ARM GAS  C:\Users\doug_000\AppData\Local\Temp\ccbaKQF3.s 			page 269


 12636 0cb2 2C000000 		.4byte	.LVL70
 12637 0cb6 FE080000 		.4byte	0x8fe
 12638 0cba C50C0000 		.4byte	0xcc5
 12639 0cbe 23       		.uleb128 0x23
 12640 0cbf 01       		.uleb128 0x1
 12641 0cc0 50       		.byte	0x50
 12642 0cc1 02       		.uleb128 0x2
 12643 0cc2 74       		.byte	0x74
 12644 0cc3 00       		.sleb128 0
 12645 0cc4 00       		.byte	0
 12646 0cc5 27       		.uleb128 0x27
 12647 0cc6 32000000 		.4byte	.LVL71
 12648 0cca 8E0A0000 		.4byte	0xa8e
 12649 0cce 26       		.uleb128 0x26
 12650 0ccf 40000000 		.4byte	.LVL73
 12651 0cd3 370A0000 		.4byte	0xa37
 12652 0cd7 E50C0000 		.4byte	0xce5
 12653 0cdb 23       		.uleb128 0x23
 12654 0cdc 01       		.uleb128 0x1
 12655 0cdd 50       		.byte	0x50
 12656 0cde 05       		.uleb128 0x5
 12657 0cdf 03       		.byte	0x3
 12658 0ce0 1C000000 		.4byte	.LC5
 12659 0ce4 00       		.byte	0
 12660 0ce5 27       		.uleb128 0x27
 12661 0ce6 48000000 		.4byte	.LVL74
 12662 0cea 8E0A0000 		.4byte	0xa8e
 12663 0cee 22       		.uleb128 0x22
 12664 0cef 54000000 		.4byte	.LVL76
 12665 0cf3 370A0000 		.4byte	0xa37
 12666 0cf7 23       		.uleb128 0x23
 12667 0cf8 01       		.uleb128 0x1
 12668 0cf9 50       		.byte	0x50
 12669 0cfa 05       		.uleb128 0x5
 12670 0cfb 03       		.byte	0x3
 12671 0cfc 10000000 		.4byte	.LC3
 12672 0d00 00       		.byte	0
 12673 0d01 00       		.byte	0
 12674 0d02 24       		.uleb128 0x24
 12675 0d03 69030000 		.4byte	.LASF133
 12676 0d07 01       		.byte	0x1
 12677 0d08 AB       		.byte	0xab
 12678 0d09 00000000 		.4byte	.LFB12
 12679 0d0d 6C000000 		.4byte	.LFE12-.LFB12
 12680 0d11 01       		.uleb128 0x1
 12681 0d12 9C       		.byte	0x9c
 12682 0d13 F40D0000 		.4byte	0xdf4
 12683 0d17 29       		.uleb128 0x29
 12684 0d18 CE040000 		.4byte	.LASF134
 12685 0d1c 01       		.byte	0x1
 12686 0d1d AB       		.byte	0xab
 12687 0d1e 33000000 		.4byte	0x33
 12688 0d22 3E020000 		.4byte	.LLST12
 12689 0d26 21       		.uleb128 0x21
 12690 0d27 697800   		.ascii	"ix\000"
 12691 0d2a 01       		.byte	0x1
 12692 0d2b AC       		.byte	0xac
ARM GAS  C:\Users\doug_000\AppData\Local\Temp\ccbaKQF3.s 			page 270


 12693 0d2c 33000000 		.4byte	0x33
 12694 0d30 72020000 		.4byte	.LLST13
 12695 0d34 2A       		.uleb128 0x2a
 12696 0d35 A0030000 		.4byte	.LASF119
 12697 0d39 01       		.byte	0x1
 12698 0d3a AC       		.byte	0xac
 12699 0d3b 33000000 		.4byte	0x33
 12700 0d3f 85020000 		.4byte	.LLST14
 12701 0d43 2A       		.uleb128 0x2a
 12702 0d44 A4020000 		.4byte	.LASF135
 12703 0d48 01       		.byte	0x1
 12704 0d49 AC       		.byte	0xac
 12705 0d4a 33000000 		.4byte	0x33
 12706 0d4e C6020000 		.4byte	.LLST15
 12707 0d52 27       		.uleb128 0x27
 12708 0d53 14000000 		.4byte	.LVL83
 12709 0d57 650A0000 		.4byte	0xa65
 12710 0d5b 26       		.uleb128 0x26
 12711 0d5c 1A000000 		.4byte	.LVL84
 12712 0d60 370A0000 		.4byte	0xa37
 12713 0d64 720D0000 		.4byte	0xd72
 12714 0d68 23       		.uleb128 0x23
 12715 0d69 01       		.uleb128 0x1
 12716 0d6a 50       		.byte	0x50
 12717 0d6b 05       		.uleb128 0x5
 12718 0d6c 03       		.byte	0x3
 12719 0d6d 20000000 		.4byte	.LC6
 12720 0d71 00       		.byte	0
 12721 0d72 26       		.uleb128 0x26
 12722 0d73 28000000 		.4byte	.LVL86
 12723 0d77 FE080000 		.4byte	0x8fe
 12724 0d7b 890D0000 		.4byte	0xd89
 12725 0d7f 23       		.uleb128 0x23
 12726 0d80 01       		.uleb128 0x1
 12727 0d81 50       		.byte	0x50
 12728 0d82 05       		.uleb128 0x5
 12729 0d83 74       		.byte	0x74
 12730 0d84 C000     		.sleb128 64
 12731 0d86 31       		.byte	0x31
 12732 0d87 24       		.byte	0x24
 12733 0d88 00       		.byte	0
 12734 0d89 26       		.uleb128 0x26
 12735 0d8a 34000000 		.4byte	.LVL89
 12736 0d8e 370A0000 		.4byte	0xa37
 12737 0d92 A00D0000 		.4byte	0xda0
 12738 0d96 23       		.uleb128 0x23
 12739 0d97 01       		.uleb128 0x1
 12740 0d98 50       		.byte	0x50
 12741 0d99 05       		.uleb128 0x5
 12742 0d9a 03       		.byte	0x3
 12743 0d9b 0C000000 		.4byte	.LC2
 12744 0d9f 00       		.byte	0
 12745 0da0 26       		.uleb128 0x26
 12746 0da1 3E000000 		.4byte	.LVL90
 12747 0da5 27090000 		.4byte	0x927
 12748 0da9 B50D0000 		.4byte	0xdb5
 12749 0dad 23       		.uleb128 0x23
ARM GAS  C:\Users\doug_000\AppData\Local\Temp\ccbaKQF3.s 			page 271


 12750 0dae 01       		.uleb128 0x1
 12751 0daf 50       		.byte	0x50
 12752 0db0 03       		.uleb128 0x3
 12753 0db1 74       		.byte	0x74
 12754 0db2 C000     		.sleb128 64
 12755 0db4 00       		.byte	0
 12756 0db5 26       		.uleb128 0x26
 12757 0db6 44000000 		.4byte	.LVL91
 12758 0dba 370A0000 		.4byte	0xa37
 12759 0dbe CC0D0000 		.4byte	0xdcc
 12760 0dc2 23       		.uleb128 0x23
 12761 0dc3 01       		.uleb128 0x1
 12762 0dc4 50       		.byte	0x50
 12763 0dc5 05       		.uleb128 0x5
 12764 0dc6 03       		.byte	0x3
 12765 0dc7 28000000 		.4byte	.LC7
 12766 0dcb 00       		.byte	0
 12767 0dcc 26       		.uleb128 0x26
 12768 0dcd 4A000000 		.4byte	.LVL92
 12769 0dd1 8E0A0000 		.4byte	0xa8e
 12770 0dd5 E00D0000 		.4byte	0xde0
 12771 0dd9 23       		.uleb128 0x23
 12772 0dda 01       		.uleb128 0x1
 12773 0ddb 50       		.byte	0x50
 12774 0ddc 02       		.uleb128 0x2
 12775 0ddd 75       		.byte	0x75
 12776 0dde 00       		.sleb128 0
 12777 0ddf 00       		.byte	0
 12778 0de0 22       		.uleb128 0x22
 12779 0de1 58000000 		.4byte	.LVL95
 12780 0de5 370A0000 		.4byte	0xa37
 12781 0de9 23       		.uleb128 0x23
 12782 0dea 01       		.uleb128 0x1
 12783 0deb 50       		.byte	0x50
 12784 0dec 05       		.uleb128 0x5
 12785 0ded 03       		.byte	0x3
 12786 0dee 10000000 		.4byte	.LC3
 12787 0df2 00       		.byte	0
 12788 0df3 00       		.byte	0
 12789 0df4 24       		.uleb128 0x24
 12790 0df5 D8000000 		.4byte	.LASF136
 12791 0df9 01       		.byte	0x1
 12792 0dfa BB       		.byte	0xbb
 12793 0dfb 00000000 		.4byte	.LFB13
 12794 0dff DC000000 		.4byte	.LFE13-.LFB13
 12795 0e03 01       		.uleb128 0x1
 12796 0e04 9C       		.byte	0x9c
 12797 0e05 530F0000 		.4byte	0xf53
 12798 0e09 29       		.uleb128 0x29
 12799 0e0a A5030000 		.4byte	.LASF137
 12800 0e0e 01       		.byte	0x1
 12801 0e0f BB       		.byte	0xbb
 12802 0e10 33000000 		.4byte	0x33
 12803 0e14 FB020000 		.4byte	.LLST16
 12804 0e18 29       		.uleb128 0x29
 12805 0e19 1C070000 		.4byte	.LASF138
 12806 0e1d 01       		.byte	0x1
ARM GAS  C:\Users\doug_000\AppData\Local\Temp\ccbaKQF3.s 			page 272


 12807 0e1e BB       		.byte	0xbb
 12808 0e1f 33000000 		.4byte	0x33
 12809 0e23 19030000 		.4byte	.LLST17
 12810 0e27 2A       		.uleb128 0x2a
 12811 0e28 63010000 		.4byte	.LASF139
 12812 0e2c 01       		.byte	0x1
 12813 0e2d BC       		.byte	0xbc
 12814 0e2e 33000000 		.4byte	0x33
 12815 0e32 63030000 		.4byte	.LLST18
 12816 0e36 2A       		.uleb128 0x2a
 12817 0e37 42000000 		.4byte	.LASF140
 12818 0e3b 01       		.byte	0x1
 12819 0e3c BC       		.byte	0xbc
 12820 0e3d 33000000 		.4byte	0x33
 12821 0e41 E1030000 		.4byte	.LLST19
 12822 0e45 27       		.uleb128 0x27
 12823 0e46 12000000 		.4byte	.LVL100
 12824 0e4a 650A0000 		.4byte	0xa65
 12825 0e4e 26       		.uleb128 0x26
 12826 0e4f 1A000000 		.4byte	.LVL101
 12827 0e53 280B0000 		.4byte	0xb28
 12828 0e57 670E0000 		.4byte	0xe67
 12829 0e5b 23       		.uleb128 0x23
 12830 0e5c 01       		.uleb128 0x1
 12831 0e5d 51       		.byte	0x51
 12832 0e5e 01       		.uleb128 0x1
 12833 0e5f 34       		.byte	0x34
 12834 0e60 23       		.uleb128 0x23
 12835 0e61 01       		.uleb128 0x1
 12836 0e62 50       		.byte	0x50
 12837 0e63 02       		.uleb128 0x2
 12838 0e64 75       		.byte	0x75
 12839 0e65 00       		.sleb128 0
 12840 0e66 00       		.byte	0
 12841 0e67 26       		.uleb128 0x26
 12842 0e68 20000000 		.4byte	.LVL102
 12843 0e6c 370A0000 		.4byte	0xa37
 12844 0e70 7E0E0000 		.4byte	0xe7e
 12845 0e74 23       		.uleb128 0x23
 12846 0e75 01       		.uleb128 0x1
 12847 0e76 50       		.byte	0x50
 12848 0e77 05       		.uleb128 0x5
 12849 0e78 03       		.byte	0x3
 12850 0e79 2C000000 		.4byte	.LC8
 12851 0e7d 00       		.byte	0
 12852 0e7e 26       		.uleb128 0x26
 12853 0e7f 2A000000 		.4byte	.LVL104
 12854 0e83 370A0000 		.4byte	0xa37
 12855 0e87 950E0000 		.4byte	0xe95
 12856 0e8b 23       		.uleb128 0x23
 12857 0e8c 01       		.uleb128 0x1
 12858 0e8d 50       		.byte	0x50
 12859 0e8e 05       		.uleb128 0x5
 12860 0e8f 03       		.byte	0x3
 12861 0e90 30000000 		.4byte	.LC9
 12862 0e94 00       		.byte	0
 12863 0e95 26       		.uleb128 0x26
ARM GAS  C:\Users\doug_000\AppData\Local\Temp\ccbaKQF3.s 			page 273


 12864 0e96 3A000000 		.4byte	.LVL108
 12865 0e9a 370A0000 		.4byte	0xa37
 12866 0e9e AC0E0000 		.4byte	0xeac
 12867 0ea2 23       		.uleb128 0x23
 12868 0ea3 01       		.uleb128 0x1
 12869 0ea4 50       		.byte	0x50
 12870 0ea5 05       		.uleb128 0x5
 12871 0ea6 03       		.byte	0x3
 12872 0ea7 0C000000 		.4byte	.LC2
 12873 0eab 00       		.byte	0
 12874 0eac 26       		.uleb128 0x26
 12875 0ead 4A000000 		.4byte	.LVL110
 12876 0eb1 280B0000 		.4byte	0xb28
 12877 0eb5 BF0E0000 		.4byte	0xebf
 12878 0eb9 23       		.uleb128 0x23
 12879 0eba 01       		.uleb128 0x1
 12880 0ebb 51       		.byte	0x51
 12881 0ebc 01       		.uleb128 0x1
 12882 0ebd 32       		.byte	0x32
 12883 0ebe 00       		.byte	0
 12884 0ebf 26       		.uleb128 0x26
 12885 0ec0 52000000 		.4byte	.LVL111
 12886 0ec4 370A0000 		.4byte	0xa37
 12887 0ec8 D60E0000 		.4byte	0xed6
 12888 0ecc 23       		.uleb128 0x23
 12889 0ecd 01       		.uleb128 0x1
 12890 0ece 50       		.byte	0x50
 12891 0ecf 05       		.uleb128 0x5
 12892 0ed0 03       		.byte	0x3
 12893 0ed1 34000000 		.4byte	.LC10
 12894 0ed5 00       		.byte	0
 12895 0ed6 26       		.uleb128 0x26
 12896 0ed7 60000000 		.4byte	.LVL113
 12897 0edb 370A0000 		.4byte	0xa37
 12898 0edf ED0E0000 		.4byte	0xeed
 12899 0ee3 23       		.uleb128 0x23
 12900 0ee4 01       		.uleb128 0x1
 12901 0ee5 50       		.byte	0x50
 12902 0ee6 05       		.uleb128 0x5
 12903 0ee7 03       		.byte	0x3
 12904 0ee8 34000000 		.4byte	.LC10
 12905 0eec 00       		.byte	0
 12906 0eed 26       		.uleb128 0x26
 12907 0eee 68000000 		.4byte	.LVL114
 12908 0ef2 370A0000 		.4byte	0xa37
 12909 0ef6 040F0000 		.4byte	0xf04
 12910 0efa 23       		.uleb128 0x23
 12911 0efb 01       		.uleb128 0x1
 12912 0efc 50       		.byte	0x50
 12913 0efd 05       		.uleb128 0x5
 12914 0efe 03       		.byte	0x3
 12915 0eff 0C000000 		.4byte	.LC2
 12916 0f03 00       		.byte	0
 12917 0f04 26       		.uleb128 0x26
 12918 0f05 94000000 		.4byte	.LVL120
 12919 0f09 27090000 		.4byte	0x927
 12920 0f0d 180F0000 		.4byte	0xf18
ARM GAS  C:\Users\doug_000\AppData\Local\Temp\ccbaKQF3.s 			page 274


 12921 0f11 23       		.uleb128 0x23
 12922 0f12 01       		.uleb128 0x1
 12923 0f13 50       		.byte	0x50
 12924 0f14 02       		.uleb128 0x2
 12925 0f15 08       		.byte	0x8
 12926 0f16 5C       		.byte	0x5c
 12927 0f17 00       		.byte	0
 12928 0f18 26       		.uleb128 0x26
 12929 0f19 A0000000 		.4byte	.LVL123
 12930 0f1d 27090000 		.4byte	0x927
 12931 0f21 2C0F0000 		.4byte	0xf2c
 12932 0f25 23       		.uleb128 0x23
 12933 0f26 01       		.uleb128 0x1
 12934 0f27 50       		.byte	0x50
 12935 0f28 02       		.uleb128 0x2
 12936 0f29 08       		.byte	0x8
 12937 0f2a 60       		.byte	0x60
 12938 0f2b 00       		.byte	0
 12939 0f2c 26       		.uleb128 0x26
 12940 0f2d AC000000 		.4byte	.LVL126
 12941 0f31 27090000 		.4byte	0x927
 12942 0f35 400F0000 		.4byte	0xf40
 12943 0f39 23       		.uleb128 0x23
 12944 0f3a 01       		.uleb128 0x1
 12945 0f3b 50       		.byte	0x50
 12946 0f3c 02       		.uleb128 0x2
 12947 0f3d 08       		.byte	0x8
 12948 0f3e 7E       		.byte	0x7e
 12949 0f3f 00       		.byte	0
 12950 0f40 27       		.uleb128 0x27
 12951 0f41 B2000000 		.4byte	.LVL128
 12952 0f45 27090000 		.4byte	0x927
 12953 0f49 27       		.uleb128 0x27
 12954 0f4a C4000000 		.4byte	.LVL131
 12955 0f4e 650A0000 		.4byte	0xa65
 12956 0f52 00       		.byte	0
 12957 0f53 24       		.uleb128 0x24
 12958 0f54 CA020000 		.4byte	.LASF141
 12959 0f58 01       		.byte	0x1
 12960 0f59 D3       		.byte	0xd3
 12961 0f5a 00000000 		.4byte	.LFB14
 12962 0f5e B4000000 		.4byte	.LFE14-.LFB14
 12963 0f62 01       		.uleb128 0x1
 12964 0f63 9C       		.byte	0x9c
 12965 0f64 BE100000 		.4byte	0x10be
 12966 0f68 29       		.uleb128 0x29
 12967 0f69 D0030000 		.4byte	.LASF142
 12968 0f6d 01       		.byte	0x1
 12969 0f6e D3       		.byte	0xd3
 12970 0f6f 33000000 		.4byte	0x33
 12971 0f73 20040000 		.4byte	.LLST20
 12972 0f77 2A       		.uleb128 0x2a
 12973 0f78 A0030000 		.4byte	.LASF119
 12974 0f7c 01       		.byte	0x1
 12975 0f7d D4       		.byte	0xd4
 12976 0f7e 33000000 		.4byte	0x33
 12977 0f82 41040000 		.4byte	.LLST21
ARM GAS  C:\Users\doug_000\AppData\Local\Temp\ccbaKQF3.s 			page 275


 12978 0f86 27       		.uleb128 0x27
 12979 0f87 0C000000 		.4byte	.LVL135
 12980 0f8b 650A0000 		.4byte	0xa65
 12981 0f8f 26       		.uleb128 0x26
 12982 0f90 1C000000 		.4byte	.LVL136
 12983 0f94 27090000 		.4byte	0x927
 12984 0f98 AB0F0000 		.4byte	0xfab
 12985 0f9c 23       		.uleb128 0x23
 12986 0f9d 01       		.uleb128 0x1
 12987 0f9e 50       		.byte	0x50
 12988 0f9f 0A       		.uleb128 0xa
 12989 0fa0 74       		.byte	0x74
 12990 0fa1 00       		.sleb128 0
 12991 0fa2 09       		.byte	0x9
 12992 0fa3 EE       		.byte	0xee
 12993 0fa4 24       		.byte	0x24
 12994 0fa5 09       		.byte	0x9
 12995 0fa6 FF       		.byte	0xff
 12996 0fa7 25       		.byte	0x25
 12997 0fa8 23       		.byte	0x23
 12998 0fa9 40       		.uleb128 0x40
 12999 0faa 00       		.byte	0
 13000 0fab 26       		.uleb128 0x26
 13001 0fac 22000000 		.4byte	.LVL137
 13002 0fb0 370A0000 		.4byte	0xa37
 13003 0fb4 C20F0000 		.4byte	0xfc2
 13004 0fb8 23       		.uleb128 0x23
 13005 0fb9 01       		.uleb128 0x1
 13006 0fba 50       		.byte	0x50
 13007 0fbb 05       		.uleb128 0x5
 13008 0fbc 03       		.byte	0x3
 13009 0fbd 28000000 		.4byte	.LC7
 13010 0fc1 00       		.byte	0
 13011 0fc2 27       		.uleb128 0x27
 13012 0fc3 30000000 		.4byte	.LVL139
 13013 0fc7 8E0A0000 		.4byte	0xa8e
 13014 0fcb 26       		.uleb128 0x26
 13015 0fcc 3E000000 		.4byte	.LVL141
 13016 0fd0 370A0000 		.4byte	0xa37
 13017 0fd4 E20F0000 		.4byte	0xfe2
 13018 0fd8 23       		.uleb128 0x23
 13019 0fd9 01       		.uleb128 0x1
 13020 0fda 50       		.byte	0x50
 13021 0fdb 05       		.uleb128 0x5
 13022 0fdc 03       		.byte	0x3
 13023 0fdd 38000000 		.4byte	.LC11
 13024 0fe1 00       		.byte	0
 13025 0fe2 26       		.uleb128 0x26
 13026 0fe3 46000000 		.4byte	.LVL142
 13027 0fe7 8E0A0000 		.4byte	0xa8e
 13028 0feb FA0F0000 		.4byte	0xffa
 13029 0fef 23       		.uleb128 0x23
 13030 0ff0 01       		.uleb128 0x1
 13031 0ff1 50       		.byte	0x50
 13032 0ff2 06       		.uleb128 0x6
 13033 0ff3 0B       		.byte	0xb
 13034 0ff4 0080     		.2byte	0x8000
ARM GAS  C:\Users\doug_000\AppData\Local\Temp\ccbaKQF3.s 			page 276


 13035 0ff6 74       		.byte	0x74
 13036 0ff7 00       		.sleb128 0
 13037 0ff8 1C       		.byte	0x1c
 13038 0ff9 00       		.byte	0
 13039 0ffa 26       		.uleb128 0x26
 13040 0ffb 52000000 		.4byte	.LVL144
 13041 0fff 370A0000 		.4byte	0xa37
 13042 1003 11100000 		.4byte	0x1011
 13043 1007 23       		.uleb128 0x23
 13044 1008 01       		.uleb128 0x1
 13045 1009 50       		.byte	0x50
 13046 100a 05       		.uleb128 0x5
 13047 100b 03       		.byte	0x3
 13048 100c 40000000 		.4byte	.LC12
 13049 1010 00       		.byte	0
 13050 1011 26       		.uleb128 0x26
 13051 1012 5A000000 		.4byte	.LVL145
 13052 1016 FE080000 		.4byte	0x8fe
 13053 101a 26100000 		.4byte	0x1026
 13054 101e 23       		.uleb128 0x23
 13055 101f 01       		.uleb128 0x1
 13056 1020 50       		.byte	0x50
 13057 1021 03       		.uleb128 0x3
 13058 1022 0A       		.byte	0xa
 13059 1023 1E01     		.2byte	0x11e
 13060 1025 00       		.byte	0
 13061 1026 26       		.uleb128 0x26
 13062 1027 64000000 		.4byte	.LVL146
 13063 102b 280B0000 		.4byte	0xb28
 13064 102f 39100000 		.4byte	0x1039
 13065 1033 23       		.uleb128 0x23
 13066 1034 01       		.uleb128 0x1
 13067 1035 51       		.byte	0x51
 13068 1036 01       		.uleb128 0x1
 13069 1037 33       		.byte	0x33
 13070 1038 00       		.byte	0
 13071 1039 26       		.uleb128 0x26
 13072 103a 72000000 		.4byte	.LVL148
 13073 103e 370A0000 		.4byte	0xa37
 13074 1042 50100000 		.4byte	0x1050
 13075 1046 23       		.uleb128 0x23
 13076 1047 01       		.uleb128 0x1
 13077 1048 50       		.byte	0x50
 13078 1049 05       		.uleb128 0x5
 13079 104a 03       		.byte	0x3
 13080 104b 48000000 		.4byte	.LC13
 13081 104f 00       		.byte	0
 13082 1050 26       		.uleb128 0x26
 13083 1051 78000000 		.4byte	.LVL149
 13084 1055 8E0A0000 		.4byte	0xa8e
 13085 1059 64100000 		.4byte	0x1064
 13086 105d 23       		.uleb128 0x23
 13087 105e 01       		.uleb128 0x1
 13088 105f 50       		.byte	0x50
 13089 1060 02       		.uleb128 0x2
 13090 1061 74       		.byte	0x74
 13091 1062 00       		.sleb128 0
ARM GAS  C:\Users\doug_000\AppData\Local\Temp\ccbaKQF3.s 			page 277


 13092 1063 00       		.byte	0
 13093 1064 26       		.uleb128 0x26
 13094 1065 80000000 		.4byte	.LVL151
 13095 1069 370A0000 		.4byte	0xa37
 13096 106d 7B100000 		.4byte	0x107b
 13097 1071 23       		.uleb128 0x23
 13098 1072 01       		.uleb128 0x1
 13099 1073 50       		.byte	0x50
 13100 1074 05       		.uleb128 0x5
 13101 1075 03       		.byte	0x3
 13102 1076 4C000000 		.4byte	.LC14
 13103 107a 00       		.byte	0
 13104 107b 26       		.uleb128 0x26
 13105 107c 88000000 		.4byte	.LVL152
 13106 1080 280B0000 		.4byte	0xb28
 13107 1084 94100000 		.4byte	0x1094
 13108 1088 23       		.uleb128 0x23
 13109 1089 01       		.uleb128 0x1
 13110 108a 51       		.byte	0x51
 13111 108b 01       		.uleb128 0x1
 13112 108c 34       		.byte	0x34
 13113 108d 23       		.uleb128 0x23
 13114 108e 01       		.uleb128 0x1
 13115 108f 50       		.byte	0x50
 13116 1090 02       		.uleb128 0x2
 13117 1091 74       		.byte	0x74
 13118 1092 00       		.sleb128 0
 13119 1093 00       		.byte	0
 13120 1094 26       		.uleb128 0x26
 13121 1095 8E000000 		.4byte	.LVL153
 13122 1099 370A0000 		.4byte	0xa37
 13123 109d AB100000 		.4byte	0x10ab
 13124 10a1 23       		.uleb128 0x23
 13125 10a2 01       		.uleb128 0x1
 13126 10a3 50       		.byte	0x50
 13127 10a4 05       		.uleb128 0x5
 13128 10a5 03       		.byte	0x3
 13129 10a6 28000000 		.4byte	.LC7
 13130 10aa 00       		.byte	0
 13131 10ab 22       		.uleb128 0x22
 13132 10ac 94000000 		.4byte	.LVL154
 13133 10b0 8E0A0000 		.4byte	0xa8e
 13134 10b4 23       		.uleb128 0x23
 13135 10b5 01       		.uleb128 0x1
 13136 10b6 50       		.byte	0x50
 13137 10b7 04       		.uleb128 0x4
 13138 10b8 74       		.byte	0x74
 13139 10b9 00       		.sleb128 0
 13140 10ba 40       		.byte	0x40
 13141 10bb 26       		.byte	0x26
 13142 10bc 00       		.byte	0
 13143 10bd 00       		.byte	0
 13144 10be 24       		.uleb128 0x24
 13145 10bf 53030000 		.4byte	.LASF143
 13146 10c3 01       		.byte	0x1
 13147 10c4 E9       		.byte	0xe9
 13148 10c5 00000000 		.4byte	.LFB15
ARM GAS  C:\Users\doug_000\AppData\Local\Temp\ccbaKQF3.s 			page 278


 13149 10c9 70000000 		.4byte	.LFE15-.LFB15
 13150 10cd 01       		.uleb128 0x1
 13151 10ce 9C       		.byte	0x9c
 13152 10cf 73110000 		.4byte	0x1173
 13153 10d3 21       		.uleb128 0x21
 13154 10d4 697800   		.ascii	"ix\000"
 13155 10d7 01       		.byte	0x1
 13156 10d8 EA       		.byte	0xea
 13157 10d9 33000000 		.4byte	0x33
 13158 10dd 5F040000 		.4byte	.LLST22
 13159 10e1 27       		.uleb128 0x27
 13160 10e2 06000000 		.4byte	.LVL156
 13161 10e6 650A0000 		.4byte	0xa65
 13162 10ea 26       		.uleb128 0x26
 13163 10eb 0C000000 		.4byte	.LVL157
 13164 10ef 370A0000 		.4byte	0xa37
 13165 10f3 01110000 		.4byte	0x1101
 13166 10f7 23       		.uleb128 0x23
 13167 10f8 01       		.uleb128 0x1
 13168 10f9 50       		.byte	0x50
 13169 10fa 05       		.uleb128 0x5
 13170 10fb 03       		.byte	0x3
 13171 10fc 50000000 		.4byte	.LC15
 13172 1100 00       		.byte	0
 13173 1101 27       		.uleb128 0x27
 13174 1102 14000000 		.4byte	.LVL158
 13175 1106 8E0A0000 		.4byte	0xa8e
 13176 110a 26       		.uleb128 0x26
 13177 110b 1A000000 		.4byte	.LVL159
 13178 110f 370A0000 		.4byte	0xa37
 13179 1113 21110000 		.4byte	0x1121
 13180 1117 23       		.uleb128 0x23
 13181 1118 01       		.uleb128 0x1
 13182 1119 50       		.byte	0x50
 13183 111a 05       		.uleb128 0x5
 13184 111b 03       		.byte	0x3
 13185 111c 64000000 		.4byte	.LC16
 13186 1120 00       		.byte	0
 13187 1121 26       		.uleb128 0x26
 13188 1122 2E000000 		.4byte	.LVL161
 13189 1126 530F0000 		.4byte	0xf53
 13190 112a 35110000 		.4byte	0x1135
 13191 112e 23       		.uleb128 0x23
 13192 112f 01       		.uleb128 0x1
 13193 1130 50       		.byte	0x50
 13194 1131 02       		.uleb128 0x2
 13195 1132 74       		.byte	0x74
 13196 1133 00       		.sleb128 0
 13197 1134 00       		.byte	0
 13198 1135 26       		.uleb128 0x26
 13199 1136 40000000 		.4byte	.LVL165
 13200 113a 530F0000 		.4byte	0xf53
 13201 113e 49110000 		.4byte	0x1149
 13202 1142 23       		.uleb128 0x23
 13203 1143 01       		.uleb128 0x1
 13204 1144 50       		.byte	0x50
 13205 1145 02       		.uleb128 0x2
ARM GAS  C:\Users\doug_000\AppData\Local\Temp\ccbaKQF3.s 			page 279


 13206 1146 74       		.byte	0x74
 13207 1147 00       		.sleb128 0
 13208 1148 00       		.byte	0
 13209 1149 27       		.uleb128 0x27
 13210 114a 52000000 		.4byte	.LVL167
 13211 114e 650A0000 		.4byte	0xa65
 13212 1152 26       		.uleb128 0x26
 13213 1153 58000000 		.4byte	.LVL168
 13214 1157 370A0000 		.4byte	0xa37
 13215 115b 69110000 		.4byte	0x1169
 13216 115f 23       		.uleb128 0x23
 13217 1160 01       		.uleb128 0x1
 13218 1161 50       		.byte	0x50
 13219 1162 05       		.uleb128 0x5
 13220 1163 03       		.byte	0x3
 13221 1164 6C000000 		.4byte	.LC17
 13222 1168 00       		.byte	0
 13223 1169 27       		.uleb128 0x27
 13224 116a 5C000000 		.4byte	.LVL169
 13225 116e 650A0000 		.4byte	0xa65
 13226 1172 00       		.byte	0
 13227 1173 24       		.uleb128 0x24
 13228 1174 71010000 		.4byte	.LASF144
 13229 1178 01       		.byte	0x1
 13230 1179 F6       		.byte	0xf6
 13231 117a 00000000 		.4byte	.LFB16
 13232 117e 1C000000 		.4byte	.LFE16-.LFB16
 13233 1182 01       		.uleb128 0x1
 13234 1183 9C       		.byte	0x9c
 13235 1184 96110000 		.4byte	0x1196
 13236 1188 25       		.uleb128 0x25
 13237 1189 A0030000 		.4byte	.LASF119
 13238 118d 01       		.byte	0x1
 13239 118e F6       		.byte	0xf6
 13240 118f 33000000 		.4byte	0x33
 13241 1193 01       		.uleb128 0x1
 13242 1194 50       		.byte	0x50
 13243 1195 00       		.byte	0
 13244 1196 24       		.uleb128 0x24
 13245 1197 3F050000 		.4byte	.LASF145
 13246 119b 01       		.byte	0x1
 13247 119c FB       		.byte	0xfb
 13248 119d 00000000 		.4byte	.LFB17
 13249 11a1 68000000 		.4byte	.LFE17-.LFB17
 13250 11a5 01       		.uleb128 0x1
 13251 11a6 9C       		.byte	0x9c
 13252 11a7 D0110000 		.4byte	0x11d0
 13253 11ab 26       		.uleb128 0x26
 13254 11ac 08000000 		.4byte	.LVL172
 13255 11b0 FE080000 		.4byte	0x8fe
 13256 11b4 BF110000 		.4byte	0x11bf
 13257 11b8 23       		.uleb128 0x23
 13258 11b9 01       		.uleb128 0x1
 13259 11ba 50       		.byte	0x50
 13260 11bb 02       		.uleb128 0x2
 13261 11bc 08       		.byte	0x8
 13262 11bd 22       		.byte	0x22
ARM GAS  C:\Users\doug_000\AppData\Local\Temp\ccbaKQF3.s 			page 280


 13263 11be 00       		.byte	0
 13264 11bf 22       		.uleb128 0x22
 13265 11c0 18000000 		.4byte	.LVL173
 13266 11c4 CC080000 		.4byte	0x8cc
 13267 11c8 23       		.uleb128 0x23
 13268 11c9 01       		.uleb128 0x1
 13269 11ca 50       		.byte	0x50
 13270 11cb 02       		.uleb128 0x2
 13271 11cc 08       		.byte	0x8
 13272 11cd 26       		.byte	0x26
 13273 11ce 00       		.byte	0
 13274 11cf 00       		.byte	0
 13275 11d0 2B       		.uleb128 0x2b
 13276 11d1 52070000 		.4byte	.LASF146
 13277 11d5 01       		.byte	0x1
 13278 11d6 0801     		.2byte	0x108
 13279 11d8 00000000 		.4byte	.LFB18
 13280 11dc 60000000 		.4byte	.LFE18-.LFB18
 13281 11e0 01       		.uleb128 0x1
 13282 11e1 9C       		.byte	0x9c
 13283 11e2 6B120000 		.4byte	0x126b
 13284 11e6 26       		.uleb128 0x26
 13285 11e7 0A000000 		.4byte	.LVL174
 13286 11eb FE080000 		.4byte	0x8fe
 13287 11ef FB110000 		.4byte	0x11fb
 13288 11f3 23       		.uleb128 0x23
 13289 11f4 01       		.uleb128 0x1
 13290 11f5 50       		.byte	0x50
 13291 11f6 03       		.uleb128 0x3
 13292 11f7 0A       		.byte	0xa
 13293 11f8 1E01     		.2byte	0x11e
 13294 11fa 00       		.byte	0
 13295 11fb 26       		.uleb128 0x26
 13296 11fc 28000000 		.4byte	.LVL175
 13297 1200 CC080000 		.4byte	0x8cc
 13298 1204 0F120000 		.4byte	0x120f
 13299 1208 23       		.uleb128 0x23
 13300 1209 01       		.uleb128 0x1
 13301 120a 50       		.byte	0x50
 13302 120b 02       		.uleb128 0x2
 13303 120c 08       		.byte	0x8
 13304 120d 20       		.byte	0x20
 13305 120e 00       		.byte	0
 13306 120f 26       		.uleb128 0x26
 13307 1210 32000000 		.4byte	.LVL176
 13308 1214 CC080000 		.4byte	0x8cc
 13309 1218 2A120000 		.4byte	0x122a
 13310 121c 23       		.uleb128 0x23
 13311 121d 01       		.uleb128 0x1
 13312 121e 51       		.byte	0x51
 13313 121f 03       		.uleb128 0x3
 13314 1220 0A       		.byte	0xa
 13315 1221 0040     		.2byte	0x4000
 13316 1223 23       		.uleb128 0x23
 13317 1224 01       		.uleb128 0x1
 13318 1225 50       		.byte	0x50
 13319 1226 02       		.uleb128 0x2
ARM GAS  C:\Users\doug_000\AppData\Local\Temp\ccbaKQF3.s 			page 281


 13320 1227 08       		.byte	0x8
 13321 1228 22       		.byte	0x22
 13322 1229 00       		.byte	0
 13323 122a 27       		.uleb128 0x27
 13324 122b 36000000 		.4byte	.LVL177
 13325 122f 96110000 		.4byte	0x1196
 13326 1233 26       		.uleb128 0x26
 13327 1234 3C000000 		.4byte	.LVL178
 13328 1238 FE080000 		.4byte	0x8fe
 13329 123c 47120000 		.4byte	0x1247
 13330 1240 23       		.uleb128 0x23
 13331 1241 01       		.uleb128 0x1
 13332 1242 50       		.byte	0x50
 13333 1243 02       		.uleb128 0x2
 13334 1244 08       		.byte	0x8
 13335 1245 20       		.byte	0x20
 13336 1246 00       		.byte	0
 13337 1247 26       		.uleb128 0x26
 13338 1248 48000000 		.4byte	.LVL179
 13339 124c CC080000 		.4byte	0x8cc
 13340 1250 5A120000 		.4byte	0x125a
 13341 1254 23       		.uleb128 0x23
 13342 1255 01       		.uleb128 0x1
 13343 1256 51       		.byte	0x51
 13344 1257 01       		.uleb128 0x1
 13345 1258 30       		.byte	0x30
 13346 1259 00       		.byte	0
 13347 125a 22       		.uleb128 0x22
 13348 125b 54000000 		.4byte	.LVL180
 13349 125f CC080000 		.4byte	0x8cc
 13350 1263 23       		.uleb128 0x23
 13351 1264 01       		.uleb128 0x1
 13352 1265 50       		.byte	0x50
 13353 1266 02       		.uleb128 0x2
 13354 1267 08       		.byte	0x8
 13355 1268 24       		.byte	0x24
 13356 1269 00       		.byte	0
 13357 126a 00       		.byte	0
 13358 126b 2B       		.uleb128 0x2b
 13359 126c C1000000 		.4byte	.LASF147
 13360 1270 01       		.byte	0x1
 13361 1271 1401     		.2byte	0x114
 13362 1273 00000000 		.4byte	.LFB19
 13363 1277 F4000000 		.4byte	.LFE19-.LFB19
 13364 127b 01       		.uleb128 0x1
 13365 127c 9C       		.byte	0x9c
 13366 127d E5130000 		.4byte	0x13e5
 13367 1281 27       		.uleb128 0x27
 13368 1282 0E000000 		.4byte	.LVL181
 13369 1286 650A0000 		.4byte	0xa65
 13370 128a 27       		.uleb128 0x27
 13371 128b 1A000000 		.4byte	.LVL182
 13372 128f 73110000 		.4byte	0x1173
 13373 1293 26       		.uleb128 0x26
 13374 1294 20000000 		.4byte	.LVL183
 13375 1298 370A0000 		.4byte	0xa37
 13376 129c AA120000 		.4byte	0x12aa
ARM GAS  C:\Users\doug_000\AppData\Local\Temp\ccbaKQF3.s 			page 282


 13377 12a0 23       		.uleb128 0x23
 13378 12a1 01       		.uleb128 0x1
 13379 12a2 50       		.byte	0x50
 13380 12a3 05       		.uleb128 0x5
 13381 12a4 03       		.byte	0x3
 13382 12a5 74000000 		.4byte	.LC18
 13383 12a9 00       		.byte	0
 13384 12aa 26       		.uleb128 0x26
 13385 12ab 2A000000 		.4byte	.LVL184
 13386 12af FE080000 		.4byte	0x8fe
 13387 12b3 BF120000 		.4byte	0x12bf
 13388 12b7 23       		.uleb128 0x23
 13389 12b8 01       		.uleb128 0x1
 13390 12b9 50       		.byte	0x50
 13391 12ba 03       		.uleb128 0x3
 13392 12bb 0A       		.byte	0xa
 13393 12bc 1E01     		.2byte	0x11e
 13394 12be 00       		.byte	0
 13395 12bf 27       		.uleb128 0x27
 13396 12c0 30000000 		.4byte	.LVL185
 13397 12c4 8E0A0000 		.4byte	0xa8e
 13398 12c8 26       		.uleb128 0x26
 13399 12c9 3E000000 		.4byte	.LVL186
 13400 12cd 370A0000 		.4byte	0xa37
 13401 12d1 DF120000 		.4byte	0x12df
 13402 12d5 23       		.uleb128 0x23
 13403 12d6 01       		.uleb128 0x1
 13404 12d7 50       		.byte	0x50
 13405 12d8 05       		.uleb128 0x5
 13406 12d9 03       		.byte	0x3
 13407 12da 88000000 		.4byte	.LC19
 13408 12de 00       		.byte	0
 13409 12df 27       		.uleb128 0x27
 13410 12e0 46000000 		.4byte	.LVL187
 13411 12e4 8E0A0000 		.4byte	0xa8e
 13412 12e8 27       		.uleb128 0x27
 13413 12e9 4A000000 		.4byte	.LVL188
 13414 12ed 650A0000 		.4byte	0xa65
 13415 12f1 27       		.uleb128 0x27
 13416 12f2 56000000 		.4byte	.LVL189
 13417 12f6 A60B0000 		.4byte	0xba6
 13418 12fa 27       		.uleb128 0x27
 13419 12fb 5A000000 		.4byte	.LVL190
 13420 12ff 440C0000 		.4byte	0xc44
 13421 1303 26       		.uleb128 0x26
 13422 1304 60000000 		.4byte	.LVL191
 13423 1308 020D0000 		.4byte	0xd02
 13424 130c 16130000 		.4byte	0x1316
 13425 1310 23       		.uleb128 0x23
 13426 1311 01       		.uleb128 0x1
 13427 1312 50       		.byte	0x50
 13428 1313 01       		.uleb128 0x1
 13429 1314 30       		.byte	0x30
 13430 1315 00       		.byte	0
 13431 1316 26       		.uleb128 0x26
 13432 1317 66000000 		.4byte	.LVL192
 13433 131b 370A0000 		.4byte	0xa37
ARM GAS  C:\Users\doug_000\AppData\Local\Temp\ccbaKQF3.s 			page 283


 13434 131f 2D130000 		.4byte	0x132d
 13435 1323 23       		.uleb128 0x23
 13436 1324 01       		.uleb128 0x1
 13437 1325 50       		.byte	0x50
 13438 1326 05       		.uleb128 0x5
 13439 1327 03       		.byte	0x3
 13440 1328 94000000 		.4byte	.LC20
 13441 132c 00       		.byte	0
 13442 132d 26       		.uleb128 0x26
 13443 132e 70000000 		.4byte	.LVL193
 13444 1332 280B0000 		.4byte	0xb28
 13445 1336 40130000 		.4byte	0x1340
 13446 133a 23       		.uleb128 0x23
 13447 133b 01       		.uleb128 0x1
 13448 133c 51       		.byte	0x51
 13449 133d 01       		.uleb128 0x1
 13450 133e 34       		.byte	0x34
 13451 133f 00       		.byte	0
 13452 1340 26       		.uleb128 0x26
 13453 1341 76000000 		.4byte	.LVL194
 13454 1345 370A0000 		.4byte	0xa37
 13455 1349 57130000 		.4byte	0x1357
 13456 134d 23       		.uleb128 0x23
 13457 134e 01       		.uleb128 0x1
 13458 134f 50       		.byte	0x50
 13459 1350 05       		.uleb128 0x5
 13460 1351 03       		.byte	0x3
 13461 1352 9C000000 		.4byte	.LC21
 13462 1356 00       		.byte	0
 13463 1357 26       		.uleb128 0x26
 13464 1358 7C000000 		.4byte	.LVL195
 13465 135c FE080000 		.4byte	0x8fe
 13466 1360 6B130000 		.4byte	0x136b
 13467 1364 23       		.uleb128 0x23
 13468 1365 01       		.uleb128 0x1
 13469 1366 50       		.byte	0x50
 13470 1367 02       		.uleb128 0x2
 13471 1368 08       		.byte	0x8
 13472 1369 20       		.byte	0x20
 13473 136a 00       		.byte	0
 13474 136b 26       		.uleb128 0x26
 13475 136c 82000000 		.4byte	.LVL196
 13476 1370 280B0000 		.4byte	0xb28
 13477 1374 7E130000 		.4byte	0x137e
 13478 1378 23       		.uleb128 0x23
 13479 1379 01       		.uleb128 0x1
 13480 137a 51       		.byte	0x51
 13481 137b 01       		.uleb128 0x1
 13482 137c 34       		.byte	0x34
 13483 137d 00       		.byte	0
 13484 137e 26       		.uleb128 0x26
 13485 137f 88000000 		.4byte	.LVL197
 13486 1383 370A0000 		.4byte	0xa37
 13487 1387 95130000 		.4byte	0x1395
 13488 138b 23       		.uleb128 0x23
 13489 138c 01       		.uleb128 0x1
 13490 138d 50       		.byte	0x50
ARM GAS  C:\Users\doug_000\AppData\Local\Temp\ccbaKQF3.s 			page 284


 13491 138e 05       		.uleb128 0x5
 13492 138f 03       		.byte	0x3
 13493 1390 A4000000 		.4byte	.LC22
 13494 1394 00       		.byte	0
 13495 1395 26       		.uleb128 0x26
 13496 1396 90000000 		.4byte	.LVL198
 13497 139a FE080000 		.4byte	0x8fe
 13498 139e AA130000 		.4byte	0x13aa
 13499 13a2 23       		.uleb128 0x23
 13500 13a3 01       		.uleb128 0x1
 13501 13a4 50       		.byte	0x50
 13502 13a5 03       		.uleb128 0x3
 13503 13a6 0A       		.byte	0xa
 13504 13a7 1E01     		.2byte	0x11e
 13505 13a9 00       		.byte	0
 13506 13aa 26       		.uleb128 0x26
 13507 13ab 96000000 		.4byte	.LVL199
 13508 13af 280B0000 		.4byte	0xb28
 13509 13b3 BD130000 		.4byte	0x13bd
 13510 13b7 23       		.uleb128 0x23
 13511 13b8 01       		.uleb128 0x1
 13512 13b9 51       		.byte	0x51
 13513 13ba 01       		.uleb128 0x1
 13514 13bb 34       		.byte	0x34
 13515 13bc 00       		.byte	0
 13516 13bd 26       		.uleb128 0x26
 13517 13be 9C000000 		.4byte	.LVL200
 13518 13c2 370A0000 		.4byte	0xa37
 13519 13c6 D4130000 		.4byte	0x13d4
 13520 13ca 23       		.uleb128 0x23
 13521 13cb 01       		.uleb128 0x1
 13522 13cc 50       		.byte	0x50
 13523 13cd 05       		.uleb128 0x5
 13524 13ce 03       		.byte	0x3
 13525 13cf 10000000 		.4byte	.LC3
 13526 13d3 00       		.byte	0
 13527 13d4 22       		.uleb128 0x22
 13528 13d5 AA000000 		.4byte	.LVL201
 13529 13d9 F40D0000 		.4byte	0xdf4
 13530 13dd 23       		.uleb128 0x23
 13531 13de 01       		.uleb128 0x1
 13532 13df 51       		.byte	0x51
 13533 13e0 02       		.uleb128 0x2
 13534 13e1 08       		.byte	0x8
 13535 13e2 40       		.byte	0x40
 13536 13e3 00       		.byte	0
 13537 13e4 00       		.byte	0
 13538 13e5 2B       		.uleb128 0x2b
 13539 13e6 AF020000 		.4byte	.LASF148
 13540 13ea 01       		.byte	0x1
 13541 13eb 2F01     		.2byte	0x12f
 13542 13ed 00000000 		.4byte	.LFB20
 13543 13f1 44000000 		.4byte	.LFE20-.LFB20
 13544 13f5 01       		.uleb128 0x1
 13545 13f6 9C       		.byte	0x9c
 13546 13f7 46140000 		.4byte	0x1446
 13547 13fb 2C       		.uleb128 0x2c
ARM GAS  C:\Users\doug_000\AppData\Local\Temp\ccbaKQF3.s 			page 285


 13548 13fc A0030000 		.4byte	.LASF119
 13549 1400 01       		.byte	0x1
 13550 1401 2F01     		.2byte	0x12f
 13551 1403 33000000 		.4byte	0x33
 13552 1407 7D040000 		.4byte	.LLST23
 13553 140b 27       		.uleb128 0x27
 13554 140c 12000000 		.4byte	.LVL203
 13555 1410 6B120000 		.4byte	0x126b
 13556 1414 26       		.uleb128 0x26
 13557 1415 22000000 		.4byte	.LVL206
 13558 1419 CC080000 		.4byte	0x8cc
 13559 141d 28140000 		.4byte	0x1428
 13560 1421 23       		.uleb128 0x23
 13561 1422 01       		.uleb128 0x1
 13562 1423 50       		.byte	0x50
 13563 1424 02       		.uleb128 0x2
 13564 1425 08       		.byte	0x8
 13565 1426 26       		.byte	0x26
 13566 1427 00       		.byte	0
 13567 1428 26       		.uleb128 0x26
 13568 1429 2A000000 		.4byte	.LVL207
 13569 142d CC080000 		.4byte	0x8cc
 13570 1431 3C140000 		.4byte	0x143c
 13571 1435 23       		.uleb128 0x23
 13572 1436 01       		.uleb128 0x1
 13573 1437 51       		.byte	0x51
 13574 1438 02       		.uleb128 0x2
 13575 1439 74       		.byte	0x74
 13576 143a 00       		.sleb128 0
 13577 143b 00       		.byte	0
 13578 143c 27       		.uleb128 0x27
 13579 143d 36000000 		.4byte	.LVL208
 13580 1441 A60B0000 		.4byte	0xba6
 13581 1445 00       		.byte	0
 13582 1446 2D       		.uleb128 0x2d
 13583 1447 3B030000 		.4byte	.LASF149
 13584 144b 01       		.byte	0x1
 13585 144c 3701     		.2byte	0x137
 13586 144e 33000000 		.4byte	0x33
 13587 1452 00000000 		.4byte	.LFB21
 13588 1456 48000000 		.4byte	.LFE21-.LFB21
 13589 145a 01       		.uleb128 0x1
 13590 145b 9C       		.byte	0x9c
 13591 145c A4140000 		.4byte	0x14a4
 13592 1460 26       		.uleb128 0x26
 13593 1461 08000000 		.4byte	.LVL209
 13594 1465 FE080000 		.4byte	0x8fe
 13595 1469 74140000 		.4byte	0x1474
 13596 146d 23       		.uleb128 0x23
 13597 146e 01       		.uleb128 0x1
 13598 146f 50       		.byte	0x50
 13599 1470 02       		.uleb128 0x2
 13600 1471 08       		.byte	0x8
 13601 1472 22       		.byte	0x22
 13602 1473 00       		.byte	0
 13603 1474 27       		.uleb128 0x27
 13604 1475 16000000 		.4byte	.LVL210
ARM GAS  C:\Users\doug_000\AppData\Local\Temp\ccbaKQF3.s 			page 286


 13605 1479 6B120000 		.4byte	0x126b
 13606 147d 27       		.uleb128 0x27
 13607 147e 28000000 		.4byte	.LVL211
 13608 1482 A60B0000 		.4byte	0xba6
 13609 1486 26       		.uleb128 0x26
 13610 1487 36000000 		.4byte	.LVL212
 13611 148b CC080000 		.4byte	0x8cc
 13612 148f 9A140000 		.4byte	0x149a
 13613 1493 23       		.uleb128 0x23
 13614 1494 01       		.uleb128 0x1
 13615 1495 50       		.byte	0x50
 13616 1496 02       		.uleb128 0x2
 13617 1497 08       		.byte	0x8
 13618 1498 26       		.byte	0x26
 13619 1499 00       		.byte	0
 13620 149a 27       		.uleb128 0x27
 13621 149b 3E000000 		.4byte	.LVL213
 13622 149f FE080000 		.4byte	0x8fe
 13623 14a3 00       		.byte	0
 13624 14a4 2B       		.uleb128 0x2b
 13625 14a5 C5050000 		.4byte	.LASF150
 13626 14a9 01       		.byte	0x1
 13627 14aa 4101     		.2byte	0x141
 13628 14ac 00000000 		.4byte	.LFB22
 13629 14b0 3C000000 		.4byte	.LFE22-.LFB22
 13630 14b4 01       		.uleb128 0x1
 13631 14b5 9C       		.byte	0x9c
 13632 14b6 DD140000 		.4byte	0x14dd
 13633 14ba 2C       		.uleb128 0x2c
 13634 14bb A0030000 		.4byte	.LASF119
 13635 14bf 01       		.byte	0x1
 13636 14c0 4101     		.2byte	0x141
 13637 14c2 33000000 		.4byte	0x33
 13638 14c6 C2040000 		.4byte	.LLST24
 13639 14ca 27       		.uleb128 0x27
 13640 14cb 12000000 		.4byte	.LVL215
 13641 14cf 6B120000 		.4byte	0x126b
 13642 14d3 27       		.uleb128 0x27
 13643 14d4 2A000000 		.4byte	.LVL218
 13644 14d8 440C0000 		.4byte	0xc44
 13645 14dc 00       		.byte	0
 13646 14dd 2D       		.uleb128 0x2d
 13647 14de F6050000 		.4byte	.LASF151
 13648 14e2 01       		.byte	0x1
 13649 14e3 4601     		.2byte	0x146
 13650 14e5 33000000 		.4byte	0x33
 13651 14e9 00000000 		.4byte	.LFB23
 13652 14ed 28000000 		.4byte	.LFE23-.LFB23
 13653 14f1 01       		.uleb128 0x1
 13654 14f2 9C       		.byte	0x9c
 13655 14f3 01150000 		.4byte	0x1501
 13656 14f7 27       		.uleb128 0x27
 13657 14f8 1A000000 		.4byte	.LVL219
 13658 14fc 6B120000 		.4byte	0x126b
 13659 1500 00       		.byte	0
 13660 1501 2B       		.uleb128 0x2b
 13661 1502 7E000000 		.4byte	.LASF152
ARM GAS  C:\Users\doug_000\AppData\Local\Temp\ccbaKQF3.s 			page 287


 13662 1506 01       		.byte	0x1
 13663 1507 4B01     		.2byte	0x14b
 13664 1509 00000000 		.4byte	.LFB24
 13665 150d 38000000 		.4byte	.LFE24-.LFB24
 13666 1511 01       		.uleb128 0x1
 13667 1512 9C       		.byte	0x9c
 13668 1513 43150000 		.4byte	0x1543
 13669 1517 2C       		.uleb128 0x2c
 13670 1518 A0030000 		.4byte	.LASF119
 13671 151c 01       		.byte	0x1
 13672 151d 4B01     		.2byte	0x14b
 13673 151f 33000000 		.4byte	0x33
 13674 1523 FC040000 		.4byte	.LLST25
 13675 1527 27       		.uleb128 0x27
 13676 1528 18000000 		.4byte	.LVL222
 13677 152c 6B120000 		.4byte	0x126b
 13678 1530 27       		.uleb128 0x27
 13679 1531 1E000000 		.4byte	.LVL224
 13680 1535 CC080000 		.4byte	0x8cc
 13681 1539 27       		.uleb128 0x27
 13682 153a 2A000000 		.4byte	.LVL225
 13683 153e 440C0000 		.4byte	0xc44
 13684 1542 00       		.byte	0
 13685 1543 2D       		.uleb128 0x2d
 13686 1544 26050000 		.4byte	.LASF153
 13687 1548 01       		.byte	0x1
 13688 1549 5101     		.2byte	0x151
 13689 154b 33000000 		.4byte	0x33
 13690 154f 00000000 		.4byte	.LFB25
 13691 1553 28000000 		.4byte	.LFE25-.LFB25
 13692 1557 01       		.uleb128 0x1
 13693 1558 9C       		.byte	0x9c
 13694 1559 70150000 		.4byte	0x1570
 13695 155d 27       		.uleb128 0x27
 13696 155e 16000000 		.4byte	.LVL226
 13697 1562 FE080000 		.4byte	0x8fe
 13698 1566 27       		.uleb128 0x27
 13699 1567 1E000000 		.4byte	.LVL227
 13700 156b 6B120000 		.4byte	0x126b
 13701 156f 00       		.byte	0
 13702 1570 2D       		.uleb128 0x2d
 13703 1571 20040000 		.4byte	.LASF154
 13704 1575 01       		.byte	0x1
 13705 1576 5601     		.2byte	0x156
 13706 1578 33000000 		.4byte	0x33
 13707 157c 00000000 		.4byte	.LFB26
 13708 1580 88000000 		.4byte	.LFE26-.LFB26
 13709 1584 01       		.uleb128 0x1
 13710 1585 9C       		.byte	0x9c
 13711 1586 CA150000 		.4byte	0x15ca
 13712 158a 2E       		.uleb128 0x2e
 13713 158b 74787400 		.ascii	"txt\000"
 13714 158f 01       		.byte	0x1
 13715 1590 5601     		.2byte	0x156
 13716 1592 55050000 		.4byte	0x555
 13717 1596 41050000 		.4byte	.LLST26
 13718 159a 2C       		.uleb128 0x2c
ARM GAS  C:\Users\doug_000\AppData\Local\Temp\ccbaKQF3.s 			page 288


 13719 159b BD020000 		.4byte	.LASF155
 13720 159f 01       		.byte	0x1
 13721 15a0 5601     		.2byte	0x156
 13722 15a2 33000000 		.4byte	0x33
 13723 15a6 B0050000 		.4byte	.LLST27
 13724 15aa 2F       		.uleb128 0x2f
 13725 15ab 6E756D00 		.ascii	"num\000"
 13726 15af 01       		.byte	0x1
 13727 15b0 5701     		.2byte	0x157
 13728 15b2 33000000 		.4byte	0x33
 13729 15b6 FA050000 		.4byte	.LLST28
 13730 15ba 2F       		.uleb128 0x2f
 13731 15bb 636800   		.ascii	"ch\000"
 13732 15be 01       		.byte	0x1
 13733 15bf 5801     		.2byte	0x158
 13734 15c1 5B050000 		.4byte	0x55b
 13735 15c5 53060000 		.4byte	.LLST29
 13736 15c9 00       		.byte	0
 13737 15ca 2D       		.uleb128 0x2d
 13738 15cb 90050000 		.4byte	.LASF156
 13739 15cf 01       		.byte	0x1
 13740 15d0 6401     		.2byte	0x164
 13741 15d2 33000000 		.4byte	0x33
 13742 15d6 00000000 		.4byte	.LFB27
 13743 15da 1C000000 		.4byte	.LFE27-.LFB27
 13744 15de 01       		.uleb128 0x1
 13745 15df 9C       		.byte	0x9c
 13746 15e0 1C160000 		.4byte	0x161c
 13747 15e4 2C       		.uleb128 0x2c
 13748 15e5 A5030000 		.4byte	.LASF137
 13749 15e9 01       		.byte	0x1
 13750 15ea 6401     		.2byte	0x164
 13751 15ec 33000000 		.4byte	0x33
 13752 15f0 89060000 		.4byte	.LLST30
 13753 15f4 30       		.uleb128 0x30
 13754 15f5 66636800 		.ascii	"fch\000"
 13755 15f9 01       		.byte	0x1
 13756 15fa 6401     		.2byte	0x164
 13757 15fc 5B050000 		.4byte	0x55b
 13758 1600 01       		.uleb128 0x1
 13759 1601 51       		.byte	0x51
 13760 1602 31       		.uleb128 0x31
 13761 1603 04000000 		.4byte	.LBB2
 13762 1607 12000000 		.4byte	.LBE2-.LBB2
 13763 160b 2F       		.uleb128 0x2f
 13764 160c 636800   		.ascii	"ch\000"
 13765 160f 01       		.byte	0x1
 13766 1610 6601     		.2byte	0x166
 13767 1612 5B050000 		.4byte	0x55b
 13768 1616 BD060000 		.4byte	.LLST31
 13769 161a 00       		.byte	0
 13770 161b 00       		.byte	0
 13771 161c 2D       		.uleb128 0x2d
 13772 161d 6C020000 		.4byte	.LASF157
 13773 1621 01       		.byte	0x1
 13774 1622 6A01     		.2byte	0x16a
 13775 1624 33000000 		.4byte	0x33
ARM GAS  C:\Users\doug_000\AppData\Local\Temp\ccbaKQF3.s 			page 289


 13776 1628 00000000 		.4byte	.LFB28
 13777 162c 28000000 		.4byte	.LFE28-.LFB28
 13778 1630 01       		.uleb128 0x1
 13779 1631 9C       		.byte	0x9c
 13780 1632 A3160000 		.4byte	0x16a3
 13781 1636 2C       		.uleb128 0x2c
 13782 1637 A8000000 		.4byte	.LASF158
 13783 163b 01       		.byte	0x1
 13784 163c 6A01     		.2byte	0x16a
 13785 163e 33000000 		.4byte	0x33
 13786 1642 DB060000 		.4byte	.LLST32
 13787 1646 2F       		.uleb128 0x2f
 13788 1647 697800   		.ascii	"ix\000"
 13789 164a 01       		.byte	0x1
 13790 164b 6B01     		.2byte	0x16b
 13791 164d 33000000 		.4byte	0x33
 13792 1651 F9060000 		.4byte	.LLST33
 13793 1655 32       		.uleb128 0x32
 13794 1656 A5030000 		.4byte	.LASF137
 13795 165a 01       		.byte	0x1
 13796 165b 6C01     		.2byte	0x16c
 13797 165d 33000000 		.4byte	0x33
 13798 1661 17070000 		.4byte	.LLST34
 13799 1665 26       		.uleb128 0x26
 13800 1666 0A000000 		.4byte	.LVL265
 13801 166a FE080000 		.4byte	0x8fe
 13802 166e 79160000 		.4byte	0x1679
 13803 1672 23       		.uleb128 0x23
 13804 1673 01       		.uleb128 0x1
 13805 1674 50       		.byte	0x50
 13806 1675 02       		.uleb128 0x2
 13807 1676 08       		.byte	0x8
 13808 1677 20       		.byte	0x20
 13809 1678 00       		.byte	0
 13810 1679 26       		.uleb128 0x26
 13811 167a 12000000 		.4byte	.LVL267
 13812 167e FE080000 		.4byte	0x8fe
 13813 1682 8D160000 		.4byte	0x168d
 13814 1686 23       		.uleb128 0x23
 13815 1687 01       		.uleb128 0x1
 13816 1688 50       		.byte	0x50
 13817 1689 02       		.uleb128 0x2
 13818 168a 74       		.byte	0x74
 13819 168b 00       		.sleb128 0
 13820 168c 00       		.byte	0
 13821 168d 22       		.uleb128 0x22
 13822 168e 20000000 		.4byte	.LVL270
 13823 1692 CA150000 		.4byte	0x15ca
 13824 1696 23       		.uleb128 0x23
 13825 1697 01       		.uleb128 0x1
 13826 1698 51       		.byte	0x51
 13827 1699 01       		.uleb128 0x1
 13828 169a 3D       		.byte	0x3d
 13829 169b 23       		.uleb128 0x23
 13830 169c 01       		.uleb128 0x1
 13831 169d 50       		.byte	0x50
 13832 169e 02       		.uleb128 0x2
ARM GAS  C:\Users\doug_000\AppData\Local\Temp\ccbaKQF3.s 			page 290


 13833 169f 74       		.byte	0x74
 13834 16a0 02       		.sleb128 2
 13835 16a1 00       		.byte	0
 13836 16a2 00       		.byte	0
 13837 16a3 2B       		.uleb128 0x2b
 13838 16a4 86030000 		.4byte	.LASF159
 13839 16a8 01       		.byte	0x1
 13840 16a9 7301     		.2byte	0x173
 13841 16ab 00000000 		.4byte	.LFB29
 13842 16af 7C000000 		.4byte	.LFE29-.LFB29
 13843 16b3 01       		.uleb128 0x1
 13844 16b4 9C       		.byte	0x9c
 13845 16b5 57170000 		.4byte	0x1757
 13846 16b9 32       		.uleb128 0x32
 13847 16ba A5030000 		.4byte	.LASF137
 13848 16be 01       		.byte	0x1
 13849 16bf 7401     		.2byte	0x174
 13850 16c1 33000000 		.4byte	0x33
 13851 16c5 76070000 		.4byte	.LLST35
 13852 16c9 26       		.uleb128 0x26
 13853 16ca 16000000 		.4byte	.LVL274
 13854 16ce 73110000 		.4byte	0x1173
 13855 16d2 DC160000 		.4byte	0x16dc
 13856 16d6 23       		.uleb128 0x23
 13857 16d7 01       		.uleb128 0x1
 13858 16d8 50       		.byte	0x50
 13859 16d9 01       		.uleb128 0x1
 13860 16da 30       		.byte	0x30
 13861 16db 00       		.byte	0
 13862 16dc 27       		.uleb128 0x27
 13863 16dd 1C000000 		.4byte	.LVL275
 13864 16e1 73110000 		.4byte	0x1173
 13865 16e5 26       		.uleb128 0x26
 13866 16e6 2A000000 		.4byte	.LVL276
 13867 16ea 370A0000 		.4byte	0xa37
 13868 16ee FC160000 		.4byte	0x16fc
 13869 16f2 23       		.uleb128 0x23
 13870 16f3 01       		.uleb128 0x1
 13871 16f4 50       		.byte	0x50
 13872 16f5 05       		.uleb128 0x5
 13873 16f6 03       		.byte	0x3
 13874 16f7 AC000000 		.4byte	.LC23
 13875 16fb 00       		.byte	0
 13876 16fc 27       		.uleb128 0x27
 13877 16fd 32000000 		.4byte	.LVL277
 13878 1701 8E0A0000 		.4byte	0xa8e
 13879 1705 26       		.uleb128 0x26
 13880 1706 38000000 		.4byte	.LVL278
 13881 170a 370A0000 		.4byte	0xa37
 13882 170e 1C170000 		.4byte	0x171c
 13883 1712 23       		.uleb128 0x23
 13884 1713 01       		.uleb128 0x1
 13885 1714 50       		.byte	0x50
 13886 1715 05       		.uleb128 0x5
 13887 1716 03       		.byte	0x3
 13888 1717 10000000 		.4byte	.LC3
 13889 171b 00       		.byte	0
ARM GAS  C:\Users\doug_000\AppData\Local\Temp\ccbaKQF3.s 			page 291


 13890 171c 26       		.uleb128 0x26
 13891 171d 42000000 		.4byte	.LVL279
 13892 1721 1C160000 		.4byte	0x161c
 13893 1725 30170000 		.4byte	0x1730
 13894 1729 23       		.uleb128 0x23
 13895 172a 01       		.uleb128 0x1
 13896 172b 50       		.byte	0x50
 13897 172c 02       		.uleb128 0x2
 13898 172d 75       		.byte	0x75
 13899 172e 00       		.sleb128 0
 13900 172f 00       		.byte	0
 13901 1730 26       		.uleb128 0x26
 13902 1731 4C000000 		.4byte	.LVL280
 13903 1735 FE080000 		.4byte	0x8fe
 13904 1739 44170000 		.4byte	0x1744
 13905 173d 23       		.uleb128 0x23
 13906 173e 01       		.uleb128 0x1
 13907 173f 50       		.byte	0x50
 13908 1740 02       		.uleb128 0x2
 13909 1741 74       		.byte	0x74
 13910 1742 7F       		.sleb128 -1
 13911 1743 00       		.byte	0
 13912 1744 27       		.uleb128 0x27
 13913 1745 52000000 		.4byte	.LVL281
 13914 1749 6B120000 		.4byte	0x126b
 13915 174d 27       		.uleb128 0x27
 13916 174e 5C000000 		.4byte	.LVL283
 13917 1752 6B120000 		.4byte	0x126b
 13918 1756 00       		.byte	0
 13919 1757 2B       		.uleb128 0x2b
 13920 1758 65040000 		.4byte	.LASF160
 13921 175c 01       		.byte	0x1
 13922 175d 8101     		.2byte	0x181
 13923 175f 00000000 		.4byte	.LFB30
 13924 1763 58000000 		.4byte	.LFE30-.LFB30
 13925 1767 01       		.uleb128 0x1
 13926 1768 9C       		.byte	0x9c
 13927 1769 04180000 		.4byte	0x1804
 13928 176d 2E       		.uleb128 0x2e
 13929 176e 66726D00 		.ascii	"frm\000"
 13930 1772 01       		.byte	0x1
 13931 1773 8101     		.2byte	0x181
 13932 1775 33000000 		.4byte	0x33
 13933 1779 9F070000 		.4byte	.LLST36
 13934 177d 2E       		.uleb128 0x2e
 13935 177e 746F6F00 		.ascii	"too\000"
 13936 1782 01       		.byte	0x1
 13937 1783 8101     		.2byte	0x181
 13938 1785 33000000 		.4byte	0x33
 13939 1789 C8070000 		.4byte	.LLST37
 13940 178d 2F       		.uleb128 0x2f
 13941 178e 636800   		.ascii	"ch\000"
 13942 1791 01       		.byte	0x1
 13943 1792 8201     		.2byte	0x182
 13944 1794 5B050000 		.4byte	0x55b
 13945 1798 E6070000 		.4byte	.LLST38
 13946 179c 32       		.uleb128 0x32
ARM GAS  C:\Users\doug_000\AppData\Local\Temp\ccbaKQF3.s 			page 292


 13947 179d A5030000 		.4byte	.LASF137
 13948 17a1 01       		.byte	0x1
 13949 17a2 8301     		.2byte	0x183
 13950 17a4 33000000 		.4byte	0x33
 13951 17a8 F9070000 		.4byte	.LLST39
 13952 17ac 27       		.uleb128 0x27
 13953 17ad 1C000000 		.4byte	.LVL287
 13954 17b1 1C160000 		.4byte	0x161c
 13955 17b5 26       		.uleb128 0x26
 13956 17b6 26000000 		.4byte	.LVL290
 13957 17ba FE080000 		.4byte	0x8fe
 13958 17be C9170000 		.4byte	0x17c9
 13959 17c2 23       		.uleb128 0x23
 13960 17c3 01       		.uleb128 0x1
 13961 17c4 50       		.byte	0x50
 13962 17c5 02       		.uleb128 0x2
 13963 17c6 76       		.byte	0x76
 13964 17c7 00       		.sleb128 0
 13965 17c8 00       		.byte	0
 13966 17c9 27       		.uleb128 0x27
 13967 17ca 32000000 		.4byte	.LVL292
 13968 17ce 8E0A0000 		.4byte	0xa8e
 13969 17d2 26       		.uleb128 0x26
 13970 17d3 38000000 		.4byte	.LVL293
 13971 17d7 27090000 		.4byte	0x927
 13972 17db E6170000 		.4byte	0x17e6
 13973 17df 23       		.uleb128 0x23
 13974 17e0 01       		.uleb128 0x1
 13975 17e1 50       		.byte	0x50
 13976 17e2 02       		.uleb128 0x2
 13977 17e3 08       		.byte	0x8
 13978 17e4 20       		.byte	0x20
 13979 17e5 00       		.byte	0
 13980 17e6 26       		.uleb128 0x26
 13981 17e7 44000000 		.4byte	.LVL296
 13982 17eb 27090000 		.4byte	0x927
 13983 17ef FA170000 		.4byte	0x17fa
 13984 17f3 23       		.uleb128 0x23
 13985 17f4 01       		.uleb128 0x1
 13986 17f5 50       		.byte	0x50
 13987 17f6 02       		.uleb128 0x2
 13988 17f7 75       		.byte	0x75
 13989 17f8 00       		.sleb128 0
 13990 17f9 00       		.byte	0
 13991 17fa 27       		.uleb128 0x27
 13992 17fb 4E000000 		.4byte	.LVL298
 13993 17ff 220A0000 		.4byte	0xa22
 13994 1803 00       		.byte	0
 13995 1804 2B       		.uleb128 0x2b
 13996 1805 37070000 		.4byte	.LASF161
 13997 1809 01       		.byte	0x1
 13998 180a 9401     		.2byte	0x194
 13999 180c 00000000 		.4byte	.LFB31
 14000 1810 84000000 		.4byte	.LFE31-.LFB31
 14001 1814 01       		.uleb128 0x1
 14002 1815 9C       		.byte	0x9c
 14003 1816 81180000 		.4byte	0x1881
ARM GAS  C:\Users\doug_000\AppData\Local\Temp\ccbaKQF3.s 			page 293


 14004 181a 2E       		.uleb128 0x2e
 14005 181b 74787400 		.ascii	"txt\000"
 14006 181f 01       		.byte	0x1
 14007 1820 9401     		.2byte	0x194
 14008 1822 55050000 		.4byte	0x555
 14009 1826 2F080000 		.4byte	.LLST40
 14010 182a 32       		.uleb128 0x32
 14011 182b A0030000 		.4byte	.LASF119
 14012 182f 01       		.byte	0x1
 14013 1830 9501     		.2byte	0x195
 14014 1832 33000000 		.4byte	0x33
 14015 1836 79080000 		.4byte	.LLST41
 14016 183a 26       		.uleb128 0x26
 14017 183b 14000000 		.4byte	.LVL303
 14018 183f CC080000 		.4byte	0x8cc
 14019 1843 56180000 		.4byte	0x1856
 14020 1847 23       		.uleb128 0x23
 14021 1848 01       		.uleb128 0x1
 14022 1849 51       		.byte	0x51
 14023 184a 03       		.uleb128 0x3
 14024 184b 0A       		.byte	0xa
 14025 184c 2001     		.2byte	0x120
 14026 184e 23       		.uleb128 0x23
 14027 184f 01       		.uleb128 0x1
 14028 1850 50       		.byte	0x50
 14029 1851 03       		.uleb128 0x3
 14030 1852 0A       		.byte	0xa
 14031 1853 1E01     		.2byte	0x11e
 14032 1855 00       		.byte	0
 14033 1856 26       		.uleb128 0x26
 14034 1857 1E000000 		.4byte	.LVL304
 14035 185b CC080000 		.4byte	0x8cc
 14036 185f 6B180000 		.4byte	0x186b
 14037 1863 23       		.uleb128 0x23
 14038 1864 01       		.uleb128 0x1
 14039 1865 50       		.byte	0x50
 14040 1866 03       		.uleb128 0x3
 14041 1867 0A       		.byte	0xa
 14042 1868 0101     		.2byte	0x101
 14043 186a 00       		.byte	0
 14044 186b 22       		.uleb128 0x22
 14045 186c 4E000000 		.4byte	.LVL311
 14046 1870 70150000 		.4byte	0x1570
 14047 1874 23       		.uleb128 0x23
 14048 1875 01       		.uleb128 0x1
 14049 1876 51       		.byte	0x51
 14050 1877 01       		.uleb128 0x1
 14051 1878 32       		.byte	0x32
 14052 1879 23       		.uleb128 0x23
 14053 187a 01       		.uleb128 0x1
 14054 187b 50       		.byte	0x50
 14055 187c 02       		.uleb128 0x2
 14056 187d 74       		.byte	0x74
 14057 187e 00       		.sleb128 0
 14058 187f 00       		.byte	0
 14059 1880 00       		.byte	0
 14060 1881 2B       		.uleb128 0x2b
ARM GAS  C:\Users\doug_000\AppData\Local\Temp\ccbaKQF3.s 			page 294


 14061 1882 72030000 		.4byte	.LASF162
 14062 1886 01       		.byte	0x1
 14063 1887 A801     		.2byte	0x1a8
 14064 1889 00000000 		.4byte	.LFB32
 14065 188d 30000000 		.4byte	.LFE32-.LFB32
 14066 1891 01       		.uleb128 0x1
 14067 1892 9C       		.byte	0x9c
 14068 1893 A8180000 		.4byte	0x18a8
 14069 1897 2C       		.uleb128 0x2c
 14070 1898 A5030000 		.4byte	.LASF137
 14071 189c 01       		.byte	0x1
 14072 189d A801     		.2byte	0x1a8
 14073 189f 33000000 		.4byte	0x33
 14074 18a3 8C080000 		.4byte	.LLST42
 14075 18a7 00       		.byte	0
 14076 18a8 2B       		.uleb128 0x2b
 14077 18a9 73060000 		.4byte	.LASF163
 14078 18ad 01       		.byte	0x1
 14079 18ae B101     		.2byte	0x1b1
 14080 18b0 00000000 		.4byte	.LFB33
 14081 18b4 440C0000 		.4byte	.LFE33-.LFB33
 14082 18b8 01       		.uleb128 0x1
 14083 18b9 9C       		.byte	0x9c
 14084 18ba 71220000 		.4byte	0x2271
 14085 18be 2F       		.uleb128 0x2f
 14086 18bf 636800   		.ascii	"ch\000"
 14087 18c2 01       		.byte	0x1
 14088 18c3 B201     		.2byte	0x1b2
 14089 18c5 5B050000 		.4byte	0x55b
 14090 18c9 B5080000 		.4byte	.LLST43
 14091 18cd 2F       		.uleb128 0x2f
 14092 18ce 6F7000   		.ascii	"op\000"
 14093 18d1 01       		.byte	0x1
 14094 18d2 B301     		.2byte	0x1b3
 14095 18d4 33000000 		.4byte	0x33
 14096 18d8 8C090000 		.4byte	.LLST44
 14097 18dc 2F       		.uleb128 0x2f
 14098 18dd 697800   		.ascii	"ix\000"
 14099 18e0 01       		.byte	0x1
 14100 18e1 B301     		.2byte	0x1b3
 14101 18e3 33000000 		.4byte	0x33
 14102 18e7 CD0B0000 		.4byte	.LLST45
 14103 18eb 32       		.uleb128 0x32
 14104 18ec A5030000 		.4byte	.LASF137
 14105 18f0 01       		.byte	0x1
 14106 18f1 B301     		.2byte	0x1b3
 14107 18f3 33000000 		.4byte	0x33
 14108 18f7 640D0000 		.4byte	.LLST46
 14109 18fb 32       		.uleb128 0x32
 14110 18fc 6C040000 		.4byte	.LASF164
 14111 1900 01       		.byte	0x1
 14112 1901 B301     		.2byte	0x1b3
 14113 1903 33000000 		.4byte	0x33
 14114 1907 E90D0000 		.4byte	.LLST47
 14115 190b 27       		.uleb128 0x27
 14116 190c 0E000000 		.4byte	.LVL318
 14117 1910 220A0000 		.4byte	0xa22
ARM GAS  C:\Users\doug_000\AppData\Local\Temp\ccbaKQF3.s 			page 295


 14118 1914 27       		.uleb128 0x27
 14119 1915 1A000000 		.4byte	.LVL319
 14120 1919 650A0000 		.4byte	0xa65
 14121 191d 26       		.uleb128 0x26
 14122 191e 20000000 		.4byte	.LVL320
 14123 1922 370A0000 		.4byte	0xa37
 14124 1926 34190000 		.4byte	0x1934
 14125 192a 23       		.uleb128 0x23
 14126 192b 01       		.uleb128 0x1
 14127 192c 50       		.byte	0x50
 14128 192d 05       		.uleb128 0x5
 14129 192e 03       		.byte	0x3
 14130 192f B0000000 		.4byte	.LC24
 14131 1933 00       		.byte	0
 14132 1934 27       		.uleb128 0x27
 14133 1935 24000000 		.4byte	.LVL321
 14134 1939 6B120000 		.4byte	0x126b
 14135 193d 26       		.uleb128 0x26
 14136 193e 32000000 		.4byte	.LVL322
 14137 1942 FE080000 		.4byte	0x8fe
 14138 1946 52190000 		.4byte	0x1952
 14139 194a 23       		.uleb128 0x23
 14140 194b 01       		.uleb128 0x1
 14141 194c 50       		.byte	0x50
 14142 194d 03       		.uleb128 0x3
 14143 194e 0A       		.byte	0xa
 14144 194f 1E01     		.2byte	0x11e
 14145 1951 00       		.byte	0
 14146 1952 27       		.uleb128 0x27
 14147 1953 3C000000 		.4byte	.LVL323
 14148 1957 73110000 		.4byte	0x1173
 14149 195b 27       		.uleb128 0x27
 14150 195c 48000000 		.4byte	.LVL324
 14151 1960 650A0000 		.4byte	0xa65
 14152 1964 26       		.uleb128 0x26
 14153 1965 4E000000 		.4byte	.LVL325
 14154 1969 370A0000 		.4byte	0xa37
 14155 196d 7B190000 		.4byte	0x197b
 14156 1971 23       		.uleb128 0x23
 14157 1972 01       		.uleb128 0x1
 14158 1973 50       		.byte	0x50
 14159 1974 05       		.uleb128 0x5
 14160 1975 03       		.byte	0x3
 14161 1976 C4000000 		.4byte	.LC25
 14162 197a 00       		.byte	0
 14163 197b 26       		.uleb128 0x26
 14164 197c 58000000 		.4byte	.LVL326
 14165 1980 280B0000 		.4byte	0xb28
 14166 1984 8E190000 		.4byte	0x198e
 14167 1988 23       		.uleb128 0x23
 14168 1989 01       		.uleb128 0x1
 14169 198a 51       		.byte	0x51
 14170 198b 01       		.uleb128 0x1
 14171 198c 34       		.byte	0x34
 14172 198d 00       		.byte	0
 14173 198e 26       		.uleb128 0x26
 14174 198f 5E000000 		.4byte	.LVL327
ARM GAS  C:\Users\doug_000\AppData\Local\Temp\ccbaKQF3.s 			page 296


 14175 1993 370A0000 		.4byte	0xa37
 14176 1997 A5190000 		.4byte	0x19a5
 14177 199b 23       		.uleb128 0x23
 14178 199c 01       		.uleb128 0x1
 14179 199d 50       		.byte	0x50
 14180 199e 05       		.uleb128 0x5
 14181 199f 03       		.byte	0x3
 14182 19a0 10000000 		.4byte	.LC3
 14183 19a4 00       		.byte	0
 14184 19a5 27       		.uleb128 0x27
 14185 19a6 8A000000 		.4byte	.LVL328
 14186 19aa 650A0000 		.4byte	0xa65
 14187 19ae 26       		.uleb128 0x26
 14188 19af 90000000 		.4byte	.LVL329
 14189 19b3 370A0000 		.4byte	0xa37
 14190 19b7 C5190000 		.4byte	0x19c5
 14191 19bb 23       		.uleb128 0x23
 14192 19bc 01       		.uleb128 0x1
 14193 19bd 50       		.byte	0x50
 14194 19be 05       		.uleb128 0x5
 14195 19bf 03       		.byte	0x3
 14196 19c0 CC000000 		.4byte	.LC26
 14197 19c4 00       		.byte	0
 14198 19c5 26       		.uleb128 0x26
 14199 19c6 9A000000 		.4byte	.LVL330
 14200 19ca 280B0000 		.4byte	0xb28
 14201 19ce D8190000 		.4byte	0x19d8
 14202 19d2 23       		.uleb128 0x23
 14203 19d3 01       		.uleb128 0x1
 14204 19d4 51       		.byte	0x51
 14205 19d5 01       		.uleb128 0x1
 14206 19d6 34       		.byte	0x34
 14207 19d7 00       		.byte	0
 14208 19d8 26       		.uleb128 0x26
 14209 19d9 A0000000 		.4byte	.LVL331
 14210 19dd 370A0000 		.4byte	0xa37
 14211 19e1 EF190000 		.4byte	0x19ef
 14212 19e5 23       		.uleb128 0x23
 14213 19e6 01       		.uleb128 0x1
 14214 19e7 50       		.byte	0x50
 14215 19e8 05       		.uleb128 0x5
 14216 19e9 03       		.byte	0x3
 14217 19ea DC000000 		.4byte	.LC27
 14218 19ee 00       		.byte	0
 14219 19ef 27       		.uleb128 0x27
 14220 19f0 AA000000 		.4byte	.LVL332
 14221 19f4 8E0A0000 		.4byte	0xa8e
 14222 19f8 26       		.uleb128 0x26
 14223 19f9 B0000000 		.4byte	.LVL333
 14224 19fd 370A0000 		.4byte	0xa37
 14225 1a01 0F1A0000 		.4byte	0x1a0f
 14226 1a05 23       		.uleb128 0x23
 14227 1a06 01       		.uleb128 0x1
 14228 1a07 50       		.byte	0x50
 14229 1a08 05       		.uleb128 0x5
 14230 1a09 03       		.byte	0x3
 14231 1a0a E0000000 		.4byte	.LC28
ARM GAS  C:\Users\doug_000\AppData\Local\Temp\ccbaKQF3.s 			page 297


 14232 1a0e 00       		.byte	0
 14233 1a0f 27       		.uleb128 0x27
 14234 1a10 B8000000 		.4byte	.LVL334
 14235 1a14 6B120000 		.4byte	0x126b
 14236 1a18 27       		.uleb128 0x27
 14237 1a19 D2000000 		.4byte	.LVL336
 14238 1a1d 650A0000 		.4byte	0xa65
 14239 1a21 26       		.uleb128 0x26
 14240 1a22 D8000000 		.4byte	.LVL337
 14241 1a26 370A0000 		.4byte	0xa37
 14242 1a2a 381A0000 		.4byte	0x1a38
 14243 1a2e 23       		.uleb128 0x23
 14244 1a2f 01       		.uleb128 0x1
 14245 1a30 50       		.byte	0x50
 14246 1a31 05       		.uleb128 0x5
 14247 1a32 03       		.byte	0x3
 14248 1a33 E8000000 		.4byte	.LC29
 14249 1a37 00       		.byte	0
 14250 1a38 26       		.uleb128 0x26
 14251 1a39 E4000000 		.4byte	.LVL338
 14252 1a3d FE080000 		.4byte	0x8fe
 14253 1a41 4D1A0000 		.4byte	0x1a4d
 14254 1a45 23       		.uleb128 0x23
 14255 1a46 01       		.uleb128 0x1
 14256 1a47 50       		.byte	0x50
 14257 1a48 03       		.uleb128 0x3
 14258 1a49 0A       		.byte	0xa
 14259 1a4a 1E01     		.2byte	0x11e
 14260 1a4c 00       		.byte	0
 14261 1a4d 26       		.uleb128 0x26
 14262 1a4e EE000000 		.4byte	.LVL339
 14263 1a52 280B0000 		.4byte	0xb28
 14264 1a56 601A0000 		.4byte	0x1a60
 14265 1a5a 23       		.uleb128 0x23
 14266 1a5b 01       		.uleb128 0x1
 14267 1a5c 51       		.byte	0x51
 14268 1a5d 01       		.uleb128 0x1
 14269 1a5e 33       		.byte	0x33
 14270 1a5f 00       		.byte	0
 14271 1a60 26       		.uleb128 0x26
 14272 1a61 F4000000 		.4byte	.LVL340
 14273 1a65 370A0000 		.4byte	0xa37
 14274 1a69 771A0000 		.4byte	0x1a77
 14275 1a6d 23       		.uleb128 0x23
 14276 1a6e 01       		.uleb128 0x1
 14277 1a6f 50       		.byte	0x50
 14278 1a70 05       		.uleb128 0x5
 14279 1a71 03       		.byte	0x3
 14280 1a72 28000000 		.4byte	.LC7
 14281 1a76 00       		.byte	0
 14282 1a77 26       		.uleb128 0x26
 14283 1a78 FC000000 		.4byte	.LVL341
 14284 1a7c 280B0000 		.4byte	0xb28
 14285 1a80 901A0000 		.4byte	0x1a90
 14286 1a84 23       		.uleb128 0x23
 14287 1a85 01       		.uleb128 0x1
 14288 1a86 51       		.byte	0x51
ARM GAS  C:\Users\doug_000\AppData\Local\Temp\ccbaKQF3.s 			page 298


 14289 1a87 01       		.uleb128 0x1
 14290 1a88 32       		.byte	0x32
 14291 1a89 23       		.uleb128 0x23
 14292 1a8a 01       		.uleb128 0x1
 14293 1a8b 50       		.byte	0x50
 14294 1a8c 02       		.uleb128 0x2
 14295 1a8d 74       		.byte	0x74
 14296 1a8e 00       		.sleb128 0
 14297 1a8f 00       		.byte	0
 14298 1a90 26       		.uleb128 0x26
 14299 1a91 02010000 		.4byte	.LVL342
 14300 1a95 370A0000 		.4byte	0xa37
 14301 1a99 A71A0000 		.4byte	0x1aa7
 14302 1a9d 23       		.uleb128 0x23
 14303 1a9e 01       		.uleb128 0x1
 14304 1a9f 50       		.byte	0x50
 14305 1aa0 05       		.uleb128 0x5
 14306 1aa1 03       		.byte	0x3
 14307 1aa2 10000000 		.4byte	.LC3
 14308 1aa6 00       		.byte	0
 14309 1aa7 27       		.uleb128 0x27
 14310 1aa8 28020000 		.4byte	.LVL343
 14311 1aac 6B120000 		.4byte	0x126b
 14312 1ab0 27       		.uleb128 0x27
 14313 1ab1 3A020000 		.4byte	.LVL346
 14314 1ab5 6B120000 		.4byte	0x126b
 14315 1ab9 27       		.uleb128 0x27
 14316 1aba 56020000 		.4byte	.LVL348
 14317 1abe 440C0000 		.4byte	0xc44
 14318 1ac2 27       		.uleb128 0x27
 14319 1ac3 68020000 		.4byte	.LVL350
 14320 1ac7 A4140000 		.4byte	0x14a4
 14321 1acb 27       		.uleb128 0x27
 14322 1acc 76020000 		.4byte	.LVL353
 14323 1ad0 FE080000 		.4byte	0x8fe
 14324 1ad4 27       		.uleb128 0x27
 14325 1ad5 7A020000 		.4byte	.LVL354
 14326 1ad9 01150000 		.4byte	0x1501
 14327 1add 27       		.uleb128 0x27
 14328 1ade 8A020000 		.4byte	.LVL357
 14329 1ae2 43150000 		.4byte	0x1543
 14330 1ae6 27       		.uleb128 0x27
 14331 1ae7 9C020000 		.4byte	.LVL358
 14332 1aeb 01150000 		.4byte	0x1501
 14333 1aef 27       		.uleb128 0x27
 14334 1af0 A2020000 		.4byte	.LVL359
 14335 1af4 43150000 		.4byte	0x1543
 14336 1af8 27       		.uleb128 0x27
 14337 1af9 B0020000 		.4byte	.LVL360
 14338 1afd 440C0000 		.4byte	0xc44
 14339 1b01 27       		.uleb128 0x27
 14340 1b02 BA020000 		.4byte	.LVL361
 14341 1b06 81180000 		.4byte	0x1881
 14342 1b0a 27       		.uleb128 0x27
 14343 1b0b C4020000 		.4byte	.LVL362
 14344 1b0f 81180000 		.4byte	0x1881
 14345 1b13 27       		.uleb128 0x27
ARM GAS  C:\Users\doug_000\AppData\Local\Temp\ccbaKQF3.s 			page 299


 14346 1b14 CA020000 		.4byte	.LVL363
 14347 1b18 DD140000 		.4byte	0x14dd
 14348 1b1c 26       		.uleb128 0x26
 14349 1b1d D6020000 		.4byte	.LVL365
 14350 1b21 FE080000 		.4byte	0x8fe
 14351 1b25 301B0000 		.4byte	0x1b30
 14352 1b29 23       		.uleb128 0x23
 14353 1b2a 01       		.uleb128 0x1
 14354 1b2b 50       		.byte	0x50
 14355 1b2c 02       		.uleb128 0x2
 14356 1b2d 74       		.byte	0x74
 14357 1b2e 00       		.sleb128 0
 14358 1b2f 00       		.byte	0
 14359 1b30 27       		.uleb128 0x27
 14360 1b31 DA020000 		.4byte	.LVL366
 14361 1b35 01150000 		.4byte	0x1501
 14362 1b39 26       		.uleb128 0x26
 14363 1b3a EA020000 		.4byte	.LVL367
 14364 1b3e 020D0000 		.4byte	0xd02
 14365 1b42 4D1B0000 		.4byte	0x1b4d
 14366 1b46 23       		.uleb128 0x23
 14367 1b47 01       		.uleb128 0x1
 14368 1b48 50       		.byte	0x50
 14369 1b49 02       		.uleb128 0x2
 14370 1b4a 74       		.byte	0x74
 14371 1b4b 00       		.sleb128 0
 14372 1b4c 00       		.byte	0
 14373 1b4d 27       		.uleb128 0x27
 14374 1b4e 2C030000 		.4byte	.LVL368
 14375 1b52 43150000 		.4byte	0x1543
 14376 1b56 27       		.uleb128 0x27
 14377 1b57 32030000 		.4byte	.LVL370
 14378 1b5b DD140000 		.4byte	0x14dd
 14379 1b5f 26       		.uleb128 0x26
 14380 1b60 44030000 		.4byte	.LVL372
 14381 1b64 CC080000 		.4byte	0x8cc
 14382 1b68 791B0000 		.4byte	0x1b79
 14383 1b6c 23       		.uleb128 0x23
 14384 1b6d 01       		.uleb128 0x1
 14385 1b6e 51       		.byte	0x51
 14386 1b6f 02       		.uleb128 0x2
 14387 1b70 74       		.byte	0x74
 14388 1b71 00       		.sleb128 0
 14389 1b72 23       		.uleb128 0x23
 14390 1b73 01       		.uleb128 0x1
 14391 1b74 50       		.byte	0x50
 14392 1b75 02       		.uleb128 0x2
 14393 1b76 75       		.byte	0x75
 14394 1b77 00       		.sleb128 0
 14395 1b78 00       		.byte	0
 14396 1b79 26       		.uleb128 0x26
 14397 1b7a 52030000 		.4byte	.LVL374
 14398 1b7e 73110000 		.4byte	0x1173
 14399 1b82 931B0000 		.4byte	0x1b93
 14400 1b86 23       		.uleb128 0x23
 14401 1b87 01       		.uleb128 0x1
 14402 1b88 50       		.byte	0x50
ARM GAS  C:\Users\doug_000\AppData\Local\Temp\ccbaKQF3.s 			page 300


 14403 1b89 08       		.uleb128 0x8
 14404 1b8a 75       		.byte	0x75
 14405 1b8b 807E     		.sleb128 -256
 14406 1b8d 40       		.byte	0x40
 14407 1b8e 24       		.byte	0x24
 14408 1b8f 74       		.byte	0x74
 14409 1b90 00       		.sleb128 0
 14410 1b91 22       		.byte	0x22
 14411 1b92 00       		.byte	0
 14412 1b93 26       		.uleb128 0x26
 14413 1b94 62030000 		.4byte	.LVL375
 14414 1b98 020D0000 		.4byte	0xd02
 14415 1b9c A71B0000 		.4byte	0x1ba7
 14416 1ba0 23       		.uleb128 0x23
 14417 1ba1 01       		.uleb128 0x1
 14418 1ba2 50       		.byte	0x50
 14419 1ba3 02       		.uleb128 0x2
 14420 1ba4 75       		.byte	0x75
 14421 1ba5 00       		.sleb128 0
 14422 1ba6 00       		.byte	0
 14423 1ba7 27       		.uleb128 0x27
 14424 1ba8 70030000 		.4byte	.LVL376
 14425 1bac 440C0000 		.4byte	0xc44
 14426 1bb0 27       		.uleb128 0x27
 14427 1bb1 7A030000 		.4byte	.LVL378
 14428 1bb5 E5130000 		.4byte	0x13e5
 14429 1bb9 27       		.uleb128 0x27
 14430 1bba 80030000 		.4byte	.LVL379
 14431 1bbe 46140000 		.4byte	0x1446
 14432 1bc2 27       		.uleb128 0x27
 14433 1bc3 92030000 		.4byte	.LVL380
 14434 1bc7 A3160000 		.4byte	0x16a3
 14435 1bcb 27       		.uleb128 0x27
 14436 1bcc A2030000 		.4byte	.LVL382
 14437 1bd0 73110000 		.4byte	0x1173
 14438 1bd4 27       		.uleb128 0x27
 14439 1bd5 A6030000 		.4byte	.LVL383
 14440 1bd9 43150000 		.4byte	0x1543
 14441 1bdd 27       		.uleb128 0x27
 14442 1bde B6030000 		.4byte	.LVL384
 14443 1be2 A3160000 		.4byte	0x16a3
 14444 1be6 27       		.uleb128 0x27
 14445 1be7 BC030000 		.4byte	.LVL386
 14446 1beb 43150000 		.4byte	0x1543
 14447 1bef 27       		.uleb128 0x27
 14448 1bf0 CC030000 		.4byte	.LVL388
 14449 1bf4 01150000 		.4byte	0x1501
 14450 1bf8 27       		.uleb128 0x27
 14451 1bf9 D2030000 		.4byte	.LVL389
 14452 1bfd 43150000 		.4byte	0x1543
 14453 1c01 27       		.uleb128 0x27
 14454 1c02 D8030000 		.4byte	.LVL391
 14455 1c06 43150000 		.4byte	0x1543
 14456 1c0a 27       		.uleb128 0x27
 14457 1c0b E8030000 		.4byte	.LVL393
 14458 1c0f 01150000 		.4byte	0x1501
 14459 1c13 27       		.uleb128 0x27
ARM GAS  C:\Users\doug_000\AppData\Local\Temp\ccbaKQF3.s 			page 301


 14460 1c14 EE030000 		.4byte	.LVL395
 14461 1c18 43150000 		.4byte	0x1543
 14462 1c1c 27       		.uleb128 0x27
 14463 1c1d F4030000 		.4byte	.LVL397
 14464 1c21 43150000 		.4byte	0x1543
 14465 1c25 27       		.uleb128 0x27
 14466 1c26 04040000 		.4byte	.LVL399
 14467 1c2a 01150000 		.4byte	0x1501
 14468 1c2e 27       		.uleb128 0x27
 14469 1c2f 0A040000 		.4byte	.LVL401
 14470 1c33 43150000 		.4byte	0x1543
 14471 1c37 27       		.uleb128 0x27
 14472 1c38 10040000 		.4byte	.LVL403
 14473 1c3c 43150000 		.4byte	0x1543
 14474 1c40 27       		.uleb128 0x27
 14475 1c41 22040000 		.4byte	.LVL405
 14476 1c45 01150000 		.4byte	0x1501
 14477 1c49 27       		.uleb128 0x27
 14478 1c4a 28040000 		.4byte	.LVL407
 14479 1c4e 43150000 		.4byte	0x1543
 14480 1c52 27       		.uleb128 0x27
 14481 1c53 2E040000 		.4byte	.LVL409
 14482 1c57 43150000 		.4byte	0x1543
 14483 1c5b 27       		.uleb128 0x27
 14484 1c5c 34040000 		.4byte	.LVL410
 14485 1c60 6B120000 		.4byte	0x126b
 14486 1c64 27       		.uleb128 0x27
 14487 1c65 48040000 		.4byte	.LVL413
 14488 1c69 01150000 		.4byte	0x1501
 14489 1c6d 27       		.uleb128 0x27
 14490 1c6e 4E040000 		.4byte	.LVL415
 14491 1c72 43150000 		.4byte	0x1543
 14492 1c76 27       		.uleb128 0x27
 14493 1c77 54040000 		.4byte	.LVL417
 14494 1c7b DD140000 		.4byte	0x14dd
 14495 1c7f 27       		.uleb128 0x27
 14496 1c80 5A040000 		.4byte	.LVL419
 14497 1c84 43150000 		.4byte	0x1543
 14498 1c88 27       		.uleb128 0x27
 14499 1c89 8E040000 		.4byte	.LVL423
 14500 1c8d 440C0000 		.4byte	0xc44
 14501 1c91 26       		.uleb128 0x26
 14502 1c92 A8040000 		.4byte	.LVL425
 14503 1c96 CA150000 		.4byte	0x15ca
 14504 1c9a A41C0000 		.4byte	0x1ca4
 14505 1c9e 23       		.uleb128 0x23
 14506 1c9f 01       		.uleb128 0x1
 14507 1ca0 51       		.byte	0x51
 14508 1ca1 01       		.uleb128 0x1
 14509 1ca2 3D       		.byte	0x3d
 14510 1ca3 00       		.byte	0
 14511 1ca4 26       		.uleb128 0x26
 14512 1ca5 B0040000 		.4byte	.LVL427
 14513 1ca9 FE080000 		.4byte	0x8fe
 14514 1cad B81C0000 		.4byte	0x1cb8
 14515 1cb1 23       		.uleb128 0x23
 14516 1cb2 01       		.uleb128 0x1
ARM GAS  C:\Users\doug_000\AppData\Local\Temp\ccbaKQF3.s 			page 302


 14517 1cb3 50       		.byte	0x50
 14518 1cb4 02       		.uleb128 0x2
 14519 1cb5 74       		.byte	0x74
 14520 1cb6 7F       		.sleb128 -1
 14521 1cb7 00       		.byte	0
 14522 1cb8 27       		.uleb128 0x27
 14523 1cb9 BA040000 		.4byte	.LVL428
 14524 1cbd 6B120000 		.4byte	0x126b
 14525 1cc1 27       		.uleb128 0x27
 14526 1cc2 D0040000 		.4byte	.LVL429
 14527 1cc6 73110000 		.4byte	0x1173
 14528 1cca 27       		.uleb128 0x27
 14529 1ccb D8040000 		.4byte	.LVL430
 14530 1ccf 73110000 		.4byte	0x1173
 14531 1cd3 26       		.uleb128 0x26
 14532 1cd4 E8040000 		.4byte	.LVL431
 14533 1cd8 370A0000 		.4byte	0xa37
 14534 1cdc EA1C0000 		.4byte	0x1cea
 14535 1ce0 23       		.uleb128 0x23
 14536 1ce1 01       		.uleb128 0x1
 14537 1ce2 50       		.byte	0x50
 14538 1ce3 05       		.uleb128 0x5
 14539 1ce4 03       		.byte	0x3
 14540 1ce5 AC000000 		.4byte	.LC23
 14541 1ce9 00       		.byte	0
 14542 1cea 27       		.uleb128 0x27
 14543 1ceb F0040000 		.4byte	.LVL432
 14544 1cef 8E0A0000 		.4byte	0xa8e
 14545 1cf3 26       		.uleb128 0x26
 14546 1cf4 F6040000 		.4byte	.LVL433
 14547 1cf8 370A0000 		.4byte	0xa37
 14548 1cfc 0A1D0000 		.4byte	0x1d0a
 14549 1d00 23       		.uleb128 0x23
 14550 1d01 01       		.uleb128 0x1
 14551 1d02 50       		.byte	0x50
 14552 1d03 05       		.uleb128 0x5
 14553 1d04 03       		.byte	0x3
 14554 1d05 10000000 		.4byte	.LC3
 14555 1d09 00       		.byte	0
 14556 1d0a 27       		.uleb128 0x27
 14557 1d0b FC040000 		.4byte	.LVL435
 14558 1d0f 43150000 		.4byte	0x1543
 14559 1d13 27       		.uleb128 0x27
 14560 1d14 1A050000 		.4byte	.LVL440
 14561 1d18 6B120000 		.4byte	0x126b
 14562 1d1c 26       		.uleb128 0x26
 14563 1d1d 22050000 		.4byte	.LVL442
 14564 1d21 57170000 		.4byte	0x1757
 14565 1d25 301D0000 		.4byte	0x1d30
 14566 1d29 23       		.uleb128 0x23
 14567 1d2a 01       		.uleb128 0x1
 14568 1d2b 50       		.byte	0x50
 14569 1d2c 02       		.uleb128 0x2
 14570 1d2d 74       		.byte	0x74
 14571 1d2e 00       		.sleb128 0
 14572 1d2f 00       		.byte	0
 14573 1d30 27       		.uleb128 0x27
ARM GAS  C:\Users\doug_000\AppData\Local\Temp\ccbaKQF3.s 			page 303


 14574 1d31 28050000 		.4byte	.LVL444
 14575 1d35 43150000 		.4byte	0x1543
 14576 1d39 27       		.uleb128 0x27
 14577 1d3a 36050000 		.4byte	.LVL445
 14578 1d3e 8E0A0000 		.4byte	0xa8e
 14579 1d42 27       		.uleb128 0x27
 14580 1d43 52050000 		.4byte	.LVL447
 14581 1d47 6B120000 		.4byte	0x126b
 14582 1d4b 27       		.uleb128 0x27
 14583 1d4c 58050000 		.4byte	.LVL449
 14584 1d50 27090000 		.4byte	0x927
 14585 1d54 26       		.uleb128 0x26
 14586 1d55 60050000 		.4byte	.LVL450
 14587 1d59 27090000 		.4byte	0x927
 14588 1d5d 681D0000 		.4byte	0x1d68
 14589 1d61 23       		.uleb128 0x23
 14590 1d62 01       		.uleb128 0x1
 14591 1d63 50       		.byte	0x50
 14592 1d64 02       		.uleb128 0x2
 14593 1d65 08       		.byte	0x8
 14594 1d66 20       		.byte	0x20
 14595 1d67 00       		.byte	0
 14596 1d68 26       		.uleb128 0x26
 14597 1d69 74050000 		.4byte	.LVL451
 14598 1d6d 27090000 		.4byte	0x927
 14599 1d71 7B1D0000 		.4byte	0x1d7b
 14600 1d75 23       		.uleb128 0x23
 14601 1d76 01       		.uleb128 0x1
 14602 1d77 50       		.byte	0x50
 14603 1d78 01       		.uleb128 0x1
 14604 1d79 3D       		.byte	0x3d
 14605 1d7a 00       		.byte	0
 14606 1d7b 26       		.uleb128 0x26
 14607 1d7c 8A050000 		.4byte	.LVL454
 14608 1d80 27090000 		.4byte	0x927
 14609 1d84 921D0000 		.4byte	0x1d92
 14610 1d88 23       		.uleb128 0x23
 14611 1d89 01       		.uleb128 0x1
 14612 1d8a 50       		.byte	0x50
 14613 1d8b 05       		.uleb128 0x5
 14614 1d8c 74       		.byte	0x74
 14615 1d8d 00       		.sleb128 0
 14616 1d8e 08       		.byte	0x8
 14617 1d8f 7F       		.byte	0x7f
 14618 1d90 1A       		.byte	0x1a
 14619 1d91 00       		.byte	0
 14620 1d92 27       		.uleb128 0x27
 14621 1d93 9C050000 		.4byte	.LVL456
 14622 1d97 BB090000 		.4byte	0x9bb
 14623 1d9b 26       		.uleb128 0x26
 14624 1d9c D4050000 		.4byte	.LVL460
 14625 1da0 27090000 		.4byte	0x927
 14626 1da4 AE1D0000 		.4byte	0x1dae
 14627 1da8 23       		.uleb128 0x23
 14628 1da9 01       		.uleb128 0x1
 14629 1daa 50       		.byte	0x50
 14630 1dab 01       		.uleb128 0x1
ARM GAS  C:\Users\doug_000\AppData\Local\Temp\ccbaKQF3.s 			page 304


 14631 1dac 3D       		.byte	0x3d
 14632 1dad 00       		.byte	0
 14633 1dae 26       		.uleb128 0x26
 14634 1daf EC050000 		.4byte	.LVL463
 14635 1db3 27090000 		.4byte	0x927
 14636 1db7 C11D0000 		.4byte	0x1dc1
 14637 1dbb 23       		.uleb128 0x23
 14638 1dbc 01       		.uleb128 0x1
 14639 1dbd 50       		.byte	0x50
 14640 1dbe 01       		.uleb128 0x1
 14641 1dbf 3D       		.byte	0x3d
 14642 1dc0 00       		.byte	0
 14643 1dc1 27       		.uleb128 0x27
 14644 1dc2 6C060000 		.4byte	.LVL467
 14645 1dc6 43150000 		.4byte	0x1543
 14646 1dca 27       		.uleb128 0x27
 14647 1dcb 84060000 		.4byte	.LVL468
 14648 1dcf 6B120000 		.4byte	0x126b
 14649 1dd3 26       		.uleb128 0x26
 14650 1dd4 AE060000 		.4byte	.LVL473
 14651 1dd8 1C160000 		.4byte	0x161c
 14652 1ddc E71D0000 		.4byte	0x1de7
 14653 1de0 23       		.uleb128 0x23
 14654 1de1 01       		.uleb128 0x1
 14655 1de2 50       		.byte	0x50
 14656 1de3 02       		.uleb128 0x2
 14657 1de4 76       		.byte	0x76
 14658 1de5 00       		.sleb128 0
 14659 1de6 00       		.byte	0
 14660 1de7 26       		.uleb128 0x26
 14661 1de8 B4060000 		.4byte	.LVL475
 14662 1dec FE080000 		.4byte	0x8fe
 14663 1df0 FB1D0000 		.4byte	0x1dfb
 14664 1df4 23       		.uleb128 0x23
 14665 1df5 01       		.uleb128 0x1
 14666 1df6 50       		.byte	0x50
 14667 1df7 02       		.uleb128 0x2
 14668 1df8 75       		.byte	0x75
 14669 1df9 00       		.sleb128 0
 14670 1dfa 00       		.byte	0
 14671 1dfb 26       		.uleb128 0x26
 14672 1dfc C0060000 		.4byte	.LVL476
 14673 1e00 CA150000 		.4byte	0x15ca
 14674 1e04 141E0000 		.4byte	0x1e14
 14675 1e08 23       		.uleb128 0x23
 14676 1e09 01       		.uleb128 0x1
 14677 1e0a 51       		.byte	0x51
 14678 1e0b 01       		.uleb128 0x1
 14679 1e0c 3D       		.byte	0x3d
 14680 1e0d 23       		.uleb128 0x23
 14681 1e0e 01       		.uleb128 0x1
 14682 1e0f 50       		.byte	0x50
 14683 1e10 02       		.uleb128 0x2
 14684 1e11 75       		.byte	0x75
 14685 1e12 02       		.sleb128 2
 14686 1e13 00       		.byte	0
 14687 1e14 27       		.uleb128 0x27
ARM GAS  C:\Users\doug_000\AppData\Local\Temp\ccbaKQF3.s 			page 305


 14688 1e15 E6060000 		.4byte	.LVL481
 14689 1e19 6B120000 		.4byte	0x126b
 14690 1e1d 26       		.uleb128 0x26
 14691 1e1e 2A070000 		.4byte	.LVL492
 14692 1e22 CC080000 		.4byte	0x8cc
 14693 1e26 371E0000 		.4byte	0x1e37
 14694 1e2a 23       		.uleb128 0x23
 14695 1e2b 01       		.uleb128 0x1
 14696 1e2c 51       		.byte	0x51
 14697 1e2d 02       		.uleb128 0x2
 14698 1e2e 76       		.byte	0x76
 14699 1e2f 00       		.sleb128 0
 14700 1e30 23       		.uleb128 0x23
 14701 1e31 01       		.uleb128 0x1
 14702 1e32 50       		.byte	0x50
 14703 1e33 02       		.uleb128 0x2
 14704 1e34 75       		.byte	0x75
 14705 1e35 00       		.sleb128 0
 14706 1e36 00       		.byte	0
 14707 1e37 26       		.uleb128 0x26
 14708 1e38 4E070000 		.4byte	.LVL496
 14709 1e3c CC080000 		.4byte	0x8cc
 14710 1e40 4B1E0000 		.4byte	0x1e4b
 14711 1e44 23       		.uleb128 0x23
 14712 1e45 01       		.uleb128 0x1
 14713 1e46 50       		.byte	0x50
 14714 1e47 02       		.uleb128 0x2
 14715 1e48 08       		.byte	0x8
 14716 1e49 24       		.byte	0x24
 14717 1e4a 00       		.byte	0
 14718 1e4b 26       		.uleb128 0x26
 14719 1e4c 6A070000 		.4byte	.LVL497
 14720 1e50 57170000 		.4byte	0x1757
 14721 1e54 631E0000 		.4byte	0x1e63
 14722 1e58 23       		.uleb128 0x23
 14723 1e59 01       		.uleb128 0x1
 14724 1e5a 51       		.byte	0x51
 14725 1e5b 01       		.uleb128 0x1
 14726 1e5c 30       		.byte	0x30
 14727 1e5d 23       		.uleb128 0x23
 14728 1e5e 01       		.uleb128 0x1
 14729 1e5f 50       		.byte	0x50
 14730 1e60 01       		.uleb128 0x1
 14731 1e61 30       		.byte	0x30
 14732 1e62 00       		.byte	0
 14733 1e63 27       		.uleb128 0x27
 14734 1e64 70070000 		.4byte	.LVL499
 14735 1e68 D0110000 		.4byte	0x11d0
 14736 1e6c 27       		.uleb128 0x27
 14737 1e6d 7E070000 		.4byte	.LVL500
 14738 1e71 A60B0000 		.4byte	0xba6
 14739 1e75 27       		.uleb128 0x27
 14740 1e76 82070000 		.4byte	.LVL501
 14741 1e7a 440C0000 		.4byte	0xc44
 14742 1e7e 26       		.uleb128 0x26
 14743 1e7f 88070000 		.4byte	.LVL502
 14744 1e83 020D0000 		.4byte	0xd02
ARM GAS  C:\Users\doug_000\AppData\Local\Temp\ccbaKQF3.s 			page 306


 14745 1e87 911E0000 		.4byte	0x1e91
 14746 1e8b 23       		.uleb128 0x23
 14747 1e8c 01       		.uleb128 0x1
 14748 1e8d 50       		.byte	0x50
 14749 1e8e 01       		.uleb128 0x1
 14750 1e8f 30       		.byte	0x30
 14751 1e90 00       		.byte	0
 14752 1e91 26       		.uleb128 0x26
 14753 1e92 98070000 		.4byte	.LVL503
 14754 1e96 FE080000 		.4byte	0x8fe
 14755 1e9a A51E0000 		.4byte	0x1ea5
 14756 1e9e 23       		.uleb128 0x23
 14757 1e9f 01       		.uleb128 0x1
 14758 1ea0 50       		.byte	0x50
 14759 1ea1 02       		.uleb128 0x2
 14760 1ea2 08       		.byte	0x8
 14761 1ea3 20       		.byte	0x20
 14762 1ea4 00       		.byte	0
 14763 1ea5 26       		.uleb128 0x26
 14764 1ea6 A2070000 		.4byte	.LVL505
 14765 1eaa FE080000 		.4byte	0x8fe
 14766 1eae B91E0000 		.4byte	0x1eb9
 14767 1eb2 23       		.uleb128 0x23
 14768 1eb3 01       		.uleb128 0x1
 14769 1eb4 50       		.byte	0x50
 14770 1eb5 02       		.uleb128 0x2
 14771 1eb6 74       		.byte	0x74
 14772 1eb7 7F       		.sleb128 -1
 14773 1eb8 00       		.byte	0
 14774 1eb9 27       		.uleb128 0x27
 14775 1eba B0070000 		.4byte	.LVL506
 14776 1ebe 6B120000 		.4byte	0x126b
 14777 1ec2 26       		.uleb128 0x26
 14778 1ec3 C2070000 		.4byte	.LVL507
 14779 1ec7 370A0000 		.4byte	0xa37
 14780 1ecb D91E0000 		.4byte	0x1ed9
 14781 1ecf 23       		.uleb128 0x23
 14782 1ed0 01       		.uleb128 0x1
 14783 1ed1 50       		.byte	0x50
 14784 1ed2 05       		.uleb128 0x5
 14785 1ed3 03       		.byte	0x3
 14786 1ed4 AC000000 		.4byte	.LC23
 14787 1ed8 00       		.byte	0
 14788 1ed9 27       		.uleb128 0x27
 14789 1eda CA070000 		.4byte	.LVL508
 14790 1ede 8E0A0000 		.4byte	0xa8e
 14791 1ee2 26       		.uleb128 0x26
 14792 1ee3 D0070000 		.4byte	.LVL509
 14793 1ee7 370A0000 		.4byte	0xa37
 14794 1eeb F91E0000 		.4byte	0x1ef9
 14795 1eef 23       		.uleb128 0x23
 14796 1ef0 01       		.uleb128 0x1
 14797 1ef1 50       		.byte	0x50
 14798 1ef2 05       		.uleb128 0x5
 14799 1ef3 03       		.byte	0x3
 14800 1ef4 10000000 		.4byte	.LC3
 14801 1ef8 00       		.byte	0
ARM GAS  C:\Users\doug_000\AppData\Local\Temp\ccbaKQF3.s 			page 307


 14802 1ef9 27       		.uleb128 0x27
 14803 1efa D6070000 		.4byte	.LVL511
 14804 1efe 96110000 		.4byte	0x1196
 14805 1f02 27       		.uleb128 0x27
 14806 1f03 E4070000 		.4byte	.LVL512
 14807 1f07 A60B0000 		.4byte	0xba6
 14808 1f0b 26       		.uleb128 0x26
 14809 1f0c F0070000 		.4byte	.LVL513
 14810 1f10 CC080000 		.4byte	0x8cc
 14811 1f14 1F1F0000 		.4byte	0x1f1f
 14812 1f18 23       		.uleb128 0x23
 14813 1f19 01       		.uleb128 0x1
 14814 1f1a 50       		.byte	0x50
 14815 1f1b 02       		.uleb128 0x2
 14816 1f1c 08       		.byte	0x8
 14817 1f1d 28       		.byte	0x28
 14818 1f1e 00       		.byte	0
 14819 1f1f 26       		.uleb128 0x26
 14820 1f20 FE070000 		.4byte	.LVL514
 14821 1f24 CC080000 		.4byte	0x8cc
 14822 1f28 331F0000 		.4byte	0x1f33
 14823 1f2c 23       		.uleb128 0x23
 14824 1f2d 01       		.uleb128 0x1
 14825 1f2e 50       		.byte	0x50
 14826 1f2f 02       		.uleb128 0x2
 14827 1f30 08       		.byte	0x8
 14828 1f31 2A       		.byte	0x2a
 14829 1f32 00       		.byte	0
 14830 1f33 26       		.uleb128 0x26
 14831 1f34 08080000 		.4byte	.LVL515
 14832 1f38 CC080000 		.4byte	0x8cc
 14833 1f3c 471F0000 		.4byte	0x1f47
 14834 1f40 23       		.uleb128 0x23
 14835 1f41 01       		.uleb128 0x1
 14836 1f42 50       		.byte	0x50
 14837 1f43 02       		.uleb128 0x2
 14838 1f44 08       		.byte	0x8
 14839 1f45 2C       		.byte	0x2c
 14840 1f46 00       		.byte	0
 14841 1f47 26       		.uleb128 0x26
 14842 1f48 12080000 		.4byte	.LVL516
 14843 1f4c CC080000 		.4byte	0x8cc
 14844 1f50 5B1F0000 		.4byte	0x1f5b
 14845 1f54 23       		.uleb128 0x23
 14846 1f55 01       		.uleb128 0x1
 14847 1f56 50       		.byte	0x50
 14848 1f57 02       		.uleb128 0x2
 14849 1f58 08       		.byte	0x8
 14850 1f59 2E       		.byte	0x2e
 14851 1f5a 00       		.byte	0
 14852 1f5b 27       		.uleb128 0x27
 14853 1f5c 16080000 		.4byte	.LVL517
 14854 1f60 43150000 		.4byte	0x1543
 14855 1f64 27       		.uleb128 0x27
 14856 1f65 1E080000 		.4byte	.LVL520
 14857 1f69 43150000 		.4byte	0x1543
 14858 1f6d 27       		.uleb128 0x27
ARM GAS  C:\Users\doug_000\AppData\Local\Temp\ccbaKQF3.s 			page 308


 14859 1f6e 24080000 		.4byte	.LVL522
 14860 1f72 43150000 		.4byte	0x1543
 14861 1f76 26       		.uleb128 0x26
 14862 1f77 38080000 		.4byte	.LVL524
 14863 1f7b FE080000 		.4byte	0x8fe
 14864 1f7f 8B1F0000 		.4byte	0x1f8b
 14865 1f83 23       		.uleb128 0x23
 14866 1f84 01       		.uleb128 0x1
 14867 1f85 50       		.byte	0x50
 14868 1f86 03       		.uleb128 0x3
 14869 1f87 0A       		.byte	0xa
 14870 1f88 1E01     		.2byte	0x11e
 14871 1f8a 00       		.byte	0
 14872 1f8b 26       		.uleb128 0x26
 14873 1f8c 4A080000 		.4byte	.LVL525
 14874 1f90 01150000 		.4byte	0x1501
 14875 1f94 9F1F0000 		.4byte	0x1f9f
 14876 1f98 23       		.uleb128 0x23
 14877 1f99 01       		.uleb128 0x1
 14878 1f9a 50       		.byte	0x50
 14879 1f9b 02       		.uleb128 0x2
 14880 1f9c 76       		.byte	0x76
 14881 1f9d 00       		.sleb128 0
 14882 1f9e 00       		.byte	0
 14883 1f9f 26       		.uleb128 0x26
 14884 1fa0 50080000 		.4byte	.LVL526
 14885 1fa4 01150000 		.4byte	0x1501
 14886 1fa8 B31F0000 		.4byte	0x1fb3
 14887 1fac 23       		.uleb128 0x23
 14888 1fad 01       		.uleb128 0x1
 14889 1fae 50       		.byte	0x50
 14890 1faf 02       		.uleb128 0x2
 14891 1fb0 75       		.byte	0x75
 14892 1fb1 00       		.sleb128 0
 14893 1fb2 00       		.byte	0
 14894 1fb3 27       		.uleb128 0x27
 14895 1fb4 58080000 		.4byte	.LVL527
 14896 1fb8 E5130000 		.4byte	0x13e5
 14897 1fbc 26       		.uleb128 0x26
 14898 1fbd 62080000 		.4byte	.LVL528
 14899 1fc1 73110000 		.4byte	0x1173
 14900 1fc5 D11F0000 		.4byte	0x1fd1
 14901 1fc9 23       		.uleb128 0x23
 14902 1fca 01       		.uleb128 0x1
 14903 1fcb 50       		.byte	0x50
 14904 1fcc 03       		.uleb128 0x3
 14905 1fcd 77       		.byte	0x77
 14906 1fce 00       		.sleb128 0
 14907 1fcf 1F       		.byte	0x1f
 14908 1fd0 00       		.byte	0
 14909 1fd1 27       		.uleb128 0x27
 14910 1fd2 F2080000 		.4byte	.LVL531
 14911 1fd6 650A0000 		.4byte	0xa65
 14912 1fda 26       		.uleb128 0x26
 14913 1fdb F8080000 		.4byte	.LVL532
 14914 1fdf 370A0000 		.4byte	0xa37
 14915 1fe3 F11F0000 		.4byte	0x1ff1
ARM GAS  C:\Users\doug_000\AppData\Local\Temp\ccbaKQF3.s 			page 309


 14916 1fe7 23       		.uleb128 0x23
 14917 1fe8 01       		.uleb128 0x1
 14918 1fe9 50       		.byte	0x50
 14919 1fea 05       		.uleb128 0x5
 14920 1feb 03       		.byte	0x3
 14921 1fec F0000000 		.4byte	.LC30
 14922 1ff0 00       		.byte	0
 14923 1ff1 26       		.uleb128 0x26
 14924 1ff2 00090000 		.4byte	.LVL533
 14925 1ff6 280B0000 		.4byte	0xb28
 14926 1ffa 0A200000 		.4byte	0x200a
 14927 1ffe 23       		.uleb128 0x23
 14928 1fff 01       		.uleb128 0x1
 14929 2000 51       		.byte	0x51
 14930 2001 01       		.uleb128 0x1
 14931 2002 34       		.byte	0x34
 14932 2003 23       		.uleb128 0x23
 14933 2004 01       		.uleb128 0x1
 14934 2005 50       		.byte	0x50
 14935 2006 02       		.uleb128 0x2
 14936 2007 76       		.byte	0x76
 14937 2008 00       		.sleb128 0
 14938 2009 00       		.byte	0
 14939 200a 26       		.uleb128 0x26
 14940 200b 06090000 		.4byte	.LVL534
 14941 200f 370A0000 		.4byte	0xa37
 14942 2013 21200000 		.4byte	0x2021
 14943 2017 23       		.uleb128 0x23
 14944 2018 01       		.uleb128 0x1
 14945 2019 50       		.byte	0x50
 14946 201a 05       		.uleb128 0x5
 14947 201b 03       		.byte	0x3
 14948 201c 10000000 		.4byte	.LC3
 14949 2020 00       		.byte	0
 14950 2021 27       		.uleb128 0x27
 14951 2022 0E090000 		.4byte	.LVL535
 14952 2026 01150000 		.4byte	0x1501
 14953 202a 27       		.uleb128 0x27
 14954 202b 16090000 		.4byte	.LVL536
 14955 202f D0110000 		.4byte	0x11d0
 14956 2033 27       		.uleb128 0x27
 14957 2034 1E090000 		.4byte	.LVL537
 14958 2038 96110000 		.4byte	0x1196
 14959 203c 27       		.uleb128 0x27
 14960 203d 26090000 		.4byte	.LVL538
 14961 2041 BB090000 		.4byte	0x9bb
 14962 2045 27       		.uleb128 0x27
 14963 2046 2A090000 		.4byte	.LVL539
 14964 204a 01150000 		.4byte	0x1501
 14965 204e 26       		.uleb128 0x26
 14966 204f 36090000 		.4byte	.LVL540
 14967 2053 27090000 		.4byte	0x927
 14968 2057 65200000 		.4byte	0x2065
 14969 205b 23       		.uleb128 0x23
 14970 205c 01       		.uleb128 0x1
 14971 205d 50       		.byte	0x50
 14972 205e 05       		.uleb128 0x5
ARM GAS  C:\Users\doug_000\AppData\Local\Temp\ccbaKQF3.s 			page 310


 14973 205f 75       		.byte	0x75
 14974 2060 00       		.sleb128 0
 14975 2061 08       		.byte	0x8
 14976 2062 7F       		.byte	0x7f
 14977 2063 1A       		.byte	0x1a
 14978 2064 00       		.byte	0
 14979 2065 26       		.uleb128 0x26
 14980 2066 3C090000 		.4byte	.LVL541
 14981 206a 01150000 		.4byte	0x1501
 14982 206e 78200000 		.4byte	0x2078
 14983 2072 23       		.uleb128 0x23
 14984 2073 01       		.uleb128 0x1
 14985 2074 50       		.byte	0x50
 14986 2075 01       		.uleb128 0x1
 14987 2076 30       		.byte	0x30
 14988 2077 00       		.byte	0
 14989 2078 27       		.uleb128 0x27
 14990 2079 44090000 		.4byte	.LVL542
 14991 207d 220A0000 		.4byte	0xa22
 14992 2081 27       		.uleb128 0x27
 14993 2082 48090000 		.4byte	.LVL543
 14994 2086 01150000 		.4byte	0x1501
 14995 208a 27       		.uleb128 0x27
 14996 208b 54090000 		.4byte	.LVL544
 14997 208f 01150000 		.4byte	0x1501
 14998 2093 26       		.uleb128 0x26
 14999 2094 5E090000 		.4byte	.LVL545
 15000 2098 FE080000 		.4byte	0x8fe
 15001 209c A7200000 		.4byte	0x20a7
 15002 20a0 23       		.uleb128 0x23
 15003 20a1 01       		.uleb128 0x1
 15004 20a2 50       		.byte	0x50
 15005 20a3 02       		.uleb128 0x2
 15006 20a4 76       		.byte	0x76
 15007 20a5 00       		.sleb128 0
 15008 20a6 00       		.byte	0
 15009 20a7 27       		.uleb128 0x27
 15010 20a8 62090000 		.4byte	.LVL546
 15011 20ac 01150000 		.4byte	0x1501
 15012 20b0 26       		.uleb128 0x26
 15013 20b1 72090000 		.4byte	.LVL548
 15014 20b5 01150000 		.4byte	0x1501
 15015 20b9 C4200000 		.4byte	0x20c4
 15016 20bd 23       		.uleb128 0x23
 15017 20be 01       		.uleb128 0x1
 15018 20bf 50       		.byte	0x50
 15019 20c0 02       		.uleb128 0x2
 15020 20c1 74       		.byte	0x74
 15021 20c2 00       		.sleb128 0
 15022 20c3 00       		.byte	0
 15023 20c4 26       		.uleb128 0x26
 15024 20c5 7E090000 		.4byte	.LVL549
 15025 20c9 73110000 		.4byte	0x1173
 15026 20cd DE200000 		.4byte	0x20de
 15027 20d1 23       		.uleb128 0x23
 15028 20d2 01       		.uleb128 0x1
 15029 20d3 50       		.byte	0x50
ARM GAS  C:\Users\doug_000\AppData\Local\Temp\ccbaKQF3.s 			page 311


 15030 20d4 08       		.uleb128 0x8
 15031 20d5 74       		.byte	0x74
 15032 20d6 8002     		.sleb128 256
 15033 20d8 40       		.byte	0x40
 15034 20d9 24       		.byte	0x24
 15035 20da 76       		.byte	0x76
 15036 20db 00       		.sleb128 0
 15037 20dc 22       		.byte	0x22
 15038 20dd 00       		.byte	0
 15039 20de 26       		.uleb128 0x26
 15040 20df 84090000 		.4byte	.LVL550
 15041 20e3 FE080000 		.4byte	0x8fe
 15042 20e7 F2200000 		.4byte	0x20f2
 15043 20eb 23       		.uleb128 0x23
 15044 20ec 01       		.uleb128 0x1
 15045 20ed 50       		.byte	0x50
 15046 20ee 02       		.uleb128 0x2
 15047 20ef 08       		.byte	0x8
 15048 20f0 28       		.byte	0x28
 15049 20f1 00       		.byte	0
 15050 20f2 26       		.uleb128 0x26
 15051 20f3 8E090000 		.4byte	.LVL551
 15052 20f7 FE080000 		.4byte	0x8fe
 15053 20fb 06210000 		.4byte	0x2106
 15054 20ff 23       		.uleb128 0x23
 15055 2100 01       		.uleb128 0x1
 15056 2101 50       		.byte	0x50
 15057 2102 02       		.uleb128 0x2
 15058 2103 08       		.byte	0x8
 15059 2104 2A       		.byte	0x2a
 15060 2105 00       		.byte	0
 15061 2106 26       		.uleb128 0x26
 15062 2107 98090000 		.4byte	.LVL552
 15063 210b FE080000 		.4byte	0x8fe
 15064 210f 1A210000 		.4byte	0x211a
 15065 2113 23       		.uleb128 0x23
 15066 2114 01       		.uleb128 0x1
 15067 2115 50       		.byte	0x50
 15068 2116 02       		.uleb128 0x2
 15069 2117 08       		.byte	0x8
 15070 2118 2C       		.byte	0x2c
 15071 2119 00       		.byte	0
 15072 211a 26       		.uleb128 0x26
 15073 211b A2090000 		.4byte	.LVL553
 15074 211f FE080000 		.4byte	0x8fe
 15075 2123 2E210000 		.4byte	0x212e
 15076 2127 23       		.uleb128 0x23
 15077 2128 01       		.uleb128 0x1
 15078 2129 50       		.byte	0x50
 15079 212a 02       		.uleb128 0x2
 15080 212b 08       		.byte	0x8
 15081 212c 2E       		.byte	0x2e
 15082 212d 00       		.byte	0
 15083 212e 26       		.uleb128 0x26
 15084 212f B2090000 		.4byte	.LVL555
 15085 2133 F40D0000 		.4byte	0xdf4
 15086 2137 48210000 		.4byte	0x2148
ARM GAS  C:\Users\doug_000\AppData\Local\Temp\ccbaKQF3.s 			page 312


 15087 213b 23       		.uleb128 0x23
 15088 213c 01       		.uleb128 0x1
 15089 213d 51       		.byte	0x51
 15090 213e 02       		.uleb128 0x2
 15091 213f 75       		.byte	0x75
 15092 2140 00       		.sleb128 0
 15093 2141 23       		.uleb128 0x23
 15094 2142 01       		.uleb128 0x1
 15095 2143 50       		.byte	0x50
 15096 2144 02       		.uleb128 0x2
 15097 2145 76       		.byte	0x76
 15098 2146 00       		.sleb128 0
 15099 2147 00       		.byte	0
 15100 2148 26       		.uleb128 0x26
 15101 2149 B8090000 		.4byte	.LVL556
 15102 214d 01150000 		.4byte	0x1501
 15103 2151 5F210000 		.4byte	0x215f
 15104 2155 23       		.uleb128 0x23
 15105 2156 01       		.uleb128 0x1
 15106 2157 50       		.byte	0x50
 15107 2158 05       		.uleb128 0x5
 15108 2159 76       		.byte	0x76
 15109 215a 00       		.sleb128 0
 15110 215b 75       		.byte	0x75
 15111 215c 00       		.sleb128 0
 15112 215d 22       		.byte	0x22
 15113 215e 00       		.byte	0
 15114 215f 27       		.uleb128 0x27
 15115 2160 C0090000 		.4byte	.LVL557
 15116 2164 BE100000 		.4byte	0x10be
 15117 2168 27       		.uleb128 0x27
 15118 2169 C8090000 		.4byte	.LVL558
 15119 216d 01150000 		.4byte	0x1501
 15120 2171 27       		.uleb128 0x27
 15121 2172 D0090000 		.4byte	.LVL559
 15122 2176 6B120000 		.4byte	0x126b
 15123 217a 27       		.uleb128 0x27
 15124 217b D8090000 		.4byte	.LVL561
 15125 217f 46140000 		.4byte	0x1446
 15126 2183 26       		.uleb128 0x26
 15127 2184 E2090000 		.4byte	.LVL564
 15128 2188 FE080000 		.4byte	0x8fe
 15129 218c 98210000 		.4byte	0x2198
 15130 2190 23       		.uleb128 0x23
 15131 2191 01       		.uleb128 0x1
 15132 2192 50       		.byte	0x50
 15133 2193 03       		.uleb128 0x3
 15134 2194 0A       		.byte	0xa
 15135 2195 1E01     		.2byte	0x11e
 15136 2197 00       		.byte	0
 15137 2198 27       		.uleb128 0x27
 15138 2199 F2090000 		.4byte	.LVL565
 15139 219d 6B120000 		.4byte	0x126b
 15140 21a1 26       		.uleb128 0x26
 15141 21a2 0A0A0000 		.4byte	.LVL566
 15142 21a6 73110000 		.4byte	0x1173
 15143 21aa B6210000 		.4byte	0x21b6
ARM GAS  C:\Users\doug_000\AppData\Local\Temp\ccbaKQF3.s 			page 313


 15144 21ae 23       		.uleb128 0x23
 15145 21af 01       		.uleb128 0x1
 15146 21b0 50       		.byte	0x50
 15147 21b1 03       		.uleb128 0x3
 15148 21b2 74       		.byte	0x74
 15149 21b3 00       		.sleb128 0
 15150 21b4 1F       		.byte	0x1f
 15151 21b5 00       		.byte	0
 15152 21b6 27       		.uleb128 0x27
 15153 21b7 180A0000 		.4byte	.LVL569
 15154 21bb E5130000 		.4byte	0x13e5
 15155 21bf 27       		.uleb128 0x27
 15156 21c0 260A0000 		.4byte	.LVL570
 15157 21c4 FE080000 		.4byte	0x8fe
 15158 21c8 26       		.uleb128 0x26
 15159 21c9 320A0000 		.4byte	.LVL571
 15160 21cd FE080000 		.4byte	0x8fe
 15161 21d1 DD210000 		.4byte	0x21dd
 15162 21d5 23       		.uleb128 0x23
 15163 21d6 01       		.uleb128 0x1
 15164 21d7 50       		.byte	0x50
 15165 21d8 03       		.uleb128 0x3
 15166 21d9 0A       		.byte	0xa
 15167 21da 1E01     		.2byte	0x11e
 15168 21dc 00       		.byte	0
 15169 21dd 27       		.uleb128 0x27
 15170 21de 3E0A0000 		.4byte	.LVL572
 15171 21e2 73110000 		.4byte	0x1173
 15172 21e6 27       		.uleb128 0x27
 15173 21e7 4C0A0000 		.4byte	.LVL574
 15174 21eb FE080000 		.4byte	0x8fe
 15175 21ef 26       		.uleb128 0x26
 15176 21f0 580A0000 		.4byte	.LVL576
 15177 21f4 FE080000 		.4byte	0x8fe
 15178 21f8 04220000 		.4byte	0x2204
 15179 21fc 23       		.uleb128 0x23
 15180 21fd 01       		.uleb128 0x1
 15181 21fe 50       		.byte	0x50
 15182 21ff 03       		.uleb128 0x3
 15183 2200 0A       		.byte	0xa
 15184 2201 1E01     		.2byte	0x11e
 15185 2203 00       		.byte	0
 15186 2204 27       		.uleb128 0x27
 15187 2205 620A0000 		.4byte	.LVL577
 15188 2209 73110000 		.4byte	0x1173
 15189 220d 27       		.uleb128 0x27
 15190 220e 780A0000 		.4byte	.LVL579
 15191 2212 73110000 		.4byte	0x1173
 15192 2216 27       		.uleb128 0x27
 15193 2217 D00A0000 		.4byte	.LVL588
 15194 221b 6B120000 		.4byte	0x126b
 15195 221f 27       		.uleb128 0x27
 15196 2220 EE0A0000 		.4byte	.LVL592
 15197 2224 73110000 		.4byte	0x1173
 15198 2228 27       		.uleb128 0x27
 15199 2229 280B0000 		.4byte	.LVL595
 15200 222d A4140000 		.4byte	0x14a4
ARM GAS  C:\Users\doug_000\AppData\Local\Temp\ccbaKQF3.s 			page 314


 15201 2231 27       		.uleb128 0x27
 15202 2232 320B0000 		.4byte	.LVL597
 15203 2236 6B120000 		.4byte	0x126b
 15204 223a 27       		.uleb128 0x27
 15205 223b 4E0B0000 		.4byte	.LVL602
 15206 223f 73110000 		.4byte	0x1173
 15207 2243 27       		.uleb128 0x27
 15208 2244 9E0B0000 		.4byte	.LVL611
 15209 2248 01150000 		.4byte	0x1501
 15210 224c 27       		.uleb128 0x27
 15211 224d A80B0000 		.4byte	.LVL613
 15212 2251 6B120000 		.4byte	0x126b
 15213 2255 27       		.uleb128 0x27
 15214 2256 F20B0000 		.4byte	.LVL617
 15215 225a 73110000 		.4byte	0x1173
 15216 225e 27       		.uleb128 0x27
 15217 225f 140C0000 		.4byte	.LVL619
 15218 2263 6B120000 		.4byte	0x126b
 15219 2267 27       		.uleb128 0x27
 15220 2268 300C0000 		.4byte	.LVL620
 15221 226c 73110000 		.4byte	0x1173
 15222 2270 00       		.byte	0
 15223 2271 33       		.uleb128 0x33
 15224 2272 47000000 		.4byte	.LASF165
 15225 2276 01       		.byte	0x1
 15226 2277 7104     		.2byte	0x471
 15227 2279 55050000 		.4byte	0x555
 15228 227d 00000000 		.4byte	.LFB34
 15229 2281 90270000 		.4byte	.LFE34-.LFB34
 15230 2285 01       		.uleb128 0x1
 15231 2286 9C       		.byte	0x9c
 15232 2287 BA370000 		.4byte	0x37ba
 15233 228b 34       		.uleb128 0x34
 15234 228c 7300     		.ascii	"s\000"
 15235 228e 01       		.byte	0x1
 15236 228f 7204     		.2byte	0x472
 15237 2291 BA370000 		.4byte	0x37ba
 15238 2295 05       		.uleb128 0x5
 15239 2296 03       		.byte	0x3
 15240 2297 18000000 		.4byte	s.5951
 15241 229b 26       		.uleb128 0x26
 15242 229c 22000000 		.4byte	.LVL622
 15243 22a0 A23C0000 		.4byte	0x3ca2
 15244 22a4 AF220000 		.4byte	0x22af
 15245 22a8 23       		.uleb128 0x23
 15246 22a9 01       		.uleb128 0x1
 15247 22aa 50       		.byte	0x50
 15248 22ab 02       		.uleb128 0x2
 15249 22ac 76       		.byte	0x76
 15250 22ad 00       		.sleb128 0
 15251 22ae 00       		.byte	0
 15252 22af 26       		.uleb128 0x26
 15253 22b0 3C000000 		.4byte	.LVL623
 15254 22b4 A23C0000 		.4byte	0x3ca2
 15255 22b8 C3220000 		.4byte	0x22c3
 15256 22bc 23       		.uleb128 0x23
 15257 22bd 01       		.uleb128 0x1
ARM GAS  C:\Users\doug_000\AppData\Local\Temp\ccbaKQF3.s 			page 315


 15258 22be 50       		.byte	0x50
 15259 22bf 02       		.uleb128 0x2
 15260 22c0 76       		.byte	0x76
 15261 22c1 00       		.sleb128 0
 15262 22c2 00       		.byte	0
 15263 22c3 26       		.uleb128 0x26
 15264 22c4 68000000 		.4byte	.LVL624
 15265 22c8 A23C0000 		.4byte	0x3ca2
 15266 22cc D7220000 		.4byte	0x22d7
 15267 22d0 23       		.uleb128 0x23
 15268 22d1 01       		.uleb128 0x1
 15269 22d2 50       		.byte	0x50
 15270 22d3 02       		.uleb128 0x2
 15271 22d4 74       		.byte	0x74
 15272 22d5 00       		.sleb128 0
 15273 22d6 00       		.byte	0
 15274 22d7 26       		.uleb128 0x26
 15275 22d8 82000000 		.4byte	.LVL625
 15276 22dc A23C0000 		.4byte	0x3ca2
 15277 22e0 EB220000 		.4byte	0x22eb
 15278 22e4 23       		.uleb128 0x23
 15279 22e5 01       		.uleb128 0x1
 15280 22e6 50       		.byte	0x50
 15281 22e7 02       		.uleb128 0x2
 15282 22e8 74       		.byte	0x74
 15283 22e9 00       		.sleb128 0
 15284 22ea 00       		.byte	0
 15285 22eb 26       		.uleb128 0x26
 15286 22ec AA000000 		.4byte	.LVL626
 15287 22f0 A23C0000 		.4byte	0x3ca2
 15288 22f4 FF220000 		.4byte	0x22ff
 15289 22f8 23       		.uleb128 0x23
 15290 22f9 01       		.uleb128 0x1
 15291 22fa 50       		.byte	0x50
 15292 22fb 02       		.uleb128 0x2
 15293 22fc 74       		.byte	0x74
 15294 22fd 00       		.sleb128 0
 15295 22fe 00       		.byte	0
 15296 22ff 26       		.uleb128 0x26
 15297 2300 C2000000 		.4byte	.LVL627
 15298 2304 A23C0000 		.4byte	0x3ca2
 15299 2308 13230000 		.4byte	0x2313
 15300 230c 23       		.uleb128 0x23
 15301 230d 01       		.uleb128 0x1
 15302 230e 50       		.byte	0x50
 15303 230f 02       		.uleb128 0x2
 15304 2310 74       		.byte	0x74
 15305 2311 00       		.sleb128 0
 15306 2312 00       		.byte	0
 15307 2313 26       		.uleb128 0x26
 15308 2314 E2000000 		.4byte	.LVL628
 15309 2318 A23C0000 		.4byte	0x3ca2
 15310 231c 27230000 		.4byte	0x2327
 15311 2320 23       		.uleb128 0x23
 15312 2321 01       		.uleb128 0x1
 15313 2322 50       		.byte	0x50
 15314 2323 02       		.uleb128 0x2
ARM GAS  C:\Users\doug_000\AppData\Local\Temp\ccbaKQF3.s 			page 316


 15315 2324 74       		.byte	0x74
 15316 2325 00       		.sleb128 0
 15317 2326 00       		.byte	0
 15318 2327 26       		.uleb128 0x26
 15319 2328 02010000 		.4byte	.LVL629
 15320 232c A23C0000 		.4byte	0x3ca2
 15321 2330 3B230000 		.4byte	0x233b
 15322 2334 23       		.uleb128 0x23
 15323 2335 01       		.uleb128 0x1
 15324 2336 50       		.byte	0x50
 15325 2337 02       		.uleb128 0x2
 15326 2338 74       		.byte	0x74
 15327 2339 00       		.sleb128 0
 15328 233a 00       		.byte	0
 15329 233b 26       		.uleb128 0x26
 15330 233c 30010000 		.4byte	.LVL630
 15331 2340 A23C0000 		.4byte	0x3ca2
 15332 2344 4F230000 		.4byte	0x234f
 15333 2348 23       		.uleb128 0x23
 15334 2349 01       		.uleb128 0x1
 15335 234a 50       		.byte	0x50
 15336 234b 02       		.uleb128 0x2
 15337 234c 74       		.byte	0x74
 15338 234d 00       		.sleb128 0
 15339 234e 00       		.byte	0
 15340 234f 26       		.uleb128 0x26
 15341 2350 60010000 		.4byte	.LVL631
 15342 2354 A23C0000 		.4byte	0x3ca2
 15343 2358 63230000 		.4byte	0x2363
 15344 235c 23       		.uleb128 0x23
 15345 235d 01       		.uleb128 0x1
 15346 235e 50       		.byte	0x50
 15347 235f 02       		.uleb128 0x2
 15348 2360 74       		.byte	0x74
 15349 2361 00       		.sleb128 0
 15350 2362 00       		.byte	0
 15351 2363 26       		.uleb128 0x26
 15352 2364 92010000 		.4byte	.LVL632
 15353 2368 A23C0000 		.4byte	0x3ca2
 15354 236c 77230000 		.4byte	0x2377
 15355 2370 23       		.uleb128 0x23
 15356 2371 01       		.uleb128 0x1
 15357 2372 50       		.byte	0x50
 15358 2373 02       		.uleb128 0x2
 15359 2374 74       		.byte	0x74
 15360 2375 00       		.sleb128 0
 15361 2376 00       		.byte	0
 15362 2377 26       		.uleb128 0x26
 15363 2378 9C010000 		.4byte	.LVL633
 15364 237c BB3C0000 		.4byte	0x3cbb
 15365 2380 94230000 		.4byte	0x2394
 15366 2384 23       		.uleb128 0x23
 15367 2385 01       		.uleb128 0x1
 15368 2386 52       		.byte	0x52
 15369 2387 02       		.uleb128 0x2
 15370 2388 08       		.byte	0x8
 15371 2389 41       		.byte	0x41
ARM GAS  C:\Users\doug_000\AppData\Local\Temp\ccbaKQF3.s 			page 317


 15372 238a 23       		.uleb128 0x23
 15373 238b 01       		.uleb128 0x1
 15374 238c 51       		.byte	0x51
 15375 238d 05       		.uleb128 0x5
 15376 238e 03       		.byte	0x3
 15377 238f C4020000 		.4byte	.LC42
 15378 2393 00       		.byte	0
 15379 2394 26       		.uleb128 0x26
 15380 2395 A2010000 		.4byte	.LVL634
 15381 2399 A23C0000 		.4byte	0x3ca2
 15382 239d A8230000 		.4byte	0x23a8
 15383 23a1 23       		.uleb128 0x23
 15384 23a2 01       		.uleb128 0x1
 15385 23a3 50       		.byte	0x50
 15386 23a4 02       		.uleb128 0x2
 15387 23a5 74       		.byte	0x74
 15388 23a6 00       		.sleb128 0
 15389 23a7 00       		.byte	0
 15390 23a8 26       		.uleb128 0x26
 15391 23a9 CA010000 		.4byte	.LVL635
 15392 23ad A23C0000 		.4byte	0x3ca2
 15393 23b1 BC230000 		.4byte	0x23bc
 15394 23b5 23       		.uleb128 0x23
 15395 23b6 01       		.uleb128 0x1
 15396 23b7 50       		.byte	0x50
 15397 23b8 02       		.uleb128 0x2
 15398 23b9 74       		.byte	0x74
 15399 23ba 00       		.sleb128 0
 15400 23bb 00       		.byte	0
 15401 23bc 26       		.uleb128 0x26
 15402 23bd D4010000 		.4byte	.LVL636
 15403 23c1 BB3C0000 		.4byte	0x3cbb
 15404 23c5 D9230000 		.4byte	0x23d9
 15405 23c9 23       		.uleb128 0x23
 15406 23ca 01       		.uleb128 0x1
 15407 23cb 52       		.byte	0x52
 15408 23cc 02       		.uleb128 0x2
 15409 23cd 08       		.byte	0x8
 15410 23ce 41       		.byte	0x41
 15411 23cf 23       		.uleb128 0x23
 15412 23d0 01       		.uleb128 0x1
 15413 23d1 51       		.byte	0x51
 15414 23d2 05       		.uleb128 0x5
 15415 23d3 03       		.byte	0x3
 15416 23d4 3C030000 		.4byte	.LC44
 15417 23d8 00       		.byte	0
 15418 23d9 26       		.uleb128 0x26
 15419 23da DA010000 		.4byte	.LVL637
 15420 23de A23C0000 		.4byte	0x3ca2
 15421 23e2 ED230000 		.4byte	0x23ed
 15422 23e6 23       		.uleb128 0x23
 15423 23e7 01       		.uleb128 0x1
 15424 23e8 50       		.byte	0x50
 15425 23e9 02       		.uleb128 0x2
 15426 23ea 74       		.byte	0x74
 15427 23eb 00       		.sleb128 0
 15428 23ec 00       		.byte	0
ARM GAS  C:\Users\doug_000\AppData\Local\Temp\ccbaKQF3.s 			page 318


 15429 23ed 26       		.uleb128 0x26
 15430 23ee 0C020000 		.4byte	.LVL638
 15431 23f2 A23C0000 		.4byte	0x3ca2
 15432 23f6 01240000 		.4byte	0x2401
 15433 23fa 23       		.uleb128 0x23
 15434 23fb 01       		.uleb128 0x1
 15435 23fc 50       		.byte	0x50
 15436 23fd 02       		.uleb128 0x2
 15437 23fe 74       		.byte	0x74
 15438 23ff 00       		.sleb128 0
 15439 2400 00       		.byte	0
 15440 2401 26       		.uleb128 0x26
 15441 2402 2C020000 		.4byte	.LVL639
 15442 2406 A23C0000 		.4byte	0x3ca2
 15443 240a 15240000 		.4byte	0x2415
 15444 240e 23       		.uleb128 0x23
 15445 240f 01       		.uleb128 0x1
 15446 2410 50       		.byte	0x50
 15447 2411 02       		.uleb128 0x2
 15448 2412 74       		.byte	0x74
 15449 2413 00       		.sleb128 0
 15450 2414 00       		.byte	0
 15451 2415 26       		.uleb128 0x26
 15452 2416 46020000 		.4byte	.LVL640
 15453 241a A23C0000 		.4byte	0x3ca2
 15454 241e 29240000 		.4byte	0x2429
 15455 2422 23       		.uleb128 0x23
 15456 2423 01       		.uleb128 0x1
 15457 2424 50       		.byte	0x50
 15458 2425 02       		.uleb128 0x2
 15459 2426 74       		.byte	0x74
 15460 2427 00       		.sleb128 0
 15461 2428 00       		.byte	0
 15462 2429 26       		.uleb128 0x26
 15463 242a 72020000 		.4byte	.LVL641
 15464 242e A23C0000 		.4byte	0x3ca2
 15465 2432 3D240000 		.4byte	0x243d
 15466 2436 23       		.uleb128 0x23
 15467 2437 01       		.uleb128 0x1
 15468 2438 50       		.byte	0x50
 15469 2439 02       		.uleb128 0x2
 15470 243a 74       		.byte	0x74
 15471 243b 00       		.sleb128 0
 15472 243c 00       		.byte	0
 15473 243d 26       		.uleb128 0x26
 15474 243e 8C020000 		.4byte	.LVL642
 15475 2442 A23C0000 		.4byte	0x3ca2
 15476 2446 51240000 		.4byte	0x2451
 15477 244a 23       		.uleb128 0x23
 15478 244b 01       		.uleb128 0x1
 15479 244c 50       		.byte	0x50
 15480 244d 02       		.uleb128 0x2
 15481 244e 74       		.byte	0x74
 15482 244f 00       		.sleb128 0
 15483 2450 00       		.byte	0
 15484 2451 26       		.uleb128 0x26
 15485 2452 B4020000 		.4byte	.LVL643
ARM GAS  C:\Users\doug_000\AppData\Local\Temp\ccbaKQF3.s 			page 319


 15486 2456 A23C0000 		.4byte	0x3ca2
 15487 245a 65240000 		.4byte	0x2465
 15488 245e 23       		.uleb128 0x23
 15489 245f 01       		.uleb128 0x1
 15490 2460 50       		.byte	0x50
 15491 2461 02       		.uleb128 0x2
 15492 2462 74       		.byte	0x74
 15493 2463 00       		.sleb128 0
 15494 2464 00       		.byte	0
 15495 2465 26       		.uleb128 0x26
 15496 2466 CA020000 		.4byte	.LVL644
 15497 246a A23C0000 		.4byte	0x3ca2
 15498 246e 79240000 		.4byte	0x2479
 15499 2472 23       		.uleb128 0x23
 15500 2473 01       		.uleb128 0x1
 15501 2474 50       		.byte	0x50
 15502 2475 02       		.uleb128 0x2
 15503 2476 74       		.byte	0x74
 15504 2477 00       		.sleb128 0
 15505 2478 00       		.byte	0
 15506 2479 26       		.uleb128 0x26
 15507 247a FA020000 		.4byte	.LVL645
 15508 247e A23C0000 		.4byte	0x3ca2
 15509 2482 8D240000 		.4byte	0x248d
 15510 2486 23       		.uleb128 0x23
 15511 2487 01       		.uleb128 0x1
 15512 2488 50       		.byte	0x50
 15513 2489 02       		.uleb128 0x2
 15514 248a 74       		.byte	0x74
 15515 248b 00       		.sleb128 0
 15516 248c 00       		.byte	0
 15517 248d 26       		.uleb128 0x26
 15518 248e 20030000 		.4byte	.LVL646
 15519 2492 A23C0000 		.4byte	0x3ca2
 15520 2496 A1240000 		.4byte	0x24a1
 15521 249a 23       		.uleb128 0x23
 15522 249b 01       		.uleb128 0x1
 15523 249c 50       		.byte	0x50
 15524 249d 02       		.uleb128 0x2
 15525 249e 74       		.byte	0x74
 15526 249f 00       		.sleb128 0
 15527 24a0 00       		.byte	0
 15528 24a1 26       		.uleb128 0x26
 15529 24a2 B2030000 		.4byte	.LVL647
 15530 24a6 A23C0000 		.4byte	0x3ca2
 15531 24aa B5240000 		.4byte	0x24b5
 15532 24ae 23       		.uleb128 0x23
 15533 24af 01       		.uleb128 0x1
 15534 24b0 50       		.byte	0x50
 15535 24b1 02       		.uleb128 0x2
 15536 24b2 74       		.byte	0x74
 15537 24b3 00       		.sleb128 0
 15538 24b4 00       		.byte	0
 15539 24b5 26       		.uleb128 0x26
 15540 24b6 DC030000 		.4byte	.LVL648
 15541 24ba A23C0000 		.4byte	0x3ca2
 15542 24be C9240000 		.4byte	0x24c9
ARM GAS  C:\Users\doug_000\AppData\Local\Temp\ccbaKQF3.s 			page 320


 15543 24c2 23       		.uleb128 0x23
 15544 24c3 01       		.uleb128 0x1
 15545 24c4 50       		.byte	0x50
 15546 24c5 02       		.uleb128 0x2
 15547 24c6 74       		.byte	0x74
 15548 24c7 00       		.sleb128 0
 15549 24c8 00       		.byte	0
 15550 24c9 26       		.uleb128 0x26
 15551 24ca 08040000 		.4byte	.LVL649
 15552 24ce A23C0000 		.4byte	0x3ca2
 15553 24d2 DD240000 		.4byte	0x24dd
 15554 24d6 23       		.uleb128 0x23
 15555 24d7 01       		.uleb128 0x1
 15556 24d8 50       		.byte	0x50
 15557 24d9 02       		.uleb128 0x2
 15558 24da 74       		.byte	0x74
 15559 24db 00       		.sleb128 0
 15560 24dc 00       		.byte	0
 15561 24dd 26       		.uleb128 0x26
 15562 24de 28040000 		.4byte	.LVL650
 15563 24e2 A23C0000 		.4byte	0x3ca2
 15564 24e6 F1240000 		.4byte	0x24f1
 15565 24ea 23       		.uleb128 0x23
 15566 24eb 01       		.uleb128 0x1
 15567 24ec 50       		.byte	0x50
 15568 24ed 02       		.uleb128 0x2
 15569 24ee 74       		.byte	0x74
 15570 24ef 00       		.sleb128 0
 15571 24f0 00       		.byte	0
 15572 24f1 26       		.uleb128 0x26
 15573 24f2 42040000 		.4byte	.LVL651
 15574 24f6 A23C0000 		.4byte	0x3ca2
 15575 24fa 05250000 		.4byte	0x2505
 15576 24fe 23       		.uleb128 0x23
 15577 24ff 01       		.uleb128 0x1
 15578 2500 50       		.byte	0x50
 15579 2501 02       		.uleb128 0x2
 15580 2502 74       		.byte	0x74
 15581 2503 00       		.sleb128 0
 15582 2504 00       		.byte	0
 15583 2505 26       		.uleb128 0x26
 15584 2506 6E040000 		.4byte	.LVL652
 15585 250a A23C0000 		.4byte	0x3ca2
 15586 250e 19250000 		.4byte	0x2519
 15587 2512 23       		.uleb128 0x23
 15588 2513 01       		.uleb128 0x1
 15589 2514 50       		.byte	0x50
 15590 2515 02       		.uleb128 0x2
 15591 2516 74       		.byte	0x74
 15592 2517 00       		.sleb128 0
 15593 2518 00       		.byte	0
 15594 2519 26       		.uleb128 0x26
 15595 251a 86040000 		.4byte	.LVL653
 15596 251e A23C0000 		.4byte	0x3ca2
 15597 2522 2D250000 		.4byte	0x252d
 15598 2526 23       		.uleb128 0x23
 15599 2527 01       		.uleb128 0x1
ARM GAS  C:\Users\doug_000\AppData\Local\Temp\ccbaKQF3.s 			page 321


 15600 2528 50       		.byte	0x50
 15601 2529 02       		.uleb128 0x2
 15602 252a 74       		.byte	0x74
 15603 252b 00       		.sleb128 0
 15604 252c 00       		.byte	0
 15605 252d 26       		.uleb128 0x26
 15606 252e B2040000 		.4byte	.LVL654
 15607 2532 A23C0000 		.4byte	0x3ca2
 15608 2536 41250000 		.4byte	0x2541
 15609 253a 23       		.uleb128 0x23
 15610 253b 01       		.uleb128 0x1
 15611 253c 50       		.byte	0x50
 15612 253d 02       		.uleb128 0x2
 15613 253e 74       		.byte	0x74
 15614 253f 00       		.sleb128 0
 15615 2540 00       		.byte	0
 15616 2541 26       		.uleb128 0x26
 15617 2542 CA040000 		.4byte	.LVL655
 15618 2546 A23C0000 		.4byte	0x3ca2
 15619 254a 55250000 		.4byte	0x2555
 15620 254e 23       		.uleb128 0x23
 15621 254f 01       		.uleb128 0x1
 15622 2550 50       		.byte	0x50
 15623 2551 02       		.uleb128 0x2
 15624 2552 74       		.byte	0x74
 15625 2553 00       		.sleb128 0
 15626 2554 00       		.byte	0
 15627 2555 26       		.uleb128 0x26
 15628 2556 F6040000 		.4byte	.LVL656
 15629 255a A23C0000 		.4byte	0x3ca2
 15630 255e 69250000 		.4byte	0x2569
 15631 2562 23       		.uleb128 0x23
 15632 2563 01       		.uleb128 0x1
 15633 2564 50       		.byte	0x50
 15634 2565 02       		.uleb128 0x2
 15635 2566 74       		.byte	0x74
 15636 2567 00       		.sleb128 0
 15637 2568 00       		.byte	0
 15638 2569 26       		.uleb128 0x26
 15639 256a 1A050000 		.4byte	.LVL657
 15640 256e A23C0000 		.4byte	0x3ca2
 15641 2572 7D250000 		.4byte	0x257d
 15642 2576 23       		.uleb128 0x23
 15643 2577 01       		.uleb128 0x1
 15644 2578 50       		.byte	0x50
 15645 2579 02       		.uleb128 0x2
 15646 257a 74       		.byte	0x74
 15647 257b 00       		.sleb128 0
 15648 257c 00       		.byte	0
 15649 257d 26       		.uleb128 0x26
 15650 257e 4A050000 		.4byte	.LVL658
 15651 2582 A23C0000 		.4byte	0x3ca2
 15652 2586 91250000 		.4byte	0x2591
 15653 258a 23       		.uleb128 0x23
 15654 258b 01       		.uleb128 0x1
 15655 258c 50       		.byte	0x50
 15656 258d 02       		.uleb128 0x2
ARM GAS  C:\Users\doug_000\AppData\Local\Temp\ccbaKQF3.s 			page 322


 15657 258e 74       		.byte	0x74
 15658 258f 00       		.sleb128 0
 15659 2590 00       		.byte	0
 15660 2591 26       		.uleb128 0x26
 15661 2592 6A050000 		.4byte	.LVL659
 15662 2596 A23C0000 		.4byte	0x3ca2
 15663 259a A5250000 		.4byte	0x25a5
 15664 259e 23       		.uleb128 0x23
 15665 259f 01       		.uleb128 0x1
 15666 25a0 50       		.byte	0x50
 15667 25a1 02       		.uleb128 0x2
 15668 25a2 74       		.byte	0x74
 15669 25a3 00       		.sleb128 0
 15670 25a4 00       		.byte	0
 15671 25a5 26       		.uleb128 0x26
 15672 25a6 A0050000 		.4byte	.LVL660
 15673 25aa A23C0000 		.4byte	0x3ca2
 15674 25ae B9250000 		.4byte	0x25b9
 15675 25b2 23       		.uleb128 0x23
 15676 25b3 01       		.uleb128 0x1
 15677 25b4 50       		.byte	0x50
 15678 25b5 02       		.uleb128 0x2
 15679 25b6 74       		.byte	0x74
 15680 25b7 00       		.sleb128 0
 15681 25b8 00       		.byte	0
 15682 25b9 26       		.uleb128 0x26
 15683 25ba BA050000 		.4byte	.LVL661
 15684 25be A23C0000 		.4byte	0x3ca2
 15685 25c2 CD250000 		.4byte	0x25cd
 15686 25c6 23       		.uleb128 0x23
 15687 25c7 01       		.uleb128 0x1
 15688 25c8 50       		.byte	0x50
 15689 25c9 02       		.uleb128 0x2
 15690 25ca 74       		.byte	0x74
 15691 25cb 00       		.sleb128 0
 15692 25cc 00       		.byte	0
 15693 25cd 26       		.uleb128 0x26
 15694 25ce C4050000 		.4byte	.LVL662
 15695 25d2 BB3C0000 		.4byte	0x3cbb
 15696 25d6 EA250000 		.4byte	0x25ea
 15697 25da 23       		.uleb128 0x23
 15698 25db 01       		.uleb128 0x1
 15699 25dc 52       		.byte	0x52
 15700 25dd 02       		.uleb128 0x2
 15701 25de 08       		.byte	0x8
 15702 25df 43       		.byte	0x43
 15703 25e0 23       		.uleb128 0x23
 15704 25e1 01       		.uleb128 0x1
 15705 25e2 51       		.byte	0x51
 15706 25e3 05       		.uleb128 0x5
 15707 25e4 03       		.byte	0x3
 15708 25e5 F0060000 		.4byte	.LC69
 15709 25e9 00       		.byte	0
 15710 25ea 26       		.uleb128 0x26
 15711 25eb CA050000 		.4byte	.LVL663
 15712 25ef A23C0000 		.4byte	0x3ca2
 15713 25f3 FE250000 		.4byte	0x25fe
ARM GAS  C:\Users\doug_000\AppData\Local\Temp\ccbaKQF3.s 			page 323


 15714 25f7 23       		.uleb128 0x23
 15715 25f8 01       		.uleb128 0x1
 15716 25f9 50       		.byte	0x50
 15717 25fa 02       		.uleb128 0x2
 15718 25fb 74       		.byte	0x74
 15719 25fc 00       		.sleb128 0
 15720 25fd 00       		.byte	0
 15721 25fe 26       		.uleb128 0x26
 15722 25ff E0050000 		.4byte	.LVL664
 15723 2603 A23C0000 		.4byte	0x3ca2
 15724 2607 12260000 		.4byte	0x2612
 15725 260b 23       		.uleb128 0x23
 15726 260c 01       		.uleb128 0x1
 15727 260d 50       		.byte	0x50
 15728 260e 02       		.uleb128 0x2
 15729 260f 74       		.byte	0x74
 15730 2610 00       		.sleb128 0
 15731 2611 00       		.byte	0
 15732 2612 26       		.uleb128 0x26
 15733 2613 02060000 		.4byte	.LVL665
 15734 2617 A23C0000 		.4byte	0x3ca2
 15735 261b 26260000 		.4byte	0x2626
 15736 261f 23       		.uleb128 0x23
 15737 2620 01       		.uleb128 0x1
 15738 2621 50       		.byte	0x50
 15739 2622 02       		.uleb128 0x2
 15740 2623 74       		.byte	0x74
 15741 2624 00       		.sleb128 0
 15742 2625 00       		.byte	0
 15743 2626 26       		.uleb128 0x26
 15744 2627 26060000 		.4byte	.LVL666
 15745 262b A23C0000 		.4byte	0x3ca2
 15746 262f 3A260000 		.4byte	0x263a
 15747 2633 23       		.uleb128 0x23
 15748 2634 01       		.uleb128 0x1
 15749 2635 50       		.byte	0x50
 15750 2636 02       		.uleb128 0x2
 15751 2637 74       		.byte	0x74
 15752 2638 00       		.sleb128 0
 15753 2639 00       		.byte	0
 15754 263a 26       		.uleb128 0x26
 15755 263b 46060000 		.4byte	.LVL667
 15756 263f A23C0000 		.4byte	0x3ca2
 15757 2643 4E260000 		.4byte	0x264e
 15758 2647 23       		.uleb128 0x23
 15759 2648 01       		.uleb128 0x1
 15760 2649 50       		.byte	0x50
 15761 264a 02       		.uleb128 0x2
 15762 264b 74       		.byte	0x74
 15763 264c 00       		.sleb128 0
 15764 264d 00       		.byte	0
 15765 264e 26       		.uleb128 0x26
 15766 264f 66060000 		.4byte	.LVL668
 15767 2653 A23C0000 		.4byte	0x3ca2
 15768 2657 62260000 		.4byte	0x2662
 15769 265b 23       		.uleb128 0x23
 15770 265c 01       		.uleb128 0x1
ARM GAS  C:\Users\doug_000\AppData\Local\Temp\ccbaKQF3.s 			page 324


 15771 265d 50       		.byte	0x50
 15772 265e 02       		.uleb128 0x2
 15773 265f 74       		.byte	0x74
 15774 2660 00       		.sleb128 0
 15775 2661 00       		.byte	0
 15776 2662 26       		.uleb128 0x26
 15777 2663 80060000 		.4byte	.LVL669
 15778 2667 A23C0000 		.4byte	0x3ca2
 15779 266b 76260000 		.4byte	0x2676
 15780 266f 23       		.uleb128 0x23
 15781 2670 01       		.uleb128 0x1
 15782 2671 50       		.byte	0x50
 15783 2672 02       		.uleb128 0x2
 15784 2673 74       		.byte	0x74
 15785 2674 00       		.sleb128 0
 15786 2675 00       		.byte	0
 15787 2676 26       		.uleb128 0x26
 15788 2677 AC060000 		.4byte	.LVL670
 15789 267b A23C0000 		.4byte	0x3ca2
 15790 267f 8A260000 		.4byte	0x268a
 15791 2683 23       		.uleb128 0x23
 15792 2684 01       		.uleb128 0x1
 15793 2685 50       		.byte	0x50
 15794 2686 02       		.uleb128 0x2
 15795 2687 74       		.byte	0x74
 15796 2688 00       		.sleb128 0
 15797 2689 00       		.byte	0
 15798 268a 26       		.uleb128 0x26
 15799 268b C4060000 		.4byte	.LVL671
 15800 268f A23C0000 		.4byte	0x3ca2
 15801 2693 9E260000 		.4byte	0x269e
 15802 2697 23       		.uleb128 0x23
 15803 2698 01       		.uleb128 0x1
 15804 2699 50       		.byte	0x50
 15805 269a 02       		.uleb128 0x2
 15806 269b 74       		.byte	0x74
 15807 269c 00       		.sleb128 0
 15808 269d 00       		.byte	0
 15809 269e 26       		.uleb128 0x26
 15810 269f F0060000 		.4byte	.LVL672
 15811 26a3 A23C0000 		.4byte	0x3ca2
 15812 26a7 B2260000 		.4byte	0x26b2
 15813 26ab 23       		.uleb128 0x23
 15814 26ac 01       		.uleb128 0x1
 15815 26ad 50       		.byte	0x50
 15816 26ae 02       		.uleb128 0x2
 15817 26af 74       		.byte	0x74
 15818 26b0 00       		.sleb128 0
 15819 26b1 00       		.byte	0
 15820 26b2 26       		.uleb128 0x26
 15821 26b3 6E070000 		.4byte	.LVL673
 15822 26b7 A23C0000 		.4byte	0x3ca2
 15823 26bb C6260000 		.4byte	0x26c6
 15824 26bf 23       		.uleb128 0x23
 15825 26c0 01       		.uleb128 0x1
 15826 26c1 50       		.byte	0x50
 15827 26c2 02       		.uleb128 0x2
ARM GAS  C:\Users\doug_000\AppData\Local\Temp\ccbaKQF3.s 			page 325


 15828 26c3 74       		.byte	0x74
 15829 26c4 00       		.sleb128 0
 15830 26c5 00       		.byte	0
 15831 26c6 26       		.uleb128 0x26
 15832 26c7 8C070000 		.4byte	.LVL674
 15833 26cb A23C0000 		.4byte	0x3ca2
 15834 26cf DA260000 		.4byte	0x26da
 15835 26d3 23       		.uleb128 0x23
 15836 26d4 01       		.uleb128 0x1
 15837 26d5 50       		.byte	0x50
 15838 26d6 02       		.uleb128 0x2
 15839 26d7 74       		.byte	0x74
 15840 26d8 00       		.sleb128 0
 15841 26d9 00       		.byte	0
 15842 26da 26       		.uleb128 0x26
 15843 26db BA070000 		.4byte	.LVL675
 15844 26df A23C0000 		.4byte	0x3ca2
 15845 26e3 EE260000 		.4byte	0x26ee
 15846 26e7 23       		.uleb128 0x23
 15847 26e8 01       		.uleb128 0x1
 15848 26e9 50       		.byte	0x50
 15849 26ea 02       		.uleb128 0x2
 15850 26eb 74       		.byte	0x74
 15851 26ec 00       		.sleb128 0
 15852 26ed 00       		.byte	0
 15853 26ee 26       		.uleb128 0x26
 15854 26ef DA070000 		.4byte	.LVL676
 15855 26f3 A23C0000 		.4byte	0x3ca2
 15856 26f7 02270000 		.4byte	0x2702
 15857 26fb 23       		.uleb128 0x23
 15858 26fc 01       		.uleb128 0x1
 15859 26fd 50       		.byte	0x50
 15860 26fe 02       		.uleb128 0x2
 15861 26ff 74       		.byte	0x74
 15862 2700 00       		.sleb128 0
 15863 2701 00       		.byte	0
 15864 2702 26       		.uleb128 0x26
 15865 2703 F8070000 		.4byte	.LVL677
 15866 2707 A23C0000 		.4byte	0x3ca2
 15867 270b 16270000 		.4byte	0x2716
 15868 270f 23       		.uleb128 0x23
 15869 2710 01       		.uleb128 0x1
 15870 2711 50       		.byte	0x50
 15871 2712 02       		.uleb128 0x2
 15872 2713 74       		.byte	0x74
 15873 2714 00       		.sleb128 0
 15874 2715 00       		.byte	0
 15875 2716 26       		.uleb128 0x26
 15876 2717 02080000 		.4byte	.LVL678
 15877 271b BB3C0000 		.4byte	0x3cbb
 15878 271f 33270000 		.4byte	0x2733
 15879 2723 23       		.uleb128 0x23
 15880 2724 01       		.uleb128 0x1
 15881 2725 52       		.byte	0x52
 15882 2726 02       		.uleb128 0x2
 15883 2727 08       		.byte	0x8
 15884 2728 41       		.byte	0x41
ARM GAS  C:\Users\doug_000\AppData\Local\Temp\ccbaKQF3.s 			page 326


 15885 2729 23       		.uleb128 0x23
 15886 272a 01       		.uleb128 0x1
 15887 272b 51       		.byte	0x51
 15888 272c 05       		.uleb128 0x5
 15889 272d 03       		.byte	0x3
 15890 272e E0080000 		.4byte	.LC84
 15891 2732 00       		.byte	0
 15892 2733 26       		.uleb128 0x26
 15893 2734 08080000 		.4byte	.LVL679
 15894 2738 A23C0000 		.4byte	0x3ca2
 15895 273c 47270000 		.4byte	0x2747
 15896 2740 23       		.uleb128 0x23
 15897 2741 01       		.uleb128 0x1
 15898 2742 50       		.byte	0x50
 15899 2743 02       		.uleb128 0x2
 15900 2744 74       		.byte	0x74
 15901 2745 00       		.sleb128 0
 15902 2746 00       		.byte	0
 15903 2747 26       		.uleb128 0x26
 15904 2748 28080000 		.4byte	.LVL680
 15905 274c A23C0000 		.4byte	0x3ca2
 15906 2750 5B270000 		.4byte	0x275b
 15907 2754 23       		.uleb128 0x23
 15908 2755 01       		.uleb128 0x1
 15909 2756 50       		.byte	0x50
 15910 2757 02       		.uleb128 0x2
 15911 2758 74       		.byte	0x74
 15912 2759 00       		.sleb128 0
 15913 275a 00       		.byte	0
 15914 275b 26       		.uleb128 0x26
 15915 275c 56080000 		.4byte	.LVL681
 15916 2760 A23C0000 		.4byte	0x3ca2
 15917 2764 6F270000 		.4byte	0x276f
 15918 2768 23       		.uleb128 0x23
 15919 2769 01       		.uleb128 0x1
 15920 276a 50       		.byte	0x50
 15921 276b 02       		.uleb128 0x2
 15922 276c 74       		.byte	0x74
 15923 276d 00       		.sleb128 0
 15924 276e 00       		.byte	0
 15925 276f 26       		.uleb128 0x26
 15926 2770 84080000 		.4byte	.LVL682
 15927 2774 A23C0000 		.4byte	0x3ca2
 15928 2778 83270000 		.4byte	0x2783
 15929 277c 23       		.uleb128 0x23
 15930 277d 01       		.uleb128 0x1
 15931 277e 50       		.byte	0x50
 15932 277f 02       		.uleb128 0x2
 15933 2780 74       		.byte	0x74
 15934 2781 00       		.sleb128 0
 15935 2782 00       		.byte	0
 15936 2783 26       		.uleb128 0x26
 15937 2784 AE080000 		.4byte	.LVL683
 15938 2788 A23C0000 		.4byte	0x3ca2
 15939 278c 97270000 		.4byte	0x2797
 15940 2790 23       		.uleb128 0x23
 15941 2791 01       		.uleb128 0x1
ARM GAS  C:\Users\doug_000\AppData\Local\Temp\ccbaKQF3.s 			page 327


 15942 2792 50       		.byte	0x50
 15943 2793 02       		.uleb128 0x2
 15944 2794 74       		.byte	0x74
 15945 2795 00       		.sleb128 0
 15946 2796 00       		.byte	0
 15947 2797 26       		.uleb128 0x26
 15948 2798 CE080000 		.4byte	.LVL684
 15949 279c A23C0000 		.4byte	0x3ca2
 15950 27a0 AB270000 		.4byte	0x27ab
 15951 27a4 23       		.uleb128 0x23
 15952 27a5 01       		.uleb128 0x1
 15953 27a6 50       		.byte	0x50
 15954 27a7 02       		.uleb128 0x2
 15955 27a8 74       		.byte	0x74
 15956 27a9 00       		.sleb128 0
 15957 27aa 00       		.byte	0
 15958 27ab 26       		.uleb128 0x26
 15959 27ac F6080000 		.4byte	.LVL685
 15960 27b0 A23C0000 		.4byte	0x3ca2
 15961 27b4 BF270000 		.4byte	0x27bf
 15962 27b8 23       		.uleb128 0x23
 15963 27b9 01       		.uleb128 0x1
 15964 27ba 50       		.byte	0x50
 15965 27bb 02       		.uleb128 0x2
 15966 27bc 74       		.byte	0x74
 15967 27bd 00       		.sleb128 0
 15968 27be 00       		.byte	0
 15969 27bf 26       		.uleb128 0x26
 15970 27c0 14090000 		.4byte	.LVL686
 15971 27c4 A23C0000 		.4byte	0x3ca2
 15972 27c8 D3270000 		.4byte	0x27d3
 15973 27cc 23       		.uleb128 0x23
 15974 27cd 01       		.uleb128 0x1
 15975 27ce 50       		.byte	0x50
 15976 27cf 02       		.uleb128 0x2
 15977 27d0 74       		.byte	0x74
 15978 27d1 00       		.sleb128 0
 15979 27d2 00       		.byte	0
 15980 27d3 26       		.uleb128 0x26
 15981 27d4 34090000 		.4byte	.LVL687
 15982 27d8 A23C0000 		.4byte	0x3ca2
 15983 27dc E7270000 		.4byte	0x27e7
 15984 27e0 23       		.uleb128 0x23
 15985 27e1 01       		.uleb128 0x1
 15986 27e2 50       		.byte	0x50
 15987 27e3 02       		.uleb128 0x2
 15988 27e4 74       		.byte	0x74
 15989 27e5 00       		.sleb128 0
 15990 27e6 00       		.byte	0
 15991 27e7 26       		.uleb128 0x26
 15992 27e8 60090000 		.4byte	.LVL688
 15993 27ec A23C0000 		.4byte	0x3ca2
 15994 27f0 FB270000 		.4byte	0x27fb
 15995 27f4 23       		.uleb128 0x23
 15996 27f5 01       		.uleb128 0x1
 15997 27f6 50       		.byte	0x50
 15998 27f7 02       		.uleb128 0x2
ARM GAS  C:\Users\doug_000\AppData\Local\Temp\ccbaKQF3.s 			page 328


 15999 27f8 74       		.byte	0x74
 16000 27f9 00       		.sleb128 0
 16001 27fa 00       		.byte	0
 16002 27fb 26       		.uleb128 0x26
 16003 27fc 84090000 		.4byte	.LVL689
 16004 2800 A23C0000 		.4byte	0x3ca2
 16005 2804 0F280000 		.4byte	0x280f
 16006 2808 23       		.uleb128 0x23
 16007 2809 01       		.uleb128 0x1
 16008 280a 50       		.byte	0x50
 16009 280b 02       		.uleb128 0x2
 16010 280c 74       		.byte	0x74
 16011 280d 00       		.sleb128 0
 16012 280e 00       		.byte	0
 16013 280f 26       		.uleb128 0x26
 16014 2810 A8090000 		.4byte	.LVL690
 16015 2814 A23C0000 		.4byte	0x3ca2
 16016 2818 23280000 		.4byte	0x2823
 16017 281c 23       		.uleb128 0x23
 16018 281d 01       		.uleb128 0x1
 16019 281e 50       		.byte	0x50
 16020 281f 02       		.uleb128 0x2
 16021 2820 74       		.byte	0x74
 16022 2821 00       		.sleb128 0
 16023 2822 00       		.byte	0
 16024 2823 26       		.uleb128 0x26
 16025 2824 C8090000 		.4byte	.LVL691
 16026 2828 A23C0000 		.4byte	0x3ca2
 16027 282c 37280000 		.4byte	0x2837
 16028 2830 23       		.uleb128 0x23
 16029 2831 01       		.uleb128 0x1
 16030 2832 50       		.byte	0x50
 16031 2833 02       		.uleb128 0x2
 16032 2834 74       		.byte	0x74
 16033 2835 00       		.sleb128 0
 16034 2836 00       		.byte	0
 16035 2837 26       		.uleb128 0x26
 16036 2838 F4090000 		.4byte	.LVL692
 16037 283c A23C0000 		.4byte	0x3ca2
 16038 2840 4B280000 		.4byte	0x284b
 16039 2844 23       		.uleb128 0x23
 16040 2845 01       		.uleb128 0x1
 16041 2846 50       		.byte	0x50
 16042 2847 02       		.uleb128 0x2
 16043 2848 74       		.byte	0x74
 16044 2849 00       		.sleb128 0
 16045 284a 00       		.byte	0
 16046 284b 26       		.uleb128 0x26
 16047 284c 140A0000 		.4byte	.LVL693
 16048 2850 A23C0000 		.4byte	0x3ca2
 16049 2854 5F280000 		.4byte	0x285f
 16050 2858 23       		.uleb128 0x23
 16051 2859 01       		.uleb128 0x1
 16052 285a 50       		.byte	0x50
 16053 285b 02       		.uleb128 0x2
 16054 285c 74       		.byte	0x74
 16055 285d 00       		.sleb128 0
ARM GAS  C:\Users\doug_000\AppData\Local\Temp\ccbaKQF3.s 			page 329


 16056 285e 00       		.byte	0
 16057 285f 26       		.uleb128 0x26
 16058 2860 320A0000 		.4byte	.LVL694
 16059 2864 A23C0000 		.4byte	0x3ca2
 16060 2868 73280000 		.4byte	0x2873
 16061 286c 23       		.uleb128 0x23
 16062 286d 01       		.uleb128 0x1
 16063 286e 50       		.byte	0x50
 16064 286f 02       		.uleb128 0x2
 16065 2870 74       		.byte	0x74
 16066 2871 00       		.sleb128 0
 16067 2872 00       		.byte	0
 16068 2873 26       		.uleb128 0x26
 16069 2874 4C0A0000 		.4byte	.LVL695
 16070 2878 A23C0000 		.4byte	0x3ca2
 16071 287c 87280000 		.4byte	0x2887
 16072 2880 23       		.uleb128 0x23
 16073 2881 01       		.uleb128 0x1
 16074 2882 50       		.byte	0x50
 16075 2883 02       		.uleb128 0x2
 16076 2884 74       		.byte	0x74
 16077 2885 00       		.sleb128 0
 16078 2886 00       		.byte	0
 16079 2887 26       		.uleb128 0x26
 16080 2888 780A0000 		.4byte	.LVL696
 16081 288c A23C0000 		.4byte	0x3ca2
 16082 2890 9B280000 		.4byte	0x289b
 16083 2894 23       		.uleb128 0x23
 16084 2895 01       		.uleb128 0x1
 16085 2896 50       		.byte	0x50
 16086 2897 02       		.uleb128 0x2
 16087 2898 74       		.byte	0x74
 16088 2899 00       		.sleb128 0
 16089 289a 00       		.byte	0
 16090 289b 26       		.uleb128 0x26
 16091 289c 900A0000 		.4byte	.LVL697
 16092 28a0 A23C0000 		.4byte	0x3ca2
 16093 28a4 AF280000 		.4byte	0x28af
 16094 28a8 23       		.uleb128 0x23
 16095 28a9 01       		.uleb128 0x1
 16096 28aa 50       		.byte	0x50
 16097 28ab 02       		.uleb128 0x2
 16098 28ac 74       		.byte	0x74
 16099 28ad 00       		.sleb128 0
 16100 28ae 00       		.byte	0
 16101 28af 26       		.uleb128 0x26
 16102 28b0 1C0B0000 		.4byte	.LVL698
 16103 28b4 A23C0000 		.4byte	0x3ca2
 16104 28b8 C3280000 		.4byte	0x28c3
 16105 28bc 23       		.uleb128 0x23
 16106 28bd 01       		.uleb128 0x1
 16107 28be 50       		.byte	0x50
 16108 28bf 02       		.uleb128 0x2
 16109 28c0 74       		.byte	0x74
 16110 28c1 00       		.sleb128 0
 16111 28c2 00       		.byte	0
 16112 28c3 26       		.uleb128 0x26
ARM GAS  C:\Users\doug_000\AppData\Local\Temp\ccbaKQF3.s 			page 330


 16113 28c4 3E0B0000 		.4byte	.LVL699
 16114 28c8 A23C0000 		.4byte	0x3ca2
 16115 28cc D7280000 		.4byte	0x28d7
 16116 28d0 23       		.uleb128 0x23
 16117 28d1 01       		.uleb128 0x1
 16118 28d2 50       		.byte	0x50
 16119 28d3 02       		.uleb128 0x2
 16120 28d4 74       		.byte	0x74
 16121 28d5 00       		.sleb128 0
 16122 28d6 00       		.byte	0
 16123 28d7 26       		.uleb128 0x26
 16124 28d8 600B0000 		.4byte	.LVL700
 16125 28dc A23C0000 		.4byte	0x3ca2
 16126 28e0 EB280000 		.4byte	0x28eb
 16127 28e4 23       		.uleb128 0x23
 16128 28e5 01       		.uleb128 0x1
 16129 28e6 50       		.byte	0x50
 16130 28e7 02       		.uleb128 0x2
 16131 28e8 74       		.byte	0x74
 16132 28e9 00       		.sleb128 0
 16133 28ea 00       		.byte	0
 16134 28eb 26       		.uleb128 0x26
 16135 28ec 8E0B0000 		.4byte	.LVL701
 16136 28f0 A23C0000 		.4byte	0x3ca2
 16137 28f4 FF280000 		.4byte	0x28ff
 16138 28f8 23       		.uleb128 0x23
 16139 28f9 01       		.uleb128 0x1
 16140 28fa 50       		.byte	0x50
 16141 28fb 02       		.uleb128 0x2
 16142 28fc 74       		.byte	0x74
 16143 28fd 00       		.sleb128 0
 16144 28fe 00       		.byte	0
 16145 28ff 26       		.uleb128 0x26
 16146 2900 A80B0000 		.4byte	.LVL702
 16147 2904 A23C0000 		.4byte	0x3ca2
 16148 2908 13290000 		.4byte	0x2913
 16149 290c 23       		.uleb128 0x23
 16150 290d 01       		.uleb128 0x1
 16151 290e 50       		.byte	0x50
 16152 290f 02       		.uleb128 0x2
 16153 2910 74       		.byte	0x74
 16154 2911 00       		.sleb128 0
 16155 2912 00       		.byte	0
 16156 2913 26       		.uleb128 0x26
 16157 2914 B20B0000 		.4byte	.LVL703
 16158 2918 BB3C0000 		.4byte	0x3cbb
 16159 291c 30290000 		.4byte	0x2930
 16160 2920 23       		.uleb128 0x23
 16161 2921 01       		.uleb128 0x1
 16162 2922 52       		.byte	0x52
 16163 2923 02       		.uleb128 0x2
 16164 2924 08       		.byte	0x8
 16165 2925 41       		.byte	0x41
 16166 2926 23       		.uleb128 0x23
 16167 2927 01       		.uleb128 0x1
 16168 2928 51       		.byte	0x51
 16169 2929 05       		.uleb128 0x5
ARM GAS  C:\Users\doug_000\AppData\Local\Temp\ccbaKQF3.s 			page 331


 16170 292a 03       		.byte	0x3
 16171 292b 8C0C0000 		.4byte	.LC108
 16172 292f 00       		.byte	0
 16173 2930 26       		.uleb128 0x26
 16174 2931 B80B0000 		.4byte	.LVL704
 16175 2935 A23C0000 		.4byte	0x3ca2
 16176 2939 44290000 		.4byte	0x2944
 16177 293d 23       		.uleb128 0x23
 16178 293e 01       		.uleb128 0x1
 16179 293f 50       		.byte	0x50
 16180 2940 02       		.uleb128 0x2
 16181 2941 74       		.byte	0x74
 16182 2942 00       		.sleb128 0
 16183 2943 00       		.byte	0
 16184 2944 26       		.uleb128 0x26
 16185 2945 E80B0000 		.4byte	.LVL705
 16186 2949 A23C0000 		.4byte	0x3ca2
 16187 294d 58290000 		.4byte	0x2958
 16188 2951 23       		.uleb128 0x23
 16189 2952 01       		.uleb128 0x1
 16190 2953 50       		.byte	0x50
 16191 2954 02       		.uleb128 0x2
 16192 2955 74       		.byte	0x74
 16193 2956 00       		.sleb128 0
 16194 2957 00       		.byte	0
 16195 2958 26       		.uleb128 0x26
 16196 2959 F20B0000 		.4byte	.LVL706
 16197 295d BB3C0000 		.4byte	0x3cbb
 16198 2961 75290000 		.4byte	0x2975
 16199 2965 23       		.uleb128 0x23
 16200 2966 01       		.uleb128 0x1
 16201 2967 52       		.byte	0x52
 16202 2968 02       		.uleb128 0x2
 16203 2969 08       		.byte	0x8
 16204 296a 41       		.byte	0x41
 16205 296b 23       		.uleb128 0x23
 16206 296c 01       		.uleb128 0x1
 16207 296d 51       		.byte	0x51
 16208 296e 05       		.uleb128 0x5
 16209 296f 03       		.byte	0x3
 16210 2970 000D0000 		.4byte	.LC110
 16211 2974 00       		.byte	0
 16212 2975 26       		.uleb128 0x26
 16213 2976 F80B0000 		.4byte	.LVL707
 16214 297a A23C0000 		.4byte	0x3ca2
 16215 297e 89290000 		.4byte	0x2989
 16216 2982 23       		.uleb128 0x23
 16217 2983 01       		.uleb128 0x1
 16218 2984 50       		.byte	0x50
 16219 2985 02       		.uleb128 0x2
 16220 2986 74       		.byte	0x74
 16221 2987 00       		.sleb128 0
 16222 2988 00       		.byte	0
 16223 2989 26       		.uleb128 0x26
 16224 298a 120C0000 		.4byte	.LVL708
 16225 298e A23C0000 		.4byte	0x3ca2
 16226 2992 9D290000 		.4byte	0x299d
ARM GAS  C:\Users\doug_000\AppData\Local\Temp\ccbaKQF3.s 			page 332


 16227 2996 23       		.uleb128 0x23
 16228 2997 01       		.uleb128 0x1
 16229 2998 50       		.byte	0x50
 16230 2999 02       		.uleb128 0x2
 16231 299a 74       		.byte	0x74
 16232 299b 00       		.sleb128 0
 16233 299c 00       		.byte	0
 16234 299d 26       		.uleb128 0x26
 16235 299e 3E0C0000 		.4byte	.LVL709
 16236 29a2 A23C0000 		.4byte	0x3ca2
 16237 29a6 B1290000 		.4byte	0x29b1
 16238 29aa 23       		.uleb128 0x23
 16239 29ab 01       		.uleb128 0x1
 16240 29ac 50       		.byte	0x50
 16241 29ad 02       		.uleb128 0x2
 16242 29ae 74       		.byte	0x74
 16243 29af 00       		.sleb128 0
 16244 29b0 00       		.byte	0
 16245 29b1 26       		.uleb128 0x26
 16246 29b2 580C0000 		.4byte	.LVL710
 16247 29b6 A23C0000 		.4byte	0x3ca2
 16248 29ba C5290000 		.4byte	0x29c5
 16249 29be 23       		.uleb128 0x23
 16250 29bf 01       		.uleb128 0x1
 16251 29c0 50       		.byte	0x50
 16252 29c1 02       		.uleb128 0x2
 16253 29c2 74       		.byte	0x74
 16254 29c3 00       		.sleb128 0
 16255 29c4 00       		.byte	0
 16256 29c5 26       		.uleb128 0x26
 16257 29c6 840C0000 		.4byte	.LVL711
 16258 29ca A23C0000 		.4byte	0x3ca2
 16259 29ce D9290000 		.4byte	0x29d9
 16260 29d2 23       		.uleb128 0x23
 16261 29d3 01       		.uleb128 0x1
 16262 29d4 50       		.byte	0x50
 16263 29d5 02       		.uleb128 0x2
 16264 29d6 74       		.byte	0x74
 16265 29d7 00       		.sleb128 0
 16266 29d8 00       		.byte	0
 16267 29d9 26       		.uleb128 0x26
 16268 29da AC0C0000 		.4byte	.LVL712
 16269 29de A23C0000 		.4byte	0x3ca2
 16270 29e2 ED290000 		.4byte	0x29ed
 16271 29e6 23       		.uleb128 0x23
 16272 29e7 01       		.uleb128 0x1
 16273 29e8 50       		.byte	0x50
 16274 29e9 02       		.uleb128 0x2
 16275 29ea 74       		.byte	0x74
 16276 29eb 00       		.sleb128 0
 16277 29ec 00       		.byte	0
 16278 29ed 26       		.uleb128 0x26
 16279 29ee CA0C0000 		.4byte	.LVL713
 16280 29f2 A23C0000 		.4byte	0x3ca2
 16281 29f6 012A0000 		.4byte	0x2a01
 16282 29fa 23       		.uleb128 0x23
 16283 29fb 01       		.uleb128 0x1
ARM GAS  C:\Users\doug_000\AppData\Local\Temp\ccbaKQF3.s 			page 333


 16284 29fc 50       		.byte	0x50
 16285 29fd 02       		.uleb128 0x2
 16286 29fe 74       		.byte	0x74
 16287 29ff 00       		.sleb128 0
 16288 2a00 00       		.byte	0
 16289 2a01 26       		.uleb128 0x26
 16290 2a02 D40C0000 		.4byte	.LVL714
 16291 2a06 BB3C0000 		.4byte	0x3cbb
 16292 2a0a 1E2A0000 		.4byte	0x2a1e
 16293 2a0e 23       		.uleb128 0x23
 16294 2a0f 01       		.uleb128 0x1
 16295 2a10 52       		.byte	0x52
 16296 2a11 02       		.uleb128 0x2
 16297 2a12 08       		.byte	0x8
 16298 2a13 41       		.byte	0x41
 16299 2a14 23       		.uleb128 0x23
 16300 2a15 01       		.uleb128 0x1
 16301 2a16 51       		.byte	0x51
 16302 2a17 05       		.uleb128 0x5
 16303 2a18 03       		.byte	0x3
 16304 2a19 180E0000 		.4byte	.LC117
 16305 2a1d 00       		.byte	0
 16306 2a1e 26       		.uleb128 0x26
 16307 2a1f DA0C0000 		.4byte	.LVL715
 16308 2a23 A23C0000 		.4byte	0x3ca2
 16309 2a27 322A0000 		.4byte	0x2a32
 16310 2a2b 23       		.uleb128 0x23
 16311 2a2c 01       		.uleb128 0x1
 16312 2a2d 50       		.byte	0x50
 16313 2a2e 02       		.uleb128 0x2
 16314 2a2f 74       		.byte	0x74
 16315 2a30 00       		.sleb128 0
 16316 2a31 00       		.byte	0
 16317 2a32 26       		.uleb128 0x26
 16318 2a33 F00C0000 		.4byte	.LVL716
 16319 2a37 A23C0000 		.4byte	0x3ca2
 16320 2a3b 462A0000 		.4byte	0x2a46
 16321 2a3f 23       		.uleb128 0x23
 16322 2a40 01       		.uleb128 0x1
 16323 2a41 50       		.byte	0x50
 16324 2a42 02       		.uleb128 0x2
 16325 2a43 74       		.byte	0x74
 16326 2a44 00       		.sleb128 0
 16327 2a45 00       		.byte	0
 16328 2a46 26       		.uleb128 0x26
 16329 2a47 1C0D0000 		.4byte	.LVL717
 16330 2a4b A23C0000 		.4byte	0x3ca2
 16331 2a4f 5A2A0000 		.4byte	0x2a5a
 16332 2a53 23       		.uleb128 0x23
 16333 2a54 01       		.uleb128 0x1
 16334 2a55 50       		.byte	0x50
 16335 2a56 02       		.uleb128 0x2
 16336 2a57 74       		.byte	0x74
 16337 2a58 00       		.sleb128 0
 16338 2a59 00       		.byte	0
 16339 2a5a 26       		.uleb128 0x26
 16340 2a5b 4A0D0000 		.4byte	.LVL718
ARM GAS  C:\Users\doug_000\AppData\Local\Temp\ccbaKQF3.s 			page 334


 16341 2a5f A23C0000 		.4byte	0x3ca2
 16342 2a63 6E2A0000 		.4byte	0x2a6e
 16343 2a67 23       		.uleb128 0x23
 16344 2a68 01       		.uleb128 0x1
 16345 2a69 50       		.byte	0x50
 16346 2a6a 02       		.uleb128 0x2
 16347 2a6b 74       		.byte	0x74
 16348 2a6c 00       		.sleb128 0
 16349 2a6d 00       		.byte	0
 16350 2a6e 26       		.uleb128 0x26
 16351 2a6f 720D0000 		.4byte	.LVL719
 16352 2a73 A23C0000 		.4byte	0x3ca2
 16353 2a77 822A0000 		.4byte	0x2a82
 16354 2a7b 23       		.uleb128 0x23
 16355 2a7c 01       		.uleb128 0x1
 16356 2a7d 50       		.byte	0x50
 16357 2a7e 02       		.uleb128 0x2
 16358 2a7f 74       		.byte	0x74
 16359 2a80 00       		.sleb128 0
 16360 2a81 00       		.byte	0
 16361 2a82 26       		.uleb128 0x26
 16362 2a83 9E0D0000 		.4byte	.LVL720
 16363 2a87 A23C0000 		.4byte	0x3ca2
 16364 2a8b 962A0000 		.4byte	0x2a96
 16365 2a8f 23       		.uleb128 0x23
 16366 2a90 01       		.uleb128 0x1
 16367 2a91 50       		.byte	0x50
 16368 2a92 02       		.uleb128 0x2
 16369 2a93 74       		.byte	0x74
 16370 2a94 00       		.sleb128 0
 16371 2a95 00       		.byte	0
 16372 2a96 26       		.uleb128 0x26
 16373 2a97 C60D0000 		.4byte	.LVL721
 16374 2a9b A23C0000 		.4byte	0x3ca2
 16375 2a9f AA2A0000 		.4byte	0x2aaa
 16376 2aa3 23       		.uleb128 0x23
 16377 2aa4 01       		.uleb128 0x1
 16378 2aa5 50       		.byte	0x50
 16379 2aa6 02       		.uleb128 0x2
 16380 2aa7 74       		.byte	0x74
 16381 2aa8 00       		.sleb128 0
 16382 2aa9 00       		.byte	0
 16383 2aaa 26       		.uleb128 0x26
 16384 2aab F40D0000 		.4byte	.LVL722
 16385 2aaf A23C0000 		.4byte	0x3ca2
 16386 2ab3 BE2A0000 		.4byte	0x2abe
 16387 2ab7 23       		.uleb128 0x23
 16388 2ab8 01       		.uleb128 0x1
 16389 2ab9 50       		.byte	0x50
 16390 2aba 02       		.uleb128 0x2
 16391 2abb 74       		.byte	0x74
 16392 2abc 00       		.sleb128 0
 16393 2abd 00       		.byte	0
 16394 2abe 26       		.uleb128 0x26
 16395 2abf 180E0000 		.4byte	.LVL723
 16396 2ac3 A23C0000 		.4byte	0x3ca2
 16397 2ac7 D22A0000 		.4byte	0x2ad2
ARM GAS  C:\Users\doug_000\AppData\Local\Temp\ccbaKQF3.s 			page 335


 16398 2acb 23       		.uleb128 0x23
 16399 2acc 01       		.uleb128 0x1
 16400 2acd 50       		.byte	0x50
 16401 2ace 02       		.uleb128 0x2
 16402 2acf 74       		.byte	0x74
 16403 2ad0 00       		.sleb128 0
 16404 2ad1 00       		.byte	0
 16405 2ad2 26       		.uleb128 0x26
 16406 2ad3 4E0E0000 		.4byte	.LVL724
 16407 2ad7 A23C0000 		.4byte	0x3ca2
 16408 2adb E62A0000 		.4byte	0x2ae6
 16409 2adf 23       		.uleb128 0x23
 16410 2ae0 01       		.uleb128 0x1
 16411 2ae1 50       		.byte	0x50
 16412 2ae2 02       		.uleb128 0x2
 16413 2ae3 74       		.byte	0x74
 16414 2ae4 00       		.sleb128 0
 16415 2ae5 00       		.byte	0
 16416 2ae6 26       		.uleb128 0x26
 16417 2ae7 E00E0000 		.4byte	.LVL725
 16418 2aeb A23C0000 		.4byte	0x3ca2
 16419 2aef FA2A0000 		.4byte	0x2afa
 16420 2af3 23       		.uleb128 0x23
 16421 2af4 01       		.uleb128 0x1
 16422 2af5 50       		.byte	0x50
 16423 2af6 02       		.uleb128 0x2
 16424 2af7 74       		.byte	0x74
 16425 2af8 00       		.sleb128 0
 16426 2af9 00       		.byte	0
 16427 2afa 26       		.uleb128 0x26
 16428 2afb 0C0F0000 		.4byte	.LVL726
 16429 2aff A23C0000 		.4byte	0x3ca2
 16430 2b03 0E2B0000 		.4byte	0x2b0e
 16431 2b07 23       		.uleb128 0x23
 16432 2b08 01       		.uleb128 0x1
 16433 2b09 50       		.byte	0x50
 16434 2b0a 02       		.uleb128 0x2
 16435 2b0b 74       		.byte	0x74
 16436 2b0c 00       		.sleb128 0
 16437 2b0d 00       		.byte	0
 16438 2b0e 26       		.uleb128 0x26
 16439 2b0f 2C0F0000 		.4byte	.LVL727
 16440 2b13 A23C0000 		.4byte	0x3ca2
 16441 2b17 222B0000 		.4byte	0x2b22
 16442 2b1b 23       		.uleb128 0x23
 16443 2b1c 01       		.uleb128 0x1
 16444 2b1d 50       		.byte	0x50
 16445 2b1e 02       		.uleb128 0x2
 16446 2b1f 74       		.byte	0x74
 16447 2b20 00       		.sleb128 0
 16448 2b21 00       		.byte	0
 16449 2b22 26       		.uleb128 0x26
 16450 2b23 460F0000 		.4byte	.LVL728
 16451 2b27 A23C0000 		.4byte	0x3ca2
 16452 2b2b 362B0000 		.4byte	0x2b36
 16453 2b2f 23       		.uleb128 0x23
 16454 2b30 01       		.uleb128 0x1
ARM GAS  C:\Users\doug_000\AppData\Local\Temp\ccbaKQF3.s 			page 336


 16455 2b31 50       		.byte	0x50
 16456 2b32 02       		.uleb128 0x2
 16457 2b33 74       		.byte	0x74
 16458 2b34 00       		.sleb128 0
 16459 2b35 00       		.byte	0
 16460 2b36 26       		.uleb128 0x26
 16461 2b37 720F0000 		.4byte	.LVL729
 16462 2b3b A23C0000 		.4byte	0x3ca2
 16463 2b3f 4A2B0000 		.4byte	0x2b4a
 16464 2b43 23       		.uleb128 0x23
 16465 2b44 01       		.uleb128 0x1
 16466 2b45 50       		.byte	0x50
 16467 2b46 02       		.uleb128 0x2
 16468 2b47 74       		.byte	0x74
 16469 2b48 00       		.sleb128 0
 16470 2b49 00       		.byte	0
 16471 2b4a 26       		.uleb128 0x26
 16472 2b4b 900F0000 		.4byte	.LVL730
 16473 2b4f A23C0000 		.4byte	0x3ca2
 16474 2b53 5E2B0000 		.4byte	0x2b5e
 16475 2b57 23       		.uleb128 0x23
 16476 2b58 01       		.uleb128 0x1
 16477 2b59 50       		.byte	0x50
 16478 2b5a 02       		.uleb128 0x2
 16479 2b5b 74       		.byte	0x74
 16480 2b5c 00       		.sleb128 0
 16481 2b5d 00       		.byte	0
 16482 2b5e 26       		.uleb128 0x26
 16483 2b5f B40F0000 		.4byte	.LVL731
 16484 2b63 A23C0000 		.4byte	0x3ca2
 16485 2b67 722B0000 		.4byte	0x2b72
 16486 2b6b 23       		.uleb128 0x23
 16487 2b6c 01       		.uleb128 0x1
 16488 2b6d 50       		.byte	0x50
 16489 2b6e 02       		.uleb128 0x2
 16490 2b6f 74       		.byte	0x74
 16491 2b70 00       		.sleb128 0
 16492 2b71 00       		.byte	0
 16493 2b72 26       		.uleb128 0x26
 16494 2b73 E20F0000 		.4byte	.LVL732
 16495 2b77 A23C0000 		.4byte	0x3ca2
 16496 2b7b 862B0000 		.4byte	0x2b86
 16497 2b7f 23       		.uleb128 0x23
 16498 2b80 01       		.uleb128 0x1
 16499 2b81 50       		.byte	0x50
 16500 2b82 02       		.uleb128 0x2
 16501 2b83 74       		.byte	0x74
 16502 2b84 00       		.sleb128 0
 16503 2b85 00       		.byte	0
 16504 2b86 26       		.uleb128 0x26
 16505 2b87 02100000 		.4byte	.LVL733
 16506 2b8b A23C0000 		.4byte	0x3ca2
 16507 2b8f 9A2B0000 		.4byte	0x2b9a
 16508 2b93 23       		.uleb128 0x23
 16509 2b94 01       		.uleb128 0x1
 16510 2b95 50       		.byte	0x50
 16511 2b96 02       		.uleb128 0x2
ARM GAS  C:\Users\doug_000\AppData\Local\Temp\ccbaKQF3.s 			page 337


 16512 2b97 74       		.byte	0x74
 16513 2b98 00       		.sleb128 0
 16514 2b99 00       		.byte	0
 16515 2b9a 26       		.uleb128 0x26
 16516 2b9b 1C100000 		.4byte	.LVL734
 16517 2b9f A23C0000 		.4byte	0x3ca2
 16518 2ba3 AE2B0000 		.4byte	0x2bae
 16519 2ba7 23       		.uleb128 0x23
 16520 2ba8 01       		.uleb128 0x1
 16521 2ba9 50       		.byte	0x50
 16522 2baa 02       		.uleb128 0x2
 16523 2bab 74       		.byte	0x74
 16524 2bac 00       		.sleb128 0
 16525 2bad 00       		.byte	0
 16526 2bae 26       		.uleb128 0x26
 16527 2baf 44100000 		.4byte	.LVL735
 16528 2bb3 A23C0000 		.4byte	0x3ca2
 16529 2bb7 C22B0000 		.4byte	0x2bc2
 16530 2bbb 23       		.uleb128 0x23
 16531 2bbc 01       		.uleb128 0x1
 16532 2bbd 50       		.byte	0x50
 16533 2bbe 02       		.uleb128 0x2
 16534 2bbf 74       		.byte	0x74
 16535 2bc0 00       		.sleb128 0
 16536 2bc1 00       		.byte	0
 16537 2bc2 26       		.uleb128 0x26
 16538 2bc3 5A100000 		.4byte	.LVL736
 16539 2bc7 A23C0000 		.4byte	0x3ca2
 16540 2bcb D62B0000 		.4byte	0x2bd6
 16541 2bcf 23       		.uleb128 0x23
 16542 2bd0 01       		.uleb128 0x1
 16543 2bd1 50       		.byte	0x50
 16544 2bd2 02       		.uleb128 0x2
 16545 2bd3 74       		.byte	0x74
 16546 2bd4 00       		.sleb128 0
 16547 2bd5 00       		.byte	0
 16548 2bd6 26       		.uleb128 0x26
 16549 2bd7 7E100000 		.4byte	.LVL737
 16550 2bdb A23C0000 		.4byte	0x3ca2
 16551 2bdf EA2B0000 		.4byte	0x2bea
 16552 2be3 23       		.uleb128 0x23
 16553 2be4 01       		.uleb128 0x1
 16554 2be5 50       		.byte	0x50
 16555 2be6 02       		.uleb128 0x2
 16556 2be7 74       		.byte	0x74
 16557 2be8 00       		.sleb128 0
 16558 2be9 00       		.byte	0
 16559 2bea 26       		.uleb128 0x26
 16560 2beb 9E100000 		.4byte	.LVL738
 16561 2bef A23C0000 		.4byte	0x3ca2
 16562 2bf3 FE2B0000 		.4byte	0x2bfe
 16563 2bf7 23       		.uleb128 0x23
 16564 2bf8 01       		.uleb128 0x1
 16565 2bf9 50       		.byte	0x50
 16566 2bfa 02       		.uleb128 0x2
 16567 2bfb 74       		.byte	0x74
 16568 2bfc 00       		.sleb128 0
ARM GAS  C:\Users\doug_000\AppData\Local\Temp\ccbaKQF3.s 			page 338


 16569 2bfd 00       		.byte	0
 16570 2bfe 26       		.uleb128 0x26
 16571 2bff B8100000 		.4byte	.LVL739
 16572 2c03 A23C0000 		.4byte	0x3ca2
 16573 2c07 122C0000 		.4byte	0x2c12
 16574 2c0b 23       		.uleb128 0x23
 16575 2c0c 01       		.uleb128 0x1
 16576 2c0d 50       		.byte	0x50
 16577 2c0e 02       		.uleb128 0x2
 16578 2c0f 74       		.byte	0x74
 16579 2c10 00       		.sleb128 0
 16580 2c11 00       		.byte	0
 16581 2c12 26       		.uleb128 0x26
 16582 2c13 E0100000 		.4byte	.LVL740
 16583 2c17 A23C0000 		.4byte	0x3ca2
 16584 2c1b 262C0000 		.4byte	0x2c26
 16585 2c1f 23       		.uleb128 0x23
 16586 2c20 01       		.uleb128 0x1
 16587 2c21 50       		.byte	0x50
 16588 2c22 02       		.uleb128 0x2
 16589 2c23 74       		.byte	0x74
 16590 2c24 00       		.sleb128 0
 16591 2c25 00       		.byte	0
 16592 2c26 26       		.uleb128 0x26
 16593 2c27 FA100000 		.4byte	.LVL741
 16594 2c2b A23C0000 		.4byte	0x3ca2
 16595 2c2f 3A2C0000 		.4byte	0x2c3a
 16596 2c33 23       		.uleb128 0x23
 16597 2c34 01       		.uleb128 0x1
 16598 2c35 50       		.byte	0x50
 16599 2c36 02       		.uleb128 0x2
 16600 2c37 74       		.byte	0x74
 16601 2c38 00       		.sleb128 0
 16602 2c39 00       		.byte	0
 16603 2c3a 26       		.uleb128 0x26
 16604 2c3b 18110000 		.4byte	.LVL742
 16605 2c3f A23C0000 		.4byte	0x3ca2
 16606 2c43 4E2C0000 		.4byte	0x2c4e
 16607 2c47 23       		.uleb128 0x23
 16608 2c48 01       		.uleb128 0x1
 16609 2c49 50       		.byte	0x50
 16610 2c4a 02       		.uleb128 0x2
 16611 2c4b 74       		.byte	0x74
 16612 2c4c 00       		.sleb128 0
 16613 2c4d 00       		.byte	0
 16614 2c4e 26       		.uleb128 0x26
 16615 2c4f 44110000 		.4byte	.LVL743
 16616 2c53 A23C0000 		.4byte	0x3ca2
 16617 2c57 622C0000 		.4byte	0x2c62
 16618 2c5b 23       		.uleb128 0x23
 16619 2c5c 01       		.uleb128 0x1
 16620 2c5d 50       		.byte	0x50
 16621 2c5e 02       		.uleb128 0x2
 16622 2c5f 74       		.byte	0x74
 16623 2c60 00       		.sleb128 0
 16624 2c61 00       		.byte	0
 16625 2c62 26       		.uleb128 0x26
ARM GAS  C:\Users\doug_000\AppData\Local\Temp\ccbaKQF3.s 			page 339


 16626 2c63 62110000 		.4byte	.LVL744
 16627 2c67 A23C0000 		.4byte	0x3ca2
 16628 2c6b 762C0000 		.4byte	0x2c76
 16629 2c6f 23       		.uleb128 0x23
 16630 2c70 01       		.uleb128 0x1
 16631 2c71 50       		.byte	0x50
 16632 2c72 02       		.uleb128 0x2
 16633 2c73 74       		.byte	0x74
 16634 2c74 00       		.sleb128 0
 16635 2c75 00       		.byte	0
 16636 2c76 26       		.uleb128 0x26
 16637 2c77 94110000 		.4byte	.LVL745
 16638 2c7b A23C0000 		.4byte	0x3ca2
 16639 2c7f 8A2C0000 		.4byte	0x2c8a
 16640 2c83 23       		.uleb128 0x23
 16641 2c84 01       		.uleb128 0x1
 16642 2c85 50       		.byte	0x50
 16643 2c86 02       		.uleb128 0x2
 16644 2c87 74       		.byte	0x74
 16645 2c88 00       		.sleb128 0
 16646 2c89 00       		.byte	0
 16647 2c8a 26       		.uleb128 0x26
 16648 2c8b BC110000 		.4byte	.LVL746
 16649 2c8f A23C0000 		.4byte	0x3ca2
 16650 2c93 9E2C0000 		.4byte	0x2c9e
 16651 2c97 23       		.uleb128 0x23
 16652 2c98 01       		.uleb128 0x1
 16653 2c99 50       		.byte	0x50
 16654 2c9a 02       		.uleb128 0x2
 16655 2c9b 74       		.byte	0x74
 16656 2c9c 00       		.sleb128 0
 16657 2c9d 00       		.byte	0
 16658 2c9e 26       		.uleb128 0x26
 16659 2c9f DC110000 		.4byte	.LVL747
 16660 2ca3 A23C0000 		.4byte	0x3ca2
 16661 2ca7 B22C0000 		.4byte	0x2cb2
 16662 2cab 23       		.uleb128 0x23
 16663 2cac 01       		.uleb128 0x1
 16664 2cad 50       		.byte	0x50
 16665 2cae 02       		.uleb128 0x2
 16666 2caf 74       		.byte	0x74
 16667 2cb0 00       		.sleb128 0
 16668 2cb1 00       		.byte	0
 16669 2cb2 26       		.uleb128 0x26
 16670 2cb3 FC110000 		.4byte	.LVL748
 16671 2cb7 A23C0000 		.4byte	0x3ca2
 16672 2cbb C62C0000 		.4byte	0x2cc6
 16673 2cbf 23       		.uleb128 0x23
 16674 2cc0 01       		.uleb128 0x1
 16675 2cc1 50       		.byte	0x50
 16676 2cc2 02       		.uleb128 0x2
 16677 2cc3 74       		.byte	0x74
 16678 2cc4 00       		.sleb128 0
 16679 2cc5 00       		.byte	0
 16680 2cc6 26       		.uleb128 0x26
 16681 2cc7 8E120000 		.4byte	.LVL749
 16682 2ccb A23C0000 		.4byte	0x3ca2
ARM GAS  C:\Users\doug_000\AppData\Local\Temp\ccbaKQF3.s 			page 340


 16683 2ccf DA2C0000 		.4byte	0x2cda
 16684 2cd3 23       		.uleb128 0x23
 16685 2cd4 01       		.uleb128 0x1
 16686 2cd5 50       		.byte	0x50
 16687 2cd6 02       		.uleb128 0x2
 16688 2cd7 74       		.byte	0x74
 16689 2cd8 00       		.sleb128 0
 16690 2cd9 00       		.byte	0
 16691 2cda 26       		.uleb128 0x26
 16692 2cdb AC120000 		.4byte	.LVL750
 16693 2cdf A23C0000 		.4byte	0x3ca2
 16694 2ce3 EE2C0000 		.4byte	0x2cee
 16695 2ce7 23       		.uleb128 0x23
 16696 2ce8 01       		.uleb128 0x1
 16697 2ce9 50       		.byte	0x50
 16698 2cea 02       		.uleb128 0x2
 16699 2ceb 74       		.byte	0x74
 16700 2cec 00       		.sleb128 0
 16701 2ced 00       		.byte	0
 16702 2cee 26       		.uleb128 0x26
 16703 2cef CA120000 		.4byte	.LVL751
 16704 2cf3 A23C0000 		.4byte	0x3ca2
 16705 2cf7 022D0000 		.4byte	0x2d02
 16706 2cfb 23       		.uleb128 0x23
 16707 2cfc 01       		.uleb128 0x1
 16708 2cfd 50       		.byte	0x50
 16709 2cfe 02       		.uleb128 0x2
 16710 2cff 74       		.byte	0x74
 16711 2d00 00       		.sleb128 0
 16712 2d01 00       		.byte	0
 16713 2d02 26       		.uleb128 0x26
 16714 2d03 F8120000 		.4byte	.LVL752
 16715 2d07 A23C0000 		.4byte	0x3ca2
 16716 2d0b 162D0000 		.4byte	0x2d16
 16717 2d0f 23       		.uleb128 0x23
 16718 2d10 01       		.uleb128 0x1
 16719 2d11 50       		.byte	0x50
 16720 2d12 02       		.uleb128 0x2
 16721 2d13 74       		.byte	0x74
 16722 2d14 00       		.sleb128 0
 16723 2d15 00       		.byte	0
 16724 2d16 26       		.uleb128 0x26
 16725 2d17 16130000 		.4byte	.LVL753
 16726 2d1b A23C0000 		.4byte	0x3ca2
 16727 2d1f 2A2D0000 		.4byte	0x2d2a
 16728 2d23 23       		.uleb128 0x23
 16729 2d24 01       		.uleb128 0x1
 16730 2d25 50       		.byte	0x50
 16731 2d26 02       		.uleb128 0x2
 16732 2d27 74       		.byte	0x74
 16733 2d28 00       		.sleb128 0
 16734 2d29 00       		.byte	0
 16735 2d2a 26       		.uleb128 0x26
 16736 2d2b 30130000 		.4byte	.LVL754
 16737 2d2f A23C0000 		.4byte	0x3ca2
 16738 2d33 3E2D0000 		.4byte	0x2d3e
 16739 2d37 23       		.uleb128 0x23
ARM GAS  C:\Users\doug_000\AppData\Local\Temp\ccbaKQF3.s 			page 341


 16740 2d38 01       		.uleb128 0x1
 16741 2d39 50       		.byte	0x50
 16742 2d3a 02       		.uleb128 0x2
 16743 2d3b 74       		.byte	0x74
 16744 2d3c 00       		.sleb128 0
 16745 2d3d 00       		.byte	0
 16746 2d3e 26       		.uleb128 0x26
 16747 2d3f 58130000 		.4byte	.LVL755
 16748 2d43 A23C0000 		.4byte	0x3ca2
 16749 2d47 522D0000 		.4byte	0x2d52
 16750 2d4b 23       		.uleb128 0x23
 16751 2d4c 01       		.uleb128 0x1
 16752 2d4d 50       		.byte	0x50
 16753 2d4e 02       		.uleb128 0x2
 16754 2d4f 74       		.byte	0x74
 16755 2d50 00       		.sleb128 0
 16756 2d51 00       		.byte	0
 16757 2d52 26       		.uleb128 0x26
 16758 2d53 6E130000 		.4byte	.LVL756
 16759 2d57 A23C0000 		.4byte	0x3ca2
 16760 2d5b 662D0000 		.4byte	0x2d66
 16761 2d5f 23       		.uleb128 0x23
 16762 2d60 01       		.uleb128 0x1
 16763 2d61 50       		.byte	0x50
 16764 2d62 02       		.uleb128 0x2
 16765 2d63 74       		.byte	0x74
 16766 2d64 00       		.sleb128 0
 16767 2d65 00       		.byte	0
 16768 2d66 26       		.uleb128 0x26
 16769 2d67 8C130000 		.4byte	.LVL757
 16770 2d6b A23C0000 		.4byte	0x3ca2
 16771 2d6f 7A2D0000 		.4byte	0x2d7a
 16772 2d73 23       		.uleb128 0x23
 16773 2d74 01       		.uleb128 0x1
 16774 2d75 50       		.byte	0x50
 16775 2d76 02       		.uleb128 0x2
 16776 2d77 74       		.byte	0x74
 16777 2d78 00       		.sleb128 0
 16778 2d79 00       		.byte	0
 16779 2d7a 26       		.uleb128 0x26
 16780 2d7b A6130000 		.4byte	.LVL758
 16781 2d7f A23C0000 		.4byte	0x3ca2
 16782 2d83 8E2D0000 		.4byte	0x2d8e
 16783 2d87 23       		.uleb128 0x23
 16784 2d88 01       		.uleb128 0x1
 16785 2d89 50       		.byte	0x50
 16786 2d8a 02       		.uleb128 0x2
 16787 2d8b 74       		.byte	0x74
 16788 2d8c 00       		.sleb128 0
 16789 2d8d 00       		.byte	0
 16790 2d8e 26       		.uleb128 0x26
 16791 2d8f D2130000 		.4byte	.LVL759
 16792 2d93 A23C0000 		.4byte	0x3ca2
 16793 2d97 A22D0000 		.4byte	0x2da2
 16794 2d9b 23       		.uleb128 0x23
 16795 2d9c 01       		.uleb128 0x1
 16796 2d9d 50       		.byte	0x50
ARM GAS  C:\Users\doug_000\AppData\Local\Temp\ccbaKQF3.s 			page 342


 16797 2d9e 02       		.uleb128 0x2
 16798 2d9f 74       		.byte	0x74
 16799 2da0 00       		.sleb128 0
 16800 2da1 00       		.byte	0
 16801 2da2 26       		.uleb128 0x26
 16802 2da3 EC130000 		.4byte	.LVL760
 16803 2da7 A23C0000 		.4byte	0x3ca2
 16804 2dab B62D0000 		.4byte	0x2db6
 16805 2daf 23       		.uleb128 0x23
 16806 2db0 01       		.uleb128 0x1
 16807 2db1 50       		.byte	0x50
 16808 2db2 02       		.uleb128 0x2
 16809 2db3 74       		.byte	0x74
 16810 2db4 00       		.sleb128 0
 16811 2db5 00       		.byte	0
 16812 2db6 26       		.uleb128 0x26
 16813 2db7 0C140000 		.4byte	.LVL761
 16814 2dbb A23C0000 		.4byte	0x3ca2
 16815 2dbf CA2D0000 		.4byte	0x2dca
 16816 2dc3 23       		.uleb128 0x23
 16817 2dc4 01       		.uleb128 0x1
 16818 2dc5 50       		.byte	0x50
 16819 2dc6 02       		.uleb128 0x2
 16820 2dc7 74       		.byte	0x74
 16821 2dc8 00       		.sleb128 0
 16822 2dc9 00       		.byte	0
 16823 2dca 26       		.uleb128 0x26
 16824 2dcb 26140000 		.4byte	.LVL762
 16825 2dcf A23C0000 		.4byte	0x3ca2
 16826 2dd3 DE2D0000 		.4byte	0x2dde
 16827 2dd7 23       		.uleb128 0x23
 16828 2dd8 01       		.uleb128 0x1
 16829 2dd9 50       		.byte	0x50
 16830 2dda 02       		.uleb128 0x2
 16831 2ddb 74       		.byte	0x74
 16832 2ddc 00       		.sleb128 0
 16833 2ddd 00       		.byte	0
 16834 2dde 26       		.uleb128 0x26
 16835 2ddf 4E140000 		.4byte	.LVL763
 16836 2de3 A23C0000 		.4byte	0x3ca2
 16837 2de7 F22D0000 		.4byte	0x2df2
 16838 2deb 23       		.uleb128 0x23
 16839 2dec 01       		.uleb128 0x1
 16840 2ded 50       		.byte	0x50
 16841 2dee 02       		.uleb128 0x2
 16842 2def 74       		.byte	0x74
 16843 2df0 00       		.sleb128 0
 16844 2df1 00       		.byte	0
 16845 2df2 26       		.uleb128 0x26
 16846 2df3 64140000 		.4byte	.LVL764
 16847 2df7 A23C0000 		.4byte	0x3ca2
 16848 2dfb 062E0000 		.4byte	0x2e06
 16849 2dff 23       		.uleb128 0x23
 16850 2e00 01       		.uleb128 0x1
 16851 2e01 50       		.byte	0x50
 16852 2e02 02       		.uleb128 0x2
 16853 2e03 74       		.byte	0x74
ARM GAS  C:\Users\doug_000\AppData\Local\Temp\ccbaKQF3.s 			page 343


 16854 2e04 00       		.sleb128 0
 16855 2e05 00       		.byte	0
 16856 2e06 26       		.uleb128 0x26
 16857 2e07 84140000 		.4byte	.LVL765
 16858 2e0b A23C0000 		.4byte	0x3ca2
 16859 2e0f 1A2E0000 		.4byte	0x2e1a
 16860 2e13 23       		.uleb128 0x23
 16861 2e14 01       		.uleb128 0x1
 16862 2e15 50       		.byte	0x50
 16863 2e16 02       		.uleb128 0x2
 16864 2e17 74       		.byte	0x74
 16865 2e18 00       		.sleb128 0
 16866 2e19 00       		.byte	0
 16867 2e1a 26       		.uleb128 0x26
 16868 2e1b 9E140000 		.4byte	.LVL766
 16869 2e1f A23C0000 		.4byte	0x3ca2
 16870 2e23 2E2E0000 		.4byte	0x2e2e
 16871 2e27 23       		.uleb128 0x23
 16872 2e28 01       		.uleb128 0x1
 16873 2e29 50       		.byte	0x50
 16874 2e2a 02       		.uleb128 0x2
 16875 2e2b 74       		.byte	0x74
 16876 2e2c 00       		.sleb128 0
 16877 2e2d 00       		.byte	0
 16878 2e2e 26       		.uleb128 0x26
 16879 2e2f C6140000 		.4byte	.LVL767
 16880 2e33 A23C0000 		.4byte	0x3ca2
 16881 2e37 422E0000 		.4byte	0x2e42
 16882 2e3b 23       		.uleb128 0x23
 16883 2e3c 01       		.uleb128 0x1
 16884 2e3d 50       		.byte	0x50
 16885 2e3e 02       		.uleb128 0x2
 16886 2e3f 74       		.byte	0x74
 16887 2e40 00       		.sleb128 0
 16888 2e41 00       		.byte	0
 16889 2e42 26       		.uleb128 0x26
 16890 2e43 EE140000 		.4byte	.LVL768
 16891 2e47 A23C0000 		.4byte	0x3ca2
 16892 2e4b 562E0000 		.4byte	0x2e56
 16893 2e4f 23       		.uleb128 0x23
 16894 2e50 01       		.uleb128 0x1
 16895 2e51 50       		.byte	0x50
 16896 2e52 02       		.uleb128 0x2
 16897 2e53 74       		.byte	0x74
 16898 2e54 00       		.sleb128 0
 16899 2e55 00       		.byte	0
 16900 2e56 26       		.uleb128 0x26
 16901 2e57 1E150000 		.4byte	.LVL769
 16902 2e5b A23C0000 		.4byte	0x3ca2
 16903 2e5f 6A2E0000 		.4byte	0x2e6a
 16904 2e63 23       		.uleb128 0x23
 16905 2e64 01       		.uleb128 0x1
 16906 2e65 50       		.byte	0x50
 16907 2e66 02       		.uleb128 0x2
 16908 2e67 74       		.byte	0x74
 16909 2e68 00       		.sleb128 0
 16910 2e69 00       		.byte	0
ARM GAS  C:\Users\doug_000\AppData\Local\Temp\ccbaKQF3.s 			page 344


 16911 2e6a 26       		.uleb128 0x26
 16912 2e6b 38150000 		.4byte	.LVL770
 16913 2e6f A23C0000 		.4byte	0x3ca2
 16914 2e73 7E2E0000 		.4byte	0x2e7e
 16915 2e77 23       		.uleb128 0x23
 16916 2e78 01       		.uleb128 0x1
 16917 2e79 50       		.byte	0x50
 16918 2e7a 02       		.uleb128 0x2
 16919 2e7b 74       		.byte	0x74
 16920 2e7c 00       		.sleb128 0
 16921 2e7d 00       		.byte	0
 16922 2e7e 26       		.uleb128 0x26
 16923 2e7f 5E150000 		.4byte	.LVL771
 16924 2e83 A23C0000 		.4byte	0x3ca2
 16925 2e87 922E0000 		.4byte	0x2e92
 16926 2e8b 23       		.uleb128 0x23
 16927 2e8c 01       		.uleb128 0x1
 16928 2e8d 50       		.byte	0x50
 16929 2e8e 02       		.uleb128 0x2
 16930 2e8f 74       		.byte	0x74
 16931 2e90 00       		.sleb128 0
 16932 2e91 00       		.byte	0
 16933 2e92 26       		.uleb128 0x26
 16934 2e93 78150000 		.4byte	.LVL772
 16935 2e97 A23C0000 		.4byte	0x3ca2
 16936 2e9b A62E0000 		.4byte	0x2ea6
 16937 2e9f 23       		.uleb128 0x23
 16938 2ea0 01       		.uleb128 0x1
 16939 2ea1 50       		.byte	0x50
 16940 2ea2 02       		.uleb128 0x2
 16941 2ea3 74       		.byte	0x74
 16942 2ea4 00       		.sleb128 0
 16943 2ea5 00       		.byte	0
 16944 2ea6 26       		.uleb128 0x26
 16945 2ea7 A6150000 		.4byte	.LVL773
 16946 2eab A23C0000 		.4byte	0x3ca2
 16947 2eaf BA2E0000 		.4byte	0x2eba
 16948 2eb3 23       		.uleb128 0x23
 16949 2eb4 01       		.uleb128 0x1
 16950 2eb5 50       		.byte	0x50
 16951 2eb6 02       		.uleb128 0x2
 16952 2eb7 74       		.byte	0x74
 16953 2eb8 00       		.sleb128 0
 16954 2eb9 00       		.byte	0
 16955 2eba 26       		.uleb128 0x26
 16956 2ebb D4150000 		.4byte	.LVL774
 16957 2ebf A23C0000 		.4byte	0x3ca2
 16958 2ec3 CE2E0000 		.4byte	0x2ece
 16959 2ec7 23       		.uleb128 0x23
 16960 2ec8 01       		.uleb128 0x1
 16961 2ec9 50       		.byte	0x50
 16962 2eca 02       		.uleb128 0x2
 16963 2ecb 74       		.byte	0x74
 16964 2ecc 00       		.sleb128 0
 16965 2ecd 00       		.byte	0
 16966 2ece 26       		.uleb128 0x26
 16967 2ecf 5E160000 		.4byte	.LVL775
ARM GAS  C:\Users\doug_000\AppData\Local\Temp\ccbaKQF3.s 			page 345


 16968 2ed3 A23C0000 		.4byte	0x3ca2
 16969 2ed7 E22E0000 		.4byte	0x2ee2
 16970 2edb 23       		.uleb128 0x23
 16971 2edc 01       		.uleb128 0x1
 16972 2edd 50       		.byte	0x50
 16973 2ede 02       		.uleb128 0x2
 16974 2edf 74       		.byte	0x74
 16975 2ee0 00       		.sleb128 0
 16976 2ee1 00       		.byte	0
 16977 2ee2 26       		.uleb128 0x26
 16978 2ee3 7C160000 		.4byte	.LVL776
 16979 2ee7 A23C0000 		.4byte	0x3ca2
 16980 2eeb F62E0000 		.4byte	0x2ef6
 16981 2eef 23       		.uleb128 0x23
 16982 2ef0 01       		.uleb128 0x1
 16983 2ef1 50       		.byte	0x50
 16984 2ef2 02       		.uleb128 0x2
 16985 2ef3 74       		.byte	0x74
 16986 2ef4 00       		.sleb128 0
 16987 2ef5 00       		.byte	0
 16988 2ef6 26       		.uleb128 0x26
 16989 2ef7 A6160000 		.4byte	.LVL777
 16990 2efb A23C0000 		.4byte	0x3ca2
 16991 2eff 0A2F0000 		.4byte	0x2f0a
 16992 2f03 23       		.uleb128 0x23
 16993 2f04 01       		.uleb128 0x1
 16994 2f05 50       		.byte	0x50
 16995 2f06 02       		.uleb128 0x2
 16996 2f07 74       		.byte	0x74
 16997 2f08 00       		.sleb128 0
 16998 2f09 00       		.byte	0
 16999 2f0a 26       		.uleb128 0x26
 17000 2f0b C8160000 		.4byte	.LVL778
 17001 2f0f A23C0000 		.4byte	0x3ca2
 17002 2f13 1E2F0000 		.4byte	0x2f1e
 17003 2f17 23       		.uleb128 0x23
 17004 2f18 01       		.uleb128 0x1
 17005 2f19 50       		.byte	0x50
 17006 2f1a 02       		.uleb128 0x2
 17007 2f1b 74       		.byte	0x74
 17008 2f1c 00       		.sleb128 0
 17009 2f1d 00       		.byte	0
 17010 2f1e 26       		.uleb128 0x26
 17011 2f1f F8160000 		.4byte	.LVL779
 17012 2f23 A23C0000 		.4byte	0x3ca2
 17013 2f27 322F0000 		.4byte	0x2f32
 17014 2f2b 23       		.uleb128 0x23
 17015 2f2c 01       		.uleb128 0x1
 17016 2f2d 50       		.byte	0x50
 17017 2f2e 02       		.uleb128 0x2
 17018 2f2f 74       		.byte	0x74
 17019 2f30 00       		.sleb128 0
 17020 2f31 00       		.byte	0
 17021 2f32 26       		.uleb128 0x26
 17022 2f33 1A170000 		.4byte	.LVL780
 17023 2f37 A23C0000 		.4byte	0x3ca2
 17024 2f3b 462F0000 		.4byte	0x2f46
ARM GAS  C:\Users\doug_000\AppData\Local\Temp\ccbaKQF3.s 			page 346


 17025 2f3f 23       		.uleb128 0x23
 17026 2f40 01       		.uleb128 0x1
 17027 2f41 50       		.byte	0x50
 17028 2f42 02       		.uleb128 0x2
 17029 2f43 74       		.byte	0x74
 17030 2f44 00       		.sleb128 0
 17031 2f45 00       		.byte	0
 17032 2f46 26       		.uleb128 0x26
 17033 2f47 3A170000 		.4byte	.LVL781
 17034 2f4b A23C0000 		.4byte	0x3ca2
 17035 2f4f 5A2F0000 		.4byte	0x2f5a
 17036 2f53 23       		.uleb128 0x23
 17037 2f54 01       		.uleb128 0x1
 17038 2f55 50       		.byte	0x50
 17039 2f56 02       		.uleb128 0x2
 17040 2f57 74       		.byte	0x74
 17041 2f58 00       		.sleb128 0
 17042 2f59 00       		.byte	0
 17043 2f5a 26       		.uleb128 0x26
 17044 2f5b 58170000 		.4byte	.LVL782
 17045 2f5f A23C0000 		.4byte	0x3ca2
 17046 2f63 6E2F0000 		.4byte	0x2f6e
 17047 2f67 23       		.uleb128 0x23
 17048 2f68 01       		.uleb128 0x1
 17049 2f69 50       		.byte	0x50
 17050 2f6a 02       		.uleb128 0x2
 17051 2f6b 74       		.byte	0x74
 17052 2f6c 00       		.sleb128 0
 17053 2f6d 00       		.byte	0
 17054 2f6e 26       		.uleb128 0x26
 17055 2f6f 8E170000 		.4byte	.LVL783
 17056 2f73 A23C0000 		.4byte	0x3ca2
 17057 2f77 822F0000 		.4byte	0x2f82
 17058 2f7b 23       		.uleb128 0x23
 17059 2f7c 01       		.uleb128 0x1
 17060 2f7d 50       		.byte	0x50
 17061 2f7e 02       		.uleb128 0x2
 17062 2f7f 74       		.byte	0x74
 17063 2f80 00       		.sleb128 0
 17064 2f81 00       		.byte	0
 17065 2f82 26       		.uleb128 0x26
 17066 2f83 B0170000 		.4byte	.LVL784
 17067 2f87 A23C0000 		.4byte	0x3ca2
 17068 2f8b 962F0000 		.4byte	0x2f96
 17069 2f8f 23       		.uleb128 0x23
 17070 2f90 01       		.uleb128 0x1
 17071 2f91 50       		.byte	0x50
 17072 2f92 02       		.uleb128 0x2
 17073 2f93 74       		.byte	0x74
 17074 2f94 00       		.sleb128 0
 17075 2f95 00       		.byte	0
 17076 2f96 26       		.uleb128 0x26
 17077 2f97 D0170000 		.4byte	.LVL785
 17078 2f9b A23C0000 		.4byte	0x3ca2
 17079 2f9f AA2F0000 		.4byte	0x2faa
 17080 2fa3 23       		.uleb128 0x23
 17081 2fa4 01       		.uleb128 0x1
ARM GAS  C:\Users\doug_000\AppData\Local\Temp\ccbaKQF3.s 			page 347


 17082 2fa5 50       		.byte	0x50
 17083 2fa6 02       		.uleb128 0x2
 17084 2fa7 74       		.byte	0x74
 17085 2fa8 00       		.sleb128 0
 17086 2fa9 00       		.byte	0
 17087 2faa 26       		.uleb128 0x26
 17088 2fab EE170000 		.4byte	.LVL786
 17089 2faf A23C0000 		.4byte	0x3ca2
 17090 2fb3 BE2F0000 		.4byte	0x2fbe
 17091 2fb7 23       		.uleb128 0x23
 17092 2fb8 01       		.uleb128 0x1
 17093 2fb9 50       		.byte	0x50
 17094 2fba 02       		.uleb128 0x2
 17095 2fbb 74       		.byte	0x74
 17096 2fbc 00       		.sleb128 0
 17097 2fbd 00       		.byte	0
 17098 2fbe 26       		.uleb128 0x26
 17099 2fbf 0E180000 		.4byte	.LVL787
 17100 2fc3 A23C0000 		.4byte	0x3ca2
 17101 2fc7 D22F0000 		.4byte	0x2fd2
 17102 2fcb 23       		.uleb128 0x23
 17103 2fcc 01       		.uleb128 0x1
 17104 2fcd 50       		.byte	0x50
 17105 2fce 02       		.uleb128 0x2
 17106 2fcf 74       		.byte	0x74
 17107 2fd0 00       		.sleb128 0
 17108 2fd1 00       		.byte	0
 17109 2fd2 26       		.uleb128 0x26
 17110 2fd3 28180000 		.4byte	.LVL788
 17111 2fd7 A23C0000 		.4byte	0x3ca2
 17112 2fdb E62F0000 		.4byte	0x2fe6
 17113 2fdf 23       		.uleb128 0x23
 17114 2fe0 01       		.uleb128 0x1
 17115 2fe1 50       		.byte	0x50
 17116 2fe2 02       		.uleb128 0x2
 17117 2fe3 74       		.byte	0x74
 17118 2fe4 00       		.sleb128 0
 17119 2fe5 00       		.byte	0
 17120 2fe6 26       		.uleb128 0x26
 17121 2fe7 4A180000 		.4byte	.LVL789
 17122 2feb A23C0000 		.4byte	0x3ca2
 17123 2fef FA2F0000 		.4byte	0x2ffa
 17124 2ff3 23       		.uleb128 0x23
 17125 2ff4 01       		.uleb128 0x1
 17126 2ff5 50       		.byte	0x50
 17127 2ff6 02       		.uleb128 0x2
 17128 2ff7 74       		.byte	0x74
 17129 2ff8 00       		.sleb128 0
 17130 2ff9 00       		.byte	0
 17131 2ffa 26       		.uleb128 0x26
 17132 2ffb 54180000 		.4byte	.LVL790
 17133 2fff BB3C0000 		.4byte	0x3cbb
 17134 3003 17300000 		.4byte	0x3017
 17135 3007 23       		.uleb128 0x23
 17136 3008 01       		.uleb128 0x1
 17137 3009 52       		.byte	0x52
 17138 300a 02       		.uleb128 0x2
ARM GAS  C:\Users\doug_000\AppData\Local\Temp\ccbaKQF3.s 			page 348


 17139 300b 08       		.byte	0x8
 17140 300c 41       		.byte	0x41
 17141 300d 23       		.uleb128 0x23
 17142 300e 01       		.uleb128 0x1
 17143 300f 51       		.byte	0x51
 17144 3010 05       		.uleb128 0x5
 17145 3011 03       		.byte	0x3
 17146 3012 AC180000 		.4byte	.LC192
 17147 3016 00       		.byte	0
 17148 3017 26       		.uleb128 0x26
 17149 3018 5A180000 		.4byte	.LVL791
 17150 301c A23C0000 		.4byte	0x3ca2
 17151 3020 2B300000 		.4byte	0x302b
 17152 3024 23       		.uleb128 0x23
 17153 3025 01       		.uleb128 0x1
 17154 3026 50       		.byte	0x50
 17155 3027 02       		.uleb128 0x2
 17156 3028 74       		.byte	0x74
 17157 3029 00       		.sleb128 0
 17158 302a 00       		.byte	0
 17159 302b 26       		.uleb128 0x26
 17160 302c 7C180000 		.4byte	.LVL792
 17161 3030 A23C0000 		.4byte	0x3ca2
 17162 3034 3F300000 		.4byte	0x303f
 17163 3038 23       		.uleb128 0x23
 17164 3039 01       		.uleb128 0x1
 17165 303a 50       		.byte	0x50
 17166 303b 02       		.uleb128 0x2
 17167 303c 74       		.byte	0x74
 17168 303d 00       		.sleb128 0
 17169 303e 00       		.byte	0
 17170 303f 26       		.uleb128 0x26
 17171 3040 9C180000 		.4byte	.LVL793
 17172 3044 A23C0000 		.4byte	0x3ca2
 17173 3048 53300000 		.4byte	0x3053
 17174 304c 23       		.uleb128 0x23
 17175 304d 01       		.uleb128 0x1
 17176 304e 50       		.byte	0x50
 17177 304f 02       		.uleb128 0x2
 17178 3050 74       		.byte	0x74
 17179 3051 00       		.sleb128 0
 17180 3052 00       		.byte	0
 17181 3053 26       		.uleb128 0x26
 17182 3054 BA180000 		.4byte	.LVL794
 17183 3058 A23C0000 		.4byte	0x3ca2
 17184 305c 67300000 		.4byte	0x3067
 17185 3060 23       		.uleb128 0x23
 17186 3061 01       		.uleb128 0x1
 17187 3062 50       		.byte	0x50
 17188 3063 02       		.uleb128 0x2
 17189 3064 74       		.byte	0x74
 17190 3065 00       		.sleb128 0
 17191 3066 00       		.byte	0
 17192 3067 26       		.uleb128 0x26
 17193 3068 C4180000 		.4byte	.LVL795
 17194 306c BB3C0000 		.4byte	0x3cbb
 17195 3070 84300000 		.4byte	0x3084
ARM GAS  C:\Users\doug_000\AppData\Local\Temp\ccbaKQF3.s 			page 349


 17196 3074 23       		.uleb128 0x23
 17197 3075 01       		.uleb128 0x1
 17198 3076 52       		.byte	0x52
 17199 3077 02       		.uleb128 0x2
 17200 3078 08       		.byte	0x8
 17201 3079 42       		.byte	0x42
 17202 307a 23       		.uleb128 0x23
 17203 307b 01       		.uleb128 0x1
 17204 307c 51       		.byte	0x51
 17205 307d 05       		.uleb128 0x5
 17206 307e 03       		.byte	0x3
 17207 307f 48190000 		.4byte	.LC196
 17208 3083 00       		.byte	0
 17209 3084 26       		.uleb128 0x26
 17210 3085 CA180000 		.4byte	.LVL796
 17211 3089 A23C0000 		.4byte	0x3ca2
 17212 308d 98300000 		.4byte	0x3098
 17213 3091 23       		.uleb128 0x23
 17214 3092 01       		.uleb128 0x1
 17215 3093 50       		.byte	0x50
 17216 3094 02       		.uleb128 0x2
 17217 3095 74       		.byte	0x74
 17218 3096 00       		.sleb128 0
 17219 3097 00       		.byte	0
 17220 3098 26       		.uleb128 0x26
 17221 3099 F0180000 		.4byte	.LVL797
 17222 309d A23C0000 		.4byte	0x3ca2
 17223 30a1 AC300000 		.4byte	0x30ac
 17224 30a5 23       		.uleb128 0x23
 17225 30a6 01       		.uleb128 0x1
 17226 30a7 50       		.byte	0x50
 17227 30a8 02       		.uleb128 0x2
 17228 30a9 74       		.byte	0x74
 17229 30aa 00       		.sleb128 0
 17230 30ab 00       		.byte	0
 17231 30ac 26       		.uleb128 0x26
 17232 30ad 10190000 		.4byte	.LVL798
 17233 30b1 A23C0000 		.4byte	0x3ca2
 17234 30b5 C0300000 		.4byte	0x30c0
 17235 30b9 23       		.uleb128 0x23
 17236 30ba 01       		.uleb128 0x1
 17237 30bb 50       		.byte	0x50
 17238 30bc 02       		.uleb128 0x2
 17239 30bd 74       		.byte	0x74
 17240 30be 00       		.sleb128 0
 17241 30bf 00       		.byte	0
 17242 30c0 26       		.uleb128 0x26
 17243 30c1 2E190000 		.4byte	.LVL799
 17244 30c5 A23C0000 		.4byte	0x3ca2
 17245 30c9 D4300000 		.4byte	0x30d4
 17246 30cd 23       		.uleb128 0x23
 17247 30ce 01       		.uleb128 0x1
 17248 30cf 50       		.byte	0x50
 17249 30d0 02       		.uleb128 0x2
 17250 30d1 74       		.byte	0x74
 17251 30d2 00       		.sleb128 0
 17252 30d3 00       		.byte	0
ARM GAS  C:\Users\doug_000\AppData\Local\Temp\ccbaKQF3.s 			page 350


 17253 30d4 26       		.uleb128 0x26
 17254 30d5 4E190000 		.4byte	.LVL800
 17255 30d9 A23C0000 		.4byte	0x3ca2
 17256 30dd E8300000 		.4byte	0x30e8
 17257 30e1 23       		.uleb128 0x23
 17258 30e2 01       		.uleb128 0x1
 17259 30e3 50       		.byte	0x50
 17260 30e4 02       		.uleb128 0x2
 17261 30e5 74       		.byte	0x74
 17262 30e6 00       		.sleb128 0
 17263 30e7 00       		.byte	0
 17264 30e8 26       		.uleb128 0x26
 17265 30e9 68190000 		.4byte	.LVL801
 17266 30ed A23C0000 		.4byte	0x3ca2
 17267 30f1 FC300000 		.4byte	0x30fc
 17268 30f5 23       		.uleb128 0x23
 17269 30f6 01       		.uleb128 0x1
 17270 30f7 50       		.byte	0x50
 17271 30f8 02       		.uleb128 0x2
 17272 30f9 74       		.byte	0x74
 17273 30fa 00       		.sleb128 0
 17274 30fb 00       		.byte	0
 17275 30fc 26       		.uleb128 0x26
 17276 30fd 041A0000 		.4byte	.LVL802
 17277 3101 A23C0000 		.4byte	0x3ca2
 17278 3105 10310000 		.4byte	0x3110
 17279 3109 23       		.uleb128 0x23
 17280 310a 01       		.uleb128 0x1
 17281 310b 50       		.byte	0x50
 17282 310c 02       		.uleb128 0x2
 17283 310d 74       		.byte	0x74
 17284 310e 00       		.sleb128 0
 17285 310f 00       		.byte	0
 17286 3110 26       		.uleb128 0x26
 17287 3111 1A1A0000 		.4byte	.LVL803
 17288 3115 A23C0000 		.4byte	0x3ca2
 17289 3119 24310000 		.4byte	0x3124
 17290 311d 23       		.uleb128 0x23
 17291 311e 01       		.uleb128 0x1
 17292 311f 50       		.byte	0x50
 17293 3120 02       		.uleb128 0x2
 17294 3121 74       		.byte	0x74
 17295 3122 00       		.sleb128 0
 17296 3123 00       		.byte	0
 17297 3124 26       		.uleb128 0x26
 17298 3125 4A1A0000 		.4byte	.LVL804
 17299 3129 A23C0000 		.4byte	0x3ca2
 17300 312d 38310000 		.4byte	0x3138
 17301 3131 23       		.uleb128 0x23
 17302 3132 01       		.uleb128 0x1
 17303 3133 50       		.byte	0x50
 17304 3134 02       		.uleb128 0x2
 17305 3135 74       		.byte	0x74
 17306 3136 00       		.sleb128 0
 17307 3137 00       		.byte	0
 17308 3138 26       		.uleb128 0x26
 17309 3139 601A0000 		.4byte	.LVL805
ARM GAS  C:\Users\doug_000\AppData\Local\Temp\ccbaKQF3.s 			page 351


 17310 313d A23C0000 		.4byte	0x3ca2
 17311 3141 4C310000 		.4byte	0x314c
 17312 3145 23       		.uleb128 0x23
 17313 3146 01       		.uleb128 0x1
 17314 3147 50       		.byte	0x50
 17315 3148 02       		.uleb128 0x2
 17316 3149 74       		.byte	0x74
 17317 314a 00       		.sleb128 0
 17318 314b 00       		.byte	0
 17319 314c 26       		.uleb128 0x26
 17320 314d 881A0000 		.4byte	.LVL806
 17321 3151 A23C0000 		.4byte	0x3ca2
 17322 3155 60310000 		.4byte	0x3160
 17323 3159 23       		.uleb128 0x23
 17324 315a 01       		.uleb128 0x1
 17325 315b 50       		.byte	0x50
 17326 315c 02       		.uleb128 0x2
 17327 315d 74       		.byte	0x74
 17328 315e 00       		.sleb128 0
 17329 315f 00       		.byte	0
 17330 3160 26       		.uleb128 0x26
 17331 3161 B41A0000 		.4byte	.LVL807
 17332 3165 A23C0000 		.4byte	0x3ca2
 17333 3169 74310000 		.4byte	0x3174
 17334 316d 23       		.uleb128 0x23
 17335 316e 01       		.uleb128 0x1
 17336 316f 50       		.byte	0x50
 17337 3170 02       		.uleb128 0x2
 17338 3171 74       		.byte	0x74
 17339 3172 00       		.sleb128 0
 17340 3173 00       		.byte	0
 17341 3174 26       		.uleb128 0x26
 17342 3175 CA1A0000 		.4byte	.LVL808
 17343 3179 A23C0000 		.4byte	0x3ca2
 17344 317d 88310000 		.4byte	0x3188
 17345 3181 23       		.uleb128 0x23
 17346 3182 01       		.uleb128 0x1
 17347 3183 50       		.byte	0x50
 17348 3184 02       		.uleb128 0x2
 17349 3185 74       		.byte	0x74
 17350 3186 00       		.sleb128 0
 17351 3187 00       		.byte	0
 17352 3188 26       		.uleb128 0x26
 17353 3189 EA1A0000 		.4byte	.LVL809
 17354 318d A23C0000 		.4byte	0x3ca2
 17355 3191 9C310000 		.4byte	0x319c
 17356 3195 23       		.uleb128 0x23
 17357 3196 01       		.uleb128 0x1
 17358 3197 50       		.byte	0x50
 17359 3198 02       		.uleb128 0x2
 17360 3199 74       		.byte	0x74
 17361 319a 00       		.sleb128 0
 17362 319b 00       		.byte	0
 17363 319c 26       		.uleb128 0x26
 17364 319d 0C1B0000 		.4byte	.LVL810
 17365 31a1 A23C0000 		.4byte	0x3ca2
 17366 31a5 B0310000 		.4byte	0x31b0
ARM GAS  C:\Users\doug_000\AppData\Local\Temp\ccbaKQF3.s 			page 352


 17367 31a9 23       		.uleb128 0x23
 17368 31aa 01       		.uleb128 0x1
 17369 31ab 50       		.byte	0x50
 17370 31ac 02       		.uleb128 0x2
 17371 31ad 74       		.byte	0x74
 17372 31ae 00       		.sleb128 0
 17373 31af 00       		.byte	0
 17374 31b0 26       		.uleb128 0x26
 17375 31b1 221B0000 		.4byte	.LVL811
 17376 31b5 A23C0000 		.4byte	0x3ca2
 17377 31b9 C4310000 		.4byte	0x31c4
 17378 31bd 23       		.uleb128 0x23
 17379 31be 01       		.uleb128 0x1
 17380 31bf 50       		.byte	0x50
 17381 31c0 02       		.uleb128 0x2
 17382 31c1 74       		.byte	0x74
 17383 31c2 00       		.sleb128 0
 17384 31c3 00       		.byte	0
 17385 31c4 26       		.uleb128 0x26
 17386 31c5 421B0000 		.4byte	.LVL812
 17387 31c9 A23C0000 		.4byte	0x3ca2
 17388 31cd D8310000 		.4byte	0x31d8
 17389 31d1 23       		.uleb128 0x23
 17390 31d2 01       		.uleb128 0x1
 17391 31d3 50       		.byte	0x50
 17392 31d4 02       		.uleb128 0x2
 17393 31d5 74       		.byte	0x74
 17394 31d6 00       		.sleb128 0
 17395 31d7 00       		.byte	0
 17396 31d8 26       		.uleb128 0x26
 17397 31d9 621B0000 		.4byte	.LVL813
 17398 31dd A23C0000 		.4byte	0x3ca2
 17399 31e1 EC310000 		.4byte	0x31ec
 17400 31e5 23       		.uleb128 0x23
 17401 31e6 01       		.uleb128 0x1
 17402 31e7 50       		.byte	0x50
 17403 31e8 02       		.uleb128 0x2
 17404 31e9 74       		.byte	0x74
 17405 31ea 00       		.sleb128 0
 17406 31eb 00       		.byte	0
 17407 31ec 26       		.uleb128 0x26
 17408 31ed 8E1B0000 		.4byte	.LVL814
 17409 31f1 A23C0000 		.4byte	0x3ca2
 17410 31f5 00320000 		.4byte	0x3200
 17411 31f9 23       		.uleb128 0x23
 17412 31fa 01       		.uleb128 0x1
 17413 31fb 50       		.byte	0x50
 17414 31fc 02       		.uleb128 0x2
 17415 31fd 74       		.byte	0x74
 17416 31fe 00       		.sleb128 0
 17417 31ff 00       		.byte	0
 17418 3200 26       		.uleb128 0x26
 17419 3201 AE1B0000 		.4byte	.LVL815
 17420 3205 A23C0000 		.4byte	0x3ca2
 17421 3209 14320000 		.4byte	0x3214
 17422 320d 23       		.uleb128 0x23
 17423 320e 01       		.uleb128 0x1
ARM GAS  C:\Users\doug_000\AppData\Local\Temp\ccbaKQF3.s 			page 353


 17424 320f 50       		.byte	0x50
 17425 3210 02       		.uleb128 0x2
 17426 3211 74       		.byte	0x74
 17427 3212 00       		.sleb128 0
 17428 3213 00       		.byte	0
 17429 3214 26       		.uleb128 0x26
 17430 3215 CE1B0000 		.4byte	.LVL816
 17431 3219 A23C0000 		.4byte	0x3ca2
 17432 321d 28320000 		.4byte	0x3228
 17433 3221 23       		.uleb128 0x23
 17434 3222 01       		.uleb128 0x1
 17435 3223 50       		.byte	0x50
 17436 3224 02       		.uleb128 0x2
 17437 3225 74       		.byte	0x74
 17438 3226 00       		.sleb128 0
 17439 3227 00       		.byte	0
 17440 3228 26       		.uleb128 0x26
 17441 3229 FA1B0000 		.4byte	.LVL817
 17442 322d A23C0000 		.4byte	0x3ca2
 17443 3231 3C320000 		.4byte	0x323c
 17444 3235 23       		.uleb128 0x23
 17445 3236 01       		.uleb128 0x1
 17446 3237 50       		.byte	0x50
 17447 3238 02       		.uleb128 0x2
 17448 3239 74       		.byte	0x74
 17449 323a 00       		.sleb128 0
 17450 323b 00       		.byte	0
 17451 323c 26       		.uleb128 0x26
 17452 323d 181C0000 		.4byte	.LVL818
 17453 3241 A23C0000 		.4byte	0x3ca2
 17454 3245 50320000 		.4byte	0x3250
 17455 3249 23       		.uleb128 0x23
 17456 324a 01       		.uleb128 0x1
 17457 324b 50       		.byte	0x50
 17458 324c 02       		.uleb128 0x2
 17459 324d 74       		.byte	0x74
 17460 324e 00       		.sleb128 0
 17461 324f 00       		.byte	0
 17462 3250 26       		.uleb128 0x26
 17463 3251 401C0000 		.4byte	.LVL819
 17464 3255 A23C0000 		.4byte	0x3ca2
 17465 3259 64320000 		.4byte	0x3264
 17466 325d 23       		.uleb128 0x23
 17467 325e 01       		.uleb128 0x1
 17468 325f 50       		.byte	0x50
 17469 3260 02       		.uleb128 0x2
 17470 3261 74       		.byte	0x74
 17471 3262 00       		.sleb128 0
 17472 3263 00       		.byte	0
 17473 3264 26       		.uleb128 0x26
 17474 3265 601C0000 		.4byte	.LVL820
 17475 3269 A23C0000 		.4byte	0x3ca2
 17476 326d 78320000 		.4byte	0x3278
 17477 3271 23       		.uleb128 0x23
 17478 3272 01       		.uleb128 0x1
 17479 3273 50       		.byte	0x50
 17480 3274 02       		.uleb128 0x2
ARM GAS  C:\Users\doug_000\AppData\Local\Temp\ccbaKQF3.s 			page 354


 17481 3275 74       		.byte	0x74
 17482 3276 00       		.sleb128 0
 17483 3277 00       		.byte	0
 17484 3278 26       		.uleb128 0x26
 17485 3279 8E1C0000 		.4byte	.LVL821
 17486 327d A23C0000 		.4byte	0x3ca2
 17487 3281 8C320000 		.4byte	0x328c
 17488 3285 23       		.uleb128 0x23
 17489 3286 01       		.uleb128 0x1
 17490 3287 50       		.byte	0x50
 17491 3288 02       		.uleb128 0x2
 17492 3289 74       		.byte	0x74
 17493 328a 00       		.sleb128 0
 17494 328b 00       		.byte	0
 17495 328c 26       		.uleb128 0x26
 17496 328d B21C0000 		.4byte	.LVL822
 17497 3291 A23C0000 		.4byte	0x3ca2
 17498 3295 A0320000 		.4byte	0x32a0
 17499 3299 23       		.uleb128 0x23
 17500 329a 01       		.uleb128 0x1
 17501 329b 50       		.byte	0x50
 17502 329c 02       		.uleb128 0x2
 17503 329d 74       		.byte	0x74
 17504 329e 00       		.sleb128 0
 17505 329f 00       		.byte	0
 17506 32a0 26       		.uleb128 0x26
 17507 32a1 D61C0000 		.4byte	.LVL823
 17508 32a5 A23C0000 		.4byte	0x3ca2
 17509 32a9 B4320000 		.4byte	0x32b4
 17510 32ad 23       		.uleb128 0x23
 17511 32ae 01       		.uleb128 0x1
 17512 32af 50       		.byte	0x50
 17513 32b0 02       		.uleb128 0x2
 17514 32b1 74       		.byte	0x74
 17515 32b2 00       		.sleb128 0
 17516 32b3 00       		.byte	0
 17517 32b4 26       		.uleb128 0x26
 17518 32b5 FA1C0000 		.4byte	.LVL824
 17519 32b9 A23C0000 		.4byte	0x3ca2
 17520 32bd C8320000 		.4byte	0x32c8
 17521 32c1 23       		.uleb128 0x23
 17522 32c2 01       		.uleb128 0x1
 17523 32c3 50       		.byte	0x50
 17524 32c4 02       		.uleb128 0x2
 17525 32c5 74       		.byte	0x74
 17526 32c6 00       		.sleb128 0
 17527 32c7 00       		.byte	0
 17528 32c8 26       		.uleb128 0x26
 17529 32c9 1E1D0000 		.4byte	.LVL825
 17530 32cd A23C0000 		.4byte	0x3ca2
 17531 32d1 DC320000 		.4byte	0x32dc
 17532 32d5 23       		.uleb128 0x23
 17533 32d6 01       		.uleb128 0x1
 17534 32d7 50       		.byte	0x50
 17535 32d8 02       		.uleb128 0x2
 17536 32d9 74       		.byte	0x74
 17537 32da 00       		.sleb128 0
ARM GAS  C:\Users\doug_000\AppData\Local\Temp\ccbaKQF3.s 			page 355


 17538 32db 00       		.byte	0
 17539 32dc 26       		.uleb128 0x26
 17540 32dd A81D0000 		.4byte	.LVL826
 17541 32e1 A23C0000 		.4byte	0x3ca2
 17542 32e5 F0320000 		.4byte	0x32f0
 17543 32e9 23       		.uleb128 0x23
 17544 32ea 01       		.uleb128 0x1
 17545 32eb 50       		.byte	0x50
 17546 32ec 02       		.uleb128 0x2
 17547 32ed 74       		.byte	0x74
 17548 32ee 00       		.sleb128 0
 17549 32ef 00       		.byte	0
 17550 32f0 26       		.uleb128 0x26
 17551 32f1 DA1D0000 		.4byte	.LVL827
 17552 32f5 A23C0000 		.4byte	0x3ca2
 17553 32f9 04330000 		.4byte	0x3304
 17554 32fd 23       		.uleb128 0x23
 17555 32fe 01       		.uleb128 0x1
 17556 32ff 50       		.byte	0x50
 17557 3300 02       		.uleb128 0x2
 17558 3301 74       		.byte	0x74
 17559 3302 00       		.sleb128 0
 17560 3303 00       		.byte	0
 17561 3304 26       		.uleb128 0x26
 17562 3305 FA1D0000 		.4byte	.LVL828
 17563 3309 A23C0000 		.4byte	0x3ca2
 17564 330d 18330000 		.4byte	0x3318
 17565 3311 23       		.uleb128 0x23
 17566 3312 01       		.uleb128 0x1
 17567 3313 50       		.byte	0x50
 17568 3314 02       		.uleb128 0x2
 17569 3315 74       		.byte	0x74
 17570 3316 00       		.sleb128 0
 17571 3317 00       		.byte	0
 17572 3318 26       		.uleb128 0x26
 17573 3319 1A1E0000 		.4byte	.LVL829
 17574 331d A23C0000 		.4byte	0x3ca2
 17575 3321 2C330000 		.4byte	0x332c
 17576 3325 23       		.uleb128 0x23
 17577 3326 01       		.uleb128 0x1
 17578 3327 50       		.byte	0x50
 17579 3328 02       		.uleb128 0x2
 17580 3329 74       		.byte	0x74
 17581 332a 00       		.sleb128 0
 17582 332b 00       		.byte	0
 17583 332c 26       		.uleb128 0x26
 17584 332d 4C1E0000 		.4byte	.LVL830
 17585 3331 A23C0000 		.4byte	0x3ca2
 17586 3335 40330000 		.4byte	0x3340
 17587 3339 23       		.uleb128 0x23
 17588 333a 01       		.uleb128 0x1
 17589 333b 50       		.byte	0x50
 17590 333c 02       		.uleb128 0x2
 17591 333d 74       		.byte	0x74
 17592 333e 00       		.sleb128 0
 17593 333f 00       		.byte	0
 17594 3340 26       		.uleb128 0x26
ARM GAS  C:\Users\doug_000\AppData\Local\Temp\ccbaKQF3.s 			page 356


 17595 3341 701E0000 		.4byte	.LVL831
 17596 3345 A23C0000 		.4byte	0x3ca2
 17597 3349 54330000 		.4byte	0x3354
 17598 334d 23       		.uleb128 0x23
 17599 334e 01       		.uleb128 0x1
 17600 334f 50       		.byte	0x50
 17601 3350 02       		.uleb128 0x2
 17602 3351 74       		.byte	0x74
 17603 3352 00       		.sleb128 0
 17604 3353 00       		.byte	0
 17605 3354 26       		.uleb128 0x26
 17606 3355 941E0000 		.4byte	.LVL832
 17607 3359 A23C0000 		.4byte	0x3ca2
 17608 335d 68330000 		.4byte	0x3368
 17609 3361 23       		.uleb128 0x23
 17610 3362 01       		.uleb128 0x1
 17611 3363 50       		.byte	0x50
 17612 3364 02       		.uleb128 0x2
 17613 3365 74       		.byte	0x74
 17614 3366 00       		.sleb128 0
 17615 3367 00       		.byte	0
 17616 3368 26       		.uleb128 0x26
 17617 3369 AA1E0000 		.4byte	.LVL833
 17618 336d A23C0000 		.4byte	0x3ca2
 17619 3371 7C330000 		.4byte	0x337c
 17620 3375 23       		.uleb128 0x23
 17621 3376 01       		.uleb128 0x1
 17622 3377 50       		.byte	0x50
 17623 3378 02       		.uleb128 0x2
 17624 3379 74       		.byte	0x74
 17625 337a 00       		.sleb128 0
 17626 337b 00       		.byte	0
 17627 337c 26       		.uleb128 0x26
 17628 337d DA1E0000 		.4byte	.LVL834
 17629 3381 A23C0000 		.4byte	0x3ca2
 17630 3385 90330000 		.4byte	0x3390
 17631 3389 23       		.uleb128 0x23
 17632 338a 01       		.uleb128 0x1
 17633 338b 50       		.byte	0x50
 17634 338c 02       		.uleb128 0x2
 17635 338d 74       		.byte	0x74
 17636 338e 00       		.sleb128 0
 17637 338f 00       		.byte	0
 17638 3390 26       		.uleb128 0x26
 17639 3391 FA1E0000 		.4byte	.LVL835
 17640 3395 A23C0000 		.4byte	0x3ca2
 17641 3399 A4330000 		.4byte	0x33a4
 17642 339d 23       		.uleb128 0x23
 17643 339e 01       		.uleb128 0x1
 17644 339f 50       		.byte	0x50
 17645 33a0 02       		.uleb128 0x2
 17646 33a1 74       		.byte	0x74
 17647 33a2 00       		.sleb128 0
 17648 33a3 00       		.byte	0
 17649 33a4 26       		.uleb128 0x26
 17650 33a5 1A1F0000 		.4byte	.LVL836
 17651 33a9 A23C0000 		.4byte	0x3ca2
ARM GAS  C:\Users\doug_000\AppData\Local\Temp\ccbaKQF3.s 			page 357


 17652 33ad B8330000 		.4byte	0x33b8
 17653 33b1 23       		.uleb128 0x23
 17654 33b2 01       		.uleb128 0x1
 17655 33b3 50       		.byte	0x50
 17656 33b4 02       		.uleb128 0x2
 17657 33b5 74       		.byte	0x74
 17658 33b6 00       		.sleb128 0
 17659 33b7 00       		.byte	0
 17660 33b8 26       		.uleb128 0x26
 17661 33b9 461F0000 		.4byte	.LVL837
 17662 33bd A23C0000 		.4byte	0x3ca2
 17663 33c1 CC330000 		.4byte	0x33cc
 17664 33c5 23       		.uleb128 0x23
 17665 33c6 01       		.uleb128 0x1
 17666 33c7 50       		.byte	0x50
 17667 33c8 02       		.uleb128 0x2
 17668 33c9 74       		.byte	0x74
 17669 33ca 00       		.sleb128 0
 17670 33cb 00       		.byte	0
 17671 33cc 26       		.uleb128 0x26
 17672 33cd 5C1F0000 		.4byte	.LVL838
 17673 33d1 A23C0000 		.4byte	0x3ca2
 17674 33d5 E0330000 		.4byte	0x33e0
 17675 33d9 23       		.uleb128 0x23
 17676 33da 01       		.uleb128 0x1
 17677 33db 50       		.byte	0x50
 17678 33dc 02       		.uleb128 0x2
 17679 33dd 74       		.byte	0x74
 17680 33de 00       		.sleb128 0
 17681 33df 00       		.byte	0
 17682 33e0 26       		.uleb128 0x26
 17683 33e1 8E1F0000 		.4byte	.LVL839
 17684 33e5 A23C0000 		.4byte	0x3ca2
 17685 33e9 F4330000 		.4byte	0x33f4
 17686 33ed 23       		.uleb128 0x23
 17687 33ee 01       		.uleb128 0x1
 17688 33ef 50       		.byte	0x50
 17689 33f0 02       		.uleb128 0x2
 17690 33f1 74       		.byte	0x74
 17691 33f2 00       		.sleb128 0
 17692 33f3 00       		.byte	0
 17693 33f4 26       		.uleb128 0x26
 17694 33f5 BA1F0000 		.4byte	.LVL840
 17695 33f9 A23C0000 		.4byte	0x3ca2
 17696 33fd 08340000 		.4byte	0x3408
 17697 3401 23       		.uleb128 0x23
 17698 3402 01       		.uleb128 0x1
 17699 3403 50       		.byte	0x50
 17700 3404 02       		.uleb128 0x2
 17701 3405 74       		.byte	0x74
 17702 3406 00       		.sleb128 0
 17703 3407 00       		.byte	0
 17704 3408 26       		.uleb128 0x26
 17705 3409 DC1F0000 		.4byte	.LVL841
 17706 340d A23C0000 		.4byte	0x3ca2
 17707 3411 1C340000 		.4byte	0x341c
 17708 3415 23       		.uleb128 0x23
ARM GAS  C:\Users\doug_000\AppData\Local\Temp\ccbaKQF3.s 			page 358


 17709 3416 01       		.uleb128 0x1
 17710 3417 50       		.byte	0x50
 17711 3418 02       		.uleb128 0x2
 17712 3419 74       		.byte	0x74
 17713 341a 00       		.sleb128 0
 17714 341b 00       		.byte	0
 17715 341c 26       		.uleb128 0x26
 17716 341d FE1F0000 		.4byte	.LVL842
 17717 3421 A23C0000 		.4byte	0x3ca2
 17718 3425 30340000 		.4byte	0x3430
 17719 3429 23       		.uleb128 0x23
 17720 342a 01       		.uleb128 0x1
 17721 342b 50       		.byte	0x50
 17722 342c 02       		.uleb128 0x2
 17723 342d 74       		.byte	0x74
 17724 342e 00       		.sleb128 0
 17725 342f 00       		.byte	0
 17726 3430 26       		.uleb128 0x26
 17727 3431 24200000 		.4byte	.LVL843
 17728 3435 A23C0000 		.4byte	0x3ca2
 17729 3439 44340000 		.4byte	0x3444
 17730 343d 23       		.uleb128 0x23
 17731 343e 01       		.uleb128 0x1
 17732 343f 50       		.byte	0x50
 17733 3440 02       		.uleb128 0x2
 17734 3441 74       		.byte	0x74
 17735 3442 00       		.sleb128 0
 17736 3443 00       		.byte	0
 17737 3444 26       		.uleb128 0x26
 17738 3445 5A200000 		.4byte	.LVL844
 17739 3449 A23C0000 		.4byte	0x3ca2
 17740 344d 58340000 		.4byte	0x3458
 17741 3451 23       		.uleb128 0x23
 17742 3452 01       		.uleb128 0x1
 17743 3453 50       		.byte	0x50
 17744 3454 02       		.uleb128 0x2
 17745 3455 74       		.byte	0x74
 17746 3456 00       		.sleb128 0
 17747 3457 00       		.byte	0
 17748 3458 26       		.uleb128 0x26
 17749 3459 7A200000 		.4byte	.LVL845
 17750 345d A23C0000 		.4byte	0x3ca2
 17751 3461 6C340000 		.4byte	0x346c
 17752 3465 23       		.uleb128 0x23
 17753 3466 01       		.uleb128 0x1
 17754 3467 50       		.byte	0x50
 17755 3468 02       		.uleb128 0x2
 17756 3469 74       		.byte	0x74
 17757 346a 00       		.sleb128 0
 17758 346b 00       		.byte	0
 17759 346c 26       		.uleb128 0x26
 17760 346d 9E200000 		.4byte	.LVL846
 17761 3471 A23C0000 		.4byte	0x3ca2
 17762 3475 80340000 		.4byte	0x3480
 17763 3479 23       		.uleb128 0x23
 17764 347a 01       		.uleb128 0x1
 17765 347b 50       		.byte	0x50
ARM GAS  C:\Users\doug_000\AppData\Local\Temp\ccbaKQF3.s 			page 359


 17766 347c 02       		.uleb128 0x2
 17767 347d 74       		.byte	0x74
 17768 347e 00       		.sleb128 0
 17769 347f 00       		.byte	0
 17770 3480 26       		.uleb128 0x26
 17771 3481 CA200000 		.4byte	.LVL847
 17772 3485 A23C0000 		.4byte	0x3ca2
 17773 3489 94340000 		.4byte	0x3494
 17774 348d 23       		.uleb128 0x23
 17775 348e 01       		.uleb128 0x1
 17776 348f 50       		.byte	0x50
 17777 3490 02       		.uleb128 0x2
 17778 3491 74       		.byte	0x74
 17779 3492 00       		.sleb128 0
 17780 3493 00       		.byte	0
 17781 3494 26       		.uleb128 0x26
 17782 3495 4A210000 		.4byte	.LVL848
 17783 3499 A23C0000 		.4byte	0x3ca2
 17784 349d A8340000 		.4byte	0x34a8
 17785 34a1 23       		.uleb128 0x23
 17786 34a2 01       		.uleb128 0x1
 17787 34a3 50       		.byte	0x50
 17788 34a4 02       		.uleb128 0x2
 17789 34a5 74       		.byte	0x74
 17790 34a6 00       		.sleb128 0
 17791 34a7 00       		.byte	0
 17792 34a8 26       		.uleb128 0x26
 17793 34a9 7A210000 		.4byte	.LVL849
 17794 34ad A23C0000 		.4byte	0x3ca2
 17795 34b1 BC340000 		.4byte	0x34bc
 17796 34b5 23       		.uleb128 0x23
 17797 34b6 01       		.uleb128 0x1
 17798 34b7 50       		.byte	0x50
 17799 34b8 02       		.uleb128 0x2
 17800 34b9 74       		.byte	0x74
 17801 34ba 00       		.sleb128 0
 17802 34bb 00       		.byte	0
 17803 34bc 26       		.uleb128 0x26
 17804 34bd AA210000 		.4byte	.LVL850
 17805 34c1 A23C0000 		.4byte	0x3ca2
 17806 34c5 D0340000 		.4byte	0x34d0
 17807 34c9 23       		.uleb128 0x23
 17808 34ca 01       		.uleb128 0x1
 17809 34cb 50       		.byte	0x50
 17810 34cc 02       		.uleb128 0x2
 17811 34cd 74       		.byte	0x74
 17812 34ce 00       		.sleb128 0
 17813 34cf 00       		.byte	0
 17814 34d0 26       		.uleb128 0x26
 17815 34d1 E0210000 		.4byte	.LVL851
 17816 34d5 A23C0000 		.4byte	0x3ca2
 17817 34d9 E4340000 		.4byte	0x34e4
 17818 34dd 23       		.uleb128 0x23
 17819 34de 01       		.uleb128 0x1
 17820 34df 50       		.byte	0x50
 17821 34e0 02       		.uleb128 0x2
 17822 34e1 74       		.byte	0x74
ARM GAS  C:\Users\doug_000\AppData\Local\Temp\ccbaKQF3.s 			page 360


 17823 34e2 00       		.sleb128 0
 17824 34e3 00       		.byte	0
 17825 34e4 26       		.uleb128 0x26
 17826 34e5 02220000 		.4byte	.LVL852
 17827 34e9 A23C0000 		.4byte	0x3ca2
 17828 34ed F8340000 		.4byte	0x34f8
 17829 34f1 23       		.uleb128 0x23
 17830 34f2 01       		.uleb128 0x1
 17831 34f3 50       		.byte	0x50
 17832 34f4 02       		.uleb128 0x2
 17833 34f5 74       		.byte	0x74
 17834 34f6 00       		.sleb128 0
 17835 34f7 00       		.byte	0
 17836 34f8 26       		.uleb128 0x26
 17837 34f9 28220000 		.4byte	.LVL853
 17838 34fd A23C0000 		.4byte	0x3ca2
 17839 3501 0C350000 		.4byte	0x350c
 17840 3505 23       		.uleb128 0x23
 17841 3506 01       		.uleb128 0x1
 17842 3507 50       		.byte	0x50
 17843 3508 02       		.uleb128 0x2
 17844 3509 74       		.byte	0x74
 17845 350a 00       		.sleb128 0
 17846 350b 00       		.byte	0
 17847 350c 26       		.uleb128 0x26
 17848 350d 48220000 		.4byte	.LVL854
 17849 3511 A23C0000 		.4byte	0x3ca2
 17850 3515 20350000 		.4byte	0x3520
 17851 3519 23       		.uleb128 0x23
 17852 351a 01       		.uleb128 0x1
 17853 351b 50       		.byte	0x50
 17854 351c 02       		.uleb128 0x2
 17855 351d 74       		.byte	0x74
 17856 351e 00       		.sleb128 0
 17857 351f 00       		.byte	0
 17858 3520 26       		.uleb128 0x26
 17859 3521 62220000 		.4byte	.LVL855
 17860 3525 A23C0000 		.4byte	0x3ca2
 17861 3529 34350000 		.4byte	0x3534
 17862 352d 23       		.uleb128 0x23
 17863 352e 01       		.uleb128 0x1
 17864 352f 50       		.byte	0x50
 17865 3530 02       		.uleb128 0x2
 17866 3531 74       		.byte	0x74
 17867 3532 00       		.sleb128 0
 17868 3533 00       		.byte	0
 17869 3534 26       		.uleb128 0x26
 17870 3535 92220000 		.4byte	.LVL856
 17871 3539 A23C0000 		.4byte	0x3ca2
 17872 353d 48350000 		.4byte	0x3548
 17873 3541 23       		.uleb128 0x23
 17874 3542 01       		.uleb128 0x1
 17875 3543 50       		.byte	0x50
 17876 3544 02       		.uleb128 0x2
 17877 3545 74       		.byte	0x74
 17878 3546 00       		.sleb128 0
 17879 3547 00       		.byte	0
ARM GAS  C:\Users\doug_000\AppData\Local\Temp\ccbaKQF3.s 			page 361


 17880 3548 26       		.uleb128 0x26
 17881 3549 C4220000 		.4byte	.LVL857
 17882 354d A23C0000 		.4byte	0x3ca2
 17883 3551 5C350000 		.4byte	0x355c
 17884 3555 23       		.uleb128 0x23
 17885 3556 01       		.uleb128 0x1
 17886 3557 50       		.byte	0x50
 17887 3558 02       		.uleb128 0x2
 17888 3559 74       		.byte	0x74
 17889 355a 00       		.sleb128 0
 17890 355b 00       		.byte	0
 17891 355c 26       		.uleb128 0x26
 17892 355d FA220000 		.4byte	.LVL858
 17893 3561 A23C0000 		.4byte	0x3ca2
 17894 3565 70350000 		.4byte	0x3570
 17895 3569 23       		.uleb128 0x23
 17896 356a 01       		.uleb128 0x1
 17897 356b 50       		.byte	0x50
 17898 356c 02       		.uleb128 0x2
 17899 356d 74       		.byte	0x74
 17900 356e 00       		.sleb128 0
 17901 356f 00       		.byte	0
 17902 3570 26       		.uleb128 0x26
 17903 3571 1A230000 		.4byte	.LVL859
 17904 3575 A23C0000 		.4byte	0x3ca2
 17905 3579 84350000 		.4byte	0x3584
 17906 357d 23       		.uleb128 0x23
 17907 357e 01       		.uleb128 0x1
 17908 357f 50       		.byte	0x50
 17909 3580 02       		.uleb128 0x2
 17910 3581 74       		.byte	0x74
 17911 3582 00       		.sleb128 0
 17912 3583 00       		.byte	0
 17913 3584 26       		.uleb128 0x26
 17914 3585 34230000 		.4byte	.LVL860
 17915 3589 A23C0000 		.4byte	0x3ca2
 17916 358d 98350000 		.4byte	0x3598
 17917 3591 23       		.uleb128 0x23
 17918 3592 01       		.uleb128 0x1
 17919 3593 50       		.byte	0x50
 17920 3594 02       		.uleb128 0x2
 17921 3595 74       		.byte	0x74
 17922 3596 00       		.sleb128 0
 17923 3597 00       		.byte	0
 17924 3598 26       		.uleb128 0x26
 17925 3599 5A230000 		.4byte	.LVL861
 17926 359d A23C0000 		.4byte	0x3ca2
 17927 35a1 AC350000 		.4byte	0x35ac
 17928 35a5 23       		.uleb128 0x23
 17929 35a6 01       		.uleb128 0x1
 17930 35a7 50       		.byte	0x50
 17931 35a8 02       		.uleb128 0x2
 17932 35a9 74       		.byte	0x74
 17933 35aa 00       		.sleb128 0
 17934 35ab 00       		.byte	0
 17935 35ac 26       		.uleb128 0x26
 17936 35ad 78230000 		.4byte	.LVL862
ARM GAS  C:\Users\doug_000\AppData\Local\Temp\ccbaKQF3.s 			page 362


 17937 35b1 A23C0000 		.4byte	0x3ca2
 17938 35b5 C0350000 		.4byte	0x35c0
 17939 35b9 23       		.uleb128 0x23
 17940 35ba 01       		.uleb128 0x1
 17941 35bb 50       		.byte	0x50
 17942 35bc 02       		.uleb128 0x2
 17943 35bd 74       		.byte	0x74
 17944 35be 00       		.sleb128 0
 17945 35bf 00       		.byte	0
 17946 35c0 26       		.uleb128 0x26
 17947 35c1 98230000 		.4byte	.LVL863
 17948 35c5 A23C0000 		.4byte	0x3ca2
 17949 35c9 D4350000 		.4byte	0x35d4
 17950 35cd 23       		.uleb128 0x23
 17951 35ce 01       		.uleb128 0x1
 17952 35cf 50       		.byte	0x50
 17953 35d0 02       		.uleb128 0x2
 17954 35d1 74       		.byte	0x74
 17955 35d2 00       		.sleb128 0
 17956 35d3 00       		.byte	0
 17957 35d4 26       		.uleb128 0x26
 17958 35d5 B2230000 		.4byte	.LVL864
 17959 35d9 A23C0000 		.4byte	0x3ca2
 17960 35dd E8350000 		.4byte	0x35e8
 17961 35e1 23       		.uleb128 0x23
 17962 35e2 01       		.uleb128 0x1
 17963 35e3 50       		.byte	0x50
 17964 35e4 02       		.uleb128 0x2
 17965 35e5 74       		.byte	0x74
 17966 35e6 00       		.sleb128 0
 17967 35e7 00       		.byte	0
 17968 35e8 26       		.uleb128 0x26
 17969 35e9 BC230000 		.4byte	.LVL865
 17970 35ed BB3C0000 		.4byte	0x3cbb
 17971 35f1 05360000 		.4byte	0x3605
 17972 35f5 23       		.uleb128 0x23
 17973 35f6 01       		.uleb128 0x1
 17974 35f7 52       		.byte	0x52
 17975 35f8 02       		.uleb128 0x2
 17976 35f9 08       		.byte	0x8
 17977 35fa 42       		.byte	0x42
 17978 35fb 23       		.uleb128 0x23
 17979 35fc 01       		.uleb128 0x1
 17980 35fd 51       		.byte	0x51
 17981 35fe 05       		.uleb128 0x5
 17982 35ff 03       		.byte	0x3
 17983 3600 14230000 		.4byte	.LC265
 17984 3604 00       		.byte	0
 17985 3605 26       		.uleb128 0x26
 17986 3606 C2230000 		.4byte	.LVL866
 17987 360a A23C0000 		.4byte	0x3ca2
 17988 360e 19360000 		.4byte	0x3619
 17989 3612 23       		.uleb128 0x23
 17990 3613 01       		.uleb128 0x1
 17991 3614 50       		.byte	0x50
 17992 3615 02       		.uleb128 0x2
 17993 3616 74       		.byte	0x74
ARM GAS  C:\Users\doug_000\AppData\Local\Temp\ccbaKQF3.s 			page 363


 17994 3617 00       		.sleb128 0
 17995 3618 00       		.byte	0
 17996 3619 26       		.uleb128 0x26
 17997 361a F2230000 		.4byte	.LVL867
 17998 361e A23C0000 		.4byte	0x3ca2
 17999 3622 2D360000 		.4byte	0x362d
 18000 3626 23       		.uleb128 0x23
 18001 3627 01       		.uleb128 0x1
 18002 3628 50       		.byte	0x50
 18003 3629 02       		.uleb128 0x2
 18004 362a 74       		.byte	0x74
 18005 362b 00       		.sleb128 0
 18006 362c 00       		.byte	0
 18007 362d 26       		.uleb128 0x26
 18008 362e 20240000 		.4byte	.LVL868
 18009 3632 A23C0000 		.4byte	0x3ca2
 18010 3636 41360000 		.4byte	0x3641
 18011 363a 23       		.uleb128 0x23
 18012 363b 01       		.uleb128 0x1
 18013 363c 50       		.byte	0x50
 18014 363d 02       		.uleb128 0x2
 18015 363e 74       		.byte	0x74
 18016 363f 00       		.sleb128 0
 18017 3640 00       		.byte	0
 18018 3641 26       		.uleb128 0x26
 18019 3642 40240000 		.4byte	.LVL869
 18020 3646 A23C0000 		.4byte	0x3ca2
 18021 364a 55360000 		.4byte	0x3655
 18022 364e 23       		.uleb128 0x23
 18023 364f 01       		.uleb128 0x1
 18024 3650 50       		.byte	0x50
 18025 3651 02       		.uleb128 0x2
 18026 3652 74       		.byte	0x74
 18027 3653 00       		.sleb128 0
 18028 3654 00       		.byte	0
 18029 3655 26       		.uleb128 0x26
 18030 3656 60240000 		.4byte	.LVL870
 18031 365a A23C0000 		.4byte	0x3ca2
 18032 365e 69360000 		.4byte	0x3669
 18033 3662 23       		.uleb128 0x23
 18034 3663 01       		.uleb128 0x1
 18035 3664 50       		.byte	0x50
 18036 3665 02       		.uleb128 0x2
 18037 3666 74       		.byte	0x74
 18038 3667 00       		.sleb128 0
 18039 3668 00       		.byte	0
 18040 3669 26       		.uleb128 0x26
 18041 366a 8E240000 		.4byte	.LVL871
 18042 366e A23C0000 		.4byte	0x3ca2
 18043 3672 7D360000 		.4byte	0x367d
 18044 3676 23       		.uleb128 0x23
 18045 3677 01       		.uleb128 0x1
 18046 3678 50       		.byte	0x50
 18047 3679 02       		.uleb128 0x2
 18048 367a 74       		.byte	0x74
 18049 367b 00       		.sleb128 0
 18050 367c 00       		.byte	0
ARM GAS  C:\Users\doug_000\AppData\Local\Temp\ccbaKQF3.s 			page 364


 18051 367d 26       		.uleb128 0x26
 18052 367e 0E250000 		.4byte	.LVL872
 18053 3682 A23C0000 		.4byte	0x3ca2
 18054 3686 91360000 		.4byte	0x3691
 18055 368a 23       		.uleb128 0x23
 18056 368b 01       		.uleb128 0x1
 18057 368c 50       		.byte	0x50
 18058 368d 02       		.uleb128 0x2
 18059 368e 74       		.byte	0x74
 18060 368f 00       		.sleb128 0
 18061 3690 00       		.byte	0
 18062 3691 26       		.uleb128 0x26
 18063 3692 2E250000 		.4byte	.LVL873
 18064 3696 A23C0000 		.4byte	0x3ca2
 18065 369a A5360000 		.4byte	0x36a5
 18066 369e 23       		.uleb128 0x23
 18067 369f 01       		.uleb128 0x1
 18068 36a0 50       		.byte	0x50
 18069 36a1 02       		.uleb128 0x2
 18070 36a2 74       		.byte	0x74
 18071 36a3 00       		.sleb128 0
 18072 36a4 00       		.byte	0
 18073 36a5 26       		.uleb128 0x26
 18074 36a6 5C250000 		.4byte	.LVL874
 18075 36aa A23C0000 		.4byte	0x3ca2
 18076 36ae B9360000 		.4byte	0x36b9
 18077 36b2 23       		.uleb128 0x23
 18078 36b3 01       		.uleb128 0x1
 18079 36b4 50       		.byte	0x50
 18080 36b5 02       		.uleb128 0x2
 18081 36b6 74       		.byte	0x74
 18082 36b7 00       		.sleb128 0
 18083 36b8 00       		.byte	0
 18084 36b9 26       		.uleb128 0x26
 18085 36ba 7C250000 		.4byte	.LVL875
 18086 36be A23C0000 		.4byte	0x3ca2
 18087 36c2 CD360000 		.4byte	0x36cd
 18088 36c6 23       		.uleb128 0x23
 18089 36c7 01       		.uleb128 0x1
 18090 36c8 50       		.byte	0x50
 18091 36c9 02       		.uleb128 0x2
 18092 36ca 74       		.byte	0x74
 18093 36cb 00       		.sleb128 0
 18094 36cc 00       		.byte	0
 18095 36cd 26       		.uleb128 0x26
 18096 36ce AA250000 		.4byte	.LVL876
 18097 36d2 A23C0000 		.4byte	0x3ca2
 18098 36d6 E1360000 		.4byte	0x36e1
 18099 36da 23       		.uleb128 0x23
 18100 36db 01       		.uleb128 0x1
 18101 36dc 50       		.byte	0x50
 18102 36dd 02       		.uleb128 0x2
 18103 36de 74       		.byte	0x74
 18104 36df 00       		.sleb128 0
 18105 36e0 00       		.byte	0
 18106 36e1 26       		.uleb128 0x26
 18107 36e2 CA250000 		.4byte	.LVL877
ARM GAS  C:\Users\doug_000\AppData\Local\Temp\ccbaKQF3.s 			page 365


 18108 36e6 A23C0000 		.4byte	0x3ca2
 18109 36ea F5360000 		.4byte	0x36f5
 18110 36ee 23       		.uleb128 0x23
 18111 36ef 01       		.uleb128 0x1
 18112 36f0 50       		.byte	0x50
 18113 36f1 02       		.uleb128 0x2
 18114 36f2 74       		.byte	0x74
 18115 36f3 00       		.sleb128 0
 18116 36f4 00       		.byte	0
 18117 36f5 26       		.uleb128 0x26
 18118 36f6 F0250000 		.4byte	.LVL878
 18119 36fa A23C0000 		.4byte	0x3ca2
 18120 36fe 09370000 		.4byte	0x3709
 18121 3702 23       		.uleb128 0x23
 18122 3703 01       		.uleb128 0x1
 18123 3704 50       		.byte	0x50
 18124 3705 02       		.uleb128 0x2
 18125 3706 74       		.byte	0x74
 18126 3707 00       		.sleb128 0
 18127 3708 00       		.byte	0
 18128 3709 26       		.uleb128 0x26
 18129 370a 10260000 		.4byte	.LVL879
 18130 370e A23C0000 		.4byte	0x3ca2
 18131 3712 1D370000 		.4byte	0x371d
 18132 3716 23       		.uleb128 0x23
 18133 3717 01       		.uleb128 0x1
 18134 3718 50       		.byte	0x50
 18135 3719 02       		.uleb128 0x2
 18136 371a 74       		.byte	0x74
 18137 371b 00       		.sleb128 0
 18138 371c 00       		.byte	0
 18139 371d 26       		.uleb128 0x26
 18140 371e 3E260000 		.4byte	.LVL880
 18141 3722 A23C0000 		.4byte	0x3ca2
 18142 3726 31370000 		.4byte	0x3731
 18143 372a 23       		.uleb128 0x23
 18144 372b 01       		.uleb128 0x1
 18145 372c 50       		.byte	0x50
 18146 372d 02       		.uleb128 0x2
 18147 372e 74       		.byte	0x74
 18148 372f 00       		.sleb128 0
 18149 3730 00       		.byte	0
 18150 3731 26       		.uleb128 0x26
 18151 3732 5E260000 		.4byte	.LVL881
 18152 3736 A23C0000 		.4byte	0x3ca2
 18153 373a 45370000 		.4byte	0x3745
 18154 373e 23       		.uleb128 0x23
 18155 373f 01       		.uleb128 0x1
 18156 3740 50       		.byte	0x50
 18157 3741 02       		.uleb128 0x2
 18158 3742 74       		.byte	0x74
 18159 3743 00       		.sleb128 0
 18160 3744 00       		.byte	0
 18161 3745 26       		.uleb128 0x26
 18162 3746 7E260000 		.4byte	.LVL882
 18163 374a A23C0000 		.4byte	0x3ca2
 18164 374e 59370000 		.4byte	0x3759
ARM GAS  C:\Users\doug_000\AppData\Local\Temp\ccbaKQF3.s 			page 366


 18165 3752 23       		.uleb128 0x23
 18166 3753 01       		.uleb128 0x1
 18167 3754 50       		.byte	0x50
 18168 3755 02       		.uleb128 0x2
 18169 3756 74       		.byte	0x74
 18170 3757 00       		.sleb128 0
 18171 3758 00       		.byte	0
 18172 3759 26       		.uleb128 0x26
 18173 375a AC260000 		.4byte	.LVL883
 18174 375e A23C0000 		.4byte	0x3ca2
 18175 3762 6D370000 		.4byte	0x376d
 18176 3766 23       		.uleb128 0x23
 18177 3767 01       		.uleb128 0x1
 18178 3768 50       		.byte	0x50
 18179 3769 02       		.uleb128 0x2
 18180 376a 74       		.byte	0x74
 18181 376b 00       		.sleb128 0
 18182 376c 00       		.byte	0
 18183 376d 26       		.uleb128 0x26
 18184 376e CC260000 		.4byte	.LVL884
 18185 3772 A23C0000 		.4byte	0x3ca2
 18186 3776 81370000 		.4byte	0x3781
 18187 377a 23       		.uleb128 0x23
 18188 377b 01       		.uleb128 0x1
 18189 377c 50       		.byte	0x50
 18190 377d 02       		.uleb128 0x2
 18191 377e 74       		.byte	0x74
 18192 377f 00       		.sleb128 0
 18193 3780 00       		.byte	0
 18194 3781 26       		.uleb128 0x26
 18195 3782 FA260000 		.4byte	.LVL885
 18196 3786 A23C0000 		.4byte	0x3ca2
 18197 378a 95370000 		.4byte	0x3795
 18198 378e 23       		.uleb128 0x23
 18199 378f 01       		.uleb128 0x1
 18200 3790 50       		.byte	0x50
 18201 3791 02       		.uleb128 0x2
 18202 3792 75       		.byte	0x75
 18203 3793 00       		.sleb128 0
 18204 3794 00       		.byte	0
 18205 3795 26       		.uleb128 0x26
 18206 3796 1A270000 		.4byte	.LVL886
 18207 379a A23C0000 		.4byte	0x3ca2
 18208 379e A9370000 		.4byte	0x37a9
 18209 37a2 23       		.uleb128 0x23
 18210 37a3 01       		.uleb128 0x1
 18211 37a4 50       		.byte	0x50
 18212 37a5 02       		.uleb128 0x2
 18213 37a6 75       		.byte	0x75
 18214 37a7 00       		.sleb128 0
 18215 37a8 00       		.byte	0
 18216 37a9 22       		.uleb128 0x22
 18217 37aa 34270000 		.4byte	.LVL887
 18218 37ae A23C0000 		.4byte	0x3ca2
 18219 37b2 23       		.uleb128 0x23
 18220 37b3 01       		.uleb128 0x1
 18221 37b4 50       		.byte	0x50
ARM GAS  C:\Users\doug_000\AppData\Local\Temp\ccbaKQF3.s 			page 367


 18222 37b5 02       		.uleb128 0x2
 18223 37b6 75       		.byte	0x75
 18224 37b7 00       		.sleb128 0
 18225 37b8 00       		.byte	0
 18226 37b9 00       		.byte	0
 18227 37ba 09       		.uleb128 0x9
 18228 37bb 5B050000 		.4byte	0x55b
 18229 37bf CB370000 		.4byte	0x37cb
 18230 37c3 35       		.uleb128 0x35
 18231 37c4 D4000000 		.4byte	0xd4
 18232 37c8 2723     		.2byte	0x2327
 18233 37ca 00       		.byte	0
 18234 37cb 2B       		.uleb128 0x2b
 18235 37cc FF030000 		.4byte	.LASF166
 18236 37d0 01       		.byte	0x1
 18237 37d1 7805     		.2byte	0x578
 18238 37d3 00000000 		.4byte	.LFB35
 18239 37d7 B0000000 		.4byte	.LFE35-.LFB35
 18240 37db 01       		.uleb128 0x1
 18241 37dc 9C       		.byte	0x9c
 18242 37dd 5D380000 		.4byte	0x385d
 18243 37e1 2C       		.uleb128 0x2c
 18244 37e2 6C060000 		.4byte	.LASF167
 18245 37e6 01       		.byte	0x1
 18246 37e7 7805     		.2byte	0x578
 18247 37e9 55050000 		.4byte	0x555
 18248 37ed 280E0000 		.4byte	.LLST48
 18249 37f1 2F       		.uleb128 0x2f
 18250 37f2 6E7800   		.ascii	"nx\000"
 18251 37f5 01       		.byte	0x1
 18252 37f6 7905     		.2byte	0x579
 18253 37f8 33000000 		.4byte	0x33
 18254 37fc 460E0000 		.4byte	.LLST49
 18255 3800 26       		.uleb128 0x26
 18256 3801 20000000 		.4byte	.LVL893
 18257 3805 CC080000 		.4byte	0x8cc
 18258 3809 1B380000 		.4byte	0x381b
 18259 380d 23       		.uleb128 0x23
 18260 380e 01       		.uleb128 0x1
 18261 380f 51       		.byte	0x51
 18262 3810 03       		.uleb128 0x3
 18263 3811 0A       		.byte	0xa
 18264 3812 FF1F     		.2byte	0x1fff
 18265 3814 23       		.uleb128 0x23
 18266 3815 01       		.uleb128 0x1
 18267 3816 50       		.byte	0x50
 18268 3817 02       		.uleb128 0x2
 18269 3818 08       		.byte	0x8
 18270 3819 80       		.byte	0x80
 18271 381a 00       		.byte	0
 18272 381b 27       		.uleb128 0x27
 18273 381c 76000000 		.4byte	.LVL904
 18274 3820 71220000 		.4byte	0x2271
 18275 3824 26       		.uleb128 0x26
 18276 3825 7E000000 		.4byte	.LVL906
 18277 3829 04180000 		.4byte	0x1804
 18278 382d 38380000 		.4byte	0x3838
ARM GAS  C:\Users\doug_000\AppData\Local\Temp\ccbaKQF3.s 			page 368


 18279 3831 23       		.uleb128 0x23
 18280 3832 01       		.uleb128 0x1
 18281 3833 50       		.byte	0x50
 18282 3834 02       		.uleb128 0x2
 18283 3835 74       		.byte	0x74
 18284 3836 00       		.sleb128 0
 18285 3837 00       		.byte	0
 18286 3838 27       		.uleb128 0x27
 18287 3839 82000000 		.4byte	.LVL907
 18288 383d D0110000 		.4byte	0x11d0
 18289 3841 27       		.uleb128 0x27
 18290 3842 86000000 		.4byte	.LVL908
 18291 3846 A8180000 		.4byte	0x18a8
 18292 384a 27       		.uleb128 0x27
 18293 384b 90000000 		.4byte	.LVL909
 18294 384f 723C0000 		.4byte	0x3c72
 18295 3853 27       		.uleb128 0x27
 18296 3854 9A000000 		.4byte	.LVL910
 18297 3858 723C0000 		.4byte	0x3c72
 18298 385c 00       		.byte	0
 18299 385d 2D       		.uleb128 0x2d
 18300 385e E8050000 		.4byte	.LASF168
 18301 3862 01       		.byte	0x1
 18302 3863 8E05     		.2byte	0x58e
 18303 3865 33000000 		.4byte	0x33
 18304 3869 00000000 		.4byte	.LFB36
 18305 386d 58010000 		.4byte	.LFE36-.LFB36
 18306 3871 01       		.uleb128 0x1
 18307 3872 9C       		.byte	0x9c
 18308 3873 7B3A0000 		.4byte	0x3a7b
 18309 3877 2C       		.uleb128 0x2c
 18310 3878 7E070000 		.4byte	.LASF169
 18311 387c 01       		.byte	0x1
 18312 387d 8E05     		.2byte	0x58e
 18313 387f 33000000 		.4byte	0x33
 18314 3883 920E0000 		.4byte	.LLST50
 18315 3887 2C       		.uleb128 0x2c
 18316 3888 D9070000 		.4byte	.LASF170
 18317 388c 01       		.byte	0x1
 18318 388d 8E05     		.2byte	0x58e
 18319 388f 7B3A0000 		.4byte	0x3a7b
 18320 3893 BE0E0000 		.4byte	.LLST51
 18321 3897 2F       		.uleb128 0x2f
 18322 3898 6E7800   		.ascii	"nx\000"
 18323 389b 01       		.byte	0x1
 18324 389c 8F05     		.2byte	0x58f
 18325 389e 33000000 		.4byte	0x33
 18326 38a2 EA0E0000 		.4byte	.LLST52
 18327 38a6 2F       		.uleb128 0x2f
 18328 38a7 6C656E00 		.ascii	"len\000"
 18329 38ab 01       		.byte	0x1
 18330 38ac 9005     		.2byte	0x590
 18331 38ae 56000000 		.4byte	0x56
 18332 38b2 090F0000 		.4byte	.LLST53
 18333 38b6 2F       		.uleb128 0x2f
 18334 38b7 494C00   		.ascii	"IL\000"
 18335 38ba 01       		.byte	0x1
ARM GAS  C:\Users\doug_000\AppData\Local\Temp\ccbaKQF3.s 			page 369


 18336 38bb 9105     		.2byte	0x591
 18337 38bd 55050000 		.4byte	0x555
 18338 38c1 270F0000 		.4byte	.LLST54
 18339 38c5 32       		.uleb128 0x32
 18340 38c6 D4020000 		.4byte	.LASF171
 18341 38ca 01       		.byte	0x1
 18342 38cb 9205     		.2byte	0x592
 18343 38cd C6080000 		.4byte	0x8c6
 18344 38d1 5C0F0000 		.4byte	.LLST55
 18345 38d5 26       		.uleb128 0x26
 18346 38d6 20000000 		.4byte	.LVL917
 18347 38da D83C0000 		.4byte	0x3cd8
 18348 38de EC380000 		.4byte	0x38ec
 18349 38e2 23       		.uleb128 0x23
 18350 38e3 01       		.uleb128 0x1
 18351 38e4 51       		.byte	0x51
 18352 38e5 05       		.uleb128 0x5
 18353 38e6 03       		.byte	0x3
 18354 38e7 58260000 		.4byte	.LC288
 18355 38eb 00       		.byte	0
 18356 38ec 26       		.uleb128 0x26
 18357 38ed 38000000 		.4byte	.LVL919
 18358 38f1 F23C0000 		.4byte	0x3cf2
 18359 38f5 03390000 		.4byte	0x3903
 18360 38f9 23       		.uleb128 0x23
 18361 38fa 01       		.uleb128 0x1
 18362 38fb 51       		.byte	0x51
 18363 38fc 05       		.uleb128 0x5
 18364 38fd 03       		.byte	0x3
 18365 38fe 5C260000 		.4byte	.LC289
 18366 3902 00       		.byte	0
 18367 3903 26       		.uleb128 0x26
 18368 3904 46000000 		.4byte	.LVL920
 18369 3908 0C3D0000 		.4byte	0x3d0c
 18370 390c 21390000 		.4byte	0x3921
 18371 3910 23       		.uleb128 0x23
 18372 3911 01       		.uleb128 0x1
 18373 3912 52       		.byte	0x52
 18374 3913 01       		.uleb128 0x1
 18375 3914 32       		.byte	0x32
 18376 3915 23       		.uleb128 0x23
 18377 3916 01       		.uleb128 0x1
 18378 3917 51       		.byte	0x51
 18379 3918 01       		.uleb128 0x1
 18380 3919 30       		.byte	0x30
 18381 391a 23       		.uleb128 0x23
 18382 391b 01       		.uleb128 0x1
 18383 391c 50       		.byte	0x50
 18384 391d 02       		.uleb128 0x2
 18385 391e 78       		.byte	0x78
 18386 391f 00       		.sleb128 0
 18387 3920 00       		.byte	0
 18388 3921 26       		.uleb128 0x26
 18389 3922 4E000000 		.4byte	.LVL921
 18390 3926 2B3D0000 		.4byte	0x3d2b
 18391 392a 35390000 		.4byte	0x3935
 18392 392e 23       		.uleb128 0x23
ARM GAS  C:\Users\doug_000\AppData\Local\Temp\ccbaKQF3.s 			page 370


 18393 392f 01       		.uleb128 0x1
 18394 3930 50       		.byte	0x50
 18395 3931 02       		.uleb128 0x2
 18396 3932 78       		.byte	0x78
 18397 3933 00       		.sleb128 0
 18398 3934 00       		.byte	0
 18399 3935 26       		.uleb128 0x26
 18400 3936 5A000000 		.4byte	.LVL924
 18401 393a 0C3D0000 		.4byte	0x3d0c
 18402 393e 53390000 		.4byte	0x3953
 18403 3942 23       		.uleb128 0x23
 18404 3943 01       		.uleb128 0x1
 18405 3944 52       		.byte	0x52
 18406 3945 01       		.uleb128 0x1
 18407 3946 30       		.byte	0x30
 18408 3947 23       		.uleb128 0x23
 18409 3948 01       		.uleb128 0x1
 18410 3949 51       		.byte	0x51
 18411 394a 01       		.uleb128 0x1
 18412 394b 30       		.byte	0x30
 18413 394c 23       		.uleb128 0x23
 18414 394d 01       		.uleb128 0x1
 18415 394e 50       		.byte	0x50
 18416 394f 02       		.uleb128 0x2
 18417 3950 78       		.byte	0x78
 18418 3951 00       		.sleb128 0
 18419 3952 00       		.byte	0
 18420 3953 26       		.uleb128 0x26
 18421 3954 7C000000 		.4byte	.LVL926
 18422 3958 403D0000 		.4byte	0x3d40
 18423 395c 67390000 		.4byte	0x3967
 18424 3960 23       		.uleb128 0x23
 18425 3961 01       		.uleb128 0x1
 18426 3962 50       		.byte	0x50
 18427 3963 02       		.uleb128 0x2
 18428 3964 79       		.byte	0x79
 18429 3965 01       		.sleb128 1
 18430 3966 00       		.byte	0
 18431 3967 26       		.uleb128 0x26
 18432 3968 8A000000 		.4byte	.LVL927
 18433 396c 553D0000 		.4byte	0x3d55
 18434 3970 8C390000 		.4byte	0x398c
 18435 3974 23       		.uleb128 0x23
 18436 3975 01       		.uleb128 0x1
 18437 3976 53       		.byte	0x53
 18438 3977 02       		.uleb128 0x2
 18439 3978 78       		.byte	0x78
 18440 3979 00       		.sleb128 0
 18441 397a 23       		.uleb128 0x23
 18442 397b 01       		.uleb128 0x1
 18443 397c 52       		.byte	0x52
 18444 397d 02       		.uleb128 0x2
 18445 397e 79       		.byte	0x79
 18446 397f 00       		.sleb128 0
 18447 3980 23       		.uleb128 0x23
 18448 3981 01       		.uleb128 0x1
 18449 3982 51       		.byte	0x51
ARM GAS  C:\Users\doug_000\AppData\Local\Temp\ccbaKQF3.s 			page 371


 18450 3983 01       		.uleb128 0x1
 18451 3984 31       		.byte	0x31
 18452 3985 23       		.uleb128 0x23
 18453 3986 01       		.uleb128 0x1
 18454 3987 50       		.byte	0x50
 18455 3988 02       		.uleb128 0x2
 18456 3989 77       		.byte	0x77
 18457 398a 00       		.sleb128 0
 18458 398b 00       		.byte	0
 18459 398c 26       		.uleb128 0x26
 18460 398d 98000000 		.4byte	.LVL929
 18461 3991 723C0000 		.4byte	0x3c72
 18462 3995 A0390000 		.4byte	0x39a0
 18463 3999 23       		.uleb128 0x23
 18464 399a 01       		.uleb128 0x1
 18465 399b 50       		.byte	0x50
 18466 399c 02       		.uleb128 0x2
 18467 399d 78       		.byte	0x78
 18468 399e 00       		.sleb128 0
 18469 399f 00       		.byte	0
 18470 39a0 26       		.uleb128 0x26
 18471 39a1 A4000000 		.4byte	.LVL931
 18472 39a5 793D0000 		.4byte	0x3d79
 18473 39a9 B7390000 		.4byte	0x39b7
 18474 39ad 23       		.uleb128 0x23
 18475 39ae 01       		.uleb128 0x1
 18476 39af 50       		.byte	0x50
 18477 39b0 05       		.uleb128 0x5
 18478 39b1 03       		.byte	0x3
 18479 39b2 60260000 		.4byte	.LC290
 18480 39b6 00       		.byte	0
 18481 39b7 26       		.uleb128 0x26
 18482 39b8 B0000000 		.4byte	.LVL933
 18483 39bc D83C0000 		.4byte	0x3cd8
 18484 39c0 CE390000 		.4byte	0x39ce
 18485 39c4 23       		.uleb128 0x23
 18486 39c5 01       		.uleb128 0x1
 18487 39c6 51       		.byte	0x51
 18488 39c7 05       		.uleb128 0x5
 18489 39c8 03       		.byte	0x3
 18490 39c9 78260000 		.4byte	.LC291
 18491 39cd 00       		.byte	0
 18492 39ce 26       		.uleb128 0x26
 18493 39cf C2000000 		.4byte	.LVL935
 18494 39d3 F23C0000 		.4byte	0x3cf2
 18495 39d7 E5390000 		.4byte	0x39e5
 18496 39db 23       		.uleb128 0x23
 18497 39dc 01       		.uleb128 0x1
 18498 39dd 51       		.byte	0x51
 18499 39de 05       		.uleb128 0x5
 18500 39df 03       		.byte	0x3
 18501 39e0 7C260000 		.4byte	.LC292
 18502 39e4 00       		.byte	0
 18503 39e5 26       		.uleb128 0x26
 18504 39e6 D2000000 		.4byte	.LVL936
 18505 39ea D83C0000 		.4byte	0x3cd8
 18506 39ee FC390000 		.4byte	0x39fc
ARM GAS  C:\Users\doug_000\AppData\Local\Temp\ccbaKQF3.s 			page 372


 18507 39f2 23       		.uleb128 0x23
 18508 39f3 01       		.uleb128 0x1
 18509 39f4 51       		.byte	0x51
 18510 39f5 05       		.uleb128 0x5
 18511 39f6 03       		.byte	0x3
 18512 39f7 80260000 		.4byte	.LC293
 18513 39fb 00       		.byte	0
 18514 39fc 26       		.uleb128 0x26
 18515 39fd E4000000 		.4byte	.LVL938
 18516 3a01 F23C0000 		.4byte	0x3cf2
 18517 3a05 133A0000 		.4byte	0x3a13
 18518 3a09 23       		.uleb128 0x23
 18519 3a0a 01       		.uleb128 0x1
 18520 3a0b 51       		.byte	0x51
 18521 3a0c 05       		.uleb128 0x5
 18522 3a0d 03       		.byte	0x3
 18523 3a0e 5C260000 		.4byte	.LC289
 18524 3a12 00       		.byte	0
 18525 3a13 26       		.uleb128 0x26
 18526 3a14 FA000000 		.4byte	.LVL939
 18527 3a18 F23C0000 		.4byte	0x3cf2
 18528 3a1c 2A3A0000 		.4byte	0x3a2a
 18529 3a20 23       		.uleb128 0x23
 18530 3a21 01       		.uleb128 0x1
 18531 3a22 51       		.byte	0x51
 18532 3a23 05       		.uleb128 0x5
 18533 3a24 03       		.byte	0x3
 18534 3a25 5C260000 		.4byte	.LC289
 18535 3a29 00       		.byte	0
 18536 3a2a 26       		.uleb128 0x26
 18537 3a2b 12010000 		.4byte	.LVL941
 18538 3a2f F23C0000 		.4byte	0x3cf2
 18539 3a33 4A3A0000 		.4byte	0x3a4a
 18540 3a37 23       		.uleb128 0x23
 18541 3a38 01       		.uleb128 0x1
 18542 3a39 51       		.byte	0x51
 18543 3a3a 05       		.uleb128 0x5
 18544 3a3b 03       		.byte	0x3
 18545 3a3c 5C260000 		.4byte	.LC289
 18546 3a40 23       		.uleb128 0x23
 18547 3a41 01       		.uleb128 0x1
 18548 3a42 50       		.byte	0x50
 18549 3a43 05       		.uleb128 0x5
 18550 3a44 03       		.byte	0x3
 18551 3a45 84260000 		.4byte	.LC294
 18552 3a49 00       		.byte	0
 18553 3a4a 26       		.uleb128 0x26
 18554 3a4b 24010000 		.4byte	.LVL942
 18555 3a4f F23C0000 		.4byte	0x3cf2
 18556 3a53 6A3A0000 		.4byte	0x3a6a
 18557 3a57 23       		.uleb128 0x23
 18558 3a58 01       		.uleb128 0x1
 18559 3a59 51       		.byte	0x51
 18560 3a5a 05       		.uleb128 0x5
 18561 3a5b 03       		.byte	0x3
 18562 3a5c 7C260000 		.4byte	.LC292
 18563 3a60 23       		.uleb128 0x23
ARM GAS  C:\Users\doug_000\AppData\Local\Temp\ccbaKQF3.s 			page 373


 18564 3a61 01       		.uleb128 0x1
 18565 3a62 50       		.byte	0x50
 18566 3a63 05       		.uleb128 0x5
 18567 3a64 03       		.byte	0x3
 18568 3a65 90260000 		.4byte	.LC295
 18569 3a69 00       		.byte	0
 18570 3a6a 22       		.uleb128 0x22
 18571 3a6b 2E010000 		.4byte	.LVL943
 18572 3a6f CB370000 		.4byte	0x37cb
 18573 3a73 23       		.uleb128 0x23
 18574 3a74 01       		.uleb128 0x1
 18575 3a75 50       		.byte	0x50
 18576 3a76 02       		.uleb128 0x2
 18577 3a77 77       		.byte	0x77
 18578 3a78 00       		.sleb128 0
 18579 3a79 00       		.byte	0
 18580 3a7a 00       		.byte	0
 18581 3a7b 0F       		.uleb128 0xf
 18582 3a7c 04       		.byte	0x4
 18583 3a7d 55050000 		.4byte	0x555
 18584 3a81 36       		.uleb128 0x36
 18585 3a82 66070000 		.4byte	.LASF172
 18586 3a86 01       		.byte	0x1
 18587 3a87 46       		.byte	0x46
 18588 3a88 33000000 		.4byte	0x33
 18589 3a8c 05       		.uleb128 0x5
 18590 3a8d 03       		.byte	0x3
 18591 3a8e 10000000 		.4byte	Debugging
 18592 3a92 37       		.uleb128 0x37
 18593 3a93 4F050000 		.4byte	.LASF173
 18594 3a97 05       		.byte	0x5
 18595 3a98 FA02     		.2byte	0x2fa
 18596 3a9a 1D040000 		.4byte	0x41d
 18597 3a9e 09       		.uleb128 0x9
 18598 3a9f 33000000 		.4byte	0x33
 18599 3aa3 AF3A0000 		.4byte	0x3aaf
 18600 3aa7 35       		.uleb128 0x35
 18601 3aa8 D4000000 		.4byte	0xd4
 18602 3aac FF0F     		.2byte	0xfff
 18603 3aae 00       		.byte	0
 18604 3aaf 38       		.uleb128 0x38
 18605 3ab0 21020000 		.4byte	.LASF174
 18606 3ab4 01       		.byte	0x1
 18607 3ab5 47       		.byte	0x47
 18608 3ab6 9E3A0000 		.4byte	0x3a9e
 18609 3aba 05       		.uleb128 0x5
 18610 3abb 03       		.byte	0x3
 18611 3abc 00000000 		.4byte	DebugLog
 18612 3ac0 38       		.uleb128 0x38
 18613 3ac1 2A020000 		.4byte	.LASF175
 18614 3ac5 01       		.byte	0x1
 18615 3ac6 48       		.byte	0x48
 18616 3ac7 33000000 		.4byte	0x33
 18617 3acb 05       		.uleb128 0x5
 18618 3acc 03       		.byte	0x3
 18619 3acd 00000000 		.4byte	LogHere
 18620 3ad1 38       		.uleb128 0x38
ARM GAS  C:\Users\doug_000\AppData\Local\Temp\ccbaKQF3.s 			page 374


 18621 3ad2 20000000 		.4byte	.LASF176
 18622 3ad6 01       		.byte	0x1
 18623 3ad7 49       		.byte	0x49
 18624 3ad8 33000000 		.4byte	0x33
 18625 3adc 05       		.uleb128 0x5
 18626 3add 03       		.byte	0x3
 18627 3ade 00000000 		.4byte	Watcher
 18628 3ae2 38       		.uleb128 0x38
 18629 3ae3 1F030000 		.4byte	.LASF177
 18630 3ae7 01       		.byte	0x1
 18631 3ae8 49       		.byte	0x49
 18632 3ae9 33000000 		.4byte	0x33
 18633 3aed 05       		.uleb128 0x5
 18634 3aee 03       		.byte	0x3
 18635 3aef 00000000 		.4byte	Watchee
 18636 3af3 09       		.uleb128 0x9
 18637 3af4 41000000 		.4byte	0x41
 18638 3af8 043B0000 		.4byte	0x3b04
 18639 3afc 35       		.uleb128 0x35
 18640 3afd D4000000 		.4byte	0xd4
 18641 3b01 FF3F     		.2byte	0x3fff
 18642 3b03 00       		.byte	0
 18643 3b04 38       		.uleb128 0x38
 18644 3b05 96010000 		.4byte	.LASF178
 18645 3b09 01       		.byte	0x1
 18646 3b0a 4C       		.byte	0x4c
 18647 3b0b F33A0000 		.4byte	0x3af3
 18648 3b0f 05       		.uleb128 0x5
 18649 3b10 03       		.byte	0x3
 18650 3b11 00000000 		.4byte	Core
 18651 3b15 09       		.uleb128 0x9
 18652 3b16 41000000 		.4byte	0x41
 18653 3b1a 253B0000 		.4byte	0x3b25
 18654 3b1e 0A       		.uleb128 0xa
 18655 3b1f D4000000 		.4byte	0xd4
 18656 3b23 7F       		.byte	0x7f
 18657 3b24 00       		.byte	0
 18658 3b25 38       		.uleb128 0x38
 18659 3b26 D8010000 		.4byte	.LASF179
 18660 3b2a 01       		.byte	0x1
 18661 3b2b 4D       		.byte	0x4d
 18662 3b2c 153B0000 		.4byte	0x3b15
 18663 3b30 05       		.uleb128 0x5
 18664 3b31 03       		.byte	0x3
 18665 3b32 00000000 		.4byte	DeCaps
 18666 3b36 38       		.uleb128 0x38
 18667 3b37 B7050000 		.4byte	.LASF180
 18668 3b3b 01       		.byte	0x1
 18669 3b3c 4E       		.byte	0x4e
 18670 3b3d 33000000 		.4byte	0x33
 18671 3b41 05       		.uleb128 0x5
 18672 3b42 03       		.byte	0x3
 18673 3b43 00000000 		.4byte	Lino
 18674 3b47 38       		.uleb128 0x38
 18675 3b48 AA020000 		.4byte	.LASF181
 18676 3b4c 01       		.byte	0x1
 18677 3b4d 4E       		.byte	0x4e
ARM GAS  C:\Users\doug_000\AppData\Local\Temp\ccbaKQF3.s 			page 375


 18678 3b4e 33000000 		.4byte	0x33
 18679 3b52 05       		.uleb128 0x5
 18680 3b53 03       		.byte	0x3
 18681 3b54 00000000 		.4byte	ILPC
 18682 3b58 39       		.uleb128 0x39
 18683 3b59 425000   		.ascii	"BP\000"
 18684 3b5c 01       		.byte	0x1
 18685 3b5d 4F       		.byte	0x4f
 18686 3b5e 33000000 		.4byte	0x33
 18687 3b62 05       		.uleb128 0x5
 18688 3b63 03       		.byte	0x3
 18689 3b64 00000000 		.4byte	BP
 18690 3b68 38       		.uleb128 0x38
 18691 3b69 63050000 		.4byte	.LASF182
 18692 3b6d 01       		.byte	0x1
 18693 3b6e 4F       		.byte	0x4f
 18694 3b6f 33000000 		.4byte	0x33
 18695 3b73 05       		.uleb128 0x5
 18696 3b74 03       		.byte	0x3
 18697 3b75 00000000 		.4byte	SvPt
 18698 3b79 38       		.uleb128 0x38
 18699 3b7a F2010000 		.4byte	.LASF183
 18700 3b7e 01       		.byte	0x1
 18701 3b7f 50       		.byte	0x50
 18702 3b80 33000000 		.4byte	0x33
 18703 3b84 05       		.uleb128 0x5
 18704 3b85 03       		.byte	0x3
 18705 3b86 00000000 		.4byte	SubStk
 18706 3b8a 38       		.uleb128 0x38
 18707 3b8b 26040000 		.4byte	.LASF184
 18708 3b8f 01       		.byte	0x1
 18709 3b90 50       		.byte	0x50
 18710 3b91 33000000 		.4byte	0x33
 18711 3b95 05       		.uleb128 0x5
 18712 3b96 03       		.byte	0x3
 18713 3b97 00000000 		.4byte	ExpnTop
 18714 3b9b 38       		.uleb128 0x38
 18715 3b9c E3000000 		.4byte	.LASF185
 18716 3ba0 01       		.byte	0x1
 18717 3ba1 51       		.byte	0x51
 18718 3ba2 33000000 		.4byte	0x33
 18719 3ba6 05       		.uleb128 0x5
 18720 3ba7 03       		.byte	0x3
 18721 3ba8 00000000 		.4byte	InLend
 18722 3bac 38       		.uleb128 0x38
 18723 3bad 19000000 		.4byte	.LASF186
 18724 3bb1 01       		.byte	0x1
 18725 3bb2 51       		.byte	0x51
 18726 3bb3 33000000 		.4byte	0x33
 18727 3bb7 05       		.uleb128 0x5
 18728 3bb8 03       		.byte	0x3
 18729 3bb9 00000000 		.4byte	SrcEnd
 18730 3bbd 38       		.uleb128 0x38
 18731 3bbe B9000000 		.4byte	.LASF187
 18732 3bc2 01       		.byte	0x1
 18733 3bc3 52       		.byte	0x52
 18734 3bc4 33000000 		.4byte	0x33
ARM GAS  C:\Users\doug_000\AppData\Local\Temp\ccbaKQF3.s 			page 376


 18735 3bc8 05       		.uleb128 0x5
 18736 3bc9 03       		.byte	0x3
 18737 3bca 00000000 		.4byte	UserEnd
 18738 3bce 38       		.uleb128 0x38
 18739 3bcf B7020000 		.4byte	.LASF188
 18740 3bd3 01       		.byte	0x1
 18741 3bd4 53       		.byte	0x53
 18742 3bd5 33000000 		.4byte	0x33
 18743 3bd9 05       		.uleb128 0x5
 18744 3bda 03       		.byte	0x3
 18745 3bdb 00000000 		.4byte	ILend
 18746 3bdf 38       		.uleb128 0x38
 18747 3be0 9B010000 		.4byte	.LASF189
 18748 3be4 01       		.byte	0x1
 18749 3be5 53       		.byte	0x53
 18750 3be6 33000000 		.4byte	0x33
 18751 3bea 05       		.uleb128 0x5
 18752 3beb 03       		.byte	0x3
 18753 3bec 00000000 		.4byte	XQhere
 18754 3bf0 38       		.uleb128 0x38
 18755 3bf1 77000000 		.4byte	.LASF190
 18756 3bf5 01       		.byte	0x1
 18757 3bf6 54       		.byte	0x54
 18758 3bf7 33000000 		.4byte	0x33
 18759 3bfb 05       		.uleb128 0x5
 18760 3bfc 03       		.byte	0x3
 18761 3bfd 00000000 		.4byte	Broken
 18762 3c01 38       		.uleb128 0x38
 18763 3c02 1F050000 		.4byte	.LASF191
 18764 3c06 01       		.byte	0x1
 18765 3c07 55       		.byte	0x55
 18766 3c08 C6080000 		.4byte	0x8c6
 18767 3c0c 05       		.uleb128 0x5
 18768 3c0d 03       		.byte	0x3
 18769 3c0e 00000000 		.4byte	inFile
 18770 3c12 38       		.uleb128 0x38
 18771 3c13 83070000 		.4byte	.LASF192
 18772 3c17 01       		.byte	0x1
 18773 3c18 56       		.byte	0x56
 18774 3c19 C6080000 		.4byte	0x8c6
 18775 3c1d 05       		.uleb128 0x5
 18776 3c1e 03       		.byte	0x3
 18777 3c1f 00000000 		.4byte	oFile
 18778 3c23 3A       		.uleb128 0x3a
 18779 3c24 35030000 		.4byte	.LASF193
 18780 3c28 06       		.byte	0x6
 18781 3c29 BE       		.byte	0xbe
 18782 3c2a 33000000 		.4byte	0x33
 18783 3c2e 383C0000 		.4byte	0x3c38
 18784 3c32 14       		.uleb128 0x14
 18785 3c33 C6080000 		.4byte	0x8c6
 18786 3c37 00       		.byte	0
 18787 3c38 3A       		.uleb128 0x3a
 18788 3c39 CA030000 		.4byte	.LASF194
 18789 3c3d 06       		.byte	0x6
 18790 3c3e C0       		.byte	0xc0
 18791 3c3f 33000000 		.4byte	0x33
ARM GAS  C:\Users\doug_000\AppData\Local\Temp\ccbaKQF3.s 			page 377


 18792 3c43 523C0000 		.4byte	0x3c52
 18793 3c47 14       		.uleb128 0x14
 18794 3c48 33000000 		.4byte	0x33
 18795 3c4c 14       		.uleb128 0x14
 18796 3c4d C6080000 		.4byte	0x8c6
 18797 3c51 00       		.byte	0
 18798 3c52 3B       		.uleb128 0x3b
 18799 3c53 CF070000 		.4byte	.LASF195
 18800 3c57 06       		.byte	0x6
 18801 3c58 1B02     		.2byte	0x21b
 18802 3c5a 33000000 		.4byte	0x33
 18803 3c5e 723C0000 		.4byte	0x3c72
 18804 3c62 14       		.uleb128 0x14
 18805 3c63 1D040000 		.4byte	0x41d
 18806 3c67 14       		.uleb128 0x14
 18807 3c68 33000000 		.4byte	0x33
 18808 3c6c 14       		.uleb128 0x14
 18809 3c6d C6080000 		.4byte	0x8c6
 18810 3c71 00       		.byte	0
 18811 3c72 3A       		.uleb128 0x3a
 18812 3c73 EF020000 		.4byte	.LASF196
 18813 3c77 06       		.byte	0x6
 18814 3c78 A9       		.byte	0xa9
 18815 3c79 33000000 		.4byte	0x33
 18816 3c7d 873C0000 		.4byte	0x3c87
 18817 3c81 14       		.uleb128 0x14
 18818 3c82 C6080000 		.4byte	0x8c6
 18819 3c86 00       		.byte	0
 18820 3c87 3B       		.uleb128 0x3b
 18821 3c88 B9030000 		.4byte	.LASF197
 18822 3c8c 06       		.byte	0x6
 18823 3c8d 1A02     		.2byte	0x21a
 18824 3c8f 33000000 		.4byte	0x33
 18825 3c93 A23C0000 		.4byte	0x3ca2
 18826 3c97 14       		.uleb128 0x14
 18827 3c98 1D040000 		.4byte	0x41d
 18828 3c9c 14       		.uleb128 0x14
 18829 3c9d C6080000 		.4byte	0x8c6
 18830 3ca1 00       		.byte	0
 18831 3ca2 3C       		.uleb128 0x3c
 18832 3ca3 47020000 		.4byte	.LASF210
 18833 3ca7 09       		.byte	0x9
 18834 3ca8 00       		.byte	0
 18835 3ca9 18030000 		.4byte	.LASF211
 18836 3cad 2C000000 		.4byte	0x2c
 18837 3cb1 BB3C0000 		.4byte	0x3cbb
 18838 3cb5 14       		.uleb128 0x14
 18839 3cb6 86050000 		.4byte	0x586
 18840 3cba 00       		.byte	0
 18841 3cbb 3D       		.uleb128 0x3d
 18842 3cbc 50040000 		.4byte	.LASF204
 18843 3cc0 76000000 		.4byte	0x76
 18844 3cc4 D83C0000 		.4byte	0x3cd8
 18845 3cc8 14       		.uleb128 0x14
 18846 3cc9 76000000 		.4byte	0x76
 18847 3ccd 14       		.uleb128 0x14
 18848 3cce 77080000 		.4byte	0x877
ARM GAS  C:\Users\doug_000\AppData\Local\Temp\ccbaKQF3.s 			page 378


 18849 3cd2 14       		.uleb128 0x14
 18850 3cd3 D4000000 		.4byte	0xd4
 18851 3cd7 00       		.byte	0
 18852 3cd8 3A       		.uleb128 0x3a
 18853 3cd9 97050000 		.4byte	.LASF198
 18854 3cdd 07       		.byte	0x7
 18855 3cde 1C       		.byte	0x1c
 18856 3cdf 33000000 		.4byte	0x33
 18857 3ce3 F23C0000 		.4byte	0x3cf2
 18858 3ce7 14       		.uleb128 0x14
 18859 3ce8 86050000 		.4byte	0x586
 18860 3cec 14       		.uleb128 0x14
 18861 3ced 86050000 		.4byte	0x586
 18862 3cf1 00       		.byte	0
 18863 3cf2 3A       		.uleb128 0x3a
 18864 3cf3 2E040000 		.4byte	.LASF199
 18865 3cf7 06       		.byte	0x6
 18866 3cf8 DD       		.byte	0xdd
 18867 3cf9 C6080000 		.4byte	0x8c6
 18868 3cfd 0C3D0000 		.4byte	0x3d0c
 18869 3d01 14       		.uleb128 0x14
 18870 3d02 86050000 		.4byte	0x586
 18871 3d06 14       		.uleb128 0x14
 18872 3d07 86050000 		.4byte	0x586
 18873 3d0b 00       		.byte	0
 18874 3d0c 3A       		.uleb128 0x3a
 18875 3d0d 01010000 		.4byte	.LASF200
 18876 3d11 06       		.byte	0x6
 18877 3d12 D0       		.byte	0xd0
 18878 3d13 33000000 		.4byte	0x33
 18879 3d17 2B3D0000 		.4byte	0x3d2b
 18880 3d1b 14       		.uleb128 0x14
 18881 3d1c C6080000 		.4byte	0x8c6
 18882 3d20 14       		.uleb128 0x14
 18883 3d21 56000000 		.4byte	0x56
 18884 3d25 14       		.uleb128 0x14
 18885 3d26 33000000 		.4byte	0x33
 18886 3d2a 00       		.byte	0
 18887 3d2b 3A       		.uleb128 0x3a
 18888 3d2c B6070000 		.4byte	.LASF201
 18889 3d30 06       		.byte	0x6
 18890 3d31 D6       		.byte	0xd6
 18891 3d32 56000000 		.4byte	0x56
 18892 3d36 403D0000 		.4byte	0x3d40
 18893 3d3a 14       		.uleb128 0x14
 18894 3d3b C6080000 		.4byte	0x8c6
 18895 3d3f 00       		.byte	0
 18896 3d40 3A       		.uleb128 0x3a
 18897 3d41 0C000000 		.4byte	.LASF202
 18898 3d45 08       		.byte	0x8
 18899 3d46 61       		.byte	0x61
 18900 3d47 76000000 		.4byte	0x76
 18901 3d4b 553D0000 		.4byte	0x3d55
 18902 3d4f 14       		.uleb128 0x14
 18903 3d50 6B000000 		.4byte	0x6b
 18904 3d54 00       		.byte	0
 18905 3d55 3A       		.uleb128 0x3a
ARM GAS  C:\Users\doug_000\AppData\Local\Temp\ccbaKQF3.s 			page 379


 18906 3d56 FA040000 		.4byte	.LASF203
 18907 3d5a 06       		.byte	0x6
 18908 3d5b C9       		.byte	0xc9
 18909 3d5c 6B000000 		.4byte	0x6b
 18910 3d60 793D0000 		.4byte	0x3d79
 18911 3d64 14       		.uleb128 0x14
 18912 3d65 76000000 		.4byte	0x76
 18913 3d69 14       		.uleb128 0x14
 18914 3d6a 6B000000 		.4byte	0x6b
 18915 3d6e 14       		.uleb128 0x14
 18916 3d6f 6B000000 		.4byte	0x6b
 18917 3d73 14       		.uleb128 0x14
 18918 3d74 C6080000 		.4byte	0x8c6
 18919 3d78 00       		.byte	0
 18920 3d79 3E       		.uleb128 0x3e
 18921 3d7a B2010000 		.4byte	.LASF205
 18922 3d7e 06       		.byte	0x6
 18923 3d7f B2       		.byte	0xb2
 18924 3d80 33000000 		.4byte	0x33
 18925 3d84 14       		.uleb128 0x14
 18926 3d85 86050000 		.4byte	0x586
 18927 3d89 3F       		.uleb128 0x3f
 18928 3d8a 00       		.byte	0
 18929 3d8b 00       		.byte	0
 18930              		.section	.debug_abbrev,"",%progbits
 18931              	.Ldebug_abbrev0:
 18932 0000 01       		.uleb128 0x1
 18933 0001 11       		.uleb128 0x11
 18934 0002 01       		.byte	0x1
 18935 0003 25       		.uleb128 0x25
 18936 0004 0E       		.uleb128 0xe
 18937 0005 13       		.uleb128 0x13
 18938 0006 0B       		.uleb128 0xb
 18939 0007 03       		.uleb128 0x3
 18940 0008 0E       		.uleb128 0xe
 18941 0009 1B       		.uleb128 0x1b
 18942 000a 0E       		.uleb128 0xe
 18943 000b 55       		.uleb128 0x55
 18944 000c 17       		.uleb128 0x17
 18945 000d 11       		.uleb128 0x11
 18946 000e 01       		.uleb128 0x1
 18947 000f 10       		.uleb128 0x10
 18948 0010 17       		.uleb128 0x17
 18949 0011 00       		.byte	0
 18950 0012 00       		.byte	0
 18951 0013 02       		.uleb128 0x2
 18952 0014 24       		.uleb128 0x24
 18953 0015 00       		.byte	0
 18954 0016 0B       		.uleb128 0xb
 18955 0017 0B       		.uleb128 0xb
 18956 0018 3E       		.uleb128 0x3e
 18957 0019 0B       		.uleb128 0xb
 18958 001a 03       		.uleb128 0x3
 18959 001b 0E       		.uleb128 0xe
 18960 001c 00       		.byte	0
 18961 001d 00       		.byte	0
 18962 001e 03       		.uleb128 0x3
ARM GAS  C:\Users\doug_000\AppData\Local\Temp\ccbaKQF3.s 			page 380


 18963 001f 24       		.uleb128 0x24
 18964 0020 00       		.byte	0
 18965 0021 0B       		.uleb128 0xb
 18966 0022 0B       		.uleb128 0xb
 18967 0023 3E       		.uleb128 0x3e
 18968 0024 0B       		.uleb128 0xb
 18969 0025 03       		.uleb128 0x3
 18970 0026 08       		.uleb128 0x8
 18971 0027 00       		.byte	0
 18972 0028 00       		.byte	0
 18973 0029 04       		.uleb128 0x4
 18974 002a 16       		.uleb128 0x16
 18975 002b 00       		.byte	0
 18976 002c 03       		.uleb128 0x3
 18977 002d 0E       		.uleb128 0xe
 18978 002e 3A       		.uleb128 0x3a
 18979 002f 0B       		.uleb128 0xb
 18980 0030 3B       		.uleb128 0x3b
 18981 0031 0B       		.uleb128 0xb
 18982 0032 49       		.uleb128 0x49
 18983 0033 13       		.uleb128 0x13
 18984 0034 00       		.byte	0
 18985 0035 00       		.byte	0
 18986 0036 05       		.uleb128 0x5
 18987 0037 0F       		.uleb128 0xf
 18988 0038 00       		.byte	0
 18989 0039 0B       		.uleb128 0xb
 18990 003a 0B       		.uleb128 0xb
 18991 003b 00       		.byte	0
 18992 003c 00       		.byte	0
 18993 003d 06       		.uleb128 0x6
 18994 003e 16       		.uleb128 0x16
 18995 003f 00       		.byte	0
 18996 0040 03       		.uleb128 0x3
 18997 0041 0E       		.uleb128 0xe
 18998 0042 3A       		.uleb128 0x3a
 18999 0043 0B       		.uleb128 0xb
 19000 0044 3B       		.uleb128 0x3b
 19001 0045 05       		.uleb128 0x5
 19002 0046 49       		.uleb128 0x49
 19003 0047 13       		.uleb128 0x13
 19004 0048 00       		.byte	0
 19005 0049 00       		.byte	0
 19006 004a 07       		.uleb128 0x7
 19007 004b 17       		.uleb128 0x17
 19008 004c 01       		.byte	0x1
 19009 004d 0B       		.uleb128 0xb
 19010 004e 0B       		.uleb128 0xb
 19011 004f 3A       		.uleb128 0x3a
 19012 0050 0B       		.uleb128 0xb
 19013 0051 3B       		.uleb128 0x3b
 19014 0052 0B       		.uleb128 0xb
 19015 0053 01       		.uleb128 0x1
 19016 0054 13       		.uleb128 0x13
 19017 0055 00       		.byte	0
 19018 0056 00       		.byte	0
 19019 0057 08       		.uleb128 0x8
ARM GAS  C:\Users\doug_000\AppData\Local\Temp\ccbaKQF3.s 			page 381


 19020 0058 0D       		.uleb128 0xd
 19021 0059 00       		.byte	0
 19022 005a 03       		.uleb128 0x3
 19023 005b 0E       		.uleb128 0xe
 19024 005c 3A       		.uleb128 0x3a
 19025 005d 0B       		.uleb128 0xb
 19026 005e 3B       		.uleb128 0x3b
 19027 005f 0B       		.uleb128 0xb
 19028 0060 49       		.uleb128 0x49
 19029 0061 13       		.uleb128 0x13
 19030 0062 00       		.byte	0
 19031 0063 00       		.byte	0
 19032 0064 09       		.uleb128 0x9
 19033 0065 01       		.uleb128 0x1
 19034 0066 01       		.byte	0x1
 19035 0067 49       		.uleb128 0x49
 19036 0068 13       		.uleb128 0x13
 19037 0069 01       		.uleb128 0x1
 19038 006a 13       		.uleb128 0x13
 19039 006b 00       		.byte	0
 19040 006c 00       		.byte	0
 19041 006d 0A       		.uleb128 0xa
 19042 006e 21       		.uleb128 0x21
 19043 006f 00       		.byte	0
 19044 0070 49       		.uleb128 0x49
 19045 0071 13       		.uleb128 0x13
 19046 0072 2F       		.uleb128 0x2f
 19047 0073 0B       		.uleb128 0xb
 19048 0074 00       		.byte	0
 19049 0075 00       		.byte	0
 19050 0076 0B       		.uleb128 0xb
 19051 0077 13       		.uleb128 0x13
 19052 0078 01       		.byte	0x1
 19053 0079 0B       		.uleb128 0xb
 19054 007a 0B       		.uleb128 0xb
 19055 007b 3A       		.uleb128 0x3a
 19056 007c 0B       		.uleb128 0xb
 19057 007d 3B       		.uleb128 0x3b
 19058 007e 0B       		.uleb128 0xb
 19059 007f 01       		.uleb128 0x1
 19060 0080 13       		.uleb128 0x13
 19061 0081 00       		.byte	0
 19062 0082 00       		.byte	0
 19063 0083 0C       		.uleb128 0xc
 19064 0084 0D       		.uleb128 0xd
 19065 0085 00       		.byte	0
 19066 0086 03       		.uleb128 0x3
 19067 0087 0E       		.uleb128 0xe
 19068 0088 3A       		.uleb128 0x3a
 19069 0089 0B       		.uleb128 0xb
 19070 008a 3B       		.uleb128 0x3b
 19071 008b 0B       		.uleb128 0xb
 19072 008c 49       		.uleb128 0x49
 19073 008d 13       		.uleb128 0x13
 19074 008e 38       		.uleb128 0x38
 19075 008f 0B       		.uleb128 0xb
 19076 0090 00       		.byte	0
ARM GAS  C:\Users\doug_000\AppData\Local\Temp\ccbaKQF3.s 			page 382


 19077 0091 00       		.byte	0
 19078 0092 0D       		.uleb128 0xd
 19079 0093 13       		.uleb128 0x13
 19080 0094 01       		.byte	0x1
 19081 0095 03       		.uleb128 0x3
 19082 0096 0E       		.uleb128 0xe
 19083 0097 0B       		.uleb128 0xb
 19084 0098 0B       		.uleb128 0xb
 19085 0099 3A       		.uleb128 0x3a
 19086 009a 0B       		.uleb128 0xb
 19087 009b 3B       		.uleb128 0x3b
 19088 009c 0B       		.uleb128 0xb
 19089 009d 01       		.uleb128 0x1
 19090 009e 13       		.uleb128 0x13
 19091 009f 00       		.byte	0
 19092 00a0 00       		.byte	0
 19093 00a1 0E       		.uleb128 0xe
 19094 00a2 0D       		.uleb128 0xd
 19095 00a3 00       		.byte	0
 19096 00a4 03       		.uleb128 0x3
 19097 00a5 08       		.uleb128 0x8
 19098 00a6 3A       		.uleb128 0x3a
 19099 00a7 0B       		.uleb128 0xb
 19100 00a8 3B       		.uleb128 0x3b
 19101 00a9 0B       		.uleb128 0xb
 19102 00aa 49       		.uleb128 0x49
 19103 00ab 13       		.uleb128 0x13
 19104 00ac 38       		.uleb128 0x38
 19105 00ad 0B       		.uleb128 0xb
 19106 00ae 00       		.byte	0
 19107 00af 00       		.byte	0
 19108 00b0 0F       		.uleb128 0xf
 19109 00b1 0F       		.uleb128 0xf
 19110 00b2 00       		.byte	0
 19111 00b3 0B       		.uleb128 0xb
 19112 00b4 0B       		.uleb128 0xb
 19113 00b5 49       		.uleb128 0x49
 19114 00b6 13       		.uleb128 0x13
 19115 00b7 00       		.byte	0
 19116 00b8 00       		.byte	0
 19117 00b9 10       		.uleb128 0x10
 19118 00ba 13       		.uleb128 0x13
 19119 00bb 01       		.byte	0x1
 19120 00bc 03       		.uleb128 0x3
 19121 00bd 0E       		.uleb128 0xe
 19122 00be 0B       		.uleb128 0xb
 19123 00bf 05       		.uleb128 0x5
 19124 00c0 3A       		.uleb128 0x3a
 19125 00c1 0B       		.uleb128 0xb
 19126 00c2 3B       		.uleb128 0x3b
 19127 00c3 0B       		.uleb128 0xb
 19128 00c4 01       		.uleb128 0x1
 19129 00c5 13       		.uleb128 0x13
 19130 00c6 00       		.byte	0
 19131 00c7 00       		.byte	0
 19132 00c8 11       		.uleb128 0x11
 19133 00c9 0D       		.uleb128 0xd
ARM GAS  C:\Users\doug_000\AppData\Local\Temp\ccbaKQF3.s 			page 383


 19134 00ca 00       		.byte	0
 19135 00cb 03       		.uleb128 0x3
 19136 00cc 0E       		.uleb128 0xe
 19137 00cd 3A       		.uleb128 0x3a
 19138 00ce 0B       		.uleb128 0xb
 19139 00cf 3B       		.uleb128 0x3b
 19140 00d0 0B       		.uleb128 0xb
 19141 00d1 49       		.uleb128 0x49
 19142 00d2 13       		.uleb128 0x13
 19143 00d3 38       		.uleb128 0x38
 19144 00d4 05       		.uleb128 0x5
 19145 00d5 00       		.byte	0
 19146 00d6 00       		.byte	0
 19147 00d7 12       		.uleb128 0x12
 19148 00d8 15       		.uleb128 0x15
 19149 00d9 00       		.byte	0
 19150 00da 27       		.uleb128 0x27
 19151 00db 19       		.uleb128 0x19
 19152 00dc 00       		.byte	0
 19153 00dd 00       		.byte	0
 19154 00de 13       		.uleb128 0x13
 19155 00df 15       		.uleb128 0x15
 19156 00e0 01       		.byte	0x1
 19157 00e1 27       		.uleb128 0x27
 19158 00e2 19       		.uleb128 0x19
 19159 00e3 49       		.uleb128 0x49
 19160 00e4 13       		.uleb128 0x13
 19161 00e5 01       		.uleb128 0x1
 19162 00e6 13       		.uleb128 0x13
 19163 00e7 00       		.byte	0
 19164 00e8 00       		.byte	0
 19165 00e9 14       		.uleb128 0x14
 19166 00ea 05       		.uleb128 0x5
 19167 00eb 00       		.byte	0
 19168 00ec 49       		.uleb128 0x49
 19169 00ed 13       		.uleb128 0x13
 19170 00ee 00       		.byte	0
 19171 00ef 00       		.byte	0
 19172 00f0 15       		.uleb128 0x15
 19173 00f1 13       		.uleb128 0x13
 19174 00f2 01       		.byte	0x1
 19175 00f3 03       		.uleb128 0x3
 19176 00f4 0E       		.uleb128 0xe
 19177 00f5 0B       		.uleb128 0xb
 19178 00f6 05       		.uleb128 0x5
 19179 00f7 3A       		.uleb128 0x3a
 19180 00f8 0B       		.uleb128 0xb
 19181 00f9 3B       		.uleb128 0x3b
 19182 00fa 05       		.uleb128 0x5
 19183 00fb 01       		.uleb128 0x1
 19184 00fc 13       		.uleb128 0x13
 19185 00fd 00       		.byte	0
 19186 00fe 00       		.byte	0
 19187 00ff 16       		.uleb128 0x16
 19188 0100 0D       		.uleb128 0xd
 19189 0101 00       		.byte	0
 19190 0102 03       		.uleb128 0x3
ARM GAS  C:\Users\doug_000\AppData\Local\Temp\ccbaKQF3.s 			page 384


 19191 0103 0E       		.uleb128 0xe
 19192 0104 3A       		.uleb128 0x3a
 19193 0105 0B       		.uleb128 0xb
 19194 0106 3B       		.uleb128 0x3b
 19195 0107 05       		.uleb128 0x5
 19196 0108 49       		.uleb128 0x49
 19197 0109 13       		.uleb128 0x13
 19198 010a 38       		.uleb128 0x38
 19199 010b 0B       		.uleb128 0xb
 19200 010c 00       		.byte	0
 19201 010d 00       		.byte	0
 19202 010e 17       		.uleb128 0x17
 19203 010f 0D       		.uleb128 0xd
 19204 0110 00       		.byte	0
 19205 0111 03       		.uleb128 0x3
 19206 0112 0E       		.uleb128 0xe
 19207 0113 3A       		.uleb128 0x3a
 19208 0114 0B       		.uleb128 0xb
 19209 0115 3B       		.uleb128 0x3b
 19210 0116 05       		.uleb128 0x5
 19211 0117 49       		.uleb128 0x49
 19212 0118 13       		.uleb128 0x13
 19213 0119 38       		.uleb128 0x38
 19214 011a 05       		.uleb128 0x5
 19215 011b 00       		.byte	0
 19216 011c 00       		.byte	0
 19217 011d 18       		.uleb128 0x18
 19218 011e 26       		.uleb128 0x26
 19219 011f 00       		.byte	0
 19220 0120 49       		.uleb128 0x49
 19221 0121 13       		.uleb128 0x13
 19222 0122 00       		.byte	0
 19223 0123 00       		.byte	0
 19224 0124 19       		.uleb128 0x19
 19225 0125 13       		.uleb128 0x13
 19226 0126 01       		.byte	0x1
 19227 0127 03       		.uleb128 0x3
 19228 0128 0E       		.uleb128 0xe
 19229 0129 0B       		.uleb128 0xb
 19230 012a 0B       		.uleb128 0xb
 19231 012b 3A       		.uleb128 0x3a
 19232 012c 0B       		.uleb128 0xb
 19233 012d 3B       		.uleb128 0x3b
 19234 012e 05       		.uleb128 0x5
 19235 012f 01       		.uleb128 0x1
 19236 0130 13       		.uleb128 0x13
 19237 0131 00       		.byte	0
 19238 0132 00       		.byte	0
 19239 0133 1A       		.uleb128 0x1a
 19240 0134 13       		.uleb128 0x13
 19241 0135 01       		.byte	0x1
 19242 0136 0B       		.uleb128 0xb
 19243 0137 0B       		.uleb128 0xb
 19244 0138 3A       		.uleb128 0x3a
 19245 0139 0B       		.uleb128 0xb
 19246 013a 3B       		.uleb128 0x3b
 19247 013b 05       		.uleb128 0x5
ARM GAS  C:\Users\doug_000\AppData\Local\Temp\ccbaKQF3.s 			page 385


 19248 013c 01       		.uleb128 0x1
 19249 013d 13       		.uleb128 0x13
 19250 013e 00       		.byte	0
 19251 013f 00       		.byte	0
 19252 0140 1B       		.uleb128 0x1b
 19253 0141 17       		.uleb128 0x17
 19254 0142 01       		.byte	0x1
 19255 0143 0B       		.uleb128 0xb
 19256 0144 0B       		.uleb128 0xb
 19257 0145 3A       		.uleb128 0x3a
 19258 0146 0B       		.uleb128 0xb
 19259 0147 3B       		.uleb128 0x3b
 19260 0148 05       		.uleb128 0x5
 19261 0149 01       		.uleb128 0x1
 19262 014a 13       		.uleb128 0x13
 19263 014b 00       		.byte	0
 19264 014c 00       		.byte	0
 19265 014d 1C       		.uleb128 0x1c
 19266 014e 0D       		.uleb128 0xd
 19267 014f 00       		.byte	0
 19268 0150 03       		.uleb128 0x3
 19269 0151 0E       		.uleb128 0xe
 19270 0152 3A       		.uleb128 0x3a
 19271 0153 0B       		.uleb128 0xb
 19272 0154 3B       		.uleb128 0x3b
 19273 0155 05       		.uleb128 0x5
 19274 0156 49       		.uleb128 0x49
 19275 0157 13       		.uleb128 0x13
 19276 0158 00       		.byte	0
 19277 0159 00       		.byte	0
 19278 015a 1D       		.uleb128 0x1d
 19279 015b 15       		.uleb128 0x15
 19280 015c 01       		.byte	0x1
 19281 015d 27       		.uleb128 0x27
 19282 015e 19       		.uleb128 0x19
 19283 015f 01       		.uleb128 0x1
 19284 0160 13       		.uleb128 0x13
 19285 0161 00       		.byte	0
 19286 0162 00       		.byte	0
 19287 0163 1E       		.uleb128 0x1e
 19288 0164 26       		.uleb128 0x26
 19289 0165 00       		.byte	0
 19290 0166 00       		.byte	0
 19291 0167 00       		.byte	0
 19292 0168 1F       		.uleb128 0x1f
 19293 0169 2E       		.uleb128 0x2e
 19294 016a 01       		.byte	0x1
 19295 016b 3F       		.uleb128 0x3f
 19296 016c 19       		.uleb128 0x19
 19297 016d 03       		.uleb128 0x3
 19298 016e 0E       		.uleb128 0xe
 19299 016f 3A       		.uleb128 0x3a
 19300 0170 0B       		.uleb128 0xb
 19301 0171 3B       		.uleb128 0x3b
 19302 0172 0B       		.uleb128 0xb
 19303 0173 27       		.uleb128 0x27
 19304 0174 19       		.uleb128 0x19
ARM GAS  C:\Users\doug_000\AppData\Local\Temp\ccbaKQF3.s 			page 386


 19305 0175 49       		.uleb128 0x49
 19306 0176 13       		.uleb128 0x13
 19307 0177 11       		.uleb128 0x11
 19308 0178 01       		.uleb128 0x1
 19309 0179 12       		.uleb128 0x12
 19310 017a 06       		.uleb128 0x6
 19311 017b 40       		.uleb128 0x40
 19312 017c 18       		.uleb128 0x18
 19313 017d 9742     		.uleb128 0x2117
 19314 017f 19       		.uleb128 0x19
 19315 0180 01       		.uleb128 0x1
 19316 0181 13       		.uleb128 0x13
 19317 0182 00       		.byte	0
 19318 0183 00       		.byte	0
 19319 0184 20       		.uleb128 0x20
 19320 0185 05       		.uleb128 0x5
 19321 0186 00       		.byte	0
 19322 0187 03       		.uleb128 0x3
 19323 0188 08       		.uleb128 0x8
 19324 0189 3A       		.uleb128 0x3a
 19325 018a 0B       		.uleb128 0xb
 19326 018b 3B       		.uleb128 0x3b
 19327 018c 0B       		.uleb128 0xb
 19328 018d 49       		.uleb128 0x49
 19329 018e 13       		.uleb128 0x13
 19330 018f 02       		.uleb128 0x2
 19331 0190 17       		.uleb128 0x17
 19332 0191 00       		.byte	0
 19333 0192 00       		.byte	0
 19334 0193 21       		.uleb128 0x21
 19335 0194 34       		.uleb128 0x34
 19336 0195 00       		.byte	0
 19337 0196 03       		.uleb128 0x3
 19338 0197 08       		.uleb128 0x8
 19339 0198 3A       		.uleb128 0x3a
 19340 0199 0B       		.uleb128 0xb
 19341 019a 3B       		.uleb128 0x3b
 19342 019b 0B       		.uleb128 0xb
 19343 019c 49       		.uleb128 0x49
 19344 019d 13       		.uleb128 0x13
 19345 019e 02       		.uleb128 0x2
 19346 019f 17       		.uleb128 0x17
 19347 01a0 00       		.byte	0
 19348 01a1 00       		.byte	0
 19349 01a2 22       		.uleb128 0x22
 19350 01a3 898201   		.uleb128 0x4109
 19351 01a6 01       		.byte	0x1
 19352 01a7 11       		.uleb128 0x11
 19353 01a8 01       		.uleb128 0x1
 19354 01a9 31       		.uleb128 0x31
 19355 01aa 13       		.uleb128 0x13
 19356 01ab 00       		.byte	0
 19357 01ac 00       		.byte	0
 19358 01ad 23       		.uleb128 0x23
 19359 01ae 8A8201   		.uleb128 0x410a
 19360 01b1 00       		.byte	0
 19361 01b2 02       		.uleb128 0x2
ARM GAS  C:\Users\doug_000\AppData\Local\Temp\ccbaKQF3.s 			page 387


 19362 01b3 18       		.uleb128 0x18
 19363 01b4 9142     		.uleb128 0x2111
 19364 01b6 18       		.uleb128 0x18
 19365 01b7 00       		.byte	0
 19366 01b8 00       		.byte	0
 19367 01b9 24       		.uleb128 0x24
 19368 01ba 2E       		.uleb128 0x2e
 19369 01bb 01       		.byte	0x1
 19370 01bc 3F       		.uleb128 0x3f
 19371 01bd 19       		.uleb128 0x19
 19372 01be 03       		.uleb128 0x3
 19373 01bf 0E       		.uleb128 0xe
 19374 01c0 3A       		.uleb128 0x3a
 19375 01c1 0B       		.uleb128 0xb
 19376 01c2 3B       		.uleb128 0x3b
 19377 01c3 0B       		.uleb128 0xb
 19378 01c4 27       		.uleb128 0x27
 19379 01c5 19       		.uleb128 0x19
 19380 01c6 11       		.uleb128 0x11
 19381 01c7 01       		.uleb128 0x1
 19382 01c8 12       		.uleb128 0x12
 19383 01c9 06       		.uleb128 0x6
 19384 01ca 40       		.uleb128 0x40
 19385 01cb 18       		.uleb128 0x18
 19386 01cc 9742     		.uleb128 0x2117
 19387 01ce 19       		.uleb128 0x19
 19388 01cf 01       		.uleb128 0x1
 19389 01d0 13       		.uleb128 0x13
 19390 01d1 00       		.byte	0
 19391 01d2 00       		.byte	0
 19392 01d3 25       		.uleb128 0x25
 19393 01d4 05       		.uleb128 0x5
 19394 01d5 00       		.byte	0
 19395 01d6 03       		.uleb128 0x3
 19396 01d7 0E       		.uleb128 0xe
 19397 01d8 3A       		.uleb128 0x3a
 19398 01d9 0B       		.uleb128 0xb
 19399 01da 3B       		.uleb128 0x3b
 19400 01db 0B       		.uleb128 0xb
 19401 01dc 49       		.uleb128 0x49
 19402 01dd 13       		.uleb128 0x13
 19403 01de 02       		.uleb128 0x2
 19404 01df 18       		.uleb128 0x18
 19405 01e0 00       		.byte	0
 19406 01e1 00       		.byte	0
 19407 01e2 26       		.uleb128 0x26
 19408 01e3 898201   		.uleb128 0x4109
 19409 01e6 01       		.byte	0x1
 19410 01e7 11       		.uleb128 0x11
 19411 01e8 01       		.uleb128 0x1
 19412 01e9 31       		.uleb128 0x31
 19413 01ea 13       		.uleb128 0x13
 19414 01eb 01       		.uleb128 0x1
 19415 01ec 13       		.uleb128 0x13
 19416 01ed 00       		.byte	0
 19417 01ee 00       		.byte	0
 19418 01ef 27       		.uleb128 0x27
ARM GAS  C:\Users\doug_000\AppData\Local\Temp\ccbaKQF3.s 			page 388


 19419 01f0 898201   		.uleb128 0x4109
 19420 01f3 00       		.byte	0
 19421 01f4 11       		.uleb128 0x11
 19422 01f5 01       		.uleb128 0x1
 19423 01f6 31       		.uleb128 0x31
 19424 01f7 13       		.uleb128 0x13
 19425 01f8 00       		.byte	0
 19426 01f9 00       		.byte	0
 19427 01fa 28       		.uleb128 0x28
 19428 01fb 2E       		.uleb128 0x2e
 19429 01fc 00       		.byte	0
 19430 01fd 3F       		.uleb128 0x3f
 19431 01fe 19       		.uleb128 0x19
 19432 01ff 03       		.uleb128 0x3
 19433 0200 0E       		.uleb128 0xe
 19434 0201 3A       		.uleb128 0x3a
 19435 0202 0B       		.uleb128 0xb
 19436 0203 3B       		.uleb128 0x3b
 19437 0204 0B       		.uleb128 0xb
 19438 0205 27       		.uleb128 0x27
 19439 0206 19       		.uleb128 0x19
 19440 0207 49       		.uleb128 0x49
 19441 0208 13       		.uleb128 0x13
 19442 0209 11       		.uleb128 0x11
 19443 020a 01       		.uleb128 0x1
 19444 020b 12       		.uleb128 0x12
 19445 020c 06       		.uleb128 0x6
 19446 020d 40       		.uleb128 0x40
 19447 020e 18       		.uleb128 0x18
 19448 020f 9742     		.uleb128 0x2117
 19449 0211 19       		.uleb128 0x19
 19450 0212 00       		.byte	0
 19451 0213 00       		.byte	0
 19452 0214 29       		.uleb128 0x29
 19453 0215 05       		.uleb128 0x5
 19454 0216 00       		.byte	0
 19455 0217 03       		.uleb128 0x3
 19456 0218 0E       		.uleb128 0xe
 19457 0219 3A       		.uleb128 0x3a
 19458 021a 0B       		.uleb128 0xb
 19459 021b 3B       		.uleb128 0x3b
 19460 021c 0B       		.uleb128 0xb
 19461 021d 49       		.uleb128 0x49
 19462 021e 13       		.uleb128 0x13
 19463 021f 02       		.uleb128 0x2
 19464 0220 17       		.uleb128 0x17
 19465 0221 00       		.byte	0
 19466 0222 00       		.byte	0
 19467 0223 2A       		.uleb128 0x2a
 19468 0224 34       		.uleb128 0x34
 19469 0225 00       		.byte	0
 19470 0226 03       		.uleb128 0x3
 19471 0227 0E       		.uleb128 0xe
 19472 0228 3A       		.uleb128 0x3a
 19473 0229 0B       		.uleb128 0xb
 19474 022a 3B       		.uleb128 0x3b
 19475 022b 0B       		.uleb128 0xb
ARM GAS  C:\Users\doug_000\AppData\Local\Temp\ccbaKQF3.s 			page 389


 19476 022c 49       		.uleb128 0x49
 19477 022d 13       		.uleb128 0x13
 19478 022e 02       		.uleb128 0x2
 19479 022f 17       		.uleb128 0x17
 19480 0230 00       		.byte	0
 19481 0231 00       		.byte	0
 19482 0232 2B       		.uleb128 0x2b
 19483 0233 2E       		.uleb128 0x2e
 19484 0234 01       		.byte	0x1
 19485 0235 3F       		.uleb128 0x3f
 19486 0236 19       		.uleb128 0x19
 19487 0237 03       		.uleb128 0x3
 19488 0238 0E       		.uleb128 0xe
 19489 0239 3A       		.uleb128 0x3a
 19490 023a 0B       		.uleb128 0xb
 19491 023b 3B       		.uleb128 0x3b
 19492 023c 05       		.uleb128 0x5
 19493 023d 27       		.uleb128 0x27
 19494 023e 19       		.uleb128 0x19
 19495 023f 11       		.uleb128 0x11
 19496 0240 01       		.uleb128 0x1
 19497 0241 12       		.uleb128 0x12
 19498 0242 06       		.uleb128 0x6
 19499 0243 40       		.uleb128 0x40
 19500 0244 18       		.uleb128 0x18
 19501 0245 9742     		.uleb128 0x2117
 19502 0247 19       		.uleb128 0x19
 19503 0248 01       		.uleb128 0x1
 19504 0249 13       		.uleb128 0x13
 19505 024a 00       		.byte	0
 19506 024b 00       		.byte	0
 19507 024c 2C       		.uleb128 0x2c
 19508 024d 05       		.uleb128 0x5
 19509 024e 00       		.byte	0
 19510 024f 03       		.uleb128 0x3
 19511 0250 0E       		.uleb128 0xe
 19512 0251 3A       		.uleb128 0x3a
 19513 0252 0B       		.uleb128 0xb
 19514 0253 3B       		.uleb128 0x3b
 19515 0254 05       		.uleb128 0x5
 19516 0255 49       		.uleb128 0x49
 19517 0256 13       		.uleb128 0x13
 19518 0257 02       		.uleb128 0x2
 19519 0258 17       		.uleb128 0x17
 19520 0259 00       		.byte	0
 19521 025a 00       		.byte	0
 19522 025b 2D       		.uleb128 0x2d
 19523 025c 2E       		.uleb128 0x2e
 19524 025d 01       		.byte	0x1
 19525 025e 3F       		.uleb128 0x3f
 19526 025f 19       		.uleb128 0x19
 19527 0260 03       		.uleb128 0x3
 19528 0261 0E       		.uleb128 0xe
 19529 0262 3A       		.uleb128 0x3a
 19530 0263 0B       		.uleb128 0xb
 19531 0264 3B       		.uleb128 0x3b
 19532 0265 05       		.uleb128 0x5
ARM GAS  C:\Users\doug_000\AppData\Local\Temp\ccbaKQF3.s 			page 390


 19533 0266 27       		.uleb128 0x27
 19534 0267 19       		.uleb128 0x19
 19535 0268 49       		.uleb128 0x49
 19536 0269 13       		.uleb128 0x13
 19537 026a 11       		.uleb128 0x11
 19538 026b 01       		.uleb128 0x1
 19539 026c 12       		.uleb128 0x12
 19540 026d 06       		.uleb128 0x6
 19541 026e 40       		.uleb128 0x40
 19542 026f 18       		.uleb128 0x18
 19543 0270 9742     		.uleb128 0x2117
 19544 0272 19       		.uleb128 0x19
 19545 0273 01       		.uleb128 0x1
 19546 0274 13       		.uleb128 0x13
 19547 0275 00       		.byte	0
 19548 0276 00       		.byte	0
 19549 0277 2E       		.uleb128 0x2e
 19550 0278 05       		.uleb128 0x5
 19551 0279 00       		.byte	0
 19552 027a 03       		.uleb128 0x3
 19553 027b 08       		.uleb128 0x8
 19554 027c 3A       		.uleb128 0x3a
 19555 027d 0B       		.uleb128 0xb
 19556 027e 3B       		.uleb128 0x3b
 19557 027f 05       		.uleb128 0x5
 19558 0280 49       		.uleb128 0x49
 19559 0281 13       		.uleb128 0x13
 19560 0282 02       		.uleb128 0x2
 19561 0283 17       		.uleb128 0x17
 19562 0284 00       		.byte	0
 19563 0285 00       		.byte	0
 19564 0286 2F       		.uleb128 0x2f
 19565 0287 34       		.uleb128 0x34
 19566 0288 00       		.byte	0
 19567 0289 03       		.uleb128 0x3
 19568 028a 08       		.uleb128 0x8
 19569 028b 3A       		.uleb128 0x3a
 19570 028c 0B       		.uleb128 0xb
 19571 028d 3B       		.uleb128 0x3b
 19572 028e 05       		.uleb128 0x5
 19573 028f 49       		.uleb128 0x49
 19574 0290 13       		.uleb128 0x13
 19575 0291 02       		.uleb128 0x2
 19576 0292 17       		.uleb128 0x17
 19577 0293 00       		.byte	0
 19578 0294 00       		.byte	0
 19579 0295 30       		.uleb128 0x30
 19580 0296 05       		.uleb128 0x5
 19581 0297 00       		.byte	0
 19582 0298 03       		.uleb128 0x3
 19583 0299 08       		.uleb128 0x8
 19584 029a 3A       		.uleb128 0x3a
 19585 029b 0B       		.uleb128 0xb
 19586 029c 3B       		.uleb128 0x3b
 19587 029d 05       		.uleb128 0x5
 19588 029e 49       		.uleb128 0x49
 19589 029f 13       		.uleb128 0x13
ARM GAS  C:\Users\doug_000\AppData\Local\Temp\ccbaKQF3.s 			page 391


 19590 02a0 02       		.uleb128 0x2
 19591 02a1 18       		.uleb128 0x18
 19592 02a2 00       		.byte	0
 19593 02a3 00       		.byte	0
 19594 02a4 31       		.uleb128 0x31
 19595 02a5 0B       		.uleb128 0xb
 19596 02a6 01       		.byte	0x1
 19597 02a7 11       		.uleb128 0x11
 19598 02a8 01       		.uleb128 0x1
 19599 02a9 12       		.uleb128 0x12
 19600 02aa 06       		.uleb128 0x6
 19601 02ab 00       		.byte	0
 19602 02ac 00       		.byte	0
 19603 02ad 32       		.uleb128 0x32
 19604 02ae 34       		.uleb128 0x34
 19605 02af 00       		.byte	0
 19606 02b0 03       		.uleb128 0x3
 19607 02b1 0E       		.uleb128 0xe
 19608 02b2 3A       		.uleb128 0x3a
 19609 02b3 0B       		.uleb128 0xb
 19610 02b4 3B       		.uleb128 0x3b
 19611 02b5 05       		.uleb128 0x5
 19612 02b6 49       		.uleb128 0x49
 19613 02b7 13       		.uleb128 0x13
 19614 02b8 02       		.uleb128 0x2
 19615 02b9 17       		.uleb128 0x17
 19616 02ba 00       		.byte	0
 19617 02bb 00       		.byte	0
 19618 02bc 33       		.uleb128 0x33
 19619 02bd 2E       		.uleb128 0x2e
 19620 02be 01       		.byte	0x1
 19621 02bf 3F       		.uleb128 0x3f
 19622 02c0 19       		.uleb128 0x19
 19623 02c1 03       		.uleb128 0x3
 19624 02c2 0E       		.uleb128 0xe
 19625 02c3 3A       		.uleb128 0x3a
 19626 02c4 0B       		.uleb128 0xb
 19627 02c5 3B       		.uleb128 0x3b
 19628 02c6 05       		.uleb128 0x5
 19629 02c7 49       		.uleb128 0x49
 19630 02c8 13       		.uleb128 0x13
 19631 02c9 11       		.uleb128 0x11
 19632 02ca 01       		.uleb128 0x1
 19633 02cb 12       		.uleb128 0x12
 19634 02cc 06       		.uleb128 0x6
 19635 02cd 40       		.uleb128 0x40
 19636 02ce 18       		.uleb128 0x18
 19637 02cf 9742     		.uleb128 0x2117
 19638 02d1 19       		.uleb128 0x19
 19639 02d2 01       		.uleb128 0x1
 19640 02d3 13       		.uleb128 0x13
 19641 02d4 00       		.byte	0
 19642 02d5 00       		.byte	0
 19643 02d6 34       		.uleb128 0x34
 19644 02d7 34       		.uleb128 0x34
 19645 02d8 00       		.byte	0
 19646 02d9 03       		.uleb128 0x3
ARM GAS  C:\Users\doug_000\AppData\Local\Temp\ccbaKQF3.s 			page 392


 19647 02da 08       		.uleb128 0x8
 19648 02db 3A       		.uleb128 0x3a
 19649 02dc 0B       		.uleb128 0xb
 19650 02dd 3B       		.uleb128 0x3b
 19651 02de 05       		.uleb128 0x5
 19652 02df 49       		.uleb128 0x49
 19653 02e0 13       		.uleb128 0x13
 19654 02e1 02       		.uleb128 0x2
 19655 02e2 18       		.uleb128 0x18
 19656 02e3 00       		.byte	0
 19657 02e4 00       		.byte	0
 19658 02e5 35       		.uleb128 0x35
 19659 02e6 21       		.uleb128 0x21
 19660 02e7 00       		.byte	0
 19661 02e8 49       		.uleb128 0x49
 19662 02e9 13       		.uleb128 0x13
 19663 02ea 2F       		.uleb128 0x2f
 19664 02eb 05       		.uleb128 0x5
 19665 02ec 00       		.byte	0
 19666 02ed 00       		.byte	0
 19667 02ee 36       		.uleb128 0x36
 19668 02ef 34       		.uleb128 0x34
 19669 02f0 00       		.byte	0
 19670 02f1 03       		.uleb128 0x3
 19671 02f2 0E       		.uleb128 0xe
 19672 02f3 3A       		.uleb128 0x3a
 19673 02f4 0B       		.uleb128 0xb
 19674 02f5 3B       		.uleb128 0x3b
 19675 02f6 0B       		.uleb128 0xb
 19676 02f7 49       		.uleb128 0x49
 19677 02f8 13       		.uleb128 0x13
 19678 02f9 02       		.uleb128 0x2
 19679 02fa 18       		.uleb128 0x18
 19680 02fb 00       		.byte	0
 19681 02fc 00       		.byte	0
 19682 02fd 37       		.uleb128 0x37
 19683 02fe 34       		.uleb128 0x34
 19684 02ff 00       		.byte	0
 19685 0300 03       		.uleb128 0x3
 19686 0301 0E       		.uleb128 0xe
 19687 0302 3A       		.uleb128 0x3a
 19688 0303 0B       		.uleb128 0xb
 19689 0304 3B       		.uleb128 0x3b
 19690 0305 05       		.uleb128 0x5
 19691 0306 49       		.uleb128 0x49
 19692 0307 13       		.uleb128 0x13
 19693 0308 3F       		.uleb128 0x3f
 19694 0309 19       		.uleb128 0x19
 19695 030a 3C       		.uleb128 0x3c
 19696 030b 19       		.uleb128 0x19
 19697 030c 00       		.byte	0
 19698 030d 00       		.byte	0
 19699 030e 38       		.uleb128 0x38
 19700 030f 34       		.uleb128 0x34
 19701 0310 00       		.byte	0
 19702 0311 03       		.uleb128 0x3
 19703 0312 0E       		.uleb128 0xe
ARM GAS  C:\Users\doug_000\AppData\Local\Temp\ccbaKQF3.s 			page 393


 19704 0313 3A       		.uleb128 0x3a
 19705 0314 0B       		.uleb128 0xb
 19706 0315 3B       		.uleb128 0x3b
 19707 0316 0B       		.uleb128 0xb
 19708 0317 49       		.uleb128 0x49
 19709 0318 13       		.uleb128 0x13
 19710 0319 3F       		.uleb128 0x3f
 19711 031a 19       		.uleb128 0x19
 19712 031b 02       		.uleb128 0x2
 19713 031c 18       		.uleb128 0x18
 19714 031d 00       		.byte	0
 19715 031e 00       		.byte	0
 19716 031f 39       		.uleb128 0x39
 19717 0320 34       		.uleb128 0x34
 19718 0321 00       		.byte	0
 19719 0322 03       		.uleb128 0x3
 19720 0323 08       		.uleb128 0x8
 19721 0324 3A       		.uleb128 0x3a
 19722 0325 0B       		.uleb128 0xb
 19723 0326 3B       		.uleb128 0x3b
 19724 0327 0B       		.uleb128 0xb
 19725 0328 49       		.uleb128 0x49
 19726 0329 13       		.uleb128 0x13
 19727 032a 3F       		.uleb128 0x3f
 19728 032b 19       		.uleb128 0x19
 19729 032c 02       		.uleb128 0x2
 19730 032d 18       		.uleb128 0x18
 19731 032e 00       		.byte	0
 19732 032f 00       		.byte	0
 19733 0330 3A       		.uleb128 0x3a
 19734 0331 2E       		.uleb128 0x2e
 19735 0332 01       		.byte	0x1
 19736 0333 3F       		.uleb128 0x3f
 19737 0334 19       		.uleb128 0x19
 19738 0335 03       		.uleb128 0x3
 19739 0336 0E       		.uleb128 0xe
 19740 0337 3A       		.uleb128 0x3a
 19741 0338 0B       		.uleb128 0xb
 19742 0339 3B       		.uleb128 0x3b
 19743 033a 0B       		.uleb128 0xb
 19744 033b 27       		.uleb128 0x27
 19745 033c 19       		.uleb128 0x19
 19746 033d 49       		.uleb128 0x49
 19747 033e 13       		.uleb128 0x13
 19748 033f 3C       		.uleb128 0x3c
 19749 0340 19       		.uleb128 0x19
 19750 0341 01       		.uleb128 0x1
 19751 0342 13       		.uleb128 0x13
 19752 0343 00       		.byte	0
 19753 0344 00       		.byte	0
 19754 0345 3B       		.uleb128 0x3b
 19755 0346 2E       		.uleb128 0x2e
 19756 0347 01       		.byte	0x1
 19757 0348 3F       		.uleb128 0x3f
 19758 0349 19       		.uleb128 0x19
 19759 034a 03       		.uleb128 0x3
 19760 034b 0E       		.uleb128 0xe
ARM GAS  C:\Users\doug_000\AppData\Local\Temp\ccbaKQF3.s 			page 394


 19761 034c 3A       		.uleb128 0x3a
 19762 034d 0B       		.uleb128 0xb
 19763 034e 3B       		.uleb128 0x3b
 19764 034f 05       		.uleb128 0x5
 19765 0350 27       		.uleb128 0x27
 19766 0351 19       		.uleb128 0x19
 19767 0352 49       		.uleb128 0x49
 19768 0353 13       		.uleb128 0x13
 19769 0354 3C       		.uleb128 0x3c
 19770 0355 19       		.uleb128 0x19
 19771 0356 01       		.uleb128 0x1
 19772 0357 13       		.uleb128 0x13
 19773 0358 00       		.byte	0
 19774 0359 00       		.byte	0
 19775 035a 3C       		.uleb128 0x3c
 19776 035b 2E       		.uleb128 0x2e
 19777 035c 01       		.byte	0x1
 19778 035d 3F       		.uleb128 0x3f
 19779 035e 19       		.uleb128 0x19
 19780 035f 03       		.uleb128 0x3
 19781 0360 0E       		.uleb128 0xe
 19782 0361 3A       		.uleb128 0x3a
 19783 0362 0B       		.uleb128 0xb
 19784 0363 3B       		.uleb128 0x3b
 19785 0364 0B       		.uleb128 0xb
 19786 0365 6E       		.uleb128 0x6e
 19787 0366 0E       		.uleb128 0xe
 19788 0367 27       		.uleb128 0x27
 19789 0368 19       		.uleb128 0x19
 19790 0369 49       		.uleb128 0x49
 19791 036a 13       		.uleb128 0x13
 19792 036b 3C       		.uleb128 0x3c
 19793 036c 19       		.uleb128 0x19
 19794 036d 01       		.uleb128 0x1
 19795 036e 13       		.uleb128 0x13
 19796 036f 00       		.byte	0
 19797 0370 00       		.byte	0
 19798 0371 3D       		.uleb128 0x3d
 19799 0372 2E       		.uleb128 0x2e
 19800 0373 01       		.byte	0x1
 19801 0374 3F       		.uleb128 0x3f
 19802 0375 19       		.uleb128 0x19
 19803 0376 03       		.uleb128 0x3
 19804 0377 0E       		.uleb128 0xe
 19805 0378 27       		.uleb128 0x27
 19806 0379 19       		.uleb128 0x19
 19807 037a 49       		.uleb128 0x49
 19808 037b 13       		.uleb128 0x13
 19809 037c 34       		.uleb128 0x34
 19810 037d 19       		.uleb128 0x19
 19811 037e 3C       		.uleb128 0x3c
 19812 037f 19       		.uleb128 0x19
 19813 0380 01       		.uleb128 0x1
 19814 0381 13       		.uleb128 0x13
 19815 0382 00       		.byte	0
 19816 0383 00       		.byte	0
 19817 0384 3E       		.uleb128 0x3e
ARM GAS  C:\Users\doug_000\AppData\Local\Temp\ccbaKQF3.s 			page 395


 19818 0385 2E       		.uleb128 0x2e
 19819 0386 01       		.byte	0x1
 19820 0387 3F       		.uleb128 0x3f
 19821 0388 19       		.uleb128 0x19
 19822 0389 03       		.uleb128 0x3
 19823 038a 0E       		.uleb128 0xe
 19824 038b 3A       		.uleb128 0x3a
 19825 038c 0B       		.uleb128 0xb
 19826 038d 3B       		.uleb128 0x3b
 19827 038e 0B       		.uleb128 0xb
 19828 038f 27       		.uleb128 0x27
 19829 0390 19       		.uleb128 0x19
 19830 0391 49       		.uleb128 0x49
 19831 0392 13       		.uleb128 0x13
 19832 0393 3C       		.uleb128 0x3c
 19833 0394 19       		.uleb128 0x19
 19834 0395 00       		.byte	0
 19835 0396 00       		.byte	0
 19836 0397 3F       		.uleb128 0x3f
 19837 0398 18       		.uleb128 0x18
 19838 0399 00       		.byte	0
 19839 039a 00       		.byte	0
 19840 039b 00       		.byte	0
 19841 039c 00       		.byte	0
 19842              		.section	.debug_loc,"",%progbits
 19843              	.Ldebug_loc0:
 19844              	.LLST0:
 19845 0000 00000000 		.4byte	.LVL0
 19846 0004 05000000 		.4byte	.LVL1-1
 19847 0008 0100     		.2byte	0x1
 19848 000a 50       		.byte	0x50
 19849 000b 05000000 		.4byte	.LVL1-1
 19850 000f 14000000 		.4byte	.LFE0
 19851 0013 0400     		.2byte	0x4
 19852 0015 F3       		.byte	0xf3
 19853 0016 01       		.uleb128 0x1
 19854 0017 50       		.byte	0x50
 19855 0018 9F       		.byte	0x9f
 19856 0019 00000000 		.4byte	0
 19857 001d 00000000 		.4byte	0
 19858              	.LLST1:
 19859 0021 06000000 		.4byte	.LVL1
 19860 0025 0E000000 		.4byte	.LVL2
 19861 0029 0100     		.2byte	0x1
 19862 002b 50       		.byte	0x50
 19863 002c 10000000 		.4byte	.LVL3
 19864 0030 12000000 		.4byte	.LVL4
 19865 0034 0100     		.2byte	0x1
 19866 0036 50       		.byte	0x50
 19867 0037 00000000 		.4byte	0
 19868 003b 00000000 		.4byte	0
 19869              	.LLST2:
 19870 003f 00000000 		.4byte	.LVL5
 19871 0043 0A000000 		.4byte	.LVL6
 19872 0047 0100     		.2byte	0x1
 19873 0049 50       		.byte	0x50
 19874 004a 0A000000 		.4byte	.LVL6
ARM GAS  C:\Users\doug_000\AppData\Local\Temp\ccbaKQF3.s 			page 396


 19875 004e 14000000 		.4byte	.LFE1
 19876 0052 0300     		.2byte	0x3
 19877 0054 70       		.byte	0x70
 19878 0055 7F       		.sleb128 -1
 19879 0056 9F       		.byte	0x9f
 19880 0057 00000000 		.4byte	0
 19881 005b 00000000 		.4byte	0
 19882              	.LLST3:
 19883 005f 00000000 		.4byte	.LVL7
 19884 0063 06000000 		.4byte	.LVL8
 19885 0067 0100     		.2byte	0x1
 19886 0069 50       		.byte	0x50
 19887 006a 06000000 		.4byte	.LVL8
 19888 006e 08000000 		.4byte	.LVL9
 19889 0072 0300     		.2byte	0x3
 19890 0074 70       		.byte	0x70
 19891 0075 7F       		.sleb128 -1
 19892 0076 9F       		.byte	0x9f
 19893 0077 08000000 		.4byte	.LVL9
 19894 007b 14000000 		.4byte	.LFE2
 19895 007f 0400     		.2byte	0x4
 19896 0081 F3       		.byte	0xf3
 19897 0082 01       		.uleb128 0x1
 19898 0083 50       		.byte	0x50
 19899 0084 9F       		.byte	0x9f
 19900 0085 00000000 		.4byte	0
 19901 0089 00000000 		.4byte	0
 19902              	.LLST4:
 19903 008d 00000000 		.4byte	.LVL10
 19904 0091 11000000 		.4byte	.LVL11-1
 19905 0095 0100     		.2byte	0x1
 19906 0097 50       		.byte	0x50
 19907 0098 11000000 		.4byte	.LVL11-1
 19908 009c 14000000 		.4byte	.LVL12
 19909 00a0 0400     		.2byte	0x4
 19910 00a2 F3       		.byte	0xf3
 19911 00a3 01       		.uleb128 0x1
 19912 00a4 50       		.byte	0x50
 19913 00a5 9F       		.byte	0x9f
 19914 00a6 14000000 		.4byte	.LVL12
 19915 00aa 1A000000 		.4byte	.LVL13
 19916 00ae 0100     		.2byte	0x1
 19917 00b0 50       		.byte	0x50
 19918 00b1 1A000000 		.4byte	.LVL13
 19919 00b5 FC000000 		.4byte	.LFE3
 19920 00b9 0400     		.2byte	0x4
 19921 00bb F3       		.byte	0xf3
 19922 00bc 01       		.uleb128 0x1
 19923 00bd 50       		.byte	0x50
 19924 00be 9F       		.byte	0x9f
 19925 00bf 00000000 		.4byte	0
 19926 00c3 00000000 		.4byte	0
 19927              	.LLST5:
 19928 00c7 0E000000 		.4byte	.LVL20
 19929 00cb 14000000 		.4byte	.LVL21
 19930 00cf 0100     		.2byte	0x1
 19931 00d1 50       		.byte	0x50
ARM GAS  C:\Users\doug_000\AppData\Local\Temp\ccbaKQF3.s 			page 397


 19932 00d2 14000000 		.4byte	.LVL21
 19933 00d6 18000000 		.4byte	.LVL22
 19934 00da 0100     		.2byte	0x1
 19935 00dc 54       		.byte	0x54
 19936 00dd 24000000 		.4byte	.LVL24
 19937 00e1 2E000000 		.4byte	.LVL26
 19938 00e5 0100     		.2byte	0x1
 19939 00e7 54       		.byte	0x54
 19940 00e8 54000000 		.4byte	.LVL28
 19941 00ec 64000000 		.4byte	.LVL30
 19942 00f0 0100     		.2byte	0x1
 19943 00f2 54       		.byte	0x54
 19944 00f3 64000000 		.4byte	.LVL30
 19945 00f7 6E000000 		.4byte	.LVL31
 19946 00fb 0200     		.2byte	0x2
 19947 00fd 3D       		.byte	0x3d
 19948 00fe 9F       		.byte	0x9f
 19949 00ff 6E000000 		.4byte	.LVL31
 19950 0103 72000000 		.4byte	.LVL32
 19951 0107 0100     		.2byte	0x1
 19952 0109 54       		.byte	0x54
 19953 010a 00000000 		.4byte	0
 19954 010e 00000000 		.4byte	0
 19955              	.LLST6:
 19956 0112 00000000 		.4byte	.LVL33
 19957 0116 06000000 		.4byte	.LVL34
 19958 011a 0100     		.2byte	0x1
 19959 011c 50       		.byte	0x50
 19960 011d 06000000 		.4byte	.LVL34
 19961 0121 14000000 		.4byte	.LFE6
 19962 0125 0100     		.2byte	0x1
 19963 0127 54       		.byte	0x54
 19964 0128 00000000 		.4byte	0
 19965 012c 00000000 		.4byte	0
 19966              	.LLST7:
 19967 0130 00000000 		.4byte	.LVL38
 19968 0134 08000000 		.4byte	.LVL39
 19969 0138 0100     		.2byte	0x1
 19970 013a 50       		.byte	0x50
 19971 013b 08000000 		.4byte	.LVL39
 19972 013f 40000000 		.4byte	.LVL44
 19973 0143 0100     		.2byte	0x1
 19974 0145 54       		.byte	0x54
 19975 0146 00000000 		.4byte	0
 19976 014a 00000000 		.4byte	0
 19977              	.LLST8:
 19978 014e 00000000 		.4byte	.LVL45
 19979 0152 0A000000 		.4byte	.LVL46
 19980 0156 0100     		.2byte	0x1
 19981 0158 50       		.byte	0x50
 19982 0159 0A000000 		.4byte	.LVL46
 19983 015d 14000000 		.4byte	.LVL49
 19984 0161 0100     		.2byte	0x1
 19985 0163 54       		.byte	0x54
 19986 0164 14000000 		.4byte	.LVL49
 19987 0168 1A000000 		.4byte	.LVL50
 19988 016c 0100     		.2byte	0x1
ARM GAS  C:\Users\doug_000\AppData\Local\Temp\ccbaKQF3.s 			page 398


 19989 016e 50       		.byte	0x50
 19990 016f 1A000000 		.4byte	.LVL50
 19991 0173 1D000000 		.4byte	.LVL51-1
 19992 0177 0300     		.2byte	0x3
 19993 0179 70       		.byte	0x70
 19994 017a 49       		.sleb128 -55
 19995 017b 9F       		.byte	0x9f
 19996 017c 1D000000 		.4byte	.LVL51-1
 19997 0180 20000000 		.4byte	.LVL52
 19998 0184 0500     		.2byte	0x5
 19999 0186 74       		.byte	0x74
 20000 0187 00       		.sleb128 0
 20001 0188 3F       		.byte	0x3f
 20002 0189 1A       		.byte	0x1a
 20003 018a 9F       		.byte	0x9f
 20004 018b 20000000 		.4byte	.LVL52
 20005 018f 22000000 		.4byte	.LVL53
 20006 0193 0100     		.2byte	0x1
 20007 0195 50       		.byte	0x50
 20008 0196 22000000 		.4byte	.LVL53
 20009 019a 25000000 		.4byte	.LVL54-1
 20010 019e 0300     		.2byte	0x3
 20011 01a0 70       		.byte	0x70
 20012 01a1 50       		.sleb128 -48
 20013 01a2 9F       		.byte	0x9f
 20014 01a3 25000000 		.4byte	.LVL54-1
 20015 01a7 28000000 		.4byte	.LFE9
 20016 01ab 0500     		.2byte	0x5
 20017 01ad 74       		.byte	0x74
 20018 01ae 00       		.sleb128 0
 20019 01af 3F       		.byte	0x3f
 20020 01b0 1A       		.byte	0x1a
 20021 01b1 9F       		.byte	0x9f
 20022 01b2 00000000 		.4byte	0
 20023 01b6 00000000 		.4byte	0
 20024              	.LLST9:
 20025 01ba 00000000 		.4byte	.LVL45
 20026 01be 0C000000 		.4byte	.LVL47
 20027 01c2 0100     		.2byte	0x1
 20028 01c4 51       		.byte	0x51
 20029 01c5 0C000000 		.4byte	.LVL47
 20030 01c9 0F000000 		.4byte	.LVL48-1
 20031 01cd 0300     		.2byte	0x3
 20032 01cf 71       		.byte	0x71
 20033 01d0 01       		.sleb128 1
 20034 01d1 9F       		.byte	0x9f
 20035 01d2 0F000000 		.4byte	.LVL48-1
 20036 01d6 28000000 		.4byte	.LFE9
 20037 01da 0400     		.2byte	0x4
 20038 01dc F3       		.byte	0xf3
 20039 01dd 01       		.uleb128 0x1
 20040 01de 51       		.byte	0x51
 20041 01df 9F       		.byte	0x9f
 20042 01e0 00000000 		.4byte	0
 20043 01e4 00000000 		.4byte	0
 20044              	.LLST10:
 20045 01e8 18000000 		.4byte	.LVL58
ARM GAS  C:\Users\doug_000\AppData\Local\Temp\ccbaKQF3.s 			page 399


 20046 01ec 20000000 		.4byte	.LVL59
 20047 01f0 0100     		.2byte	0x1
 20048 01f2 54       		.byte	0x54
 20049 01f3 20000000 		.4byte	.LVL59
 20050 01f7 2C000000 		.4byte	.LVL62
 20051 01fb 0300     		.2byte	0x3
 20052 01fd 74       		.byte	0x74
 20053 01fe 01       		.sleb128 1
 20054 01ff 9F       		.byte	0x9f
 20055 0200 2C000000 		.4byte	.LVL62
 20056 0204 3C000000 		.4byte	.LVL64
 20057 0208 0100     		.2byte	0x1
 20058 020a 54       		.byte	0x54
 20059 020b 00000000 		.4byte	0
 20060 020f 00000000 		.4byte	0
 20061              	.LLST11:
 20062 0213 20000000 		.4byte	.LVL68
 20063 0217 26000000 		.4byte	.LVL69
 20064 021b 0100     		.2byte	0x1
 20065 021d 54       		.byte	0x54
 20066 021e 26000000 		.4byte	.LVL69
 20067 0222 34000000 		.4byte	.LVL72
 20068 0226 0300     		.2byte	0x3
 20069 0228 74       		.byte	0x74
 20070 0229 01       		.sleb128 1
 20071 022a 9F       		.byte	0x9f
 20072 022b 34000000 		.4byte	.LVL72
 20073 022f 56000000 		.4byte	.LVL77
 20074 0233 0100     		.2byte	0x1
 20075 0235 54       		.byte	0x54
 20076 0236 00000000 		.4byte	0
 20077 023a 00000000 		.4byte	0
 20078              	.LLST12:
 20079 023e 00000000 		.4byte	.LVL78
 20080 0242 08000000 		.4byte	.LVL80
 20081 0246 0100     		.2byte	0x1
 20082 0248 50       		.byte	0x50
 20083 0249 08000000 		.4byte	.LVL80
 20084 024d 0C000000 		.4byte	.LVL81
 20085 0251 0100     		.2byte	0x1
 20086 0253 57       		.byte	0x57
 20087 0254 0C000000 		.4byte	.LVL81
 20088 0258 10000000 		.4byte	.LVL82
 20089 025c 0100     		.2byte	0x1
 20090 025e 50       		.byte	0x50
 20091 025f 10000000 		.4byte	.LVL82
 20092 0263 5A000000 		.4byte	.LVL96
 20093 0267 0100     		.2byte	0x1
 20094 0269 57       		.byte	0x57
 20095 026a 00000000 		.4byte	0
 20096 026e 00000000 		.4byte	0
 20097              	.LLST13:
 20098 0272 1A000000 		.4byte	.LVL84
 20099 0276 5A000000 		.4byte	.LVL96
 20100 027a 0100     		.2byte	0x1
 20101 027c 54       		.byte	0x54
 20102 027d 00000000 		.4byte	0
ARM GAS  C:\Users\doug_000\AppData\Local\Temp\ccbaKQF3.s 			page 400


 20103 0281 00000000 		.4byte	0
 20104              	.LLST14:
 20105 0285 02000000 		.4byte	.LVL79
 20106 0289 08000000 		.4byte	.LVL80
 20107 028d 0200     		.2byte	0x2
 20108 028f 31       		.byte	0x31
 20109 0290 9F       		.byte	0x9f
 20110 0291 08000000 		.4byte	.LVL80
 20111 0295 0C000000 		.4byte	.LVL81
 20112 0299 0100     		.2byte	0x1
 20113 029b 57       		.byte	0x57
 20114 029c 0C000000 		.4byte	.LVL81
 20115 02a0 10000000 		.4byte	.LVL82
 20116 02a4 0200     		.2byte	0x2
 20117 02a6 31       		.byte	0x31
 20118 02a7 9F       		.byte	0x9f
 20119 02a8 10000000 		.4byte	.LVL82
 20120 02ac 1E000000 		.4byte	.LVL85
 20121 02b0 0100     		.2byte	0x1
 20122 02b2 54       		.byte	0x54
 20123 02b3 2A000000 		.4byte	.LVL87
 20124 02b7 4E000000 		.4byte	.LVL94
 20125 02bb 0100     		.2byte	0x1
 20126 02bd 55       		.byte	0x55
 20127 02be 00000000 		.4byte	0
 20128 02c2 00000000 		.4byte	0
 20129              	.LLST15:
 20130 02c6 02000000 		.4byte	.LVL79
 20131 02ca 1E000000 		.4byte	.LVL85
 20132 02ce 0200     		.2byte	0x2
 20133 02d0 31       		.byte	0x31
 20134 02d1 9F       		.byte	0x9f
 20135 02d2 1E000000 		.4byte	.LVL85
 20136 02d6 2E000000 		.4byte	.LVL88
 20137 02da 0100     		.2byte	0x1
 20138 02dc 56       		.byte	0x56
 20139 02dd 2E000000 		.4byte	.LVL88
 20140 02e1 4C000000 		.4byte	.LVL93
 20141 02e5 0100     		.2byte	0x1
 20142 02e7 55       		.byte	0x55
 20143 02e8 4C000000 		.4byte	.LVL93
 20144 02ec 5A000000 		.4byte	.LVL96
 20145 02f0 0100     		.2byte	0x1
 20146 02f2 56       		.byte	0x56
 20147 02f3 00000000 		.4byte	0
 20148 02f7 00000000 		.4byte	0
 20149              	.LLST16:
 20150 02fb 00000000 		.4byte	.LVL97
 20151 02ff 0E000000 		.4byte	.LVL99
 20152 0303 0100     		.2byte	0x1
 20153 0305 50       		.byte	0x50
 20154 0306 0E000000 		.4byte	.LVL99
 20155 030a C8000000 		.4byte	.LVL132
 20156 030e 0100     		.2byte	0x1
 20157 0310 55       		.byte	0x55
 20158 0311 00000000 		.4byte	0
 20159 0315 00000000 		.4byte	0
ARM GAS  C:\Users\doug_000\AppData\Local\Temp\ccbaKQF3.s 			page 401


 20160              	.LLST17:
 20161 0319 00000000 		.4byte	.LVL97
 20162 031d 0E000000 		.4byte	.LVL99
 20163 0321 0100     		.2byte	0x1
 20164 0323 51       		.byte	0x51
 20165 0324 0E000000 		.4byte	.LVL99
 20166 0328 32000000 		.4byte	.LVL106
 20167 032c 0100     		.2byte	0x1
 20168 032e 57       		.byte	0x57
 20169 032f 32000000 		.4byte	.LVL106
 20170 0333 34000000 		.4byte	.LVL107
 20171 0337 0100     		.2byte	0x1
 20172 0339 56       		.byte	0x56
 20173 033a 34000000 		.4byte	.LVL107
 20174 033e 3C000000 		.4byte	.LVL109
 20175 0342 0100     		.2byte	0x1
 20176 0344 57       		.byte	0x57
 20177 0345 3C000000 		.4byte	.LVL109
 20178 0349 BC000000 		.4byte	.LVL130
 20179 034d 0100     		.2byte	0x1
 20180 034f 56       		.byte	0x56
 20181 0350 BC000000 		.4byte	.LVL130
 20182 0354 C8000000 		.4byte	.LVL132
 20183 0358 0100     		.2byte	0x1
 20184 035a 57       		.byte	0x57
 20185 035b 00000000 		.4byte	0
 20186 035f 00000000 		.4byte	0
 20187              	.LLST18:
 20188 0363 0E000000 		.4byte	.LVL99
 20189 0367 72000000 		.4byte	.LVL116
 20190 036b 0100     		.2byte	0x1
 20191 036d 58       		.byte	0x58
 20192 036e 8A000000 		.4byte	.LVL118
 20193 0372 90000000 		.4byte	.LVL119
 20194 0376 0100     		.2byte	0x1
 20195 0378 50       		.byte	0x50
 20196 0379 90000000 		.4byte	.LVL119
 20197 037d 93000000 		.4byte	.LVL120-1
 20198 0381 0B00     		.2byte	0xb
 20199 0383 73       		.byte	0x73
 20200 0384 00       		.sleb128 0
 20201 0385 74       		.byte	0x74
 20202 0386 00       		.sleb128 0
 20203 0387 22       		.byte	0x22
 20204 0388 94       		.byte	0x94
 20205 0389 01       		.byte	0x1
 20206 038a 08       		.byte	0x8
 20207 038b FF       		.byte	0xff
 20208 038c 1A       		.byte	0x1a
 20209 038d 9F       		.byte	0x9f
 20210 038e 96000000 		.4byte	.LVL121
 20211 0392 9C000000 		.4byte	.LVL122
 20212 0396 0100     		.2byte	0x1
 20213 0398 50       		.byte	0x50
 20214 0399 9C000000 		.4byte	.LVL122
 20215 039d 9F000000 		.4byte	.LVL123-1
 20216 03a1 0B00     		.2byte	0xb
ARM GAS  C:\Users\doug_000\AppData\Local\Temp\ccbaKQF3.s 			page 402


 20217 03a3 73       		.byte	0x73
 20218 03a4 00       		.sleb128 0
 20219 03a5 74       		.byte	0x74
 20220 03a6 00       		.sleb128 0
 20221 03a7 22       		.byte	0x22
 20222 03a8 94       		.byte	0x94
 20223 03a9 01       		.byte	0x1
 20224 03aa 08       		.byte	0x8
 20225 03ab FF       		.byte	0xff
 20226 03ac 1A       		.byte	0x1a
 20227 03ad 9F       		.byte	0x9f
 20228 03ae A2000000 		.4byte	.LVL124
 20229 03b2 A8000000 		.4byte	.LVL125
 20230 03b6 0100     		.2byte	0x1
 20231 03b8 50       		.byte	0x50
 20232 03b9 A8000000 		.4byte	.LVL125
 20233 03bd AB000000 		.4byte	.LVL126-1
 20234 03c1 0B00     		.2byte	0xb
 20235 03c3 73       		.byte	0x73
 20236 03c4 00       		.sleb128 0
 20237 03c5 74       		.byte	0x74
 20238 03c6 00       		.sleb128 0
 20239 03c7 22       		.byte	0x22
 20240 03c8 94       		.byte	0x94
 20241 03c9 01       		.byte	0x1
 20242 03ca 08       		.byte	0x8
 20243 03cb FF       		.byte	0xff
 20244 03cc 1A       		.byte	0x1a
 20245 03cd 9F       		.byte	0x9f
 20246 03ce AE000000 		.4byte	.LVL127
 20247 03d2 B1000000 		.4byte	.LVL128-1
 20248 03d6 0100     		.2byte	0x1
 20249 03d8 50       		.byte	0x50
 20250 03d9 00000000 		.4byte	0
 20251 03dd 00000000 		.4byte	0
 20252              	.LLST19:
 20253 03e1 0C000000 		.4byte	.LVL98
 20254 03e5 24000000 		.4byte	.LVL103
 20255 03e9 0100     		.2byte	0x1
 20256 03eb 58       		.byte	0x58
 20257 03ec 24000000 		.4byte	.LVL103
 20258 03f0 86000000 		.4byte	.LVL117
 20259 03f4 0100     		.2byte	0x1
 20260 03f6 54       		.byte	0x54
 20261 03f7 86000000 		.4byte	.LVL117
 20262 03fb B4000000 		.4byte	.LVL129
 20263 03ff 0100     		.2byte	0x1
 20264 0401 58       		.byte	0x58
 20265 0402 B4000000 		.4byte	.LVL129
 20266 0406 BC000000 		.4byte	.LVL130
 20267 040a 0100     		.2byte	0x1
 20268 040c 54       		.byte	0x54
 20269 040d BC000000 		.4byte	.LVL130
 20270 0411 C8000000 		.4byte	.LVL132
 20271 0415 0100     		.2byte	0x1
 20272 0417 58       		.byte	0x58
 20273 0418 00000000 		.4byte	0
ARM GAS  C:\Users\doug_000\AppData\Local\Temp\ccbaKQF3.s 			page 403


 20274 041c 00000000 		.4byte	0
 20275              	.LLST20:
 20276 0420 00000000 		.4byte	.LVL133
 20277 0424 0B000000 		.4byte	.LVL135-1
 20278 0428 0100     		.2byte	0x1
 20279 042a 50       		.byte	0x50
 20280 042b 0B000000 		.4byte	.LVL135-1
 20281 042f B4000000 		.4byte	.LFE14
 20282 0433 0400     		.2byte	0x4
 20283 0435 F3       		.byte	0xf3
 20284 0436 01       		.uleb128 0x1
 20285 0437 50       		.byte	0x50
 20286 0438 9F       		.byte	0x9f
 20287 0439 00000000 		.4byte	0
 20288 043d 00000000 		.4byte	0
 20289              	.LLST21:
 20290 0441 08000000 		.4byte	.LVL134
 20291 0445 2A000000 		.4byte	.LVL138
 20292 0449 0100     		.2byte	0x1
 20293 044b 54       		.byte	0x54
 20294 044c 32000000 		.4byte	.LVL140
 20295 0450 96000000 		.4byte	.LVL155
 20296 0454 0100     		.2byte	0x1
 20297 0456 54       		.byte	0x54
 20298 0457 00000000 		.4byte	0
 20299 045b 00000000 		.4byte	0
 20300              	.LLST22:
 20301 045f 26000000 		.4byte	.LVL160
 20302 0463 36000000 		.4byte	.LVL163
 20303 0467 0100     		.2byte	0x1
 20304 0469 54       		.byte	0x54
 20305 046a 3A000000 		.4byte	.LVL164
 20306 046e 5E000000 		.4byte	.LVL170
 20307 0472 0100     		.2byte	0x1
 20308 0474 54       		.byte	0x54
 20309 0475 00000000 		.4byte	0
 20310 0479 00000000 		.4byte	0
 20311              	.LLST23:
 20312 047d 00000000 		.4byte	.LVL202
 20313 0481 11000000 		.4byte	.LVL203-1
 20314 0485 0100     		.2byte	0x1
 20315 0487 50       		.byte	0x50
 20316 0488 11000000 		.4byte	.LVL203-1
 20317 048c 14000000 		.4byte	.LVL204
 20318 0490 0400     		.2byte	0x4
 20319 0492 F3       		.byte	0xf3
 20320 0493 01       		.uleb128 0x1
 20321 0494 50       		.byte	0x50
 20322 0495 9F       		.byte	0x9f
 20323 0496 14000000 		.4byte	.LVL204
 20324 049a 1E000000 		.4byte	.LVL205
 20325 049e 0100     		.2byte	0x1
 20326 04a0 50       		.byte	0x50
 20327 04a1 1E000000 		.4byte	.LVL205
 20328 04a5 2A000000 		.4byte	.LVL207
 20329 04a9 0100     		.2byte	0x1
 20330 04ab 54       		.byte	0x54
ARM GAS  C:\Users\doug_000\AppData\Local\Temp\ccbaKQF3.s 			page 404


 20331 04ac 2A000000 		.4byte	.LVL207
 20332 04b0 44000000 		.4byte	.LFE20
 20333 04b4 0400     		.2byte	0x4
 20334 04b6 F3       		.byte	0xf3
 20335 04b7 01       		.uleb128 0x1
 20336 04b8 50       		.byte	0x50
 20337 04b9 9F       		.byte	0x9f
 20338 04ba 00000000 		.4byte	0
 20339 04be 00000000 		.4byte	0
 20340              	.LLST24:
 20341 04c2 00000000 		.4byte	.LVL214
 20342 04c6 11000000 		.4byte	.LVL215-1
 20343 04ca 0100     		.2byte	0x1
 20344 04cc 50       		.byte	0x50
 20345 04cd 11000000 		.4byte	.LVL215-1
 20346 04d1 14000000 		.4byte	.LVL216
 20347 04d5 0400     		.2byte	0x4
 20348 04d7 F3       		.byte	0xf3
 20349 04d8 01       		.uleb128 0x1
 20350 04d9 50       		.byte	0x50
 20351 04da 9F       		.byte	0x9f
 20352 04db 14000000 		.4byte	.LVL216
 20353 04df 1E000000 		.4byte	.LVL217
 20354 04e3 0100     		.2byte	0x1
 20355 04e5 50       		.byte	0x50
 20356 04e6 1E000000 		.4byte	.LVL217
 20357 04ea 3C000000 		.4byte	.LFE22
 20358 04ee 0400     		.2byte	0x4
 20359 04f0 F3       		.byte	0xf3
 20360 04f1 01       		.uleb128 0x1
 20361 04f2 50       		.byte	0x50
 20362 04f3 9F       		.byte	0x9f
 20363 04f4 00000000 		.4byte	0
 20364 04f8 00000000 		.4byte	0
 20365              	.LLST25:
 20366 04fc 00000000 		.4byte	.LVL220
 20367 0500 08000000 		.4byte	.LVL221
 20368 0504 0100     		.2byte	0x1
 20369 0506 50       		.byte	0x50
 20370 0507 08000000 		.4byte	.LVL221
 20371 050b 17000000 		.4byte	.LVL222-1
 20372 050f 0100     		.2byte	0x1
 20373 0511 51       		.byte	0x51
 20374 0512 17000000 		.4byte	.LVL222-1
 20375 0516 1A000000 		.4byte	.LVL223
 20376 051a 0400     		.2byte	0x4
 20377 051c F3       		.byte	0xf3
 20378 051d 01       		.uleb128 0x1
 20379 051e 50       		.byte	0x50
 20380 051f 9F       		.byte	0x9f
 20381 0520 1A000000 		.4byte	.LVL223
 20382 0524 1D000000 		.4byte	.LVL224-1
 20383 0528 0100     		.2byte	0x1
 20384 052a 51       		.byte	0x51
 20385 052b 1D000000 		.4byte	.LVL224-1
 20386 052f 38000000 		.4byte	.LFE24
 20387 0533 0400     		.2byte	0x4
ARM GAS  C:\Users\doug_000\AppData\Local\Temp\ccbaKQF3.s 			page 405


 20388 0535 F3       		.byte	0xf3
 20389 0536 01       		.uleb128 0x1
 20390 0537 50       		.byte	0x50
 20391 0538 9F       		.byte	0x9f
 20392 0539 00000000 		.4byte	0
 20393 053d 00000000 		.4byte	0
 20394              	.LLST26:
 20395 0541 00000000 		.4byte	.LVL228
 20396 0545 06000000 		.4byte	.LVL230
 20397 0549 0100     		.2byte	0x1
 20398 054b 50       		.byte	0x50
 20399 054c 06000000 		.4byte	.LVL230
 20400 0550 12000000 		.4byte	.LVL233
 20401 0554 0300     		.2byte	0x3
 20402 0556 70       		.byte	0x70
 20403 0557 01       		.sleb128 1
 20404 0558 9F       		.byte	0x9f
 20405 0559 12000000 		.4byte	.LVL233
 20406 055d 36000000 		.4byte	.LVL235
 20407 0561 0100     		.2byte	0x1
 20408 0563 50       		.byte	0x50
 20409 0564 38000000 		.4byte	.LVL236
 20410 0568 52000000 		.4byte	.LVL241
 20411 056c 0100     		.2byte	0x1
 20412 056e 50       		.byte	0x50
 20413 056f 54000000 		.4byte	.LVL242
 20414 0573 62000000 		.4byte	.LVL245
 20415 0577 0300     		.2byte	0x3
 20416 0579 70       		.byte	0x70
 20417 057a 01       		.sleb128 1
 20418 057b 9F       		.byte	0x9f
 20419 057c 62000000 		.4byte	.LVL245
 20420 0580 6A000000 		.4byte	.LVL247
 20421 0584 0100     		.2byte	0x1
 20422 0586 50       		.byte	0x50
 20423 0587 6C000000 		.4byte	.LVL248
 20424 058b 70000000 		.4byte	.LVL249
 20425 058f 0100     		.2byte	0x1
 20426 0591 50       		.byte	0x50
 20427 0592 72000000 		.4byte	.LVL250
 20428 0596 76000000 		.4byte	.LVL251
 20429 059a 0100     		.2byte	0x1
 20430 059c 50       		.byte	0x50
 20431 059d 78000000 		.4byte	.LVL252
 20432 05a1 7C000000 		.4byte	.LVL253
 20433 05a5 0100     		.2byte	0x1
 20434 05a7 50       		.byte	0x50
 20435 05a8 00000000 		.4byte	0
 20436 05ac 00000000 		.4byte	0
 20437              	.LLST27:
 20438 05b0 00000000 		.4byte	.LVL228
 20439 05b4 2A000000 		.4byte	.LVL234
 20440 05b8 0100     		.2byte	0x1
 20441 05ba 51       		.byte	0x51
 20442 05bb 2A000000 		.4byte	.LVL234
 20443 05bf 62000000 		.4byte	.LVL245
 20444 05c3 0100     		.2byte	0x1
ARM GAS  C:\Users\doug_000\AppData\Local\Temp\ccbaKQF3.s 			page 406


 20445 05c5 54       		.byte	0x54
 20446 05c6 62000000 		.4byte	.LVL245
 20447 05ca 64000000 		.4byte	.LVL246
 20448 05ce 0100     		.2byte	0x1
 20449 05d0 51       		.byte	0x51
 20450 05d1 64000000 		.4byte	.LVL246
 20451 05d5 6C000000 		.4byte	.LVL248
 20452 05d9 0100     		.2byte	0x1
 20453 05db 54       		.byte	0x54
 20454 05dc 6C000000 		.4byte	.LVL248
 20455 05e0 7E000000 		.4byte	.LVL254
 20456 05e4 0100     		.2byte	0x1
 20457 05e6 51       		.byte	0x51
 20458 05e7 7E000000 		.4byte	.LVL254
 20459 05eb 82000000 		.4byte	.LVL255
 20460 05ef 0100     		.2byte	0x1
 20461 05f1 54       		.byte	0x54
 20462 05f2 00000000 		.4byte	0
 20463 05f6 00000000 		.4byte	0
 20464              	.LLST28:
 20465 05fa 00000000 		.4byte	.LVL228
 20466 05fe 2A000000 		.4byte	.LVL234
 20467 0602 0200     		.2byte	0x2
 20468 0604 30       		.byte	0x30
 20469 0605 9F       		.byte	0x9f
 20470 0606 2A000000 		.4byte	.LVL234
 20471 060a 40000000 		.4byte	.LVL237
 20472 060e 0100     		.2byte	0x1
 20473 0610 52       		.byte	0x52
 20474 0611 42000000 		.4byte	.LVL238
 20475 0615 4A000000 		.4byte	.LVL239
 20476 0619 0100     		.2byte	0x1
 20477 061b 52       		.byte	0x52
 20478 061c 4A000000 		.4byte	.LVL239
 20479 0620 4E000000 		.4byte	.LVL240
 20480 0624 0300     		.2byte	0x3
 20481 0626 72       		.byte	0x72
 20482 0627 03       		.sleb128 3
 20483 0628 9F       		.byte	0x9f
 20484 0629 4E000000 		.4byte	.LVL240
 20485 062d 6C000000 		.4byte	.LVL248
 20486 0631 0100     		.2byte	0x1
 20487 0633 52       		.byte	0x52
 20488 0634 6C000000 		.4byte	.LVL248
 20489 0638 7E000000 		.4byte	.LVL254
 20490 063c 0200     		.2byte	0x2
 20491 063e 30       		.byte	0x30
 20492 063f 9F       		.byte	0x9f
 20493 0640 7E000000 		.4byte	.LVL254
 20494 0644 88000000 		.4byte	.LFE26
 20495 0648 0100     		.2byte	0x1
 20496 064a 50       		.byte	0x50
 20497 064b 00000000 		.4byte	0
 20498 064f 00000000 		.4byte	0
 20499              	.LLST29:
 20500 0653 00000000 		.4byte	.LVL228
 20501 0657 04000000 		.4byte	.LVL229
ARM GAS  C:\Users\doug_000\AppData\Local\Temp\ccbaKQF3.s 			page 407


 20502 065b 0300     		.2byte	0x3
 20503 065d 08       		.byte	0x8
 20504 065e 20       		.byte	0x20
 20505 065f 9F       		.byte	0x9f
 20506 0660 04000000 		.4byte	.LVL229
 20507 0664 08000000 		.4byte	.LVL231
 20508 0668 0100     		.2byte	0x1
 20509 066a 53       		.byte	0x53
 20510 066b 10000000 		.4byte	.LVL232
 20511 066f 56000000 		.4byte	.LVL243
 20512 0673 0100     		.2byte	0x1
 20513 0675 53       		.byte	0x53
 20514 0676 5E000000 		.4byte	.LVL244
 20515 067a 88000000 		.4byte	.LFE26
 20516 067e 0100     		.2byte	0x1
 20517 0680 53       		.byte	0x53
 20518 0681 00000000 		.4byte	0
 20519 0685 00000000 		.4byte	0
 20520              	.LLST30:
 20521 0689 00000000 		.4byte	.LVL256
 20522 068d 08000000 		.4byte	.LVL259
 20523 0691 0100     		.2byte	0x1
 20524 0693 50       		.byte	0x50
 20525 0694 08000000 		.4byte	.LVL259
 20526 0698 14000000 		.4byte	.LVL261
 20527 069c 0100     		.2byte	0x1
 20528 069e 50       		.byte	0x50
 20529 069f 14000000 		.4byte	.LVL261
 20530 06a3 16000000 		.4byte	.LVL262
 20531 06a7 0100     		.2byte	0x1
 20532 06a9 53       		.byte	0x53
 20533 06aa 16000000 		.4byte	.LVL262
 20534 06ae 1C000000 		.4byte	.LFE27
 20535 06b2 0100     		.2byte	0x1
 20536 06b4 50       		.byte	0x50
 20537 06b5 00000000 		.4byte	0
 20538 06b9 00000000 		.4byte	0
 20539              	.LLST31:
 20540 06bd 04000000 		.4byte	.LVL257
 20541 06c1 06000000 		.4byte	.LVL258
 20542 06c5 0100     		.2byte	0x1
 20543 06c7 52       		.byte	0x52
 20544 06c8 0C000000 		.4byte	.LVL260
 20545 06cc 1C000000 		.4byte	.LFE27
 20546 06d0 0100     		.2byte	0x1
 20547 06d2 52       		.byte	0x52
 20548 06d3 00000000 		.4byte	0
 20549 06d7 00000000 		.4byte	0
 20550              	.LLST32:
 20551 06db 00000000 		.4byte	.LVL263
 20552 06df 06000000 		.4byte	.LVL264
 20553 06e3 0100     		.2byte	0x1
 20554 06e5 50       		.byte	0x50
 20555 06e6 06000000 		.4byte	.LVL264
 20556 06ea 28000000 		.4byte	.LFE28
 20557 06ee 0100     		.2byte	0x1
 20558 06f0 55       		.byte	0x55
ARM GAS  C:\Users\doug_000\AppData\Local\Temp\ccbaKQF3.s 			page 408


 20559 06f1 00000000 		.4byte	0
 20560 06f5 00000000 		.4byte	0
 20561              	.LLST33:
 20562 06f9 12000000 		.4byte	.LVL267
 20563 06fd 1A000000 		.4byte	.LVL269
 20564 0701 0100     		.2byte	0x1
 20565 0703 50       		.byte	0x50
 20566 0704 24000000 		.4byte	.LVL272
 20567 0708 26000000 		.4byte	.LVL273
 20568 070c 0100     		.2byte	0x1
 20569 070e 50       		.byte	0x50
 20570 070f 00000000 		.4byte	0
 20571 0713 00000000 		.4byte	0
 20572              	.LLST34:
 20573 0717 0C000000 		.4byte	.LVL266
 20574 071b 11000000 		.4byte	.LVL267-1
 20575 071f 0300     		.2byte	0x3
 20576 0721 70       		.byte	0x70
 20577 0722 01       		.sleb128 1
 20578 0723 9F       		.byte	0x9f
 20579 0724 11000000 		.4byte	.LVL267-1
 20580 0728 18000000 		.4byte	.LVL268
 20581 072c 0300     		.2byte	0x3
 20582 072e 74       		.byte	0x74
 20583 072f 01       		.sleb128 1
 20584 0730 9F       		.byte	0x9f
 20585 0731 18000000 		.4byte	.LVL268
 20586 0735 1A000000 		.4byte	.LVL269
 20587 0739 0300     		.2byte	0x3
 20588 073b 74       		.byte	0x74
 20589 073c 02       		.sleb128 2
 20590 073d 9F       		.byte	0x9f
 20591 073e 1A000000 		.4byte	.LVL269
 20592 0742 1F000000 		.4byte	.LVL270-1
 20593 0746 0100     		.2byte	0x1
 20594 0748 50       		.byte	0x50
 20595 0749 1F000000 		.4byte	.LVL270-1
 20596 074d 22000000 		.4byte	.LVL271
 20597 0751 0300     		.2byte	0x3
 20598 0753 74       		.byte	0x74
 20599 0754 02       		.sleb128 2
 20600 0755 9F       		.byte	0x9f
 20601 0756 22000000 		.4byte	.LVL271
 20602 075a 24000000 		.4byte	.LVL272
 20603 075e 0100     		.2byte	0x1
 20604 0760 50       		.byte	0x50
 20605 0761 24000000 		.4byte	.LVL272
 20606 0765 28000000 		.4byte	.LFE28
 20607 0769 0300     		.2byte	0x3
 20608 076b 74       		.byte	0x74
 20609 076c 01       		.sleb128 1
 20610 076d 9F       		.byte	0x9f
 20611 076e 00000000 		.4byte	0
 20612 0772 00000000 		.4byte	0
 20613              	.LLST35:
 20614 0776 4C000000 		.4byte	.LVL280
 20615 077a 51000000 		.4byte	.LVL281-1
ARM GAS  C:\Users\doug_000\AppData\Local\Temp\ccbaKQF3.s 			page 409


 20616 077e 0100     		.2byte	0x1
 20617 0780 50       		.byte	0x50
 20618 0781 54000000 		.4byte	.LVL282
 20619 0785 5B000000 		.4byte	.LVL283-1
 20620 0789 0100     		.2byte	0x1
 20621 078b 50       		.byte	0x50
 20622 078c 5E000000 		.4byte	.LVL284
 20623 0790 7C000000 		.4byte	.LFE29
 20624 0794 0100     		.2byte	0x1
 20625 0796 50       		.byte	0x50
 20626 0797 00000000 		.4byte	0
 20627 079b 00000000 		.4byte	0
 20628              	.LLST36:
 20629 079f 00000000 		.4byte	.LVL285
 20630 07a3 16000000 		.4byte	.LVL286
 20631 07a7 0100     		.2byte	0x1
 20632 07a9 50       		.byte	0x50
 20633 07aa 16000000 		.4byte	.LVL286
 20634 07ae 1B000000 		.4byte	.LVL287-1
 20635 07b2 0100     		.2byte	0x1
 20636 07b4 53       		.byte	0x53
 20637 07b5 26000000 		.4byte	.LVL290
 20638 07b9 31000000 		.4byte	.LVL292-1
 20639 07bd 0100     		.2byte	0x1
 20640 07bf 50       		.byte	0x50
 20641 07c0 00000000 		.4byte	0
 20642 07c4 00000000 		.4byte	0
 20643              	.LLST37:
 20644 07c8 00000000 		.4byte	.LVL285
 20645 07cc 16000000 		.4byte	.LVL286
 20646 07d0 0100     		.2byte	0x1
 20647 07d2 51       		.byte	0x51
 20648 07d3 16000000 		.4byte	.LVL286
 20649 07d7 54000000 		.4byte	.LVL300
 20650 07db 0100     		.2byte	0x1
 20651 07dd 57       		.byte	0x57
 20652 07de 00000000 		.4byte	0
 20653 07e2 00000000 		.4byte	0
 20654              	.LLST38:
 20655 07e6 3E000000 		.4byte	.LVL295
 20656 07ea 4A000000 		.4byte	.LVL297
 20657 07ee 0100     		.2byte	0x1
 20658 07f0 55       		.byte	0x55
 20659 07f1 00000000 		.4byte	0
 20660 07f5 00000000 		.4byte	0
 20661              	.LLST39:
 20662 07f9 1E000000 		.4byte	.LVL288
 20663 07fd 20000000 		.4byte	.LVL289
 20664 0801 0100     		.2byte	0x1
 20665 0803 50       		.byte	0x50
 20666 0804 20000000 		.4byte	.LVL289
 20667 0808 2E000000 		.4byte	.LVL291
 20668 080c 0300     		.2byte	0x3
 20669 080e 76       		.byte	0x76
 20670 080f 01       		.sleb128 1
 20671 0810 9F       		.byte	0x9f
 20672 0811 2E000000 		.4byte	.LVL291
ARM GAS  C:\Users\doug_000\AppData\Local\Temp\ccbaKQF3.s 			page 410


 20673 0815 3A000000 		.4byte	.LVL294
 20674 0819 0100     		.2byte	0x1
 20675 081b 54       		.byte	0x54
 20676 081c 3A000000 		.4byte	.LVL294
 20677 0820 52000000 		.4byte	.LVL299
 20678 0824 0100     		.2byte	0x1
 20679 0826 56       		.byte	0x56
 20680 0827 00000000 		.4byte	0
 20681 082b 00000000 		.4byte	0
 20682              	.LLST40:
 20683 082f 00000000 		.4byte	.LVL301
 20684 0833 10000000 		.4byte	.LVL302
 20685 0837 0100     		.2byte	0x1
 20686 0839 50       		.byte	0x50
 20687 083a 10000000 		.4byte	.LVL302
 20688 083e 34000000 		.4byte	.LVL307
 20689 0842 0100     		.2byte	0x1
 20690 0844 55       		.byte	0x55
 20691 0845 34000000 		.4byte	.LVL307
 20692 0849 46000000 		.4byte	.LVL310
 20693 084d 0100     		.2byte	0x1
 20694 084f 54       		.byte	0x54
 20695 0850 46000000 		.4byte	.LVL310
 20696 0854 60000000 		.4byte	.LVL312
 20697 0858 0100     		.2byte	0x1
 20698 085a 55       		.byte	0x55
 20699 085b 60000000 		.4byte	.LVL312
 20700 085f 62000000 		.4byte	.LVL313
 20701 0863 0100     		.2byte	0x1
 20702 0865 54       		.byte	0x54
 20703 0866 62000000 		.4byte	.LVL313
 20704 086a 68000000 		.4byte	.LVL314
 20705 086e 0100     		.2byte	0x1
 20706 0870 55       		.byte	0x55
 20707 0871 00000000 		.4byte	0
 20708 0875 00000000 		.4byte	0
 20709              	.LLST41:
 20710 0879 4E000000 		.4byte	.LVL311
 20711 087d 62000000 		.4byte	.LVL313
 20712 0881 0100     		.2byte	0x1
 20713 0883 50       		.byte	0x50
 20714 0884 00000000 		.4byte	0
 20715 0888 00000000 		.4byte	0
 20716              	.LLST42:
 20717 088c 00000000 		.4byte	.LVL315
 20718 0890 10000000 		.4byte	.LVL316
 20719 0894 0100     		.2byte	0x1
 20720 0896 50       		.byte	0x50
 20721 0897 10000000 		.4byte	.LVL316
 20722 089b 1A000000 		.4byte	.LVL317
 20723 089f 0100     		.2byte	0x1
 20724 08a1 51       		.byte	0x51
 20725 08a2 1A000000 		.4byte	.LVL317
 20726 08a6 30000000 		.4byte	.LFE32
 20727 08aa 0100     		.2byte	0x1
 20728 08ac 50       		.byte	0x50
 20729 08ad 00000000 		.4byte	0
ARM GAS  C:\Users\doug_000\AppData\Local\Temp\ccbaKQF3.s 			page 411


 20730 08b1 00000000 		.4byte	0
 20731              	.LLST43:
 20732 08b5 44050000 		.4byte	.LVL446
 20733 08b9 51050000 		.4byte	.LVL447-1
 20734 08bd 0100     		.2byte	0x1
 20735 08bf 50       		.byte	0x50
 20736 08c0 54050000 		.4byte	.LVL448
 20737 08c4 57050000 		.4byte	.LVL449-1
 20738 08c8 0100     		.2byte	0x1
 20739 08ca 50       		.byte	0x50
 20740 08cb 9C050000 		.4byte	.LVL456
 20741 08cf B0050000 		.4byte	.LVL457
 20742 08d3 0100     		.2byte	0x1
 20743 08d5 50       		.byte	0x50
 20744 08d6 B0050000 		.4byte	.LVL457
 20745 08da B4050000 		.4byte	.LVL458
 20746 08de 0300     		.2byte	0x3
 20747 08e0 08       		.byte	0x8
 20748 08e1 20       		.byte	0x20
 20749 08e2 9F       		.byte	0x9f
 20750 08e3 B4050000 		.4byte	.LVL458
 20751 08e7 D0050000 		.4byte	.LVL459
 20752 08eb 0100     		.2byte	0x1
 20753 08ed 50       		.byte	0x50
 20754 08ee D6050000 		.4byte	.LVL461
 20755 08f2 E8050000 		.4byte	.LVL462
 20756 08f6 0100     		.2byte	0x1
 20757 08f8 50       		.byte	0x50
 20758 08f9 18060000 		.4byte	.LVL464
 20759 08fd 3A060000 		.4byte	.LVL466
 20760 0901 0100     		.2byte	0x1
 20761 0903 50       		.byte	0x50
 20762 0904 040B0000 		.4byte	.LVL594
 20763 0908 270B0000 		.4byte	.LVL595-1
 20764 090c 0100     		.2byte	0x1
 20765 090e 52       		.byte	0x52
 20766 090f 2A0B0000 		.4byte	.LVL596
 20767 0913 310B0000 		.4byte	.LVL597-1
 20768 0917 0100     		.2byte	0x1
 20769 0919 52       		.byte	0x52
 20770 091a 340B0000 		.4byte	.LVL598
 20771 091e 360B0000 		.4byte	.LVL599
 20772 0922 0100     		.2byte	0x1
 20773 0924 52       		.byte	0x52
 20774 0925 360B0000 		.4byte	.LVL599
 20775 0929 380B0000 		.4byte	.LVL600
 20776 092d 0800     		.2byte	0x8
 20777 092f 73       		.byte	0x73
 20778 0930 00       		.sleb128 0
 20779 0931 03       		.byte	0x3
 20780 0932 00000000 		.4byte	Core
 20781 0936 22       		.byte	0x22
 20782 0937 380B0000 		.4byte	.LVL600
 20783 093b 3E0B0000 		.4byte	.LVL601
 20784 093f 0C00     		.2byte	0xc
 20785 0941 03       		.byte	0x3
 20786 0942 00000000 		.4byte	BP
ARM GAS  C:\Users\doug_000\AppData\Local\Temp\ccbaKQF3.s 			page 412


 20787 0946 06       		.byte	0x6
 20788 0947 03       		.byte	0x3
 20789 0948 00000000 		.4byte	Core
 20790 094c 22       		.byte	0x22
 20791 094d 640B0000 		.4byte	.LVL603
 20792 0951 700B0000 		.4byte	.LVL604
 20793 0955 0100     		.2byte	0x1
 20794 0957 52       		.byte	0x52
 20795 0958 A00B0000 		.4byte	.LVL612
 20796 095c A70B0000 		.4byte	.LVL613-1
 20797 0960 0100     		.2byte	0x1
 20798 0962 52       		.byte	0x52
 20799 0963 D80B0000 		.4byte	.LVL614
 20800 0967 DA0B0000 		.4byte	.LVL615
 20801 096b 0100     		.2byte	0x1
 20802 096d 52       		.byte	0x52
 20803 096e DA0B0000 		.4byte	.LVL615
 20804 0972 E20B0000 		.4byte	.LVL616
 20805 0976 0C00     		.2byte	0xc
 20806 0978 03       		.byte	0x3
 20807 0979 00000000 		.4byte	BP
 20808 097d 06       		.byte	0x6
 20809 097e 03       		.byte	0x3
 20810 097f 00000000 		.4byte	Core
 20811 0983 22       		.byte	0x22
 20812 0984 00000000 		.4byte	0
 20813 0988 00000000 		.4byte	0
 20814              	.LLST44:
 20815 098c C6000000 		.4byte	.LVL335
 20816 0990 32020000 		.4byte	.LVL345
 20817 0994 0100     		.2byte	0x1
 20818 0996 54       		.byte	0x54
 20819 0997 58020000 		.4byte	.LVL349
 20820 099b 6C020000 		.4byte	.LVL351
 20821 099f 0100     		.2byte	0x1
 20822 09a1 54       		.byte	0x54
 20823 09a2 6C020000 		.4byte	.LVL351
 20824 09a6 70020000 		.4byte	.LVL352
 20825 09aa 0300     		.2byte	0x3
 20826 09ac 73       		.byte	0x73
 20827 09ad 01       		.sleb128 1
 20828 09ae 9F       		.byte	0x9f
 20829 09af 82020000 		.4byte	.LVL355
 20830 09b3 CC020000 		.4byte	.LVL364
 20831 09b7 0100     		.2byte	0x1
 20832 09b9 54       		.byte	0x54
 20833 09ba CC020000 		.4byte	.LVL364
 20834 09be D5020000 		.4byte	.LVL365-1
 20835 09c2 0100     		.2byte	0x1
 20836 09c4 50       		.byte	0x50
 20837 09c5 D5020000 		.4byte	.LVL365-1
 20838 09c9 2E030000 		.4byte	.LVL369
 20839 09cd 0100     		.2byte	0x1
 20840 09cf 54       		.byte	0x54
 20841 09d0 34030000 		.4byte	.LVL371
 20842 09d4 43030000 		.4byte	.LVL372-1
 20843 09d8 0100     		.2byte	0x1
ARM GAS  C:\Users\doug_000\AppData\Local\Temp\ccbaKQF3.s 			page 413


 20844 09da 50       		.byte	0x50
 20845 09db 43030000 		.4byte	.LVL372-1
 20846 09df 72030000 		.4byte	.LVL377
 20847 09e3 0100     		.2byte	0x1
 20848 09e5 55       		.byte	0x55
 20849 09e6 72030000 		.4byte	.LVL377
 20850 09ea 9A030000 		.4byte	.LVL381
 20851 09ee 0100     		.2byte	0x1
 20852 09f0 54       		.byte	0x54
 20853 09f1 B8030000 		.4byte	.LVL385
 20854 09f5 D4030000 		.4byte	.LVL390
 20855 09f9 0100     		.2byte	0x1
 20856 09fb 54       		.byte	0x54
 20857 09fc D8030000 		.4byte	.LVL391
 20858 0a00 E4030000 		.4byte	.LVL392
 20859 0a04 0100     		.2byte	0x1
 20860 0a06 50       		.byte	0x50
 20861 0a07 EA030000 		.4byte	.LVL394
 20862 0a0b F0030000 		.4byte	.LVL396
 20863 0a0f 0100     		.2byte	0x1
 20864 0a11 54       		.byte	0x54
 20865 0a12 F4030000 		.4byte	.LVL397
 20866 0a16 00040000 		.4byte	.LVL398
 20867 0a1a 0100     		.2byte	0x1
 20868 0a1c 50       		.byte	0x50
 20869 0a1d 06040000 		.4byte	.LVL400
 20870 0a21 0C040000 		.4byte	.LVL402
 20871 0a25 0100     		.2byte	0x1
 20872 0a27 54       		.byte	0x54
 20873 0a28 10040000 		.4byte	.LVL403
 20874 0a2c 1E040000 		.4byte	.LVL404
 20875 0a30 0100     		.2byte	0x1
 20876 0a32 50       		.byte	0x50
 20877 0a33 24040000 		.4byte	.LVL406
 20878 0a37 2A040000 		.4byte	.LVL408
 20879 0a3b 0100     		.2byte	0x1
 20880 0a3d 54       		.byte	0x54
 20881 0a3e 2E040000 		.4byte	.LVL409
 20882 0a42 33040000 		.4byte	.LVL410-1
 20883 0a46 0100     		.2byte	0x1
 20884 0a48 50       		.byte	0x50
 20885 0a49 36040000 		.4byte	.LVL411
 20886 0a4d 44040000 		.4byte	.LVL412
 20887 0a51 0100     		.2byte	0x1
 20888 0a53 50       		.byte	0x50
 20889 0a54 4A040000 		.4byte	.LVL414
 20890 0a58 50040000 		.4byte	.LVL416
 20891 0a5c 0100     		.2byte	0x1
 20892 0a5e 54       		.byte	0x54
 20893 0a5f 56040000 		.4byte	.LVL418
 20894 0a63 59040000 		.4byte	.LVL419-1
 20895 0a67 0100     		.2byte	0x1
 20896 0a69 50       		.byte	0x50
 20897 0a6a 59040000 		.4byte	.LVL419-1
 20898 0a6e 90040000 		.4byte	.LVL424
 20899 0a72 0100     		.2byte	0x1
 20900 0a74 55       		.byte	0x55
ARM GAS  C:\Users\doug_000\AppData\Local\Temp\ccbaKQF3.s 			page 414


 20901 0a75 90040000 		.4byte	.LVL424
 20902 0a79 AA040000 		.4byte	.LVL426
 20903 0a7d 0100     		.2byte	0x1
 20904 0a7f 54       		.byte	0x54
 20905 0a80 F8040000 		.4byte	.LVL434
 20906 0a84 00050000 		.4byte	.LVL436
 20907 0a88 0100     		.2byte	0x1
 20908 0a8a 54       		.byte	0x54
 20909 0a8b 00050000 		.4byte	.LVL436
 20910 0a8f 02050000 		.4byte	.LVL437
 20911 0a93 0100     		.2byte	0x1
 20912 0a95 51       		.byte	0x51
 20913 0a96 02050000 		.4byte	.LVL437
 20914 0a9a 04050000 		.4byte	.LVL438
 20915 0a9e 0100     		.2byte	0x1
 20916 0aa0 54       		.byte	0x54
 20917 0aa1 04050000 		.4byte	.LVL438
 20918 0aa5 06050000 		.4byte	.LVL439
 20919 0aa9 0300     		.2byte	0x3
 20920 0aab 73       		.byte	0x73
 20921 0aac 01       		.sleb128 1
 20922 0aad 9F       		.byte	0x9f
 20923 0aae 06050000 		.4byte	.LVL439
 20924 0ab2 19050000 		.4byte	.LVL440-1
 20925 0ab6 0100     		.2byte	0x1
 20926 0ab8 51       		.byte	0x51
 20927 0ab9 1C050000 		.4byte	.LVL441
 20928 0abd 21050000 		.4byte	.LVL442-1
 20929 0ac1 0100     		.2byte	0x1
 20930 0ac3 51       		.byte	0x51
 20931 0ac4 24050000 		.4byte	.LVL443
 20932 0ac8 76050000 		.4byte	.LVL452
 20933 0acc 0100     		.2byte	0x1
 20934 0ace 54       		.byte	0x54
 20935 0acf 92050000 		.4byte	.LVL455
 20936 0ad3 A0060000 		.4byte	.LVL469
 20937 0ad7 0100     		.2byte	0x1
 20938 0ad9 54       		.byte	0x54
 20939 0ada A6060000 		.4byte	.LVL471
 20940 0ade A8060000 		.4byte	.LVL472
 20941 0ae2 0100     		.2byte	0x1
 20942 0ae4 54       		.byte	0x54
 20943 0ae5 A8060000 		.4byte	.LVL472
 20944 0ae9 C2060000 		.4byte	.LVL477
 20945 0aed 0200     		.2byte	0x2
 20946 0aef 30       		.byte	0x30
 20947 0af0 9F       		.byte	0x9f
 20948 0af1 C2060000 		.4byte	.LVL477
 20949 0af5 C4060000 		.4byte	.LVL478
 20950 0af9 0100     		.2byte	0x1
 20951 0afb 50       		.byte	0x50
 20952 0afc C4060000 		.4byte	.LVL478
 20953 0b00 C6060000 		.4byte	.LVL479
 20954 0b04 0200     		.2byte	0x2
 20955 0b06 30       		.byte	0x30
 20956 0b07 9F       		.byte	0x9f
 20957 0b08 C6060000 		.4byte	.LVL479
ARM GAS  C:\Users\doug_000\AppData\Local\Temp\ccbaKQF3.s 			page 415


 20958 0b0c D4060000 		.4byte	.LVL480
 20959 0b10 0100     		.2byte	0x1
 20960 0b12 50       		.byte	0x50
 20961 0b13 D4060000 		.4byte	.LVL480
 20962 0b17 E5060000 		.4byte	.LVL481-1
 20963 0b1b 0100     		.2byte	0x1
 20964 0b1d 51       		.byte	0x51
 20965 0b1e E8060000 		.4byte	.LVL482
 20966 0b22 26070000 		.4byte	.LVL491
 20967 0b26 0100     		.2byte	0x1
 20968 0b28 51       		.byte	0x51
 20969 0b29 6C070000 		.4byte	.LVL498
 20970 0b2d 9C070000 		.4byte	.LVL504
 20971 0b31 0100     		.2byte	0x1
 20972 0b33 54       		.byte	0x54
 20973 0b34 D2070000 		.4byte	.LVL510
 20974 0b38 18080000 		.4byte	.LVL518
 20975 0b3c 0100     		.2byte	0x1
 20976 0b3e 54       		.byte	0x54
 20977 0b3f 26080000 		.4byte	.LVL523
 20978 0b43 D4090000 		.4byte	.LVL560
 20979 0b47 0100     		.2byte	0x1
 20980 0b49 57       		.byte	0x57
 20981 0b4a D4090000 		.4byte	.LVL560
 20982 0b4e DA090000 		.4byte	.LVL562
 20983 0b52 0100     		.2byte	0x1
 20984 0b54 54       		.byte	0x54
 20985 0b55 0E0A0000 		.4byte	.LVL567
 20986 0b59 100A0000 		.4byte	.LVL568
 20987 0b5d 0100     		.2byte	0x1
 20988 0b5f 54       		.byte	0x54
 20989 0b60 100A0000 		.4byte	.LVL568
 20990 0b64 170A0000 		.4byte	.LVL569-1
 20991 0b68 0300     		.2byte	0x3
 20992 0b6a 73       		.byte	0x73
 20993 0b6b 01       		.sleb128 1
 20994 0b6c 9F       		.byte	0x9f
 20995 0b6d 420A0000 		.4byte	.LVL573
 20996 0b71 500A0000 		.4byte	.LVL575
 20997 0b75 0100     		.2byte	0x1
 20998 0b77 54       		.byte	0x54
 20999 0b78 660A0000 		.4byte	.LVL578
 21000 0b7c 860A0000 		.4byte	.LVL580
 21001 0b80 0100     		.2byte	0x1
 21002 0b82 54       		.byte	0x54
 21003 0b83 8A0A0000 		.4byte	.LVL582
 21004 0b87 8C0A0000 		.4byte	.LVL583
 21005 0b8b 0100     		.2byte	0x1
 21006 0b8d 54       		.byte	0x54
 21007 0b8e F20A0000 		.4byte	.LVL593
 21008 0b92 700B0000 		.4byte	.LVL604
 21009 0b96 0100     		.2byte	0x1
 21010 0b98 54       		.byte	0x54
 21011 0b99 700B0000 		.4byte	.LVL604
 21012 0b9d 8C0B0000 		.4byte	.LVL606
 21013 0ba1 0100     		.2byte	0x1
 21014 0ba3 50       		.byte	0x50
ARM GAS  C:\Users\doug_000\AppData\Local\Temp\ccbaKQF3.s 			page 416


 21015 0ba4 940B0000 		.4byte	.LVL608
 21016 0ba8 9D0B0000 		.4byte	.LVL611-1
 21017 0bac 0100     		.2byte	0x1
 21018 0bae 50       		.byte	0x50
 21019 0baf A00B0000 		.4byte	.LVL612
 21020 0bb3 E20B0000 		.4byte	.LVL616
 21021 0bb7 0100     		.2byte	0x1
 21022 0bb9 54       		.byte	0x54
 21023 0bba F60B0000 		.4byte	.LVL618
 21024 0bbe 340C0000 		.4byte	.LVL621
 21025 0bc2 0100     		.2byte	0x1
 21026 0bc4 54       		.byte	0x54
 21027 0bc5 00000000 		.4byte	0
 21028 0bc9 00000000 		.4byte	0
 21029              	.LLST45:
 21030 0bcd 42020000 		.4byte	.LVL347
 21031 0bd1 55020000 		.4byte	.LVL348-1
 21032 0bd5 0600     		.2byte	0x6
 21033 0bd7 71       		.byte	0x71
 21034 0bd8 00       		.sleb128 0
 21035 0bd9 08       		.byte	0x8
 21036 0bda FF       		.byte	0xff
 21037 0bdb 1A       		.byte	0x1a
 21038 0bdc 9F       		.byte	0x9f
 21039 0bdd 8A020000 		.4byte	.LVL357
 21040 0be1 9B020000 		.4byte	.LVL358-1
 21041 0be5 0100     		.2byte	0x1
 21042 0be7 50       		.byte	0x50
 21043 0be8 2E030000 		.4byte	.LVL369
 21044 0bec 31030000 		.4byte	.LVL370-1
 21045 0bf0 0100     		.2byte	0x1
 21046 0bf2 50       		.byte	0x50
 21047 0bf3 31030000 		.4byte	.LVL370-1
 21048 0bf7 46030000 		.4byte	.LVL373
 21049 0bfb 0100     		.2byte	0x1
 21050 0bfd 54       		.byte	0x54
 21051 0bfe BC030000 		.4byte	.LVL386
 21052 0c02 C8030000 		.4byte	.LVL387
 21053 0c06 0100     		.2byte	0x1
 21054 0c08 50       		.byte	0x50
 21055 0c09 C8030000 		.4byte	.LVL387
 21056 0c0d CB030000 		.4byte	.LVL388-1
 21057 0c11 0400     		.2byte	0x4
 21058 0c13 70       		.byte	0x70
 21059 0c14 00       		.sleb128 0
 21060 0c15 1F       		.byte	0x1f
 21061 0c16 9F       		.byte	0x9f
 21062 0c17 D4030000 		.4byte	.LVL390
 21063 0c1b D7030000 		.4byte	.LVL391-1
 21064 0c1f 0100     		.2byte	0x1
 21065 0c21 50       		.byte	0x50
 21066 0c22 D7030000 		.4byte	.LVL391-1
 21067 0c26 EA030000 		.4byte	.LVL394
 21068 0c2a 0100     		.2byte	0x1
 21069 0c2c 54       		.byte	0x54
 21070 0c2d F0030000 		.4byte	.LVL396
 21071 0c31 F3030000 		.4byte	.LVL397-1
ARM GAS  C:\Users\doug_000\AppData\Local\Temp\ccbaKQF3.s 			page 417


 21072 0c35 0100     		.2byte	0x1
 21073 0c37 50       		.byte	0x50
 21074 0c38 F3030000 		.4byte	.LVL397-1
 21075 0c3c 06040000 		.4byte	.LVL400
 21076 0c40 0100     		.2byte	0x1
 21077 0c42 54       		.byte	0x54
 21078 0c43 0C040000 		.4byte	.LVL402
 21079 0c47 0F040000 		.4byte	.LVL403-1
 21080 0c4b 0100     		.2byte	0x1
 21081 0c4d 50       		.byte	0x50
 21082 0c4e 0F040000 		.4byte	.LVL403-1
 21083 0c52 24040000 		.4byte	.LVL406
 21084 0c56 0100     		.2byte	0x1
 21085 0c58 54       		.byte	0x54
 21086 0c59 2A040000 		.4byte	.LVL408
 21087 0c5d 2D040000 		.4byte	.LVL409-1
 21088 0c61 0100     		.2byte	0x1
 21089 0c63 50       		.byte	0x50
 21090 0c64 2D040000 		.4byte	.LVL409-1
 21091 0c68 4A040000 		.4byte	.LVL414
 21092 0c6c 0100     		.2byte	0x1
 21093 0c6e 54       		.byte	0x54
 21094 0c6f 50040000 		.4byte	.LVL416
 21095 0c73 53040000 		.4byte	.LVL417-1
 21096 0c77 0100     		.2byte	0x1
 21097 0c79 50       		.byte	0x50
 21098 0c7a 53040000 		.4byte	.LVL417-1
 21099 0c7e 5C040000 		.4byte	.LVL420
 21100 0c82 0100     		.2byte	0x1
 21101 0c84 54       		.byte	0x54
 21102 0c85 5C040000 		.4byte	.LVL420
 21103 0c89 76040000 		.4byte	.LVL421
 21104 0c8d 0100     		.2byte	0x1
 21105 0c8f 50       		.byte	0x50
 21106 0c90 76040000 		.4byte	.LVL421
 21107 0c94 7E040000 		.4byte	.LVL422
 21108 0c98 0100     		.2byte	0x1
 21109 0c9a 52       		.byte	0x52
 21110 0c9b F8040000 		.4byte	.LVL434
 21111 0c9f FC040000 		.4byte	.LVL435
 21112 0ca3 0100     		.2byte	0x1
 21113 0ca5 54       		.byte	0x54
 21114 0ca6 FC040000 		.4byte	.LVL435
 21115 0caa 02050000 		.4byte	.LVL437
 21116 0cae 0100     		.2byte	0x1
 21117 0cb0 50       		.byte	0x50
 21118 0cb1 06050000 		.4byte	.LVL439
 21119 0cb5 24050000 		.4byte	.LVL443
 21120 0cb9 0100     		.2byte	0x1
 21121 0cbb 54       		.byte	0x54
 21122 0cbc 28050000 		.4byte	.LVL444
 21123 0cc0 35050000 		.4byte	.LVL445-1
 21124 0cc4 0100     		.2byte	0x1
 21125 0cc6 50       		.byte	0x50
 21126 0cc7 82050000 		.4byte	.LVL453
 21127 0ccb 92050000 		.4byte	.LVL455
 21128 0ccf 0600     		.2byte	0x6
ARM GAS  C:\Users\doug_000\AppData\Local\Temp\ccbaKQF3.s 			page 418


 21129 0cd1 74       		.byte	0x74
 21130 0cd2 00       		.sleb128 0
 21131 0cd3 08       		.byte	0x8
 21132 0cd4 FF       		.byte	0xff
 21133 0cd5 1A       		.byte	0x1a
 21134 0cd6 9F       		.byte	0x9f
 21135 0cd7 A4060000 		.4byte	.LVL470
 21136 0cdb A6060000 		.4byte	.LVL471
 21137 0cdf 0100     		.2byte	0x1
 21138 0ce1 54       		.byte	0x54
 21139 0ce2 A8060000 		.4byte	.LVL472
 21140 0ce6 6C070000 		.4byte	.LVL498
 21141 0cea 0100     		.2byte	0x1
 21142 0cec 54       		.byte	0x54
 21143 0ced 1A080000 		.4byte	.LVL519
 21144 0cf1 DA080000 		.4byte	.LVL529
 21145 0cf5 0100     		.2byte	0x1
 21146 0cf7 55       		.byte	0x55
 21147 0cf8 E2080000 		.4byte	.LVL530
 21148 0cfc 68090000 		.4byte	.LVL547
 21149 0d00 0100     		.2byte	0x1
 21150 0d02 55       		.byte	0x55
 21151 0d03 68090000 		.4byte	.LVL547
 21152 0d07 AA090000 		.4byte	.LVL554
 21153 0d0b 0100     		.2byte	0x1
 21154 0d0d 54       		.byte	0x54
 21155 0d0e AA090000 		.4byte	.LVL554
 21156 0d12 D4090000 		.4byte	.LVL560
 21157 0d16 0100     		.2byte	0x1
 21158 0d18 55       		.byte	0x55
 21159 0d19 DA090000 		.4byte	.LVL562
 21160 0d1d DE090000 		.4byte	.LVL563
 21161 0d21 0100     		.2byte	0x1
 21162 0d23 50       		.byte	0x50
 21163 0d24 DE090000 		.4byte	.LVL563
 21164 0d28 0E0A0000 		.4byte	.LVL567
 21165 0d2c 0100     		.2byte	0x1
 21166 0d2e 54       		.byte	0x54
 21167 0d2f 900A0000 		.4byte	.LVL584
 21168 0d33 940A0000 		.4byte	.LVL585
 21169 0d37 0200     		.2byte	0x2
 21170 0d39 30       		.byte	0x30
 21171 0d3a 9F       		.byte	0x9f
 21172 0d3b 940A0000 		.4byte	.LVL585
 21173 0d3f AA0A0000 		.4byte	.LVL586
 21174 0d43 0100     		.2byte	0x1
 21175 0d45 51       		.byte	0x51
 21176 0d46 B20A0000 		.4byte	.LVL587
 21177 0d4a CF0A0000 		.4byte	.LVL588-1
 21178 0d4e 0100     		.2byte	0x1
 21179 0d50 51       		.byte	0x51
 21180 0d51 D20A0000 		.4byte	.LVL589
 21181 0d55 DE0A0000 		.4byte	.LVL591
 21182 0d59 0100     		.2byte	0x1
 21183 0d5b 51       		.byte	0x51
 21184 0d5c 00000000 		.4byte	0
 21185 0d60 00000000 		.4byte	0
ARM GAS  C:\Users\doug_000\AppData\Local\Temp\ccbaKQF3.s 			page 419


 21186              	.LLST46:
 21187 0d64 F2060000 		.4byte	.LVL483
 21188 0d68 FC060000 		.4byte	.LVL484
 21189 0d6c 0100     		.2byte	0x1
 21190 0d6e 52       		.byte	0x52
 21191 0d6f FC060000 		.4byte	.LVL484
 21192 0d73 FE060000 		.4byte	.LVL485
 21193 0d77 0100     		.2byte	0x1
 21194 0d79 53       		.byte	0x53
 21195 0d7a FE060000 		.4byte	.LVL485
 21196 0d7e 06070000 		.4byte	.LVL486
 21197 0d82 0100     		.2byte	0x1
 21198 0d84 52       		.byte	0x52
 21199 0d85 0C070000 		.4byte	.LVL487
 21200 0d89 1C070000 		.4byte	.LVL489
 21201 0d8d 0100     		.2byte	0x1
 21202 0d8f 52       		.byte	0x52
 21203 0d90 20080000 		.4byte	.LVL521
 21204 0d94 D4090000 		.4byte	.LVL560
 21205 0d98 0100     		.2byte	0x1
 21206 0d9a 56       		.byte	0x56
 21207 0d9b 880A0000 		.4byte	.LVL581
 21208 0d9f 8A0A0000 		.4byte	.LVL582
 21209 0da3 0100     		.2byte	0x1
 21210 0da5 54       		.byte	0x54
 21211 0da6 8C0A0000 		.4byte	.LVL583
 21212 0daa F20A0000 		.4byte	.LVL593
 21213 0dae 0100     		.2byte	0x1
 21214 0db0 54       		.byte	0x54
 21215 0db1 7C0B0000 		.4byte	.LVL605
 21216 0db5 900B0000 		.4byte	.LVL607
 21217 0db9 0100     		.2byte	0x1
 21218 0dbb 53       		.byte	0x53
 21219 0dbc 900B0000 		.4byte	.LVL607
 21220 0dc0 960B0000 		.4byte	.LVL609
 21221 0dc4 0300     		.2byte	0x3
 21222 0dc6 71       		.byte	0x71
 21223 0dc7 30       		.sleb128 48
 21224 0dc8 9F       		.byte	0x9f
 21225 0dc9 960B0000 		.4byte	.LVL609
 21226 0dcd 980B0000 		.4byte	.LVL610
 21227 0dd1 0100     		.2byte	0x1
 21228 0dd3 53       		.byte	0x53
 21229 0dd4 980B0000 		.4byte	.LVL610
 21230 0dd8 9D0B0000 		.4byte	.LVL611-1
 21231 0ddc 0300     		.2byte	0x3
 21232 0dde 71       		.byte	0x71
 21233 0ddf 30       		.sleb128 48
 21234 0de0 9F       		.byte	0x9f
 21235 0de1 00000000 		.4byte	0
 21236 0de5 00000000 		.4byte	0
 21237              	.LLST47:
 21238 0de9 B0060000 		.4byte	.LVL474
 21239 0ded B3060000 		.4byte	.LVL475-1
 21240 0df1 0100     		.2byte	0x1
 21241 0df3 50       		.byte	0x50
 21242 0df4 B3060000 		.4byte	.LVL475-1
ARM GAS  C:\Users\doug_000\AppData\Local\Temp\ccbaKQF3.s 			page 420


 21243 0df8 22070000 		.4byte	.LVL490
 21244 0dfc 0100     		.2byte	0x1
 21245 0dfe 55       		.byte	0x55
 21246 0dff 22070000 		.4byte	.LVL490
 21247 0e03 2E070000 		.4byte	.LVL493
 21248 0e07 0100     		.2byte	0x1
 21249 0e09 57       		.byte	0x57
 21250 0e0a 2E070000 		.4byte	.LVL493
 21251 0e0e 6C070000 		.4byte	.LVL498
 21252 0e12 0100     		.2byte	0x1
 21253 0e14 55       		.byte	0x55
 21254 0e15 900A0000 		.4byte	.LVL584
 21255 0e19 F20A0000 		.4byte	.LVL593
 21256 0e1d 0100     		.2byte	0x1
 21257 0e1f 55       		.byte	0x55
 21258 0e20 00000000 		.4byte	0
 21259 0e24 00000000 		.4byte	0
 21260              	.LLST48:
 21261 0e28 00000000 		.4byte	.LVL888
 21262 0e2c 18000000 		.4byte	.LVL892
 21263 0e30 0100     		.2byte	0x1
 21264 0e32 50       		.byte	0x50
 21265 0e33 18000000 		.4byte	.LVL892
 21266 0e37 A4000000 		.4byte	.LVL911
 21267 0e3b 0100     		.2byte	0x1
 21268 0e3d 54       		.byte	0x54
 21269 0e3e 00000000 		.4byte	0
 21270 0e42 00000000 		.4byte	0
 21271              	.LLST49:
 21272 0e46 04000000 		.4byte	.LVL889
 21273 0e4a 08000000 		.4byte	.LVL890
 21274 0e4e 0200     		.2byte	0x2
 21275 0e50 30       		.byte	0x30
 21276 0e51 9F       		.byte	0x9f
 21277 0e52 08000000 		.4byte	.LVL890
 21278 0e56 1F000000 		.4byte	.LVL893-1
 21279 0e5a 0100     		.2byte	0x1
 21280 0e5c 53       		.byte	0x53
 21281 0e5d 2E000000 		.4byte	.LVL894
 21282 0e61 32000000 		.4byte	.LVL895
 21283 0e65 0200     		.2byte	0x2
 21284 0e67 30       		.byte	0x30
 21285 0e68 9F       		.byte	0x9f
 21286 0e69 32000000 		.4byte	.LVL895
 21287 0e6d 40000000 		.4byte	.LVL897
 21288 0e71 0100     		.2byte	0x1
 21289 0e73 53       		.byte	0x53
 21290 0e74 42000000 		.4byte	.LVL898
 21291 0e78 4E000000 		.4byte	.LVL900
 21292 0e7c 0100     		.2byte	0x1
 21293 0e7e 53       		.byte	0x53
 21294 0e7f 50000000 		.4byte	.LVL901
 21295 0e83 60000000 		.4byte	.LVL903
 21296 0e87 0100     		.2byte	0x1
 21297 0e89 53       		.byte	0x53
 21298 0e8a 00000000 		.4byte	0
 21299 0e8e 00000000 		.4byte	0
ARM GAS  C:\Users\doug_000\AppData\Local\Temp\ccbaKQF3.s 			page 421


 21300              	.LLST50:
 21301 0e92 00000000 		.4byte	.LVL912
 21302 0e96 0C000000 		.4byte	.LVL914
 21303 0e9a 0100     		.2byte	0x1
 21304 0e9c 50       		.byte	0x50
 21305 0e9d 0C000000 		.4byte	.LVL914
 21306 0ea1 34010000 		.4byte	.LVL944
 21307 0ea5 0100     		.2byte	0x1
 21308 0ea7 56       		.byte	0x56
 21309 0ea8 34010000 		.4byte	.LVL944
 21310 0eac 58010000 		.4byte	.LFE36
 21311 0eb0 0400     		.2byte	0x4
 21312 0eb2 F3       		.byte	0xf3
 21313 0eb3 01       		.uleb128 0x1
 21314 0eb4 50       		.byte	0x50
 21315 0eb5 9F       		.byte	0x9f
 21316 0eb6 00000000 		.4byte	0
 21317 0eba 00000000 		.4byte	0
 21318              	.LLST51:
 21319 0ebe 00000000 		.4byte	.LVL912
 21320 0ec2 16000000 		.4byte	.LVL916
 21321 0ec6 0100     		.2byte	0x1
 21322 0ec8 51       		.byte	0x51
 21323 0ec9 16000000 		.4byte	.LVL916
 21324 0ecd 34010000 		.4byte	.LVL944
 21325 0ed1 0100     		.2byte	0x1
 21326 0ed3 55       		.byte	0x55
 21327 0ed4 34010000 		.4byte	.LVL944
 21328 0ed8 58010000 		.4byte	.LFE36
 21329 0edc 0400     		.2byte	0x4
 21330 0ede F3       		.byte	0xf3
 21331 0edf 01       		.uleb128 0x1
 21332 0ee0 51       		.byte	0x51
 21333 0ee1 9F       		.byte	0x9f
 21334 0ee2 00000000 		.4byte	0
 21335 0ee6 00000000 		.4byte	0
 21336              	.LLST52:
 21337 0eea 10000000 		.4byte	.LVL915
 21338 0eee 16000000 		.4byte	.LVL916
 21339 0ef2 0200     		.2byte	0x2
 21340 0ef4 31       		.byte	0x31
 21341 0ef5 9F       		.byte	0x9f
 21342 0ef6 16000000 		.4byte	.LVL916
 21343 0efa 34010000 		.4byte	.LVL944
 21344 0efe 0100     		.2byte	0x1
 21345 0f00 54       		.byte	0x54
 21346 0f01 00000000 		.4byte	0
 21347 0f05 00000000 		.4byte	0
 21348              	.LLST53:
 21349 0f09 50000000 		.4byte	.LVL922
 21350 0f0d 52000000 		.4byte	.LVL923
 21351 0f11 0100     		.2byte	0x1
 21352 0f13 50       		.byte	0x50
 21353 0f14 52000000 		.4byte	.LVL923
 21354 0f18 9A000000 		.4byte	.LVL930
 21355 0f1c 0100     		.2byte	0x1
 21356 0f1e 59       		.byte	0x59
ARM GAS  C:\Users\doug_000\AppData\Local\Temp\ccbaKQF3.s 			page 422


 21357 0f1f 00000000 		.4byte	0
 21358 0f23 00000000 		.4byte	0
 21359              	.LLST54:
 21360 0f27 08000000 		.4byte	.LVL913
 21361 0f2b 16000000 		.4byte	.LVL916
 21362 0f2f 0200     		.2byte	0x2
 21363 0f31 30       		.byte	0x30
 21364 0f32 9F       		.byte	0x9f
 21365 0f33 16000000 		.4byte	.LVL916
 21366 0f37 7C000000 		.4byte	.LVL926
 21367 0f3b 0100     		.2byte	0x1
 21368 0f3d 57       		.byte	0x57
 21369 0f3e 7C000000 		.4byte	.LVL926
 21370 0f42 89000000 		.4byte	.LVL927-1
 21371 0f46 0100     		.2byte	0x1
 21372 0f48 50       		.byte	0x50
 21373 0f49 89000000 		.4byte	.LVL927-1
 21374 0f4d 34010000 		.4byte	.LVL944
 21375 0f51 0100     		.2byte	0x1
 21376 0f53 57       		.byte	0x57
 21377 0f54 00000000 		.4byte	0
 21378 0f58 00000000 		.4byte	0
 21379              	.LLST55:
 21380 0f5c 38000000 		.4byte	.LVL919
 21381 0f60 45000000 		.4byte	.LVL920-1
 21382 0f64 0100     		.2byte	0x1
 21383 0f66 50       		.byte	0x50
 21384 0f67 45000000 		.4byte	.LVL920-1
 21385 0f6b A6000000 		.4byte	.LVL932
 21386 0f6f 0100     		.2byte	0x1
 21387 0f71 58       		.byte	0x58
 21388 0f72 00000000 		.4byte	0
 21389 0f76 00000000 		.4byte	0
 21390              		.section	.debug_aranges,"",%progbits
 21391 0000 3C010000 		.4byte	0x13c
 21392 0004 0200     		.2byte	0x2
 21393 0006 00000000 		.4byte	.Ldebug_info0
 21394 000a 04       		.byte	0x4
 21395 000b 00       		.byte	0
 21396 000c 0000     		.2byte	0
 21397 000e 0000     		.2byte	0
 21398 0010 00000000 		.4byte	.LFB0
 21399 0014 14000000 		.4byte	.LFE0-.LFB0
 21400 0018 00000000 		.4byte	.LFB1
 21401 001c 14000000 		.4byte	.LFE1-.LFB1
 21402 0020 00000000 		.4byte	.LFB2
 21403 0024 14000000 		.4byte	.LFE2-.LFB2
 21404 0028 00000000 		.4byte	.LFB3
 21405 002c FC000000 		.4byte	.LFE3-.LFB3
 21406 0030 00000000 		.4byte	.LFB4
 21407 0034 80000000 		.4byte	.LFE4-.LFB4
 21408 0038 00000000 		.4byte	.LFB5
 21409 003c 0C000000 		.4byte	.LFE5-.LFB5
 21410 0040 00000000 		.4byte	.LFB6
 21411 0044 14000000 		.4byte	.LFE6-.LFB6
 21412 0048 00000000 		.4byte	.LFB7
 21413 004c 10000000 		.4byte	.LFE7-.LFB7
ARM GAS  C:\Users\doug_000\AppData\Local\Temp\ccbaKQF3.s 			page 423


 21414 0050 00000000 		.4byte	.LFB8
 21415 0054 44000000 		.4byte	.LFE8-.LFB8
 21416 0058 00000000 		.4byte	.LFB9
 21417 005c 28000000 		.4byte	.LFE9-.LFB9
 21418 0060 00000000 		.4byte	.LFB10
 21419 0064 50000000 		.4byte	.LFE10-.LFB10
 21420 0068 00000000 		.4byte	.LFB11
 21421 006c 70000000 		.4byte	.LFE11-.LFB11
 21422 0070 00000000 		.4byte	.LFB12
 21423 0074 6C000000 		.4byte	.LFE12-.LFB12
 21424 0078 00000000 		.4byte	.LFB13
 21425 007c DC000000 		.4byte	.LFE13-.LFB13
 21426 0080 00000000 		.4byte	.LFB14
 21427 0084 B4000000 		.4byte	.LFE14-.LFB14
 21428 0088 00000000 		.4byte	.LFB15
 21429 008c 70000000 		.4byte	.LFE15-.LFB15
 21430 0090 00000000 		.4byte	.LFB16
 21431 0094 1C000000 		.4byte	.LFE16-.LFB16
 21432 0098 00000000 		.4byte	.LFB17
 21433 009c 68000000 		.4byte	.LFE17-.LFB17
 21434 00a0 00000000 		.4byte	.LFB18
 21435 00a4 60000000 		.4byte	.LFE18-.LFB18
 21436 00a8 00000000 		.4byte	.LFB19
 21437 00ac F4000000 		.4byte	.LFE19-.LFB19
 21438 00b0 00000000 		.4byte	.LFB20
 21439 00b4 44000000 		.4byte	.LFE20-.LFB20
 21440 00b8 00000000 		.4byte	.LFB21
 21441 00bc 48000000 		.4byte	.LFE21-.LFB21
 21442 00c0 00000000 		.4byte	.LFB22
 21443 00c4 3C000000 		.4byte	.LFE22-.LFB22
 21444 00c8 00000000 		.4byte	.LFB23
 21445 00cc 28000000 		.4byte	.LFE23-.LFB23
 21446 00d0 00000000 		.4byte	.LFB24
 21447 00d4 38000000 		.4byte	.LFE24-.LFB24
 21448 00d8 00000000 		.4byte	.LFB25
 21449 00dc 28000000 		.4byte	.LFE25-.LFB25
 21450 00e0 00000000 		.4byte	.LFB26
 21451 00e4 88000000 		.4byte	.LFE26-.LFB26
 21452 00e8 00000000 		.4byte	.LFB27
 21453 00ec 1C000000 		.4byte	.LFE27-.LFB27
 21454 00f0 00000000 		.4byte	.LFB28
 21455 00f4 28000000 		.4byte	.LFE28-.LFB28
 21456 00f8 00000000 		.4byte	.LFB29
 21457 00fc 7C000000 		.4byte	.LFE29-.LFB29
 21458 0100 00000000 		.4byte	.LFB30
 21459 0104 58000000 		.4byte	.LFE30-.LFB30
 21460 0108 00000000 		.4byte	.LFB31
 21461 010c 84000000 		.4byte	.LFE31-.LFB31
 21462 0110 00000000 		.4byte	.LFB32
 21463 0114 30000000 		.4byte	.LFE32-.LFB32
 21464 0118 00000000 		.4byte	.LFB33
 21465 011c 440C0000 		.4byte	.LFE33-.LFB33
 21466 0120 00000000 		.4byte	.LFB34
 21467 0124 90270000 		.4byte	.LFE34-.LFB34
 21468 0128 00000000 		.4byte	.LFB35
 21469 012c B0000000 		.4byte	.LFE35-.LFB35
 21470 0130 00000000 		.4byte	.LFB36
ARM GAS  C:\Users\doug_000\AppData\Local\Temp\ccbaKQF3.s 			page 424


 21471 0134 58010000 		.4byte	.LFE36-.LFB36
 21472 0138 00000000 		.4byte	0
 21473 013c 00000000 		.4byte	0
 21474              		.section	.debug_ranges,"",%progbits
 21475              	.Ldebug_ranges0:
 21476 0000 00000000 		.4byte	.LFB0
 21477 0004 14000000 		.4byte	.LFE0
 21478 0008 00000000 		.4byte	.LFB1
 21479 000c 14000000 		.4byte	.LFE1
 21480 0010 00000000 		.4byte	.LFB2
 21481 0014 14000000 		.4byte	.LFE2
 21482 0018 00000000 		.4byte	.LFB3
 21483 001c FC000000 		.4byte	.LFE3
 21484 0020 00000000 		.4byte	.LFB4
 21485 0024 80000000 		.4byte	.LFE4
 21486 0028 00000000 		.4byte	.LFB5
 21487 002c 0C000000 		.4byte	.LFE5
 21488 0030 00000000 		.4byte	.LFB6
 21489 0034 14000000 		.4byte	.LFE6
 21490 0038 00000000 		.4byte	.LFB7
 21491 003c 10000000 		.4byte	.LFE7
 21492 0040 00000000 		.4byte	.LFB8
 21493 0044 44000000 		.4byte	.LFE8
 21494 0048 00000000 		.4byte	.LFB9
 21495 004c 28000000 		.4byte	.LFE9
 21496 0050 00000000 		.4byte	.LFB10
 21497 0054 50000000 		.4byte	.LFE10
 21498 0058 00000000 		.4byte	.LFB11
 21499 005c 70000000 		.4byte	.LFE11
 21500 0060 00000000 		.4byte	.LFB12
 21501 0064 6C000000 		.4byte	.LFE12
 21502 0068 00000000 		.4byte	.LFB13
 21503 006c DC000000 		.4byte	.LFE13
 21504 0070 00000000 		.4byte	.LFB14
 21505 0074 B4000000 		.4byte	.LFE14
 21506 0078 00000000 		.4byte	.LFB15
 21507 007c 70000000 		.4byte	.LFE15
 21508 0080 00000000 		.4byte	.LFB16
 21509 0084 1C000000 		.4byte	.LFE16
 21510 0088 00000000 		.4byte	.LFB17
 21511 008c 68000000 		.4byte	.LFE17
 21512 0090 00000000 		.4byte	.LFB18
 21513 0094 60000000 		.4byte	.LFE18
 21514 0098 00000000 		.4byte	.LFB19
 21515 009c F4000000 		.4byte	.LFE19
 21516 00a0 00000000 		.4byte	.LFB20
 21517 00a4 44000000 		.4byte	.LFE20
 21518 00a8 00000000 		.4byte	.LFB21
 21519 00ac 48000000 		.4byte	.LFE21
 21520 00b0 00000000 		.4byte	.LFB22
 21521 00b4 3C000000 		.4byte	.LFE22
 21522 00b8 00000000 		.4byte	.LFB23
 21523 00bc 28000000 		.4byte	.LFE23
 21524 00c0 00000000 		.4byte	.LFB24
 21525 00c4 38000000 		.4byte	.LFE24
 21526 00c8 00000000 		.4byte	.LFB25
 21527 00cc 28000000 		.4byte	.LFE25
ARM GAS  C:\Users\doug_000\AppData\Local\Temp\ccbaKQF3.s 			page 425


 21528 00d0 00000000 		.4byte	.LFB26
 21529 00d4 88000000 		.4byte	.LFE26
 21530 00d8 00000000 		.4byte	.LFB27
 21531 00dc 1C000000 		.4byte	.LFE27
 21532 00e0 00000000 		.4byte	.LFB28
 21533 00e4 28000000 		.4byte	.LFE28
 21534 00e8 00000000 		.4byte	.LFB29
 21535 00ec 7C000000 		.4byte	.LFE29
 21536 00f0 00000000 		.4byte	.LFB30
 21537 00f4 58000000 		.4byte	.LFE30
 21538 00f8 00000000 		.4byte	.LFB31
 21539 00fc 84000000 		.4byte	.LFE31
 21540 0100 00000000 		.4byte	.LFB32
 21541 0104 30000000 		.4byte	.LFE32
 21542 0108 00000000 		.4byte	.LFB33
 21543 010c 440C0000 		.4byte	.LFE33
 21544 0110 00000000 		.4byte	.LFB34
 21545 0114 90270000 		.4byte	.LFE34
 21546 0118 00000000 		.4byte	.LFB35
 21547 011c B0000000 		.4byte	.LFE35
 21548 0120 00000000 		.4byte	.LFB36
 21549 0124 58010000 		.4byte	.LFE36
 21550 0128 00000000 		.4byte	0
 21551 012c 00000000 		.4byte	0
 21552              		.section	.debug_line,"",%progbits
 21553              	.Ldebug_line0:
 21554 0000 A10C0000 		.section	.debug_str,"MS",%progbits,1
 21554      0200CA01 
 21554      00000201 
 21554      FB0E0D00 
 21554      01010101 
 21555              	.LASF39:
 21556 0000 5F64736F 		.ascii	"_dso_handle\000"
 21556      5F68616E 
 21556      646C6500 
 21557              	.LASF202:
 21558 000c 6D616C6C 		.ascii	"malloc\000"
 21558      6F6300
 21559              	.LASF47:
 21560 0013 5F73697A 		.ascii	"_size\000"
 21560      6500
 21561              	.LASF186:
 21562 0019 53726345 		.ascii	"SrcEnd\000"
 21562      6E6400
 21563              	.LASF176:
 21564 0020 57617463 		.ascii	"Watcher\000"
 21564      68657200 
 21565              	.LASF9:
 21566 0028 73697A65 		.ascii	"size_t\000"
 21566      5F7400
 21567              	.LASF92:
 21568 002f 5F72616E 		.ascii	"_rand48\000"
 21568      64343800 
 21569              	.LASF71:
 21570 0037 5F656D65 		.ascii	"_emergency\000"
 21570      7267656E 
 21570      637900
ARM GAS  C:\Users\doug_000\AppData\Local\Temp\ccbaKQF3.s 			page 426


 21571              	.LASF140:
 21572 0042 74686172 		.ascii	"thar\000"
 21572      00
 21573              	.LASF165:
 21574 0047 44656661 		.ascii	"DefaultIL\000"
 21574      756C7449 
 21574      4C00
 21575              	.LASF61:
 21576 0051 5F646174 		.ascii	"_data\000"
 21576      6100
 21577              	.LASF112:
 21578 0057 5F776372 		.ascii	"_wcrtomb_state\000"
 21578      746F6D62 
 21578      5F737461 
 21578      746500
 21579              	.LASF113:
 21580 0066 5F776373 		.ascii	"_wcsrtombs_state\000"
 21580      72746F6D 
 21580      62735F73 
 21580      74617465 
 21580      00
 21581              	.LASF190:
 21582 0077 42726F6B 		.ascii	"Broken\000"
 21582      656E00
 21583              	.LASF152:
 21584 007e 50757368 		.ascii	"PushExInt\000"
 21584      4578496E 
 21584      7400
 21585              	.LASF0:
 21586 0088 6C6F6E67 		.ascii	"long long unsigned int\000"
 21586      206C6F6E 
 21586      6720756E 
 21586      7369676E 
 21586      65642069 
 21587              	.LASF132:
 21588 009f 53686F77 		.ascii	"ShowExSt\000"
 21588      45785374 
 21588      00
 21589              	.LASF158:
 21590 00a8 7468654C 		.ascii	"theLine\000"
 21590      696E6500 
 21591              	.LASF51:
 21592 00b0 5F6C6266 		.ascii	"_lbfsize\000"
 21592      73697A65 
 21592      00
 21593              	.LASF187:
 21594 00b9 55736572 		.ascii	"UserEnd\000"
 21594      456E6400 
 21595              	.LASF147:
 21596 00c1 54426572 		.ascii	"TBerror\000"
 21596      726F7200 
 21597              	.LASF110:
 21598 00c9 5F6D6272 		.ascii	"_mbrtowc_state\000"
 21598      746F7763 
 21598      5F737461 
 21598      746500
 21599              	.LASF136:
ARM GAS  C:\Users\doug_000\AppData\Local\Temp\ccbaKQF3.s 			page 427


 21600 00d8 53686F4D 		.ascii	"ShoMemDump\000"
 21600      656D4475 
 21600      6D7000
 21601              	.LASF185:
 21602 00e3 496E4C65 		.ascii	"InLend\000"
 21602      6E6400
 21603              	.LASF105:
 21604 00ea 5F776374 		.ascii	"_wctomb_state\000"
 21604      6F6D625F 
 21604      73746174 
 21604      6500
 21605              	.LASF28:
 21606 00f8 5F5F746D 		.ascii	"__tm_sec\000"
 21606      5F736563 
 21606      00
 21607              	.LASF200:
 21608 0101 66736565 		.ascii	"fseek\000"
 21608      6B00
 21609              	.LASF8:
 21610 0107 6C6F6E67 		.ascii	"long long int\000"
 21610      206C6F6E 
 21610      6720696E 
 21610      7400
 21611              	.LASF2:
 21612 0115 7369676E 		.ascii	"signed char\000"
 21612      65642063 
 21612      68617200 
 21613              	.LASF57:
 21614 0121 5F756275 		.ascii	"_ubuf\000"
 21614      6600
 21615              	.LASF46:
 21616 0127 5F626173 		.ascii	"_base\000"
 21616      6500
 21617              	.LASF30:
 21618 012d 5F5F746D 		.ascii	"__tm_hour\000"
 21618      5F686F75 
 21618      7200
 21619              	.LASF86:
 21620 0137 5F5F7366 		.ascii	"__sf\000"
 21620      00
 21621              	.LASF37:
 21622 013c 5F6F6E5F 		.ascii	"_on_exit_args\000"
 21622      65786974 
 21622      5F617267 
 21622      7300
 21623              	.LASF131:
 21624 014a 53686F77 		.ascii	"ShowSubs\000"
 21624      53756273 
 21624      00
 21625              	.LASF52:
 21626 0153 5F636F6F 		.ascii	"_cookie\000"
 21626      6B696500 
 21627              	.LASF85:
 21628 015b 5F5F7367 		.ascii	"__sglue\000"
 21628      6C756500 
 21629              	.LASF139:
 21630 0163 74656D70 		.ascii	"temp\000"
ARM GAS  C:\Users\doug_000\AppData\Local\Temp\ccbaKQF3.s 			page 428


 21630      00
 21631              	.LASF6:
 21632 0168 6C6F6E67 		.ascii	"long int\000"
 21632      20696E74 
 21632      00
 21633              	.LASF144:
 21634 0171 4C6F6749 		.ascii	"LogIt\000"
 21634      7400
 21635              	.LASF49:
 21636 0177 5F666C61 		.ascii	"_flags\000"
 21636      677300
 21637              	.LASF41:
 21638 017e 5F69735F 		.ascii	"_is_cxa\000"
 21638      63786100 
 21639              	.LASF67:
 21640 0186 5F737464 		.ascii	"_stdin\000"
 21640      696E00
 21641              	.LASF59:
 21642 018d 5F626C6B 		.ascii	"_blksize\000"
 21642      73697A65 
 21642      00
 21643              	.LASF178:
 21644 0196 436F7265 		.ascii	"Core\000"
 21644      00
 21645              	.LASF189:
 21646 019b 58516865 		.ascii	"XQhere\000"
 21646      726500
 21647              	.LASF81:
 21648 01a2 5F637674 		.ascii	"_cvtbuf\000"
 21648      62756600 
 21649              	.LASF60:
 21650 01aa 5F6F6666 		.ascii	"_offset\000"
 21650      73657400 
 21651              	.LASF205:
 21652 01b2 7072696E 		.ascii	"printf\000"
 21652      746600
 21653              	.LASF111:
 21654 01b9 5F6D6273 		.ascii	"_mbsrtowcs_state\000"
 21654      72746F77 
 21654      63735F73 
 21654      74617465 
 21654      00
 21655              	.LASF109:
 21656 01ca 5F6D6272 		.ascii	"_mbrlen_state\000"
 21656      6C656E5F 
 21656      73746174 
 21656      6500
 21657              	.LASF179:
 21658 01d8 44654361 		.ascii	"DeCaps\000"
 21658      707300
 21659              	.LASF38:
 21660 01df 5F666E61 		.ascii	"_fnargs\000"
 21660      72677300 
 21661              	.LASF44:
 21662 01e7 5F666E73 		.ascii	"_fns\000"
 21662      00
 21663              	.LASF24:
ARM GAS  C:\Users\doug_000\AppData\Local\Temp\ccbaKQF3.s 			page 429


 21664 01ec 5F736967 		.ascii	"_sign\000"
 21664      6E00
 21665              	.LASF183:
 21666 01f2 53756253 		.ascii	"SubStk\000"
 21666      746B00
 21667              	.LASF20:
 21668 01f9 5F666C6F 		.ascii	"_flock_t\000"
 21668      636B5F74 
 21668      00
 21669              	.LASF69:
 21670 0202 5F737464 		.ascii	"_stderr\000"
 21670      65727200 
 21671              	.LASF26:
 21672 020a 5F426967 		.ascii	"_Bigint\000"
 21672      696E7400 
 21673              	.LASF100:
 21674 0212 5F67616D 		.ascii	"_gamma_signgam\000"
 21674      6D615F73 
 21674      69676E67 
 21674      616D00
 21675              	.LASF174:
 21676 0221 44656275 		.ascii	"DebugLog\000"
 21676      674C6F67 
 21676      00
 21677              	.LASF175:
 21678 022a 4C6F6748 		.ascii	"LogHere\000"
 21678      65726500 
 21679              	.LASF53:
 21680 0232 5F726561 		.ascii	"_read\000"
 21680      6400
 21681              	.LASF77:
 21682 0238 5F726573 		.ascii	"_result_k\000"
 21682      756C745F 
 21682      6B00
 21683              	.LASF27:
 21684 0242 5F5F746D 		.ascii	"__tm\000"
 21684      00
 21685              	.LASF210:
 21686 0247 5F5F6275 		.ascii	"__builtin_strlen\000"
 21686      696C7469 
 21686      6E5F7374 
 21686      726C656E 
 21686      00
 21687              	.LASF1:
 21688 0258 756E7369 		.ascii	"unsigned int\000"
 21688      676E6564 
 21688      20696E74 
 21688      00
 21689              	.LASF15:
 21690 0265 5F5F7763 		.ascii	"__wchb\000"
 21690      686200
 21691              	.LASF157:
 21692 026c 46696E64 		.ascii	"FindLine\000"
 21692      4C696E65 
 21692      00
 21693              	.LASF68:
 21694 0275 5F737464 		.ascii	"_stdout\000"
ARM GAS  C:\Users\doug_000\AppData\Local\Temp\ccbaKQF3.s 			page 430


 21694      6F757400 
 21695              	.LASF80:
 21696 027d 5F637674 		.ascii	"_cvtlen\000"
 21696      6C656E00 
 21697              	.LASF209:
 21698 0285 53746F70 		.ascii	"StopIt\000"
 21698      497400
 21699              	.LASF7:
 21700 028c 6C6F6E67 		.ascii	"long unsigned int\000"
 21700      20756E73 
 21700      69676E65 
 21700      6420696E 
 21700      7400
 21701              	.LASF50:
 21702 029e 5F66696C 		.ascii	"_file\000"
 21702      6500
 21703              	.LASF135:
 21704 02a4 7072696F 		.ascii	"prior\000"
 21704      7200
 21705              	.LASF181:
 21706 02aa 494C5043 		.ascii	"ILPC\000"
 21706      00
 21707              	.LASF148:
 21708 02af 50757368 		.ascii	"PushSub\000"
 21708      53756200 
 21709              	.LASF188:
 21710 02b7 494C656E 		.ascii	"ILend\000"
 21710      6400
 21711              	.LASF155:
 21712 02bd 6E646967 		.ascii	"ndigs\000"
 21712      7300
 21713              	.LASF90:
 21714 02c3 5F6E696F 		.ascii	"_niobs\000"
 21714      627300
 21715              	.LASF141:
 21716 02ca 53686F4C 		.ascii	"ShoLogVal\000"
 21716      6F675661 
 21716      6C00
 21717              	.LASF171:
 21718 02d4 746D7046 		.ascii	"tmpFile\000"
 21718      696C6500 
 21719              	.LASF5:
 21720 02dc 73686F72 		.ascii	"short unsigned int\000"
 21720      7420756E 
 21720      7369676E 
 21720      65642069 
 21720      6E7400
 21721              	.LASF196:
 21722 02ef 66636C6F 		.ascii	"fclose\000"
 21722      736500
 21723              	.LASF83:
 21724 02f6 5F617465 		.ascii	"_atexit0\000"
 21724      78697430 
 21724      00
 21725              	.LASF107:
 21726 02ff 5F736967 		.ascii	"_signal_buf\000"
 21726      6E616C5F 
ARM GAS  C:\Users\doug_000\AppData\Local\Temp\ccbaKQF3.s 			page 431


 21726      62756600 
 21727              	.LASF98:
 21728 030b 5F617363 		.ascii	"_asctime_buf\000"
 21728      74696D65 
 21728      5F627566 
 21728      00
 21729              	.LASF211:
 21730 0318 7374726C 		.ascii	"strlen\000"
 21730      656E00
 21731              	.LASF177:
 21732 031f 57617463 		.ascii	"Watchee\000"
 21732      68656500 
 21733              	.LASF76:
 21734 0327 5F726573 		.ascii	"_result\000"
 21734      756C7400 
 21735              	.LASF14:
 21736 032f 5F5F7763 		.ascii	"__wch\000"
 21736      6800
 21737              	.LASF193:
 21738 0335 66676574 		.ascii	"fgetc\000"
 21738      6300
 21739              	.LASF149:
 21740 033b 506F7053 		.ascii	"PopSub\000"
 21740      756200
 21741              	.LASF120:
 21742 0342 4366696C 		.ascii	"CfileRead\000"
 21742      65526561 
 21742      6400
 21743              	.LASF13:
 21744 034c 77696E74 		.ascii	"wint_t\000"
 21744      5F7400
 21745              	.LASF143:
 21746 0353 53686F77 		.ascii	"ShowLog\000"
 21746      4C6F6700 
 21747              	.LASF62:
 21748 035b 5F6C6F63 		.ascii	"_lock\000"
 21748      6B00
 21749              	.LASF64:
 21750 0361 5F666C61 		.ascii	"_flags2\000"
 21750      67733200 
 21751              	.LASF133:
 21752 0369 53686F77 		.ascii	"ShowVars\000"
 21752      56617273 
 21752      00
 21753              	.LASF162:
 21754 0372 4C696E65 		.ascii	"LineSwap\000"
 21754      53776170 
 21754      00
 21755              	.LASF118:
 21756 037b 46494C45 		.ascii	"FILE\000"
 21756      00
 21757              	.LASF127:
 21758 0380 4F75744C 		.ascii	"OutLn\000"
 21758      6E00
 21759              	.LASF159:
 21760 0386 476F546F 		.ascii	"GoToLino\000"
 21760      4C696E6F 
ARM GAS  C:\Users\doug_000\AppData\Local\Temp\ccbaKQF3.s 			page 432


 21760      00
 21761              	.LASF54:
 21762 038f 5F777269 		.ascii	"_write\000"
 21762      746500
 21763              	.LASF33:
 21764 0396 5F5F746D 		.ascii	"__tm_year\000"
 21764      5F796561 
 21764      7200
 21765              	.LASF119:
 21766 03a0 76616C75 		.ascii	"valu\000"
 21766      00
 21767              	.LASF137:
 21768 03a5 68657265 		.ascii	"here\000"
 21768      00
 21769              	.LASF16:
 21770 03aa 73697A65 		.ascii	"sizetype\000"
 21770      74797065 
 21770      00
 21771              	.LASF121:
 21772 03b3 5065656B 		.ascii	"Peek2\000"
 21772      3200
 21773              	.LASF197:
 21774 03b9 5F5F7372 		.ascii	"__srget_r\000"
 21774      6765745F 
 21774      7200
 21775              	.LASF115:
 21776 03c3 5F6E6578 		.ascii	"_nextf\000"
 21776      746600
 21777              	.LASF194:
 21778 03ca 66707574 		.ascii	"fputc\000"
 21778      6300
 21779              	.LASF142:
 21780 03d0 6974656D 		.ascii	"item\000"
 21780      00
 21781              	.LASF102:
 21782 03d5 5F723438 		.ascii	"_r48\000"
 21782      00
 21783              	.LASF122:
 21784 03da 506F6B65 		.ascii	"Poke2\000"
 21784      3200
 21785              	.LASF128:
 21786 03e0 4F757449 		.ascii	"OutInt\000"
 21786      6E7400
 21787              	.LASF32:
 21788 03e7 5F5F746D 		.ascii	"__tm_mon\000"
 21788      5F6D6F6E 
 21788      00
 21789              	.LASF130:
 21790 03f0 4F757448 		.ascii	"OutHex\000"
 21790      657800
 21791              	.LASF42:
 21792 03f7 5F617465 		.ascii	"_atexit\000"
 21792      78697400 
 21793              	.LASF166:
 21794 03ff 53746172 		.ascii	"StartTinyBasic\000"
 21794      7454696E 
 21794      79426173 
ARM GAS  C:\Users\doug_000\AppData\Local\Temp\ccbaKQF3.s 			page 433


 21794      696300
 21795              	.LASF74:
 21796 040e 5F5F7364 		.ascii	"__sdidinit\000"
 21796      6964696E 
 21796      697400
 21797              	.LASF11:
 21798 0419 5F6F6666 		.ascii	"_off_t\000"
 21798      5F7400
 21799              	.LASF154:
 21800 0420 44654865 		.ascii	"DeHex\000"
 21800      7800
 21801              	.LASF184:
 21802 0426 4578706E 		.ascii	"ExpnTop\000"
 21802      546F7000 
 21803              	.LASF199:
 21804 042e 666F7065 		.ascii	"fopen\000"
 21804      6E00
 21805              	.LASF79:
 21806 0434 5F667265 		.ascii	"_freelist\000"
 21806      656C6973 
 21806      7400
 21807              	.LASF10:
 21808 043e 5F4C4F43 		.ascii	"_LOCK_RECURSIVE_T\000"
 21808      4B5F5245 
 21808      43555253 
 21808      4956455F 
 21808      5400
 21809              	.LASF204:
 21810 0450 6D656D63 		.ascii	"memcpy\000"
 21810      707900
 21811              	.LASF3:
 21812 0457 756E7369 		.ascii	"unsigned char\000"
 21812      676E6564 
 21812      20636861 
 21812      7200
 21813              	.LASF160:
 21814 0465 4C697374 		.ascii	"ListIt\000"
 21814      497400
 21815              	.LASF164:
 21816 046c 63687074 		.ascii	"chpt\000"
 21816      00
 21817              	.LASF82:
 21818 0471 5F6E6577 		.ascii	"_new\000"
 21818      00
 21819              	.LASF114:
 21820 0476 5F685F65 		.ascii	"_h_errno\000"
 21820      72726E6F 
 21820      00
 21821              	.LASF4:
 21822 047f 73686F72 		.ascii	"short int\000"
 21822      7420696E 
 21822      7400
 21823              	.LASF35:
 21824 0489 5F5F746D 		.ascii	"__tm_yday\000"
 21824      5F796461 
 21824      7900
 21825              	.LASF45:
ARM GAS  C:\Users\doug_000\AppData\Local\Temp\ccbaKQF3.s 			page 434


 21826 0493 5F5F7362 		.ascii	"__sbuf\000"
 21826      756600
 21827              	.LASF91:
 21828 049a 5F696F62 		.ascii	"_iobs\000"
 21828      7300
 21829              	.LASF88:
 21830 04a0 5F5F4649 		.ascii	"__FILE\000"
 21830      4C4500
 21831              	.LASF19:
 21832 04a7 5F6D6273 		.ascii	"_mbstate_t\000"
 21832      74617465 
 21832      5F7400
 21833              	.LASF48:
 21834 04b2 5F5F7346 		.ascii	"__sFILE\000"
 21834      494C4500 
 21835              	.LASF63:
 21836 04ba 5F6D6273 		.ascii	"_mbstate\000"
 21836      74617465 
 21836      00
 21837              	.LASF101:
 21838 04c3 5F72616E 		.ascii	"_rand_next\000"
 21838      645F6E65 
 21838      787400
 21839              	.LASF134:
 21840 04ce 77686F6D 		.ascii	"whom\000"
 21840      00
 21841              	.LASF103:
 21842 04d3 5F6D626C 		.ascii	"_mblen_state\000"
 21842      656E5F73 
 21842      74617465 
 21842      00
 21843              	.LASF70:
 21844 04e0 5F696E63 		.ascii	"_inc\000"
 21844      00
 21845              	.LASF43:
 21846 04e5 5F696E64 		.ascii	"_ind\000"
 21846      00
 21847              	.LASF73:
 21848 04ea 5F637572 		.ascii	"_current_locale\000"
 21848      72656E74 
 21848      5F6C6F63 
 21848      616C6500 
 21849              	.LASF203:
 21850 04fa 66726561 		.ascii	"fread\000"
 21850      6400
 21851              	.LASF75:
 21852 0500 5F5F636C 		.ascii	"__cleanup\000"
 21852      65616E75 
 21852      7000
 21853              	.LASF23:
 21854 050a 5F6D6178 		.ascii	"_maxwds\000"
 21854      77647300 
 21855              	.LASF65:
 21856 0512 5F726565 		.ascii	"_reent\000"
 21856      6E7400
 21857              	.LASF93:
 21858 0519 5F736565 		.ascii	"_seed\000"
ARM GAS  C:\Users\doug_000\AppData\Local\Temp\ccbaKQF3.s 			page 435


 21858      6400
 21859              	.LASF191:
 21860 051f 696E4669 		.ascii	"inFile\000"
 21860      6C6500
 21861              	.LASF153:
 21862 0526 506F7045 		.ascii	"PopExInt\000"
 21862      78496E74 
 21862      00
 21863              	.LASF17:
 21864 052f 5F5F636F 		.ascii	"__count\000"
 21864      756E7400 
 21865              	.LASF18:
 21866 0537 5F5F7661 		.ascii	"__value\000"
 21866      6C756500 
 21867              	.LASF145:
 21868 053f 5761726D 		.ascii	"WarmStart\000"
 21868      53746172 
 21868      7400
 21869              	.LASF55:
 21870 0549 5F736565 		.ascii	"_seek\000"
 21870      6B00
 21871              	.LASF173:
 21872 054f 5F696D70 		.ascii	"_impure_ptr\000"
 21872      7572655F 
 21872      70747200 
 21873              	.LASF12:
 21874 055b 5F66706F 		.ascii	"_fpos_t\000"
 21874      735F7400 
 21875              	.LASF182:
 21876 0563 53765074 		.ascii	"SvPt\000"
 21876      00
 21877              	.LASF66:
 21878 0568 5F657272 		.ascii	"_errno\000"
 21878      6E6F00
 21879              	.LASF87:
 21880 056f 63686172 		.ascii	"char\000"
 21880      00
 21881              	.LASF125:
 21882 0574 4F757453 		.ascii	"OutStr\000"
 21882      747200
 21883              	.LASF29:
 21884 057b 5F5F746D 		.ascii	"__tm_min\000"
 21884      5F6D696E 
 21884      00
 21885              	.LASF126:
 21886 0584 7468654D 		.ascii	"theMsg\000"
 21886      736700
 21887              	.LASF124:
 21888 058b 496E6368 		.ascii	"Inch\000"
 21888      00
 21889              	.LASF156:
 21890 0590 536B6970 		.ascii	"SkipTo\000"
 21890      546F00
 21891              	.LASF198:
 21892 0597 73747263 		.ascii	"strcmp\000"
 21892      6D7000
 21893              	.LASF94:
ARM GAS  C:\Users\doug_000\AppData\Local\Temp\ccbaKQF3.s 			page 436


 21894 059e 5F6D756C 		.ascii	"_mult\000"
 21894      7400
 21895              	.LASF22:
 21896 05a4 5F6E6578 		.ascii	"_next\000"
 21896      7400
 21897              	.LASF97:
 21898 05aa 5F737472 		.ascii	"_strtok_last\000"
 21898      746F6B5F 
 21898      6C617374 
 21898      00
 21899              	.LASF180:
 21900 05b7 4C696E6F 		.ascii	"Lino\000"
 21900      00
 21901              	.LASF40:
 21902 05bc 5F666E74 		.ascii	"_fntypes\000"
 21902      79706573 
 21902      00
 21903              	.LASF150:
 21904 05c5 50757368 		.ascii	"PushExBy\000"
 21904      45784279 
 21904      00
 21905              	.LASF95:
 21906 05ce 5F616464 		.ascii	"_add\000"
 21906      00
 21907              	.LASF21:
 21908 05d3 5F5F554C 		.ascii	"__ULong\000"
 21908      6F6E6700 
 21909              	.LASF108:
 21910 05db 5F676574 		.ascii	"_getdate_err\000"
 21910      64617465 
 21910      5F657272 
 21910      00
 21911              	.LASF168:
 21912 05e8 6D61696E 		.ascii	"mainTinyBASIC\000"
 21912      54696E79 
 21912      42415349 
 21912      4300
 21913              	.LASF151:
 21914 05f6 506F7045 		.ascii	"PopExBy\000"
 21914      78427900 
 21915              	.LASF123:
 21916 05fe 4F756368 		.ascii	"Ouch\000"
 21916      00
 21917              	.LASF72:
 21918 0603 5F637572 		.ascii	"_current_category\000"
 21918      72656E74 
 21918      5F636174 
 21918      65676F72 
 21918      7900
 21919              	.LASF208:
 21920 0615 433A5C55 		.ascii	"C:\\Users\\doug_000\\Documents\\GitHub\\ODAS\\ODAS-"
 21920      73657273 
 21920      5C646F75 
 21920      675F3030 
 21920      305C446F 
 21921 0642 50534F43 		.ascii	"PSOC5\\Projects\\ODAS-PSOC5-TinyBASIC.cydsn\000"
 21921      355C5072 
ARM GAS  C:\Users\doug_000\AppData\Local\Temp\ccbaKQF3.s 			page 437


 21921      6F6A6563 
 21921      74735C4F 
 21921      4441532D 
 21922              	.LASF167:
 21923 066c 494C7465 		.ascii	"ILtext\000"
 21923      787400
 21924              	.LASF163:
 21925 0673 496E7465 		.ascii	"Interp\000"
 21925      727000
 21926              	.LASF96:
 21927 067a 5F756E75 		.ascii	"_unused_rand\000"
 21927      7365645F 
 21927      72616E64 
 21927      00
 21928              	.LASF129:
 21929 0687 7468654E 		.ascii	"theNum\000"
 21929      756D00
 21930              	.LASF206:
 21931 068e 474E5520 		.ascii	"GNU C 4.9.3 20150303 (release) [ARM/embedded-4_9-br"
 21931      4320342E 
 21931      392E3320 
 21931      32303135 
 21931      30333033 
 21932 06c1 616E6368 		.ascii	"anch revision 221220] -mcpu=cortex-m3 -mthumb -g -O"
 21932      20726576 
 21932      6973696F 
 21932      6E203232 
 21932      31323230 
 21933 06f4 67202D66 		.ascii	"g -ffunction-sections -ffat-lto-objects\000"
 21933      66756E63 
 21933      74696F6E 
 21933      2D736563 
 21933      74696F6E 
 21934              	.LASF138:
 21935 071c 6E6C6F63 		.ascii	"nlocs\000"
 21935      7300
 21936              	.LASF25:
 21937 0722 5F776473 		.ascii	"_wds\000"
 21937      00
 21938              	.LASF34:
 21939 0727 5F5F746D 		.ascii	"__tm_wday\000"
 21939      5F776461 
 21939      7900
 21940              	.LASF89:
 21941 0731 5F676C75 		.ascii	"_glue\000"
 21941      6500
 21942              	.LASF161:
 21943 0737 436F6E76 		.ascii	"ConvtIL\000"
 21943      74494C00 
 21944              	.LASF116:
 21945 073f 5F6E6D61 		.ascii	"_nmalloc\000"
 21945      6C6C6F63 
 21945      00
 21946              	.LASF106:
 21947 0748 5F6C3634 		.ascii	"_l64a_buf\000"
 21947      615F6275 
 21947      6600
ARM GAS  C:\Users\doug_000\AppData\Local\Temp\ccbaKQF3.s 			page 438


 21948              	.LASF146:
 21949 0752 436F6C64 		.ascii	"ColdStart\000"
 21949      53746172 
 21949      7400
 21950              	.LASF84:
 21951 075c 5F736967 		.ascii	"_sig_func\000"
 21951      5F66756E 
 21951      6300
 21952              	.LASF172:
 21953 0766 44656275 		.ascii	"Debugging\000"
 21953      6767696E 
 21953      6700
 21954              	.LASF58:
 21955 0770 5F6E6275 		.ascii	"_nbuf\000"
 21955      6600
 21956              	.LASF117:
 21957 0776 5F756E75 		.ascii	"_unused\000"
 21957      73656400 
 21958              	.LASF169:
 21959 077e 61726763 		.ascii	"argc\000"
 21959      00
 21960              	.LASF192:
 21961 0783 6F46696C 		.ascii	"oFile\000"
 21961      6500
 21962              	.LASF36:
 21963 0789 5F5F746D 		.ascii	"__tm_isdst\000"
 21963      5F697364 
 21963      737400
 21964              	.LASF99:
 21965 0794 5F6C6F63 		.ascii	"_localtime_buf\000"
 21965      616C7469 
 21965      6D655F62 
 21965      756600
 21966              	.LASF56:
 21967 07a3 5F636C6F 		.ascii	"_close\000"
 21967      736500
 21968              	.LASF207:
 21969 07aa 54696E79 		.ascii	"TinyBasic.c\000"
 21969      42617369 
 21969      632E6300 
 21970              	.LASF201:
 21971 07b6 6674656C 		.ascii	"ftell\000"
 21971      6C00
 21972              	.LASF104:
 21973 07bc 5F6D6274 		.ascii	"_mbtowc_state\000"
 21973      6F77635F 
 21973      73746174 
 21973      6500
 21974              	.LASF78:
 21975 07ca 5F703573 		.ascii	"_p5s\000"
 21975      00
 21976              	.LASF195:
 21977 07cf 5F5F7377 		.ascii	"__swbuf_r\000"
 21977      6275665F 
 21977      7200
 21978              	.LASF170:
 21979 07d9 61726776 		.ascii	"argv\000"
ARM GAS  C:\Users\doug_000\AppData\Local\Temp\ccbaKQF3.s 			page 439


 21979      00
 21980              	.LASF31:
 21981 07de 5F5F746D 		.ascii	"__tm_mday\000"
 21981      5F6D6461 
 21981      7900
 21982              		.ident	"GCC: (GNU Tools for ARM Embedded Processors) 4.9.3 20150303 (release) [ARM/embedded-4_9-br
