ARM GAS  C:\Users\DGILLI~1\AppData\Local\Temp\ccSxycYi.s 			page 1


   1              		.syntax unified
   2              		.cpu cortex-m3
   3              		.fpu softvfp
   4              		.eabi_attribute 20, 1
   5              		.eabi_attribute 21, 1
   6              		.eabi_attribute 23, 3
   7              		.eabi_attribute 24, 1
   8              		.eabi_attribute 25, 1
   9              		.eabi_attribute 26, 1
  10              		.eabi_attribute 30, 1
  11              		.eabi_attribute 34, 1
  12              		.eabi_attribute 18, 4
  13              		.thumb
  14              		.file	"DIGIO8Driver.c"
  15              		.text
  16              	.Ltext0:
  17              		.cfi_sections	.debug_frame
  18              		.section	.text.writeRegisterDIGIO8Card,"ax",%progbits
  19              		.align	2
  20              		.global	writeRegisterDIGIO8Card
  21              		.thumb
  22              		.thumb_func
  23              		.type	writeRegisterDIGIO8Card, %function
  24              	writeRegisterDIGIO8Card:
  25              	.LFB64:
  26              		.file 1 "DIGIO8Driver.c"
   1:DIGIO8Driver.c **** /* ========================================
   2:DIGIO8Driver.c ****  * DIGIO8Driver.c
   3:DIGIO8Driver.c ****  * Copyright Land Boards LLC, 2017
   4:DIGIO8Driver.c ****  * All Rights Reserved
   5:DIGIO8Driver.c ****  * UNPUBLISHED, LICENSED SOFTWARE.
   6:DIGIO8Driver.c ****  *
   7:DIGIO8Driver.c ****  * CONFIDENTIAL AND PROPRIETARY INFORMATION
   8:DIGIO8Driver.c ****  * WHICH IS THE PROPERTY OF Land Boards, LLC.
   9:DIGIO8Driver.c ****  *
  10:DIGIO8Driver.c ****  * ========================================
  11:DIGIO8Driver.c **** */
  12:DIGIO8Driver.c **** 
  13:DIGIO8Driver.c **** #include <project.h>
  14:DIGIO8Driver.c **** #include "DIGIO8Driver.h"
  15:DIGIO8Driver.c **** 
  16:DIGIO8Driver.c **** uint8 myWrBuffer[2];
  17:DIGIO8Driver.c ****  
  18:DIGIO8Driver.c **** //////////////////////////////////////////////////////////////////////////////
  19:DIGIO8Driver.c **** // initDIGIO8Card(void) - 
  20:DIGIO8Driver.c **** //////////////////////////////////////////////////////////////////////////////
  21:DIGIO8Driver.c **** 
  22:DIGIO8Driver.c **** void initDIGIO8Card(void)
  23:DIGIO8Driver.c **** {
  24:DIGIO8Driver.c ****     I2C_Start();    // Kick off the I2C interface
  25:DIGIO8Driver.c ****     writeRegisterDIGIO8Card(MCP23008_IOCON_REGADR,MCP23008_IOCON_DEFVAL);
  26:DIGIO8Driver.c ****     writeRegisterDIGIO8Card(MCP23008_IODIR_REGADR,MCP23008_IODIR_DEFVAL);
  27:DIGIO8Driver.c ****     writeRegisterDIGIO8Card(MCP23008_GPINTEN_REGADR,MCP23008_GPINTEN_DEFVAL);
  28:DIGIO8Driver.c ****     writeRegisterDIGIO8Card(MCP23008_INTCON_REGADR,MCP23008_INTCON_DEFVAL);
  29:DIGIO8Driver.c ****     writeRegisterDIGIO8Card(MCP23008_GPPU_REGADR,MCP23008_GPPU_DEFVAL);
  30:DIGIO8Driver.c ****     readRegisterDIGIO8Card(MCP23008_INTCAP_REGADR); // Clear interrupt LED
  31:DIGIO8Driver.c **** }
ARM GAS  C:\Users\DGILLI~1\AppData\Local\Temp\ccSxycYi.s 			page 2


  32:DIGIO8Driver.c **** 
  33:DIGIO8Driver.c **** //////////////////////////////////////////////////////////////////////////////
  34:DIGIO8Driver.c **** // writeRegisterDIGIO8Card(ctrlAdr, ctrlVal) - 
  35:DIGIO8Driver.c **** //////////////////////////////////////////////////////////////////////////////
  36:DIGIO8Driver.c **** 
  37:DIGIO8Driver.c **** void writeRegisterDIGIO8Card(uint8 ctrlAdr, uint8 ctrlVal)
  38:DIGIO8Driver.c **** {
  27              		.loc 1 38 0
  28              		.cfi_startproc
  29              		@ args = 0, pretend = 0, frame = 0
  30              		@ frame_needed = 0, uses_anonymous_args = 0
  31              	.LVL0:
  32 0000 38B5     		push	{r3, r4, r5, lr}
  33              		.cfi_def_cfa_offset 16
  34              		.cfi_offset 3, -16
  35              		.cfi_offset 4, -12
  36              		.cfi_offset 5, -8
  37              		.cfi_offset 14, -4
  38 0002 0546     		mov	r5, r0
  39 0004 0C46     		mov	r4, r1
  39:DIGIO8Driver.c ****     I2C_MasterClearStatus();
  40              		.loc 1 39 0
  41 0006 FFF7FEFF 		bl	I2C_MasterClearStatus
  42              	.LVL1:
  40:DIGIO8Driver.c ****     myWrBuffer[0] = ctrlAdr;
  43              		.loc 1 40 0
  44 000a 0849     		ldr	r1, .L4
  45 000c 0D70     		strb	r5, [r1]
  41:DIGIO8Driver.c ****     myWrBuffer[1] = ctrlVal;
  46              		.loc 1 41 0
  47 000e 4C70     		strb	r4, [r1, #1]
  42:DIGIO8Driver.c ****     I2C_MasterWriteBuf(0x20, myWrBuffer, 2, I2C_MODE_COMPLETE_XFER);
  48              		.loc 1 42 0
  49 0010 2020     		movs	r0, #32
  50 0012 0222     		movs	r2, #2
  51 0014 0023     		movs	r3, #0
  52 0016 FFF7FEFF 		bl	I2C_MasterWriteBuf
  53              	.LVL2:
  54              	.L2:
  43:DIGIO8Driver.c ****     while (0u == (I2C_MasterStatus() & I2C_MSTAT_WR_CMPLT));
  55              		.loc 1 43 0 discriminator 1
  56 001a FFF7FEFF 		bl	I2C_MasterStatus
  57              	.LVL3:
  58 001e 10F0020F 		tst	r0, #2
  59 0022 FAD0     		beq	.L2
  44:DIGIO8Driver.c ****     I2C_MasterClearStatus();
  60              		.loc 1 44 0
  61 0024 FFF7FEFF 		bl	I2C_MasterClearStatus
  62              	.LVL4:
  63 0028 38BD     		pop	{r3, r4, r5, pc}
  64              	.L5:
  65 002a 00BF     		.align	2
  66              	.L4:
  67 002c 00000000 		.word	myWrBuffer
  68              		.cfi_endproc
  69              	.LFE64:
  70              		.size	writeRegisterDIGIO8Card, .-writeRegisterDIGIO8Card
ARM GAS  C:\Users\DGILLI~1\AppData\Local\Temp\ccSxycYi.s 			page 3


  71              		.section	.text.readRegisterDIGIO8Card,"ax",%progbits
  72              		.align	2
  73              		.global	readRegisterDIGIO8Card
  74              		.thumb
  75              		.thumb_func
  76              		.type	readRegisterDIGIO8Card, %function
  77              	readRegisterDIGIO8Card:
  78              	.LFB65:
  45:DIGIO8Driver.c **** }
  46:DIGIO8Driver.c **** 
  47:DIGIO8Driver.c **** //////////////////////////////////////////////////////////////////////////////
  48:DIGIO8Driver.c **** // uint8 readRegisterDIGIO8Card(ctrlAdr) - 
  49:DIGIO8Driver.c **** //////////////////////////////////////////////////////////////////////////////
  50:DIGIO8Driver.c **** 
  51:DIGIO8Driver.c **** uint8 readRegisterDIGIO8Card(uint8 ctrlAdr)
  52:DIGIO8Driver.c **** {
  79              		.loc 1 52 0
  80              		.cfi_startproc
  81              		@ args = 0, pretend = 0, frame = 0
  82              		@ frame_needed = 0, uses_anonymous_args = 0
  83              	.LVL5:
  84 0000 10B5     		push	{r4, lr}
  85              		.cfi_def_cfa_offset 8
  86              		.cfi_offset 4, -8
  87              		.cfi_offset 14, -4
  88 0002 0446     		mov	r4, r0
  53:DIGIO8Driver.c ****     uint8 rdBuff;
  54:DIGIO8Driver.c ****     I2C_MasterClearStatus();
  89              		.loc 1 54 0
  90 0004 FFF7FEFF 		bl	I2C_MasterClearStatus
  91              	.LVL6:
  55:DIGIO8Driver.c ****     I2C_MasterSendStart(0x20,I2C_WRITE_XFER_MODE);
  92              		.loc 1 55 0
  93 0008 2020     		movs	r0, #32
  94 000a 0021     		movs	r1, #0
  95 000c FFF7FEFF 		bl	I2C_MasterSendStart
  96              	.LVL7:
  56:DIGIO8Driver.c ****     I2C_MasterWriteByte(ctrlAdr);
  97              		.loc 1 56 0
  98 0010 2046     		mov	r0, r4
  99 0012 FFF7FEFF 		bl	I2C_MasterWriteByte
 100              	.LVL8:
  57:DIGIO8Driver.c ****     I2C_MasterSendStop();
 101              		.loc 1 57 0
 102 0016 FFF7FEFF 		bl	I2C_MasterSendStop
 103              	.LVL9:
  58:DIGIO8Driver.c **** //    while ((I2C_MasterStatus() & I2C_MSTAT_WR_CMPLT) == 0);
  59:DIGIO8Driver.c ****     I2C_MasterSendStart(0x20,I2C_READ_XFER_MODE);
 104              		.loc 1 59 0
 105 001a 2020     		movs	r0, #32
 106 001c 0121     		movs	r1, #1
 107 001e FFF7FEFF 		bl	I2C_MasterSendStart
 108              	.LVL10:
  60:DIGIO8Driver.c ****     rdBuff = I2C_MasterReadByte(I2C_NAK_DATA);
 109              		.loc 1 60 0
 110 0022 0020     		movs	r0, #0
 111 0024 FFF7FEFF 		bl	I2C_MasterReadByte
ARM GAS  C:\Users\DGILLI~1\AppData\Local\Temp\ccSxycYi.s 			page 4


 112              	.LVL11:
 113 0028 0446     		mov	r4, r0
 114              	.LVL12:
  61:DIGIO8Driver.c ****     I2C_MasterSendStop();
 115              		.loc 1 61 0
 116 002a FFF7FEFF 		bl	I2C_MasterSendStop
 117              	.LVL13:
  62:DIGIO8Driver.c **** //    while ((I2C_MasterStatus() & I2C_MSTAT_RD_CMPLT) == 0);
  63:DIGIO8Driver.c ****     I2C_MasterClearStatus();
 118              		.loc 1 63 0
 119 002e FFF7FEFF 		bl	I2C_MasterClearStatus
 120              	.LVL14:
  64:DIGIO8Driver.c ****     return rdBuff;
  65:DIGIO8Driver.c **** }
 121              		.loc 1 65 0
 122 0032 2046     		mov	r0, r4
 123 0034 10BD     		pop	{r4, pc}
 124              		.cfi_endproc
 125              	.LFE65:
 126              		.size	readRegisterDIGIO8Card, .-readRegisterDIGIO8Card
 127 0036 00BF     		.section	.text.initDIGIO8Card,"ax",%progbits
 128              		.align	2
 129              		.global	initDIGIO8Card
 130              		.thumb
 131              		.thumb_func
 132              		.type	initDIGIO8Card, %function
 133              	initDIGIO8Card:
 134              	.LFB63:
  23:DIGIO8Driver.c ****     I2C_Start();    // Kick off the I2C interface
 135              		.loc 1 23 0
 136              		.cfi_startproc
 137              		@ args = 0, pretend = 0, frame = 0
 138              		@ frame_needed = 0, uses_anonymous_args = 0
 139 0000 08B5     		push	{r3, lr}
 140              		.cfi_def_cfa_offset 8
 141              		.cfi_offset 3, -8
 142              		.cfi_offset 14, -4
  24:DIGIO8Driver.c ****     writeRegisterDIGIO8Card(MCP23008_IOCON_REGADR,MCP23008_IOCON_DEFVAL);
 143              		.loc 1 24 0
 144 0002 FFF7FEFF 		bl	I2C_Start
 145              	.LVL15:
  25:DIGIO8Driver.c ****     writeRegisterDIGIO8Card(MCP23008_IODIR_REGADR,MCP23008_IODIR_DEFVAL);
 146              		.loc 1 25 0
 147 0006 0520     		movs	r0, #5
 148 0008 0021     		movs	r1, #0
 149 000a FFF7FEFF 		bl	writeRegisterDIGIO8Card
 150              	.LVL16:
  26:DIGIO8Driver.c ****     writeRegisterDIGIO8Card(MCP23008_GPINTEN_REGADR,MCP23008_GPINTEN_DEFVAL);
 151              		.loc 1 26 0
 152 000e 0020     		movs	r0, #0
 153 0010 F021     		movs	r1, #240
 154 0012 FFF7FEFF 		bl	writeRegisterDIGIO8Card
 155              	.LVL17:
  27:DIGIO8Driver.c ****     writeRegisterDIGIO8Card(MCP23008_INTCON_REGADR,MCP23008_INTCON_DEFVAL);
 156              		.loc 1 27 0
 157 0016 0220     		movs	r0, #2
 158 0018 0021     		movs	r1, #0
ARM GAS  C:\Users\DGILLI~1\AppData\Local\Temp\ccSxycYi.s 			page 5


 159 001a FFF7FEFF 		bl	writeRegisterDIGIO8Card
 160              	.LVL18:
  28:DIGIO8Driver.c ****     writeRegisterDIGIO8Card(MCP23008_GPPU_REGADR,MCP23008_GPPU_DEFVAL);
 161              		.loc 1 28 0
 162 001e 0420     		movs	r0, #4
 163 0020 0021     		movs	r1, #0
 164 0022 FFF7FEFF 		bl	writeRegisterDIGIO8Card
 165              	.LVL19:
  29:DIGIO8Driver.c ****     readRegisterDIGIO8Card(MCP23008_INTCAP_REGADR); // Clear interrupt LED
 166              		.loc 1 29 0
 167 0026 0620     		movs	r0, #6
 168 0028 F021     		movs	r1, #240
 169 002a FFF7FEFF 		bl	writeRegisterDIGIO8Card
 170              	.LVL20:
  30:DIGIO8Driver.c **** }
 171              		.loc 1 30 0
 172 002e 0820     		movs	r0, #8
 173 0030 FFF7FEFF 		bl	readRegisterDIGIO8Card
 174              	.LVL21:
 175 0034 08BD     		pop	{r3, pc}
 176              		.cfi_endproc
 177              	.LFE63:
 178              		.size	initDIGIO8Card, .-initDIGIO8Card
 179 0036 00BF     		.section	.text.writeDIGIO8Card,"ax",%progbits
 180              		.align	2
 181              		.global	writeDIGIO8Card
 182              		.thumb
 183              		.thumb_func
 184              		.type	writeDIGIO8Card, %function
 185              	writeDIGIO8Card:
 186              	.LFB66:
  66:DIGIO8Driver.c **** 
  67:DIGIO8Driver.c **** //////////////////////////////////////////////////////////////////////////////
  68:DIGIO8Driver.c **** // writeDIGIO8Card(uint8_t outData) - 
  69:DIGIO8Driver.c **** //////////////////////////////////////////////////////////////////////////////
  70:DIGIO8Driver.c **** 
  71:DIGIO8Driver.c **** void writeDIGIO8Card(uint8 outData)
  72:DIGIO8Driver.c **** {
 187              		.loc 1 72 0
 188              		.cfi_startproc
 189              		@ args = 0, pretend = 0, frame = 0
 190              		@ frame_needed = 0, uses_anonymous_args = 0
 191              	.LVL22:
 192 0000 08B5     		push	{r3, lr}
 193              		.cfi_def_cfa_offset 8
 194              		.cfi_offset 3, -8
 195              		.cfi_offset 14, -4
 196 0002 0146     		mov	r1, r0
  73:DIGIO8Driver.c ****      writeRegisterDIGIO8Card(MCP23008_OLAT_REGADR,outData);
 197              		.loc 1 73 0
 198 0004 0A20     		movs	r0, #10
 199              	.LVL23:
 200 0006 FFF7FEFF 		bl	writeRegisterDIGIO8Card
 201              	.LVL24:
 202 000a 08BD     		pop	{r3, pc}
 203              		.cfi_endproc
 204              	.LFE66:
ARM GAS  C:\Users\DGILLI~1\AppData\Local\Temp\ccSxycYi.s 			page 6


 205              		.size	writeDIGIO8Card, .-writeDIGIO8Card
 206              		.section	.text.readDIGIO8Card,"ax",%progbits
 207              		.align	2
 208              		.global	readDIGIO8Card
 209              		.thumb
 210              		.thumb_func
 211              		.type	readDIGIO8Card, %function
 212              	readDIGIO8Card:
 213              	.LFB67:
  74:DIGIO8Driver.c **** }
  75:DIGIO8Driver.c **** 
  76:DIGIO8Driver.c **** //////////////////////////////////////////////////////////////////////////////
  77:DIGIO8Driver.c **** // readDIGIO8Card(void)
  78:DIGIO8Driver.c **** //////////////////////////////////////////////////////////////////////////////
  79:DIGIO8Driver.c **** 
  80:DIGIO8Driver.c **** uint8 readDIGIO8Card(void)
  81:DIGIO8Driver.c **** {
 214              		.loc 1 81 0
 215              		.cfi_startproc
 216              		@ args = 0, pretend = 0, frame = 0
 217              		@ frame_needed = 0, uses_anonymous_args = 0
 218 0000 08B5     		push	{r3, lr}
 219              		.cfi_def_cfa_offset 8
 220              		.cfi_offset 3, -8
 221              		.cfi_offset 14, -4
  82:DIGIO8Driver.c ****     uint8 rdBuff;
  83:DIGIO8Driver.c ****     rdBuff = readRegisterDIGIO8Card(MCP23008_GPIO_REGADR);
 222              		.loc 1 83 0
 223 0002 0920     		movs	r0, #9
 224 0004 FFF7FEFF 		bl	readRegisterDIGIO8Card
 225              	.LVL25:
  84:DIGIO8Driver.c ****     return rdBuff>>4;
  85:DIGIO8Driver.c **** }
 226              		.loc 1 85 0
 227 0008 C0F30710 		ubfx	r0, r0, #4, #8
 228              	.LVL26:
 229 000c 08BD     		pop	{r3, pc}
 230              		.cfi_endproc
 231              	.LFE67:
 232              		.size	readDIGIO8Card, .-readDIGIO8Card
 233              		.comm	myWrBuffer,2,4
 234 000e 00BF     		.text
 235              	.Letext0:
 236              		.file 2 "c:\\program files (x86)\\cypress\\psoc creator\\4.0\\psoc creator\\import\\gnu\\arm\\4.9.
 237              		.file 3 "c:\\program files (x86)\\cypress\\psoc creator\\4.0\\psoc creator\\import\\gnu\\arm\\4.9.
 238              		.file 4 "Generated_Source\\PSoC5/cytypes.h"
 239              		.file 5 "Generated_Source\\PSoC5/core_cm3.h"
 240              		.file 6 "Generated_Source\\PSoC5/I2C.h"