ARM GAS  C:\Users\DGILLI~1\AppData\Local\Temp\ccx4LV8K.s 			page 1


   1              		.syntax unified
   2              		.cpu cortex-m3
   3              		.fpu softvfp
   4              		.eabi_attribute 20, 1
   5              		.eabi_attribute 21, 1
   6              		.eabi_attribute 23, 3
   7              		.eabi_attribute 24, 1
   8              		.eabi_attribute 25, 1
   9              		.eabi_attribute 26, 1
  10              		.eabi_attribute 30, 1
  11              		.eabi_attribute 34, 1
  12              		.eabi_attribute 18, 4
  13              		.thumb
  14              		.file	"main.c"
  15              		.text
  16              	.Ltext0:
  17              		.cfi_sections	.debug_frame
  18              		.section	.text.toggleOnBoardLED,"ax",%progbits
  19              		.align	2
  20              		.global	toggleOnBoardLED
  21              		.thumb
  22              		.thumb_func
  23              		.type	toggleOnBoardLED, %function
  24              	toggleOnBoardLED:
  25              	.LFB63:
  26              		.file 1 "main.c"
   1:main.c        **** /* ========================================
   2:main.c        ****  *
   3:main.c        ****  * Copyright Land Boards, LLC, 2016
   4:main.c        ****  * All Rights Reserved
   5:main.c        ****  * UNPUBLISHED, LICENSED SOFTWARE.
   6:main.c        ****  *
   7:main.c        ****  * CONFIDENTIAL AND PROPRIETARY INFORMATION
   8:main.c        ****  * WHICH IS THE PROPERTY OF your company.
   9:main.c        ****  *
  10:main.c        ****  * ========================================
  11:main.c        **** */
  12:main.c        **** 
  13:main.c        **** #include <project.h>
  14:main.c        **** #include <strings.h>
  15:main.c        **** #include <stdio.h>
  16:main.c        **** #include "serialIO.h"
  17:main.c        **** #include "DIGIO8Driver.h"
  18:main.c        **** #include "DIGIO32Driver.h"
  19:main.c        **** #include "TestCard.h"
  20:main.c        **** #include "TestMenu.h"
  21:main.c        **** 
  22:main.c        **** uint8 ledVal;
  23:main.c        **** 
  24:main.c        **** void toggleOnBoardLED(void)
  25:main.c        **** {
  27              		.loc 1 25 0
  28              		.cfi_startproc
  29              		@ args = 0, pretend = 0, frame = 0
  30              		@ frame_needed = 0, uses_anonymous_args = 0
  31 0000 08B5     		push	{r3, lr}
  32              		.cfi_def_cfa_offset 8
ARM GAS  C:\Users\DGILLI~1\AppData\Local\Temp\ccx4LV8K.s 			page 2


  33              		.cfi_offset 3, -8
  34              		.cfi_offset 14, -4
  26:main.c        ****     LED_Write(1);
  35              		.loc 1 26 0
  36 0002 0120     		movs	r0, #1
  37 0004 FFF7FEFF 		bl	LED_Write
  38              	.LVL0:
  27:main.c        ****     CyDelay(50);
  39              		.loc 1 27 0
  40 0008 3220     		movs	r0, #50
  41 000a FFF7FEFF 		bl	CyDelay
  42              	.LVL1:
  28:main.c        ****     LED_Write(0);
  43              		.loc 1 28 0
  44 000e 0020     		movs	r0, #0
  45 0010 FFF7FEFF 		bl	LED_Write
  46              	.LVL2:
  29:main.c        ****     CyDelay(50);
  47              		.loc 1 29 0
  48 0014 3220     		movs	r0, #50
  49 0016 FFF7FEFF 		bl	CyDelay
  50              	.LVL3:
  51 001a 08BD     		pop	{r3, pc}
  52              		.cfi_endproc
  53              	.LFE63:
  54              		.size	toggleOnBoardLED, .-toggleOnBoardLED
  55              		.section	.text.main,"ax",%progbits
  56              		.align	2
  57              		.global	main
  58              		.thumb
  59              		.thumb_func
  60              		.type	main, %function
  61              	main:
  62              	.LFB64:
  30:main.c        **** }
  31:main.c        **** 
  32:main.c        **** int main()
  33:main.c        **** {
  63              		.loc 1 33 0
  64              		.cfi_startproc
  65              		@ Volatile: function does not return.
  66              		@ args = 0, pretend = 0, frame = 0
  67              		@ frame_needed = 0, uses_anonymous_args = 0
  68 0000 08B5     		push	{r3, lr}
  69              		.cfi_def_cfa_offset 8
  70              		.cfi_offset 3, -8
  71              		.cfi_offset 14, -4
  34:main.c        ****     CyGlobalIntEnable; /* Enable global interrupts. */
  72              		.loc 1 34 0
  73              	@ 34 "main.c" 1
  74 0002 62B6     		CPSIE   i
  75              	@ 0 "" 2
  35:main.c        ****     initSerial();
  76              		.loc 1 35 0
  77              		.thumb
  78 0004 FFF7FEFF 		bl	initSerial
  79              	.LVL4:
ARM GAS  C:\Users\DGILLI~1\AppData\Local\Temp\ccx4LV8K.s 			page 3


  36:main.c        ****     initDIGIO8Card();
  80              		.loc 1 36 0
  81 0008 FFF7FEFF 		bl	initDIGIO8Card
  82              	.LVL5:
  37:main.c        ****     CyDelay(500);
  83              		.loc 1 37 0
  84 000c 4FF4FA70 		mov	r0, #500
  85 0010 FFF7FEFF 		bl	CyDelay
  86              	.LVL6:
  87              	.L4:
  38:main.c        ****     for(;;)
  39:main.c        ****     {
  40:main.c        ****         testMenu();
  88              		.loc 1 40 0 discriminator 1
  89 0014 FFF7FEFF 		bl	testMenu
  90              	.LVL7:
  41:main.c        ****     }
  91              		.loc 1 41 0 discriminator 1
  92 0018 FCE7     		b	.L4
  93              		.cfi_endproc
  94              	.LFE64:
  95              		.size	main, .-main
  96              		.comm	ledVal,1,1
  97 001a 00BF     		.text
  98              	.Letext0:
  99              		.file 2 "c:\\program files (x86)\\cypress\\psoc creator\\4.0\\psoc creator\\import\\gnu\\arm\\4.9.
 100              		.file 3 "c:\\program files (x86)\\cypress\\psoc creator\\4.0\\psoc creator\\import\\gnu\\arm\\4.9.
 101              		.file 4 "Generated_Source\\PSoC5/cytypes.h"
 102              		.file 5 "Generated_Source\\PSoC5/core_cm3.h"
 103              		.file 6 "Generated_Source\\PSoC5/LED.h"
 104              		.file 7 "Generated_Source\\PSoC5/CyLib.h"
 105              		.file 8 "serialIO.h"
 106              		.file 9 "DIGIO8Driver.h"
 107              		.file 10 "TestMenu.h"