ARM GAS  C:\Users\DGILLI~1\AppData\Local\Temp\ccfFhN3o.s 			page 1


   1              		.syntax unified
   2              		.cpu cortex-m3
   3              		.fpu softvfp
   4              		.eabi_attribute 20, 1
   5              		.eabi_attribute 21, 1
   6              		.eabi_attribute 23, 3
   7              		.eabi_attribute 24, 1
   8              		.eabi_attribute 25, 1
   9              		.eabi_attribute 26, 1
  10              		.eabi_attribute 30, 1
  11              		.eabi_attribute 34, 1
  12              		.eabi_attribute 18, 4
  13              		.thumb
  14              		.file	"testMenu.c"
  15              		.text
  16              	.Ltext0:
  17              		.cfi_sections	.debug_frame
  18              		.section	.text.testMenu,"ax",%progbits
  19              		.align	2
  20              		.global	testMenu
  21              		.thumb
  22              		.thumb_func
  23              		.type	testMenu, %function
  24              	testMenu:
  25              	.LFB63:
  26              		.file 1 "testMenu.c"
   1:testMenu.c    **** /* ========================================
   2:testMenu.c    ****  *
   3:testMenu.c    ****  * Copyright YOUR COMPANY, THE YEAR
   4:testMenu.c    ****  * All Rights Reserved
   5:testMenu.c    ****  * UNPUBLISHED, LICENSED SOFTWARE.
   6:testMenu.c    ****  *
   7:testMenu.c    ****  * CONFIDENTIAL AND PROPRIETARY INFORMATION
   8:testMenu.c    ****  * WHICH IS THE PROPERTY OF your company.
   9:testMenu.c    ****  *
  10:testMenu.c    ****  * ========================================
  11:testMenu.c    **** */
  12:testMenu.c    **** 
  13:testMenu.c    **** #include <project.h>
  14:testMenu.c    **** #include "DIGIO32Driver.h"
  15:testMenu.c    **** #include "TestMenu.h"
  16:testMenu.c    **** #include "TestCard.h"
  17:testMenu.c    **** #include "SerialIO.h"
  18:testMenu.c    **** #include "stringConvs.h"
  19:testMenu.c    **** 
  20:testMenu.c    **** char myStringInMemory[0x100];
  21:testMenu.c    **** 
  22:testMenu.c    **** ////////////////////////////////////////////////////////////////
  23:testMenu.c    **** // void testMenu(void)
  24:testMenu.c    **** ////////////////////////////////////////////////////////////////
  25:testMenu.c    **** 
  26:testMenu.c    **** void testMenu(void)
  27:testMenu.c    **** {
  27              		.loc 1 27 0
  28              		.cfi_startproc
  29              		@ args = 0, pretend = 0, frame = 0
  30              		@ frame_needed = 0, uses_anonymous_args = 0
ARM GAS  C:\Users\DGILLI~1\AppData\Local\Temp\ccfFhN3o.s 			page 2


  31 0000 10B5     		push	{r4, lr}
  32              		.cfi_def_cfa_offset 8
  33              		.cfi_offset 4, -8
  34              		.cfi_offset 14, -4
  28:testMenu.c    ****     char8 rxBufferPtr[80];
  29:testMenu.c    ****     writeLine("*** PSOC Test Station v0.1 (? for a list of commands) ***");
  35              		.loc 1 29 0
  36 0002 2848     		ldr	r0, .L11
  37 0004 FFF7FEFF 		bl	writeLine
  38              	.LVL0:
  30:testMenu.c    ****     outSingleChar('>');
  39              		.loc 1 30 0
  40 0008 3E20     		movs	r0, #62
  41 000a FFF7FEFF 		bl	outSingleChar
  42              	.LVL1:
  31:testMenu.c    ****     outSingleChar(' ');
  43              		.loc 1 31 0
  44 000e 2020     		movs	r0, #32
  45 0010 FFF7FEFF 		bl	outSingleChar
  46              	.LVL2:
  32:testMenu.c    ****     rxBufferPtr[0] = getSingleChar();
  47              		.loc 1 32 0
  48 0014 FFF7FEFF 		bl	getSingleChar
  49              	.LVL3:
  50 0018 0446     		mov	r4, r0
  33:testMenu.c    ****     outSingleChar(rxBufferPtr[0]);
  51              		.loc 1 33 0
  52 001a FFF7FEFF 		bl	outSingleChar
  53              	.LVL4:
  34:testMenu.c    ****     switch (rxBufferPtr[0])
  54              		.loc 1 34 0
  55 001e 522C     		cmp	r4, #82
  56 0020 26D0     		beq	.L3
  57 0022 0AD8     		bhi	.L4
  58 0024 0D2C     		cmp	r4, #13
  59 0026 3CD0     		beq	.L1
  60 0028 02D8     		bhi	.L6
  61 002a 0A2C     		cmp	r4, #10
  62 002c 39D0     		beq	.L1
  63 002e 35E0     		b	.L2
  64              	.L6:
  65 0030 3F2C     		cmp	r4, #63
  66 0032 0DD0     		beq	.L7
  67 0034 482C     		cmp	r4, #72
  68 0036 0BD0     		beq	.L7
  69 0038 30E0     		b	.L2
  70              	.L4:
  71 003a 682C     		cmp	r4, #104
  72 003c 08D0     		beq	.L7
  73 003e 02D8     		bhi	.L8
  74 0040 582C     		cmp	r4, #88
  75 0042 22D0     		beq	.L9
  76 0044 2AE0     		b	.L2
  77              	.L8:
  78 0046 722C     		cmp	r4, #114
  79 0048 12D0     		beq	.L3
  80 004a 782C     		cmp	r4, #120
ARM GAS  C:\Users\DGILLI~1\AppData\Local\Temp\ccfFhN3o.s 			page 3


  81 004c 1DD0     		beq	.L9
  82 004e 25E0     		b	.L2
  83              	.L7:
  35:testMenu.c    ****     {
  36:testMenu.c    ****       case '?':
  37:testMenu.c    ****       case 'H':
  38:testMenu.c    ****       case 'h':
  39:testMenu.c    ****         writeLine(" - Help");
  84              		.loc 1 39 0
  85 0050 1548     		ldr	r0, .L11+4
  86 0052 FFF7FEFF 		bl	writeLine
  87              	.LVL5:
  40:testMenu.c    ****         writeLine("PSOC Test Station Commands");
  88              		.loc 1 40 0
  89 0056 1548     		ldr	r0, .L11+8
  90 0058 FFF7FEFF 		bl	writeLine
  91              	.LVL6:
  41:testMenu.c    ****         writeLine("? = Display this help screen");
  92              		.loc 1 41 0
  93 005c 1448     		ldr	r0, .L11+12
  94 005e FFF7FEFF 		bl	writeLine
  95              	.LVL7:
  42:testMenu.c    ****         writeLine("R = Run Test");
  96              		.loc 1 42 0
  97 0062 1448     		ldr	r0, .L11+16
  98 0064 FFF7FEFF 		bl	writeLine
  99              	.LVL8:
  43:testMenu.c    ****         writeLine("X = Reset Test Station");
 100              		.loc 1 43 0
 101 0068 1348     		ldr	r0, .L11+20
 102 006a FFF7FEFF 		bl	writeLine
 103              	.LVL9:
  44:testMenu.c    ****         break;
 104              		.loc 1 44 0
 105 006e 10BD     		pop	{r4, pc}
 106              	.L3:
  45:testMenu.c    ****       case 'R':
  46:testMenu.c    ****       case 'r':
  47:testMenu.c    ****         writeLine(" - Running Tests");
 107              		.loc 1 47 0
 108 0070 1248     		ldr	r0, .L11+24
 109 0072 FFF7FEFF 		bl	writeLine
 110              	.LVL10:
  48:testMenu.c    ****         testCard();
 111              		.loc 1 48 0
 112 0076 FFF7FEFF 		bl	testCard
 113              	.LVL11:
  49:testMenu.c    ****         CyDelay(2000);
 114              		.loc 1 49 0
 115 007a 4FF4FA60 		mov	r0, #2000
 116 007e FFF7FEFF 		bl	CyDelay
 117              	.LVL12:
  50:testMenu.c    ****         writeLine("Completed Tests");
 118              		.loc 1 50 0
 119 0082 0F48     		ldr	r0, .L11+28
 120 0084 FFF7FEFF 		bl	writeLine
 121              	.LVL13:
ARM GAS  C:\Users\DGILLI~1\AppData\Local\Temp\ccfFhN3o.s 			page 4


  51:testMenu.c    ****         break;
 122              		.loc 1 51 0
 123 0088 10BD     		pop	{r4, pc}
 124              	.L9:
  52:testMenu.c    ****       case 'X':
  53:testMenu.c    ****       case 'x':
  54:testMenu.c    ****         writeLine(" - Resetting Test Station");
 125              		.loc 1 54 0
 126 008a 0E48     		ldr	r0, .L11+32
 127 008c FFF7FEFF 		bl	writeLine
 128              	.LVL14:
  55:testMenu.c    ****         initDIGIO32Cards();
 129              		.loc 1 55 0
 130 0090 FFF7FEFF 		bl	initDIGIO32Cards
 131              	.LVL15:
  56:testMenu.c    ****         writeLine("Restored Test Station to Defaults");
 132              		.loc 1 56 0
 133 0094 0C48     		ldr	r0, .L11+36
 134 0096 FFF7FEFF 		bl	writeLine
 135              	.LVL16:
  57:testMenu.c    ****         break;
 136              		.loc 1 57 0
 137 009a 10BD     		pop	{r4, pc}
 138              	.L2:
  58:testMenu.c    ****       case 0x0a:    // LF
  59:testMenu.c    ****         break;
  60:testMenu.c    ****       case 0x0d:    // CR
  61:testMenu.c    ****         break;
  62:testMenu.c    ****       default:
  63:testMenu.c    ****         writeLine("Unrecognized command, ? to list commands");
 139              		.loc 1 63 0
 140 009c 0B48     		ldr	r0, .L11+40
 141 009e FFF7FEFF 		bl	writeLine
 142              	.LVL17:
 143              	.L1:
 144 00a2 10BD     		pop	{r4, pc}
 145              	.L12:
 146              		.align	2
 147              	.L11:
 148 00a4 00000000 		.word	.LC0
 149 00a8 3C000000 		.word	.LC1
 150 00ac 44000000 		.word	.LC2
 151 00b0 60000000 		.word	.LC3
 152 00b4 80000000 		.word	.LC4
 153 00b8 90000000 		.word	.LC5
 154 00bc A8000000 		.word	.LC6
 155 00c0 BC000000 		.word	.LC7
 156 00c4 CC000000 		.word	.LC8
 157 00c8 E8000000 		.word	.LC9
 158 00cc 0C010000 		.word	.LC10
 159              		.cfi_endproc
 160              	.LFE63:
 161              		.size	testMenu, .-testMenu
 162              		.section	.text.countParms,"ax",%progbits
 163              		.align	2
 164              		.global	countParms
 165              		.thumb
ARM GAS  C:\Users\DGILLI~1\AppData\Local\Temp\ccfFhN3o.s 			page 5


 166              		.thumb_func
 167              		.type	countParms, %function
 168              	countParms:
 169              	.LFB64:
  64:testMenu.c    ****         break;
  65:testMenu.c    ****     }
  66:testMenu.c    **** }
  67:testMenu.c    **** 
  68:testMenu.c    **** ////////////////////////////////////////////////////////////////
  69:testMenu.c    **** // countParms()
  70:testMenu.c    **** // Syntax of a line is
  71:testMenu.c    **** // X[aaaa][,dddd]]
  72:testMenu.c    **** // X = command
  73:testMenu.c    **** // aaaa is a hex value
  74:testMenu.c    **** // Returns the count of parameters on a line
  75:testMenu.c    **** ////////////////////////////////////////////////////////////////
  76:testMenu.c    **** 
  77:testMenu.c    **** uint8 countParms(char * stringToParse)
  78:testMenu.c    **** {
 170              		.loc 1 78 0
 171              		.cfi_startproc
 172              		@ args = 0, pretend = 0, frame = 0
 173              		@ frame_needed = 0, uses_anonymous_args = 0
 174              	.LVL18:
 175 0000 08B5     		push	{r3, lr}
 176              		.cfi_def_cfa_offset 8
 177              		.cfi_offset 3, -8
 178              		.cfi_offset 14, -4
  79:testMenu.c    ****     if (findInString(stringToParse,',') == -1)
 179              		.loc 1 79 0
 180 0002 2C21     		movs	r1, #44
 181 0004 FFF7FEFF 		bl	findInString
 182              	.LVL19:
 183 0008 B0F1FF3F 		cmp	r0, #-1
 184 000c 01D1     		bne	.L15
  80:testMenu.c    ****         return(1);
 185              		.loc 1 80 0
 186 000e 0120     		movs	r0, #1
 187 0010 08BD     		pop	{r3, pc}
 188              	.L15:
  81:testMenu.c    ****     else
  82:testMenu.c    ****         return(2);
 189              		.loc 1 82 0
 190 0012 0220     		movs	r0, #2
  83:testMenu.c    **** }
 191              		.loc 1 83 0
 192 0014 08BD     		pop	{r3, pc}
 193              		.cfi_endproc
 194              	.LFE64:
 195              		.size	countParms, .-countParms
 196 0016 00BF     		.section	.text.extractParm,"ax",%progbits
 197              		.align	2
 198              		.global	extractParm
 199              		.thumb
 200              		.thumb_func
 201              		.type	extractParm, %function
 202              	extractParm:
ARM GAS  C:\Users\DGILLI~1\AppData\Local\Temp\ccfFhN3o.s 			page 6


 203              	.LFB65:
  84:testMenu.c    **** 
  85:testMenu.c    **** ////////////////////////////////////////////////////////////////
  86:testMenu.c    **** // uint32 extractParm(char * stringToParse, uint8 parmNumber)
  87:testMenu.c    **** ////////////////////////////////////////////////////////////////
  88:testMenu.c    **** 
  89:testMenu.c    **** uint32 extractParm(char * stringToParse, uint8 parmNumber)
  90:testMenu.c    **** {
 204              		.loc 1 90 0
 205              		.cfi_startproc
 206              		@ args = 0, pretend = 0, frame = 8
 207              		@ frame_needed = 0, uses_anonymous_args = 0
 208              	.LVL20:
 209 0000 10B5     		push	{r4, lr}
 210              		.cfi_def_cfa_offset 8
 211              		.cfi_offset 4, -8
 212              		.cfi_offset 14, -4
 213 0002 82B0     		sub	sp, sp, #8
 214              		.cfi_def_cfa_offset 16
 215 0004 0446     		mov	r4, r0
  91:testMenu.c    ****     //writeLine("extractParm: got here");
  92:testMenu.c    ****     char numberString[5];
  93:testMenu.c    ****     //writeLine("extractParm: copy string");
  94:testMenu.c    ****     //writeLine(stringToParse);
  95:testMenu.c    ****     if (parmNumber == 0)
 216              		.loc 1 95 0
 217 0006 B1B9     		cbnz	r1, .L18
 218              	.LBB2:
  96:testMenu.c    ****     {
  97:testMenu.c    ****         strcpy(numberString,stringToParse);
 219              		.loc 1 97 0
 220 0008 6846     		mov	r0, sp
 221              	.LVL21:
 222 000a 2146     		mov	r1, r4
 223              	.LVL22:
 224 000c FFF7FEFF 		bl	strcpy
 225              	.LVL23:
  98:testMenu.c    ****         uint8 lineoff=0;
 226              		.loc 1 98 0
 227 0010 0023     		movs	r3, #0
  99:testMenu.c    ****         while ((numberString[lineoff] != ',') && (numberString[lineoff] != 0))
 228              		.loc 1 99 0
 229 0012 01E0     		b	.L19
 230              	.LVL24:
 231              	.L21:
 100:testMenu.c    ****             lineoff++;
 232              		.loc 1 100 0
 233 0014 0133     		adds	r3, r3, #1
 234              	.LVL25:
 235 0016 DBB2     		uxtb	r3, r3
 236              	.LVL26:
 237              	.L19:
  99:testMenu.c    ****         while ((numberString[lineoff] != ',') && (numberString[lineoff] != 0))
 238              		.loc 1 99 0
 239 0018 1946     		mov	r1, r3
 240 001a 02AA     		add	r2, sp, #8
 241 001c 1A44     		add	r2, r2, r3
ARM GAS  C:\Users\DGILLI~1\AppData\Local\Temp\ccfFhN3o.s 			page 7


 242 001e 12F8082C 		ldrb	r2, [r2, #-8]	@ zero_extendqisi2
 243 0022 2C2A     		cmp	r2, #44
 244 0024 01D0     		beq	.L20
  99:testMenu.c    ****         while ((numberString[lineoff] != ',') && (numberString[lineoff] != 0))
 245              		.loc 1 99 0 is_stmt 0 discriminator 1
 246 0026 002A     		cmp	r2, #0
 247 0028 F4D1     		bne	.L21
 248              	.L20:
 101:testMenu.c    ****         numberString[lineoff] = 0;
 249              		.loc 1 101 0 is_stmt 1
 250 002a 02AB     		add	r3, sp, #8
 251              	.LVL27:
 252 002c 1944     		add	r1, r1, r3
 253 002e 0023     		movs	r3, #0
 254 0030 01F8083C 		strb	r3, [r1, #-8]
 255              	.LBE2:
 256 0034 0BE0     		b	.L22
 257              	.LVL28:
 258              	.L18:
 102:testMenu.c    ****     }
 103:testMenu.c    ****     else if (parmNumber == 1)
 259              		.loc 1 103 0
 260 0036 0129     		cmp	r1, #1
 261 0038 09D1     		bne	.L22
 262              	.LBB3:
 104:testMenu.c    ****     {
 105:testMenu.c    ****         uint8 parmOffset;
 106:testMenu.c    ****         parmOffset = findInString(stringToParse,',');
 263              		.loc 1 106 0
 264 003a 2C21     		movs	r1, #44
 265              	.LVL29:
 266 003c FFF7FEFF 		bl	findInString
 267              	.LVL30:
 107:testMenu.c    ****         parmOffset += 1;
 268              		.loc 1 107 0
 269 0040 0130     		adds	r0, r0, #1
 270              	.LVL31:
 271 0042 00F0FF01 		and	r1, r0, #255
 272              	.LVL32:
 108:testMenu.c    ****         strcpy(numberString,&stringToParse[parmOffset]);
 273              		.loc 1 108 0
 274 0046 6846     		mov	r0, sp
 275 0048 2144     		add	r1, r1, r4
 276              	.LVL33:
 277 004a FFF7FEFF 		bl	strcpy
 278              	.LVL34:
 279              	.L22:
 280              	.LBE3:
 109:testMenu.c    ****     }
 110:testMenu.c    ****     //writeLineNoLF("extractParm: done returning value:");
 111:testMenu.c    ****     //writeLine(numberString);
 112:testMenu.c    ****     return(stringToLong(numberString));
 281              		.loc 1 112 0
 282 004e 6846     		mov	r0, sp
 283 0050 FFF7FEFF 		bl	stringToLong
 284              	.LVL35:
 113:testMenu.c    **** }
ARM GAS  C:\Users\DGILLI~1\AppData\Local\Temp\ccfFhN3o.s 			page 8


 285              		.loc 1 113 0
 286 0054 02B0     		add	sp, sp, #8
 287              		.cfi_def_cfa_offset 8
 288              		@ sp needed
 289 0056 10BD     		pop	{r4, pc}
 290              		.cfi_endproc
 291              	.LFE65:
 292              		.size	extractParm, .-extractParm
 293              		.section	.text.checkParmCount,"ax",%progbits
 294              		.align	2
 295              		.global	checkParmCount
 296              		.thumb
 297              		.thumb_func
 298              		.type	checkParmCount, %function
 299              	checkParmCount:
 300              	.LFB66:
 114:testMenu.c    **** 
 115:testMenu.c    **** ////////////////////////////////////////////////////////////////
 116:testMenu.c    **** // int8 checkParmCount(char * rxBuff, uint8 expectedParmCount)
 117:testMenu.c    **** ////////////////////////////////////////////////////////////////
 118:testMenu.c    **** 
 119:testMenu.c    **** int8 checkParmCount(char * rxBuff, uint8 expectedParmCount)
 120:testMenu.c    **** {
 301              		.loc 1 120 0
 302              		.cfi_startproc
 303              		@ args = 0, pretend = 0, frame = 0
 304              		@ frame_needed = 0, uses_anonymous_args = 0
 305              	.LVL36:
 306 0000 38B5     		push	{r3, r4, r5, lr}
 307              		.cfi_def_cfa_offset 16
 308              		.cfi_offset 3, -16
 309              		.cfi_offset 4, -12
 310              		.cfi_offset 5, -8
 311              		.cfi_offset 14, -4
 312 0002 0546     		mov	r5, r0
 313 0004 0C46     		mov	r4, r1
 121:testMenu.c    ****     //writeLine("checkParmCount: got here");
 122:testMenu.c    ****     if (countParms(rxBuff) != expectedParmCount)
 314              		.loc 1 122 0
 315 0006 FFF7FEFF 		bl	countParms
 316              	.LVL37:
 317 000a A042     		cmp	r0, r4
 318 000c 07D0     		beq	.L26
 123:testMenu.c    ****     {
 124:testMenu.c    ****         writeLineNoLF("checkParmCount: Parameter error: ");
 319              		.loc 1 124 0
 320 000e 0548     		ldr	r0, .L28
 321 0010 FFF7FEFF 		bl	writeLineNoLF
 322              	.LVL38:
 125:testMenu.c    ****         writeLine(rxBuff);
 323              		.loc 1 125 0
 324 0014 2846     		mov	r0, r5
 325 0016 FFF7FEFF 		bl	writeLine
 326              	.LVL39:
 126:testMenu.c    ****         return -1;
 327              		.loc 1 126 0
 328 001a FF20     		movs	r0, #255
ARM GAS  C:\Users\DGILLI~1\AppData\Local\Temp\ccfFhN3o.s 			page 9


 329 001c 00E0     		b	.L25
 330              	.L26:
 127:testMenu.c    ****     }
 128:testMenu.c    ****     return 0;
 331              		.loc 1 128 0
 332 001e 0020     		movs	r0, #0
 333              	.L25:
 129:testMenu.c    **** }
 334              		.loc 1 129 0
 335 0020 40B2     		sxtb	r0, r0
 336 0022 38BD     		pop	{r3, r4, r5, pc}
 337              	.LVL40:
 338              	.L29:
 339              		.align	2
 340              	.L28:
 341 0024 38010000 		.word	.LC11
 342              		.cfi_endproc
 343              	.LFE66:
 344              		.size	checkParmCount, .-checkParmCount
 345              		.comm	myStringInMemory,256,4
 346              		.section	.rodata.str1.4,"aMS",%progbits,1
 347              		.align	2
 348              	.LC0:
 349 0000 2A2A2A20 		.ascii	"*** PSOC Test Station v0.1 (? for a list of command"
 349      50534F43 
 349      20546573 
 349      74205374 
 349      6174696F 
 350 0033 7329202A 		.ascii	"s) ***\000"
 350      2A2A00
 351 003a 0000     		.space	2
 352              	.LC1:
 353 003c 202D2048 		.ascii	" - Help\000"
 353      656C7000 
 354              	.LC2:
 355 0044 50534F43 		.ascii	"PSOC Test Station Commands\000"
 355      20546573 
 355      74205374 
 355      6174696F 
 355      6E20436F 
 356 005f 00       		.space	1
 357              	.LC3:
 358 0060 3F203D20 		.ascii	"? = Display this help screen\000"
 358      44697370 
 358      6C617920 
 358      74686973 
 358      2068656C 
 359 007d 000000   		.space	3
 360              	.LC4:
 361 0080 52203D20 		.ascii	"R = Run Test\000"
 361      52756E20 
 361      54657374 
 361      00
 362 008d 000000   		.space	3
 363              	.LC5:
 364 0090 58203D20 		.ascii	"X = Reset Test Station\000"
 364      52657365 
ARM GAS  C:\Users\DGILLI~1\AppData\Local\Temp\ccfFhN3o.s 			page 10


 364      74205465 
 364      73742053 
 364      74617469 
 365 00a7 00       		.space	1
 366              	.LC6:
 367 00a8 202D2052 		.ascii	" - Running Tests\000"
 367      756E6E69 
 367      6E672054 
 367      65737473 
 367      00
 368 00b9 000000   		.space	3
 369              	.LC7:
 370 00bc 436F6D70 		.ascii	"Completed Tests\000"
 370      6C657465 
 370      64205465 
 370      73747300 
 371              	.LC8:
 372 00cc 202D2052 		.ascii	" - Resetting Test Station\000"
 372      65736574 
 372      74696E67 
 372      20546573 
 372      74205374 
 373 00e6 0000     		.space	2
 374              	.LC9:
 375 00e8 52657374 		.ascii	"Restored Test Station to Defaults\000"
 375      6F726564 
 375      20546573 
 375      74205374 
 375      6174696F 
 376 010a 0000     		.space	2
 377              	.LC10:
 378 010c 556E7265 		.ascii	"Unrecognized command, ? to list commands\000"
 378      636F676E 
 378      697A6564 
 378      20636F6D 
 378      6D616E64 
 379 0135 000000   		.space	3
 380              	.LC11:
 381 0138 63686563 		.ascii	"checkParmCount: Parameter error: \000"
 381      6B506172 
 381      6D436F75 
 381      6E743A20 
 381      50617261 
 382 015a 0000     		.text
 383              	.Letext0:
 384              		.file 2 "c:\\program files (x86)\\cypress\\psoc creator\\4.0\\psoc creator\\import\\gnu\\arm\\4.9.
 385              		.file 3 "c:\\program files (x86)\\cypress\\psoc creator\\4.0\\psoc creator\\import\\gnu\\arm\\4.9.
 386              		.file 4 "Generated_Source\\PSoC5/cytypes.h"
 387              		.file 5 "Generated_Source\\PSoC5/core_cm3.h"
 388              		.file 6 "SerialIO.h"
 389              		.file 7 "Generated_Source\\PSoC5/CyLib.h"
 390              		.file 8 "TestCard.h"
 391              		.file 9 "DIGIO32Driver.h"
 392              		.file 10 "stringConvs.h"
 393              		.file 11 "c:\\program files (x86)\\cypress\\psoc creator\\4.0\\psoc creator\\import\\gnu\\arm\\4.9