ARM GAS  C:\Users\DGILLI~1\AppData\Local\Temp\cc4meZzR.s 			page 1


   1              		.syntax unified
   2              		.cpu cortex-m3
   3              		.fpu softvfp
   4              		.eabi_attribute 20, 1
   5              		.eabi_attribute 21, 1
   6              		.eabi_attribute 23, 3
   7              		.eabi_attribute 24, 1
   8              		.eabi_attribute 25, 1
   9              		.eabi_attribute 26, 1
  10              		.eabi_attribute 30, 6
  11              		.eabi_attribute 34, 1
  12              		.eabi_attribute 18, 4
  13              		.thumb
  14              		.file	"main.c"
  15              		.text
  16              	.Ltext0:
  17              		.cfi_sections	.debug_frame
  18              		.section	.rodata
  19              		.align	2
  20              	.LC0:
  21 0000 307800   		.ascii	"0x\000"
  22 0003 00       		.align	2
  23              	.LC1:
  24 0004 49324320 		.ascii	"I2C Error!\000"
  24      4572726F 
  24      722100
  25 000f 00       		.section	.text.main,"ax",%progbits
  26              		.align	2
  27              		.global	main
  28              		.thumb
  29              		.thumb_func
  30              		.type	main, %function
  31              	main:
  32              	.LFB63:
  33              		.file 1 "main.c"
   1:main.c        **** /*******************************************************************************
   2:main.c        **** * File Name: main.c
   3:main.c        **** *
   4:main.c        **** * Version: 1.0
   5:main.c        **** *
   6:main.c        **** * Description:
   7:main.c        **** *  This is the test project for the 8-ch DelSig ADC and I2C Slave Example 
   8:main.c        **** *  project.
   9:main.c        **** *  
  10:main.c        **** * Parameters used:
  11:main.c        **** *  I2C Master
  12:main.c        **** *   Implementation		Fixed function
  13:main.c        **** *   Data rate			100kbps
  14:main.c        **** *   SDA SCL config     	Open drain, drives low
  15:main.c        **** *   Pull-up resistors	2.67k each 
  16:main.c        **** *
  17:main.c        **** ********************************************************************************
  18:main.c        **** * Copyright 2012, Cypress Semiconductor Corporation. All rights reserved.
  19:main.c        **** * This software is owned by Cypress Semiconductor Corporation and is protected
  20:main.c        **** * by and subject to worldwide patent and copyright laws and treaties.
  21:main.c        **** * Therefore, you may use this software only as provided in the license agreement
  22:main.c        **** * accompanying the software package from which you obtained this software.
ARM GAS  C:\Users\DGILLI~1\AppData\Local\Temp\cc4meZzR.s 			page 2


  23:main.c        **** * CYPRESS AND ITS SUPPLIERS MAKE NO WARRANTY OF ANY KIND, EXPRESS OR IMPLIED,
  24:main.c        **** * WITH REGARD TO THIS SOFTWARE, INCLUDING, BUT NOT LIMITED TO, NONINFRINGEMENT,
  25:main.c        **** * IMPLIED WARRANTIES OF MERCHANTABILITY AND FITNESS FOR A PARTICULAR PURPOSE.
  26:main.c        **** *******************************************************************************/
  27:main.c        **** 
  28:main.c        **** #include <project.h>
  29:main.c        **** 
  30:main.c        **** /* Set the write buffer length to be 16 bits or 2 bytes */
  31:main.c        **** #define RD_BUFFER_SIZE		(2u)
  32:main.c        **** /* The I2C Slave address by default in a PSoC device is 8 */
  33:main.c        **** #define I2C_SLAVE_ADDRESS	(8u)
  34:main.c        **** 
  35:main.c        **** /*******************************************************************************
  36:main.c        **** * Function Name: main
  37:main.c        **** ********************************************************************************
  38:main.c        **** *
  39:main.c        **** * Summary:
  40:main.c        **** *  Main function performs following functions:
  41:main.c        **** *   1. Starts used components.
  42:main.c        **** *   2. Reads slave data buffer.
  43:main.c        **** *   3. Displays this data on Character LCD.
  44:main.c        **** *
  45:main.c        **** * Parameters:
  46:main.c        **** *  None.
  47:main.c        **** *
  48:main.c        **** * Return:
  49:main.c        **** *  None.
  50:main.c        **** *
  51:main.c        **** *******************************************************************************/
  52:main.c        **** int main()
  53:main.c        **** {
  34              		.loc 1 53 0
  35              		.cfi_startproc
  36              		@ args = 0, pretend = 0, frame = 8
  37              		@ frame_needed = 1, uses_anonymous_args = 0
  38 0000 80B5     		push	{r7, lr}
  39              		.cfi_def_cfa_offset 8
  40              		.cfi_offset 7, -8
  41              		.cfi_offset 14, -4
  42 0002 82B0     		sub	sp, sp, #8
  43              		.cfi_def_cfa_offset 16
  44 0004 00AF     		add	r7, sp, #0
  45              		.cfi_def_cfa_register 7
  54:main.c        **** 	/* Allocate 2 bytes to store data read from I2C slave */
  55:main.c        **** 	uint8 rdBuf[RD_BUFFER_SIZE];
  56:main.c        **** 	
  57:main.c        **** 	/* Temporary variable */
  58:main.c        **** 	uint8 temp = 0u;
  46              		.loc 1 58 0
  47 0006 0023     		movs	r3, #0
  48 0008 FB71     		strb	r3, [r7, #7]
  59:main.c        **** 
  60:main.c        **** 	/* Start I2C Master and Character LCD */
  61:main.c        **** 	I2CM_Start();
  49              		.loc 1 61 0
  50 000a FFF7FEFF 		bl	I2CM_Start
  62:main.c        **** 	LCD_Char_Start();
ARM GAS  C:\Users\DGILLI~1\AppData\Local\Temp\cc4meZzR.s 			page 3


  51              		.loc 1 62 0
  52 000e FFF7FEFF 		bl	LCD_Char_Start
  63:main.c        **** 
  64:main.c        **** 	/* Enable Global Interrupts - needed for I2C operation */
  65:main.c        **** 	CyGlobalIntEnable;
  53              		.loc 1 65 0
  54              	@ 65 "main.c" 1
  55 0012 62B6     		CPSIE   i
  56              	@ 0 "" 2
  57              		.thumb
  58              	.L2:
  66:main.c        **** 
  67:main.c        **** 	for(;;)
  68:main.c        ****     {
  69:main.c        **** 		/* Attempt to initiate communication with the slave until the function 
  70:main.c        **** 		 * completes without error. 
  71:main.c        **** 		 */
  72:main.c        **** 		do
  73:main.c        **** 		{
  74:main.c        **** 			/* The syntax below automatically reads a buffer of data from a 
  75:main.c        **** 		     * slave device from start to stop. 
  76:main.c        **** 		 	 */
  77:main.c        **** 			temp = I2CM_MasterReadBuf(I2C_SLAVE_ADDRESS, rdBuf, 
  59              		.loc 1 77 0 discriminator 1
  60 0014 3B1D     		adds	r3, r7, #4
  61 0016 0820     		movs	r0, #8
  62 0018 1946     		mov	r1, r3
  63 001a 0222     		movs	r2, #2
  64 001c 0023     		movs	r3, #0
  65 001e FFF7FEFF 		bl	I2CM_MasterReadBuf
  66 0022 0346     		mov	r3, r0
  67 0024 FB71     		strb	r3, [r7, #7]
  78:main.c        **** 										RD_BUFFER_SIZE, I2CM_MODE_COMPLETE_XFER);
  79:main.c        **** 		}
  80:main.c        **** 		while (temp != I2CM_MSTR_NO_ERROR);
  68              		.loc 1 80 0 discriminator 1
  69 0026 FB79     		ldrb	r3, [r7, #7]	@ zero_extendqisi2
  70 0028 002B     		cmp	r3, #0
  71 002a F3D1     		bne	.L2
  81:main.c        **** 		
  82:main.c        **** 		/* Wait for the data transfer to complete */
  83:main.c        **** 		while(I2CM_MasterStatus() & I2CM_MSTAT_XFER_INP);
  72              		.loc 1 83 0
  73 002c 00BF     		nop
  74              	.L3:
  75              		.loc 1 83 0 is_stmt 0 discriminator 1
  76 002e FFF7FEFF 		bl	I2CM_MasterStatus
  77 0032 0346     		mov	r3, r0
  78 0034 03F00403 		and	r3, r3, #4
  79 0038 002B     		cmp	r3, #0
  80 003a F8D1     		bne	.L3
  84:main.c        **** 
  85:main.c        **** 		temp = I2CM_MasterGetReadBufSize();
  81              		.loc 1 85 0 is_stmt 1
  82 003c FFF7FEFF 		bl	I2CM_MasterGetReadBufSize
  83 0040 0346     		mov	r3, r0
  84 0042 FB71     		strb	r3, [r7, #7]
ARM GAS  C:\Users\DGILLI~1\AppData\Local\Temp\cc4meZzR.s 			page 4


  86:main.c        **** 		
  87:main.c        **** 		LCD_Char_ClearDisplay();
  85              		.loc 1 87 0
  86 0044 0120     		movs	r0, #1
  87 0046 FFF7FEFF 		bl	LCD_Char_WriteControl
  88:main.c        **** 
  89:main.c        **** 		if(temp == RD_BUFFER_SIZE)
  88              		.loc 1 89 0
  89 004a FB79     		ldrb	r3, [r7, #7]	@ zero_extendqisi2
  90 004c 022B     		cmp	r3, #2
  91 004e 0BD1     		bne	.L4
  90:main.c        **** 		{
  91:main.c        **** 			LCD_Char_PrintString("0x");
  92              		.loc 1 91 0
  93 0050 0A48     		ldr	r0, .L6
  94 0052 FFF7FEFF 		bl	LCD_Char_PrintString
  92:main.c        **** 			LCD_Char_PrintInt8(rdBuf[0]);
  95              		.loc 1 92 0
  96 0056 3B79     		ldrb	r3, [r7, #4]	@ zero_extendqisi2
  97 0058 1846     		mov	r0, r3
  98 005a FFF7FEFF 		bl	LCD_Char_PrintInt8
  93:main.c        **** 			LCD_Char_PrintInt8(rdBuf[1]);
  99              		.loc 1 93 0
 100 005e 7B79     		ldrb	r3, [r7, #5]	@ zero_extendqisi2
 101 0060 1846     		mov	r0, r3
 102 0062 FFF7FEFF 		bl	LCD_Char_PrintInt8
 103 0066 04E0     		b	.L5
 104              	.L4:
  94:main.c        **** 		}
  95:main.c        **** 		else /* Indicate the Error and place your error handling code here */
  96:main.c        **** 		{
  97:main.c        **** 			LCD_Char_PrintString("I2C Error!");
 105              		.loc 1 97 0
 106 0068 0548     		ldr	r0, .L6+4
 107 006a FFF7FEFF 		bl	LCD_Char_PrintString
  98:main.c        **** 			I2CM_MasterClearStatus();
 108              		.loc 1 98 0
 109 006e FFF7FEFF 		bl	I2CM_MasterClearStatus
 110              	.L5:
  99:main.c        **** 		}
 100:main.c        **** 
 101:main.c        **** 		/* This delay is present to facilitate easy reading of the Character LCD */
 102:main.c        **** 		CyDelay(2000u/*ms*/);	
 111              		.loc 1 102 0
 112 0072 4FF4FA60 		mov	r0, #2000
 113 0076 FFF7FEFF 		bl	CyDelay
 103:main.c        **** 		
 104:main.c        **** 	} /* End forever loop */
 114              		.loc 1 104 0
 115 007a CBE7     		b	.L2
 116              	.L7:
 117              		.align	2
 118              	.L6:
 119 007c 00000000 		.word	.LC0
 120 0080 04000000 		.word	.LC1
 121              		.cfi_endproc
 122              	.LFE63:
ARM GAS  C:\Users\DGILLI~1\AppData\Local\Temp\cc4meZzR.s 			page 5


 123              		.size	main, .-main
 124              		.text
 125              	.Letext0:
 126              		.file 2 "c:\\program files (x86)\\cypress\\psoc creator\\4.0\\psoc creator\\import\\gnu\\arm\\4.9.
 127              		.file 3 "c:\\program files (x86)\\cypress\\psoc creator\\4.0\\psoc creator\\import\\gnu\\arm\\4.9.
 128              		.file 4 "Generated_Source\\PSoC5/cytypes.h"
 129              		.file 5 "Generated_Source\\PSoC5/core_cm3.h"