ARM GAS  C:\Users\DGILLI~1\AppData\Local\Temp\ccXzsOUp.s 			page 1


   1              		.syntax unified
   2              		.cpu cortex-m3
   3              		.fpu softvfp
   4              		.eabi_attribute 20, 1
   5              		.eabi_attribute 21, 1
   6              		.eabi_attribute 23, 3
   7              		.eabi_attribute 24, 1
   8              		.eabi_attribute 25, 1
   9              		.eabi_attribute 26, 1
  10              		.eabi_attribute 30, 1
  11              		.eabi_attribute 34, 1
  12              		.eabi_attribute 18, 4
  13              		.thumb
  14              		.file	"cyfitter_cfg.c"
  15              		.text
  16              	.Ltext0:
  17              		.cfi_sections	.debug_frame
  18              		.section	.text.CyClockStartupError,"ax",%progbits
  19              		.align	2
  20              		.thumb
  21              		.thumb_func
  22              		.type	CyClockStartupError, %function
  23              	CyClockStartupError:
  24              	.LFB3:
  25              		.file 1 "Generated_Source\\PSoC5\\cyfitter_cfg.c"
   1:Generated_Source\PSoC5/cyfitter_cfg.c **** /*******************************************************************************
   2:Generated_Source\PSoC5/cyfitter_cfg.c **** * File Name: cyfitter_cfg.c
   3:Generated_Source\PSoC5/cyfitter_cfg.c **** * 
   4:Generated_Source\PSoC5/cyfitter_cfg.c **** * PSoC Creator  4.0
   5:Generated_Source\PSoC5/cyfitter_cfg.c **** *
   6:Generated_Source\PSoC5/cyfitter_cfg.c **** * Description:
   7:Generated_Source\PSoC5/cyfitter_cfg.c **** * This file contains device initialization code.
   8:Generated_Source\PSoC5/cyfitter_cfg.c **** * Except for the user defined sections in CyClockStartupError(), this file should not be modified.
   9:Generated_Source\PSoC5/cyfitter_cfg.c **** * This file is automatically generated by PSoC Creator.
  10:Generated_Source\PSoC5/cyfitter_cfg.c **** *
  11:Generated_Source\PSoC5/cyfitter_cfg.c **** ********************************************************************************
  12:Generated_Source\PSoC5/cyfitter_cfg.c **** * Copyright (c) 2007-2016 Cypress Semiconductor.  All rights reserved.
  13:Generated_Source\PSoC5/cyfitter_cfg.c **** * You may use this file only in accordance with the license, terms, conditions, 
  14:Generated_Source\PSoC5/cyfitter_cfg.c **** * disclaimers, and limitations in the end user license agreement accompanying 
  15:Generated_Source\PSoC5/cyfitter_cfg.c **** * the software package with which this file was provided.
  16:Generated_Source\PSoC5/cyfitter_cfg.c **** ********************************************************************************/
  17:Generated_Source\PSoC5/cyfitter_cfg.c **** 
  18:Generated_Source\PSoC5/cyfitter_cfg.c **** #include <string.h>
  19:Generated_Source\PSoC5/cyfitter_cfg.c **** #include "cytypes.h"
  20:Generated_Source\PSoC5/cyfitter_cfg.c **** #include "cydevice_trm.h"
  21:Generated_Source\PSoC5/cyfitter_cfg.c **** #include "cyfitter.h"
  22:Generated_Source\PSoC5/cyfitter_cfg.c **** #include "CyLib.h"
  23:Generated_Source\PSoC5/cyfitter_cfg.c **** #include "cyfitter_cfg.h"
  24:Generated_Source\PSoC5/cyfitter_cfg.c **** #include "cyapicallbacks.h"
  25:Generated_Source\PSoC5/cyfitter_cfg.c **** 
  26:Generated_Source\PSoC5/cyfitter_cfg.c **** #define CY_NEED_CYCLOCKSTARTUPERROR 1
  27:Generated_Source\PSoC5/cyfitter_cfg.c **** 
  28:Generated_Source\PSoC5/cyfitter_cfg.c **** 
  29:Generated_Source\PSoC5/cyfitter_cfg.c **** #if defined(__GNUC__) || defined(__ARMCC_VERSION)
  30:Generated_Source\PSoC5/cyfitter_cfg.c ****     #define CYPACKED 
  31:Generated_Source\PSoC5/cyfitter_cfg.c ****     #define CYPACKED_ATTR __attribute__ ((packed))
  32:Generated_Source\PSoC5/cyfitter_cfg.c ****     #define CYALIGNED __attribute__ ((aligned))
ARM GAS  C:\Users\DGILLI~1\AppData\Local\Temp\ccXzsOUp.s 			page 2


  33:Generated_Source\PSoC5/cyfitter_cfg.c ****     #define CY_CFG_UNUSED __attribute__ ((unused))
  34:Generated_Source\PSoC5/cyfitter_cfg.c ****     #ifndef CY_CFG_SECTION
  35:Generated_Source\PSoC5/cyfitter_cfg.c ****         #define CY_CFG_SECTION __attribute__ ((section(".psocinit")))
  36:Generated_Source\PSoC5/cyfitter_cfg.c ****     #endif
  37:Generated_Source\PSoC5/cyfitter_cfg.c ****     
  38:Generated_Source\PSoC5/cyfitter_cfg.c ****     #if defined(__ARMCC_VERSION)
  39:Generated_Source\PSoC5/cyfitter_cfg.c ****         #define CY_CFG_MEMORY_BARRIER() __memory_changed()
  40:Generated_Source\PSoC5/cyfitter_cfg.c ****     #else
  41:Generated_Source\PSoC5/cyfitter_cfg.c ****         #define CY_CFG_MEMORY_BARRIER() __sync_synchronize()
  42:Generated_Source\PSoC5/cyfitter_cfg.c ****     #endif
  43:Generated_Source\PSoC5/cyfitter_cfg.c ****     
  44:Generated_Source\PSoC5/cyfitter_cfg.c **** #elif defined(__ICCARM__)
  45:Generated_Source\PSoC5/cyfitter_cfg.c ****     #include <intrinsics.h>
  46:Generated_Source\PSoC5/cyfitter_cfg.c **** 
  47:Generated_Source\PSoC5/cyfitter_cfg.c ****     #define CYPACKED __packed
  48:Generated_Source\PSoC5/cyfitter_cfg.c ****     #define CYPACKED_ATTR 
  49:Generated_Source\PSoC5/cyfitter_cfg.c ****     #define CYALIGNED _Pragma("data_alignment=4")
  50:Generated_Source\PSoC5/cyfitter_cfg.c ****     #define CY_CFG_UNUSED _Pragma("diag_suppress=Pe177")
  51:Generated_Source\PSoC5/cyfitter_cfg.c ****     #define CY_CFG_SECTION _Pragma("location=\".psocinit\"")
  52:Generated_Source\PSoC5/cyfitter_cfg.c ****     
  53:Generated_Source\PSoC5/cyfitter_cfg.c ****     #define CY_CFG_MEMORY_BARRIER() __DMB()
  54:Generated_Source\PSoC5/cyfitter_cfg.c ****     
  55:Generated_Source\PSoC5/cyfitter_cfg.c **** #else
  56:Generated_Source\PSoC5/cyfitter_cfg.c ****     #error Unsupported toolchain
  57:Generated_Source\PSoC5/cyfitter_cfg.c **** #endif
  58:Generated_Source\PSoC5/cyfitter_cfg.c **** 
  59:Generated_Source\PSoC5/cyfitter_cfg.c **** 
  60:Generated_Source\PSoC5/cyfitter_cfg.c **** CY_CFG_UNUSED
  61:Generated_Source\PSoC5/cyfitter_cfg.c **** static void CYMEMZERO(void *s, size_t n);
  62:Generated_Source\PSoC5/cyfitter_cfg.c **** CY_CFG_UNUSED
  63:Generated_Source\PSoC5/cyfitter_cfg.c **** static void CYMEMZERO(void *s, size_t n)
  64:Generated_Source\PSoC5/cyfitter_cfg.c **** {
  65:Generated_Source\PSoC5/cyfitter_cfg.c **** 	(void)memset(s, 0, n);
  66:Generated_Source\PSoC5/cyfitter_cfg.c **** }
  67:Generated_Source\PSoC5/cyfitter_cfg.c **** CY_CFG_UNUSED
  68:Generated_Source\PSoC5/cyfitter_cfg.c **** static void CYCONFIGCPY(void *dest, const void *src, size_t n);
  69:Generated_Source\PSoC5/cyfitter_cfg.c **** CY_CFG_UNUSED
  70:Generated_Source\PSoC5/cyfitter_cfg.c **** static void CYCONFIGCPY(void *dest, const void *src, size_t n)
  71:Generated_Source\PSoC5/cyfitter_cfg.c **** {
  72:Generated_Source\PSoC5/cyfitter_cfg.c **** 	(void)memcpy(dest, src, n);
  73:Generated_Source\PSoC5/cyfitter_cfg.c **** }
  74:Generated_Source\PSoC5/cyfitter_cfg.c **** CY_CFG_UNUSED
  75:Generated_Source\PSoC5/cyfitter_cfg.c **** static void CYCONFIGCPYCODE(void *dest, const void *src, size_t n);
  76:Generated_Source\PSoC5/cyfitter_cfg.c **** CY_CFG_UNUSED
  77:Generated_Source\PSoC5/cyfitter_cfg.c **** static void CYCONFIGCPYCODE(void *dest, const void *src, size_t n)
  78:Generated_Source\PSoC5/cyfitter_cfg.c **** {
  79:Generated_Source\PSoC5/cyfitter_cfg.c **** 	(void)memcpy(dest, src, n);
  80:Generated_Source\PSoC5/cyfitter_cfg.c **** }
  81:Generated_Source\PSoC5/cyfitter_cfg.c **** 
  82:Generated_Source\PSoC5/cyfitter_cfg.c **** 
  83:Generated_Source\PSoC5/cyfitter_cfg.c **** 
  84:Generated_Source\PSoC5/cyfitter_cfg.c **** 
  85:Generated_Source\PSoC5/cyfitter_cfg.c **** /* Clock startup error codes                                                   */
  86:Generated_Source\PSoC5/cyfitter_cfg.c **** #define CYCLOCKSTART_NO_ERROR    0u
  87:Generated_Source\PSoC5/cyfitter_cfg.c **** #define CYCLOCKSTART_XTAL_ERROR  1u
  88:Generated_Source\PSoC5/cyfitter_cfg.c **** #define CYCLOCKSTART_32KHZ_ERROR 2u
  89:Generated_Source\PSoC5/cyfitter_cfg.c **** #define CYCLOCKSTART_PLL_ERROR   3u
ARM GAS  C:\Users\DGILLI~1\AppData\Local\Temp\ccXzsOUp.s 			page 3


  90:Generated_Source\PSoC5/cyfitter_cfg.c **** 
  91:Generated_Source\PSoC5/cyfitter_cfg.c **** 
  92:Generated_Source\PSoC5/cyfitter_cfg.c **** #ifdef CY_NEED_CYCLOCKSTARTUPERROR
  93:Generated_Source\PSoC5/cyfitter_cfg.c **** /*******************************************************************************
  94:Generated_Source\PSoC5/cyfitter_cfg.c **** * Function Name: CyClockStartupError
  95:Generated_Source\PSoC5/cyfitter_cfg.c **** ********************************************************************************
  96:Generated_Source\PSoC5/cyfitter_cfg.c **** * Summary:
  97:Generated_Source\PSoC5/cyfitter_cfg.c **** *  If an error is encountered during clock configuration (crystal startup error,
  98:Generated_Source\PSoC5/cyfitter_cfg.c **** *  PLL lock error, etc.), the system will end up here.  Unless reimplemented by
  99:Generated_Source\PSoC5/cyfitter_cfg.c **** *  the customer, this function will stop in an infinite loop.
 100:Generated_Source\PSoC5/cyfitter_cfg.c **** *
 101:Generated_Source\PSoC5/cyfitter_cfg.c **** * Parameters:
 102:Generated_Source\PSoC5/cyfitter_cfg.c **** *   void
 103:Generated_Source\PSoC5/cyfitter_cfg.c **** *
 104:Generated_Source\PSoC5/cyfitter_cfg.c **** * Return:
 105:Generated_Source\PSoC5/cyfitter_cfg.c **** *   void
 106:Generated_Source\PSoC5/cyfitter_cfg.c **** *
 107:Generated_Source\PSoC5/cyfitter_cfg.c **** *******************************************************************************/
 108:Generated_Source\PSoC5/cyfitter_cfg.c **** CY_CFG_UNUSED
 109:Generated_Source\PSoC5/cyfitter_cfg.c **** static void CyClockStartupError(uint8 errorCode);
 110:Generated_Source\PSoC5/cyfitter_cfg.c **** CY_CFG_UNUSED
 111:Generated_Source\PSoC5/cyfitter_cfg.c **** static void CyClockStartupError(uint8 errorCode)
 112:Generated_Source\PSoC5/cyfitter_cfg.c **** {
  26              		.loc 1 112 0
  27              		.cfi_startproc
  28              		@ Volatile: function does not return.
  29              		@ args = 0, pretend = 0, frame = 0
  30              		@ frame_needed = 0, uses_anonymous_args = 0
  31              		@ link register save eliminated.
  32              	.LVL0:
  33              	.L2:
 113:Generated_Source\PSoC5/cyfitter_cfg.c ****     /* To remove the compiler warning if errorCode not used.                */
 114:Generated_Source\PSoC5/cyfitter_cfg.c ****     errorCode = errorCode;
 115:Generated_Source\PSoC5/cyfitter_cfg.c **** 
 116:Generated_Source\PSoC5/cyfitter_cfg.c ****     /* If we have a clock startup error (bad MHz crystal, PLL lock, etc.),  */
 117:Generated_Source\PSoC5/cyfitter_cfg.c ****     /* we will end up here to allow the customer to implement something to  */
 118:Generated_Source\PSoC5/cyfitter_cfg.c ****     /* deal with the clock condition.                                       */
 119:Generated_Source\PSoC5/cyfitter_cfg.c **** 
 120:Generated_Source\PSoC5/cyfitter_cfg.c **** #ifdef CY_CFG_CLOCK_STARTUP_ERROR_CALLBACK
 121:Generated_Source\PSoC5/cyfitter_cfg.c **** 	CY_CFG_Clock_Startup_ErrorCallback();
 122:Generated_Source\PSoC5/cyfitter_cfg.c **** #else
 123:Generated_Source\PSoC5/cyfitter_cfg.c **** 	/*  If not using CY_CFG_CLOCK_STARTUP_ERROR_CALLBACK, place your clock startup code here. */
 124:Generated_Source\PSoC5/cyfitter_cfg.c ****     /* `#START CyClockStartupError` */
 125:Generated_Source\PSoC5/cyfitter_cfg.c **** 
 126:Generated_Source\PSoC5/cyfitter_cfg.c **** 
 127:Generated_Source\PSoC5/cyfitter_cfg.c **** 
 128:Generated_Source\PSoC5/cyfitter_cfg.c ****     /* `#END` */
 129:Generated_Source\PSoC5/cyfitter_cfg.c **** 
 130:Generated_Source\PSoC5/cyfitter_cfg.c ****     /* If nothing else, stop here since the clocks have not started         */
 131:Generated_Source\PSoC5/cyfitter_cfg.c ****     /* correctly.                                                           */
 132:Generated_Source\PSoC5/cyfitter_cfg.c ****     while(1) {}
  34              		.loc 1 132 0 discriminator 1
  35 0000 FEE7     		b	.L2
  36              		.cfi_endproc
  37              	.LFE3:
  38              		.size	CyClockStartupError, .-CyClockStartupError
  39 0002 00BF     		.section	.text.cfg_write_bytes32,"ax",%progbits
ARM GAS  C:\Users\DGILLI~1\AppData\Local\Temp\ccXzsOUp.s 			page 4


  40              		.align	2
  41              		.thumb
  42              		.thumb_func
  43              		.type	cfg_write_bytes32, %function
  44              	cfg_write_bytes32:
  45              	.LFB4:
 133:Generated_Source\PSoC5/cyfitter_cfg.c **** #endif /* CY_CFG_CLOCK_STARTUP_ERROR_CALLBACK */ 
 134:Generated_Source\PSoC5/cyfitter_cfg.c **** }
 135:Generated_Source\PSoC5/cyfitter_cfg.c **** #endif
 136:Generated_Source\PSoC5/cyfitter_cfg.c **** 
 137:Generated_Source\PSoC5/cyfitter_cfg.c **** #define CY_CFG_BASE_ADDR_COUNT 32u
 138:Generated_Source\PSoC5/cyfitter_cfg.c **** CYPACKED typedef struct
 139:Generated_Source\PSoC5/cyfitter_cfg.c **** {
 140:Generated_Source\PSoC5/cyfitter_cfg.c **** 	uint8 offset;
 141:Generated_Source\PSoC5/cyfitter_cfg.c **** 	uint8 value;
 142:Generated_Source\PSoC5/cyfitter_cfg.c **** } CYPACKED_ATTR cy_cfg_addrvalue_t;
 143:Generated_Source\PSoC5/cyfitter_cfg.c **** 
 144:Generated_Source\PSoC5/cyfitter_cfg.c **** #define cy_cfg_addr_table ((const uint32 CYFAR *)0x48000000u)
 145:Generated_Source\PSoC5/cyfitter_cfg.c **** #define cy_cfg_data_table ((const cy_cfg_addrvalue_t CYFAR *)0x48000080u)
 146:Generated_Source\PSoC5/cyfitter_cfg.c **** 
 147:Generated_Source\PSoC5/cyfitter_cfg.c **** /* IOPORT_7 Address: CYDEV_PRTDSI_PRT12_BASE Size (bytes): 6 */
 148:Generated_Source\PSoC5/cyfitter_cfg.c **** #define BS_IOPORT_7_VAL ((const uint8 CYFAR *)0x480006C4u)
 149:Generated_Source\PSoC5/cyfitter_cfg.c **** 
 150:Generated_Source\PSoC5/cyfitter_cfg.c **** /* IOPINS0_0 Address: CYREG_PRT0_DM0 Size (bytes): 8 */
 151:Generated_Source\PSoC5/cyfitter_cfg.c **** #define BS_IOPINS0_0_VAL ((const uint8 CYFAR *)0x480006CCu)
 152:Generated_Source\PSoC5/cyfitter_cfg.c **** 
 153:Generated_Source\PSoC5/cyfitter_cfg.c **** /* IOPINS0_7 Address: CYREG_PRT12_DR Size (bytes): 10 */
 154:Generated_Source\PSoC5/cyfitter_cfg.c **** #define BS_IOPINS0_7_VAL ((const uint8 CYFAR *)0x480006D4u)
 155:Generated_Source\PSoC5/cyfitter_cfg.c **** 
 156:Generated_Source\PSoC5/cyfitter_cfg.c **** /* IOPINS0_8 Address: CYREG_PRT15_DM0 Size (bytes): 8 */
 157:Generated_Source\PSoC5/cyfitter_cfg.c **** #define BS_IOPINS0_8_VAL ((const uint8 CYFAR *)0x480006E0u)
 158:Generated_Source\PSoC5/cyfitter_cfg.c **** 
 159:Generated_Source\PSoC5/cyfitter_cfg.c **** /* IOPINS0_1 Address: CYREG_PRT1_DM0 Size (bytes): 8 */
 160:Generated_Source\PSoC5/cyfitter_cfg.c **** #define BS_IOPINS0_1_VAL ((const uint8 CYFAR *)0x480006E8u)
 161:Generated_Source\PSoC5/cyfitter_cfg.c **** 
 162:Generated_Source\PSoC5/cyfitter_cfg.c **** /* IOPINS0_3 Address: CYREG_PRT3_DM0 Size (bytes): 8 */
 163:Generated_Source\PSoC5/cyfitter_cfg.c **** #define BS_IOPINS0_3_VAL ((const uint8 CYFAR *)0x480006F0u)
 164:Generated_Source\PSoC5/cyfitter_cfg.c **** 
 165:Generated_Source\PSoC5/cyfitter_cfg.c **** /* IOPINS0_4 Address: CYREG_PRT4_DM0 Size (bytes): 8 */
 166:Generated_Source\PSoC5/cyfitter_cfg.c **** #define BS_IOPINS0_4_VAL ((const uint8 CYFAR *)0x480006F8u)
 167:Generated_Source\PSoC5/cyfitter_cfg.c **** 
 168:Generated_Source\PSoC5/cyfitter_cfg.c **** /* IOPINS0_5 Address: CYREG_PRT5_DM0 Size (bytes): 8 */
 169:Generated_Source\PSoC5/cyfitter_cfg.c **** #define BS_IOPINS0_5_VAL ((const uint8 CYFAR *)0x48000700u)
 170:Generated_Source\PSoC5/cyfitter_cfg.c **** 
 171:Generated_Source\PSoC5/cyfitter_cfg.c **** /* IOPINS0_6 Address: CYREG_PRT6_DR Size (bytes): 10 */
 172:Generated_Source\PSoC5/cyfitter_cfg.c **** #define BS_IOPINS0_6_VAL ((const uint8 CYFAR *)0x48000708u)
 173:Generated_Source\PSoC5/cyfitter_cfg.c **** 
 174:Generated_Source\PSoC5/cyfitter_cfg.c **** 
 175:Generated_Source\PSoC5/cyfitter_cfg.c **** /*******************************************************************************
 176:Generated_Source\PSoC5/cyfitter_cfg.c **** * Function Name: cfg_write_bytes32
 177:Generated_Source\PSoC5/cyfitter_cfg.c **** ********************************************************************************
 178:Generated_Source\PSoC5/cyfitter_cfg.c **** * Summary:
 179:Generated_Source\PSoC5/cyfitter_cfg.c **** *  This function is used for setting up the chip configuration areas that
 180:Generated_Source\PSoC5/cyfitter_cfg.c **** *  contain relatively sparse data.
 181:Generated_Source\PSoC5/cyfitter_cfg.c **** *
 182:Generated_Source\PSoC5/cyfitter_cfg.c **** * Parameters:
 183:Generated_Source\PSoC5/cyfitter_cfg.c **** *   void
ARM GAS  C:\Users\DGILLI~1\AppData\Local\Temp\ccXzsOUp.s 			page 5


 184:Generated_Source\PSoC5/cyfitter_cfg.c **** *
 185:Generated_Source\PSoC5/cyfitter_cfg.c **** * Return:
 186:Generated_Source\PSoC5/cyfitter_cfg.c **** *   void
 187:Generated_Source\PSoC5/cyfitter_cfg.c **** *
 188:Generated_Source\PSoC5/cyfitter_cfg.c **** *******************************************************************************/
 189:Generated_Source\PSoC5/cyfitter_cfg.c **** static void cfg_write_bytes32(const uint32 addr_table[], const cy_cfg_addrvalue_t data_table[]);
 190:Generated_Source\PSoC5/cyfitter_cfg.c **** static void cfg_write_bytes32(const uint32 addr_table[], const cy_cfg_addrvalue_t data_table[])
 191:Generated_Source\PSoC5/cyfitter_cfg.c **** {
  46              		.loc 1 191 0
  47              		.cfi_startproc
  48              		@ args = 0, pretend = 0, frame = 0
  49              		@ frame_needed = 0, uses_anonymous_args = 0
  50              		@ link register save eliminated.
  51              	.LVL1:
  52 0000 F0B4     		push	{r4, r5, r6, r7}
  53              		.cfi_def_cfa_offset 16
  54              		.cfi_offset 4, -16
  55              		.cfi_offset 5, -12
  56              		.cfi_offset 6, -8
  57              		.cfi_offset 7, -4
  58              	.LVL2:
 192:Generated_Source\PSoC5/cyfitter_cfg.c **** 	/* For 32-bit little-endian architectures */
 193:Generated_Source\PSoC5/cyfitter_cfg.c **** 	uint32 i, j = 0u;
  59              		.loc 1 193 0
  60 0002 0022     		movs	r2, #0
 194:Generated_Source\PSoC5/cyfitter_cfg.c **** 	for (i = 0u; i < CY_CFG_BASE_ADDR_COUNT; i++)
  61              		.loc 1 194 0
  62 0004 1746     		mov	r7, r2
  63 0006 11E0     		b	.L4
  64              	.LVL3:
  65              	.L7:
  66              	.LBB2:
 195:Generated_Source\PSoC5/cyfitter_cfg.c **** 	{
 196:Generated_Source\PSoC5/cyfitter_cfg.c **** 		uint32 baseAddr = addr_table[i];
  67              		.loc 1 196 0
  68 0008 50F82760 		ldr	r6, [r0, r7, lsl #2]
  69              	.LVL4:
 197:Generated_Source\PSoC5/cyfitter_cfg.c **** 		uint8 count = (uint8)baseAddr;
  70              		.loc 1 197 0
  71 000c F3B2     		uxtb	r3, r6
  72              	.LVL5:
 198:Generated_Source\PSoC5/cyfitter_cfg.c **** 		baseAddr &= 0xFFFFFF00u;
  73              		.loc 1 198 0
  74 000e 26F0FF06 		bic	r6, r6, #255
  75              	.LVL6:
 199:Generated_Source\PSoC5/cyfitter_cfg.c **** 		while (count != 0u)
  76              		.loc 1 199 0
  77 0012 08E0     		b	.L5
  78              	.L6:
 200:Generated_Source\PSoC5/cyfitter_cfg.c **** 		{
 201:Generated_Source\PSoC5/cyfitter_cfg.c **** 			CY_SET_XTND_REG8((void CYFAR *)(baseAddr + data_table[j].offset), data_table[j].value);
  79              		.loc 1 201 0
  80 0014 01EB4205 		add	r5, r1, r2, lsl #1
  81 0018 11F81240 		ldrb	r4, [r1, r2, lsl #1]	@ zero_extendqisi2
  82 001c 6D78     		ldrb	r5, [r5, #1]	@ zero_extendqisi2
  83 001e A555     		strb	r5, [r4, r6]
 202:Generated_Source\PSoC5/cyfitter_cfg.c **** 			j++;
ARM GAS  C:\Users\DGILLI~1\AppData\Local\Temp\ccXzsOUp.s 			page 6


  84              		.loc 1 202 0
  85 0020 0132     		adds	r2, r2, #1
  86              	.LVL7:
 203:Generated_Source\PSoC5/cyfitter_cfg.c **** 			count--;
  87              		.loc 1 203 0
  88 0022 013B     		subs	r3, r3, #1
  89              	.LVL8:
  90 0024 DBB2     		uxtb	r3, r3
  91              	.LVL9:
  92              	.L5:
 199:Generated_Source\PSoC5/cyfitter_cfg.c **** 		{
  93              		.loc 1 199 0
  94 0026 002B     		cmp	r3, #0
  95 0028 F4D1     		bne	.L6
  96              	.LBE2:
 194:Generated_Source\PSoC5/cyfitter_cfg.c **** 	{
  97              		.loc 1 194 0 discriminator 2
  98 002a 0137     		adds	r7, r7, #1
  99              	.LVL10:
 100              	.L4:
 194:Generated_Source\PSoC5/cyfitter_cfg.c **** 	{
 101              		.loc 1 194 0 is_stmt 0 discriminator 1
 102 002c 1F2F     		cmp	r7, #31
 103 002e EBD9     		bls	.L7
 204:Generated_Source\PSoC5/cyfitter_cfg.c **** 		}
 205:Generated_Source\PSoC5/cyfitter_cfg.c **** 	}
 206:Generated_Source\PSoC5/cyfitter_cfg.c **** }
 104              		.loc 1 206 0 is_stmt 1
 105 0030 F0BC     		pop	{r4, r5, r6, r7}
 106              		.cfi_restore 7
 107              		.cfi_restore 6
 108              		.cfi_restore 5
 109              		.cfi_restore 4
 110              		.cfi_def_cfa_offset 0
 111              	.LVL11:
 112 0032 7047     		bx	lr
 113              		.cfi_endproc
 114              	.LFE4:
 115              		.size	cfg_write_bytes32, .-cfg_write_bytes32
 116              		.section	.text.AnalogSetDefault,"ax",%progbits
 117              		.align	2
 118              		.thumb
 119              		.thumb_func
 120              		.type	AnalogSetDefault, %function
 121              	AnalogSetDefault:
 122              	.LFB6:
 207:Generated_Source\PSoC5/cyfitter_cfg.c **** 
 208:Generated_Source\PSoC5/cyfitter_cfg.c **** /*******************************************************************************
 209:Generated_Source\PSoC5/cyfitter_cfg.c **** * Function Name: ClockSetup
 210:Generated_Source\PSoC5/cyfitter_cfg.c **** ********************************************************************************
 211:Generated_Source\PSoC5/cyfitter_cfg.c **** *
 212:Generated_Source\PSoC5/cyfitter_cfg.c **** * Summary:
 213:Generated_Source\PSoC5/cyfitter_cfg.c **** *  Performs the initialization of all of the clocks in the device based on the
 214:Generated_Source\PSoC5/cyfitter_cfg.c **** *  settings in the Clock tab of the DWR.  This includes enabling the requested
 215:Generated_Source\PSoC5/cyfitter_cfg.c **** *  clocks and setting the necessary dividers to produce the desired frequency. 
 216:Generated_Source\PSoC5/cyfitter_cfg.c **** *
 217:Generated_Source\PSoC5/cyfitter_cfg.c **** * Parameters:
ARM GAS  C:\Users\DGILLI~1\AppData\Local\Temp\ccXzsOUp.s 			page 7


 218:Generated_Source\PSoC5/cyfitter_cfg.c **** *  void
 219:Generated_Source\PSoC5/cyfitter_cfg.c **** *
 220:Generated_Source\PSoC5/cyfitter_cfg.c **** * Return:
 221:Generated_Source\PSoC5/cyfitter_cfg.c **** *  void
 222:Generated_Source\PSoC5/cyfitter_cfg.c **** *
 223:Generated_Source\PSoC5/cyfitter_cfg.c **** *******************************************************************************/
 224:Generated_Source\PSoC5/cyfitter_cfg.c **** static void ClockSetup(void);
 225:Generated_Source\PSoC5/cyfitter_cfg.c **** static void ClockSetup(void)
 226:Generated_Source\PSoC5/cyfitter_cfg.c **** {
 227:Generated_Source\PSoC5/cyfitter_cfg.c **** 	uint32 timeout;
 228:Generated_Source\PSoC5/cyfitter_cfg.c **** 	uint8 pllLock;
 229:Generated_Source\PSoC5/cyfitter_cfg.c **** 
 230:Generated_Source\PSoC5/cyfitter_cfg.c **** 
 231:Generated_Source\PSoC5/cyfitter_cfg.c **** 	/* Configure Digital Clocks based on settings from Clock DWR */
 232:Generated_Source\PSoC5/cyfitter_cfg.c **** 	CY_SET_XTND_REG16((void CYFAR *)(CYREG_CLKDIST_DCFG0_CFG0), 0x0270u);
 233:Generated_Source\PSoC5/cyfitter_cfg.c **** 	CY_SET_XTND_REG8((void CYFAR *)(CYREG_CLKDIST_DCFG0_CFG0 + 0x2u), 0x18u);
 234:Generated_Source\PSoC5/cyfitter_cfg.c **** 	CY_SET_XTND_REG16((void CYFAR *)(CYREG_CLKDIST_DCFG1_CFG0), 0x61A7u);
 235:Generated_Source\PSoC5/cyfitter_cfg.c **** 	CY_SET_XTND_REG8((void CYFAR *)(CYREG_CLKDIST_DCFG1_CFG0 + 0x2u), 0x1Bu);
 236:Generated_Source\PSoC5/cyfitter_cfg.c **** 
 237:Generated_Source\PSoC5/cyfitter_cfg.c **** 	/* Configure ILO based on settings from Clock DWR */
 238:Generated_Source\PSoC5/cyfitter_cfg.c **** 	CY_SET_XTND_REG8((void CYFAR *)(CYREG_SLOWCLK_ILO_CR0), 0x06u);
 239:Generated_Source\PSoC5/cyfitter_cfg.c **** 
 240:Generated_Source\PSoC5/cyfitter_cfg.c **** 	/* Configure XTAL based on settings from Clock DWR */
 241:Generated_Source\PSoC5/cyfitter_cfg.c **** 	CY_SET_XTND_REG16((void CYFAR *)(CYREG_FASTCLK_XMHZ_CFG0), 0x3313u);
 242:Generated_Source\PSoC5/cyfitter_cfg.c **** 	CY_SET_XTND_REG8((void CYFAR *)(CYREG_FASTCLK_XMHZ_CSR), 0x05u);
 243:Generated_Source\PSoC5/cyfitter_cfg.c **** 	/* Wait up to 130000us for the XTAL to lock */
 244:Generated_Source\PSoC5/cyfitter_cfg.c **** 	CY_GET_XTND_REG8((void CYFAR *)CYREG_FASTCLK_XMHZ_CSR);
 245:Generated_Source\PSoC5/cyfitter_cfg.c **** 	for (timeout = 130000u / 10u; (timeout > 0u) && ((CY_GET_XTND_REG8((void CYFAR *)CYREG_FASTCLK_XMH
 246:Generated_Source\PSoC5/cyfitter_cfg.c **** 	{ 
 247:Generated_Source\PSoC5/cyfitter_cfg.c **** 		
 248:Generated_Source\PSoC5/cyfitter_cfg.c **** 		CyDelayCycles(10u * 48u); /* Delay 10us based on 48MHz clock */
 249:Generated_Source\PSoC5/cyfitter_cfg.c **** 	}
 250:Generated_Source\PSoC5/cyfitter_cfg.c **** 
 251:Generated_Source\PSoC5/cyfitter_cfg.c **** 	/* Configure IMO based on settings from Clock DWR */
 252:Generated_Source\PSoC5/cyfitter_cfg.c **** 	CY_SET_XTND_REG8((void CYFAR *)(CYREG_FASTCLK_IMO_CR), 0x52u);
 253:Generated_Source\PSoC5/cyfitter_cfg.c **** 	CY_SET_XTND_REG8((void CYFAR *)(CYREG_IMO_TR1), (CY_GET_XTND_REG8((void CYFAR *)CYREG_FLSHID_CUST_
 254:Generated_Source\PSoC5/cyfitter_cfg.c **** 
 255:Generated_Source\PSoC5/cyfitter_cfg.c **** 	/* Configure PLL based on settings from Clock DWR */
 256:Generated_Source\PSoC5/cyfitter_cfg.c **** 	CY_SET_XTND_REG16((void CYFAR *)(CYREG_FASTCLK_PLL_P), 0x0710u);
 257:Generated_Source\PSoC5/cyfitter_cfg.c **** 	CY_SET_XTND_REG16((void CYFAR *)(CYREG_FASTCLK_PLL_CFG0), 0x1251u);
 258:Generated_Source\PSoC5/cyfitter_cfg.c **** 	/* Wait up to 250us for the PLL to lock */
 259:Generated_Source\PSoC5/cyfitter_cfg.c **** 	pllLock = 0u;
 260:Generated_Source\PSoC5/cyfitter_cfg.c **** 	for (timeout = 250u / 10u; (timeout > 0u) && (pllLock != 0x03u); timeout--)
 261:Generated_Source\PSoC5/cyfitter_cfg.c **** 	{ 
 262:Generated_Source\PSoC5/cyfitter_cfg.c **** 		pllLock = 0x03u & ((uint8)((uint8)pllLock << 1) | ((CY_GET_XTND_REG8((void CYFAR *)CYREG_FASTCLK_
 263:Generated_Source\PSoC5/cyfitter_cfg.c **** 		CyDelayCycles(10u * 48u); /* Delay 10us based on 48MHz clock */
 264:Generated_Source\PSoC5/cyfitter_cfg.c **** 	}
 265:Generated_Source\PSoC5/cyfitter_cfg.c **** 	/* If we ran out of time the PLL didn't lock so go to the error function */
 266:Generated_Source\PSoC5/cyfitter_cfg.c **** 	if (timeout == 0u)
 267:Generated_Source\PSoC5/cyfitter_cfg.c **** 	{
 268:Generated_Source\PSoC5/cyfitter_cfg.c **** 		CyClockStartupError(CYCLOCKSTART_PLL_ERROR);
 269:Generated_Source\PSoC5/cyfitter_cfg.c **** 	}
 270:Generated_Source\PSoC5/cyfitter_cfg.c **** 
 271:Generated_Source\PSoC5/cyfitter_cfg.c **** 	/* Configure Bus/Master Clock based on settings from Clock DWR */
 272:Generated_Source\PSoC5/cyfitter_cfg.c **** 	CY_SET_XTND_REG16((void CYFAR *)(CYREG_CLKDIST_MSTR0), 0x0100u);
 273:Generated_Source\PSoC5/cyfitter_cfg.c **** 	CY_SET_XTND_REG8((void CYFAR *)(CYREG_CLKDIST_MSTR0), 0x07u);
 274:Generated_Source\PSoC5/cyfitter_cfg.c **** 	CY_SET_XTND_REG8((void CYFAR *)(CYREG_CLKDIST_BCFG0), 0x01u);
ARM GAS  C:\Users\DGILLI~1\AppData\Local\Temp\ccXzsOUp.s 			page 8


 275:Generated_Source\PSoC5/cyfitter_cfg.c **** 	CY_SET_XTND_REG8((void CYFAR *)(CYREG_CLKDIST_BCFG2), 0x08u);
 276:Generated_Source\PSoC5/cyfitter_cfg.c **** 	CY_SET_XTND_REG8((void CYFAR *)(CYREG_CLKDIST_MSTR0), 0x00u);
 277:Generated_Source\PSoC5/cyfitter_cfg.c **** 
 278:Generated_Source\PSoC5/cyfitter_cfg.c **** 	/* Configure USB Clock based on settings from Clock DWR */
 279:Generated_Source\PSoC5/cyfitter_cfg.c **** 	CY_SET_XTND_REG8((void CYFAR *)(CYREG_CLKDIST_UCFG), 0x00u);
 280:Generated_Source\PSoC5/cyfitter_cfg.c **** 	CY_SET_XTND_REG8((void CYFAR *)(CYREG_CLKDIST_LD), 0x02u);
 281:Generated_Source\PSoC5/cyfitter_cfg.c **** 
 282:Generated_Source\PSoC5/cyfitter_cfg.c **** 	CY_SET_XTND_REG8((void CYFAR *)(CYREG_PM_ACT_CFG2), ((CY_GET_XTND_REG8((void CYFAR *)CYREG_PM_ACT_
 283:Generated_Source\PSoC5/cyfitter_cfg.c **** }
 284:Generated_Source\PSoC5/cyfitter_cfg.c **** 
 285:Generated_Source\PSoC5/cyfitter_cfg.c **** 
 286:Generated_Source\PSoC5/cyfitter_cfg.c **** /* Analog API Functions */
 287:Generated_Source\PSoC5/cyfitter_cfg.c **** 
 288:Generated_Source\PSoC5/cyfitter_cfg.c **** 
 289:Generated_Source\PSoC5/cyfitter_cfg.c **** /*******************************************************************************
 290:Generated_Source\PSoC5/cyfitter_cfg.c **** * Function Name: AnalogSetDefault
 291:Generated_Source\PSoC5/cyfitter_cfg.c **** ********************************************************************************
 292:Generated_Source\PSoC5/cyfitter_cfg.c **** *
 293:Generated_Source\PSoC5/cyfitter_cfg.c **** * Summary:
 294:Generated_Source\PSoC5/cyfitter_cfg.c **** *  Sets up the analog portions of the chip to default values based on chip
 295:Generated_Source\PSoC5/cyfitter_cfg.c **** *  configuration options from the project.
 296:Generated_Source\PSoC5/cyfitter_cfg.c **** *
 297:Generated_Source\PSoC5/cyfitter_cfg.c **** * Parameters:
 298:Generated_Source\PSoC5/cyfitter_cfg.c **** *  void
 299:Generated_Source\PSoC5/cyfitter_cfg.c **** *
 300:Generated_Source\PSoC5/cyfitter_cfg.c **** * Return:
 301:Generated_Source\PSoC5/cyfitter_cfg.c **** *  void
 302:Generated_Source\PSoC5/cyfitter_cfg.c **** *
 303:Generated_Source\PSoC5/cyfitter_cfg.c **** *******************************************************************************/
 304:Generated_Source\PSoC5/cyfitter_cfg.c **** static void AnalogSetDefault(void);
 305:Generated_Source\PSoC5/cyfitter_cfg.c **** static void AnalogSetDefault(void)
 306:Generated_Source\PSoC5/cyfitter_cfg.c **** {
 123              		.loc 1 306 0
 124              		.cfi_startproc
 125              		@ args = 0, pretend = 0, frame = 0
 126              		@ frame_needed = 0, uses_anonymous_args = 0
 127              		@ link register save eliminated.
 307:Generated_Source\PSoC5/cyfitter_cfg.c **** 	uint8 bg_xover_inl_trim = CY_GET_XTND_REG8((void CYFAR *)(CYREG_FLSHID_MFG_CFG_BG_XOVER_INL_TRIM +
 128              		.loc 1 307 0
 129 0000 064B     		ldr	r3, .L10
 130 0002 1B78     		ldrb	r3, [r3]	@ zero_extendqisi2
 131 0004 DBB2     		uxtb	r3, r3
 132              	.LVL12:
 308:Generated_Source\PSoC5/cyfitter_cfg.c **** 	CY_SET_XTND_REG8((void CYFAR *)(CYREG_BG_DFT0), (bg_xover_inl_trim & 0x07u));
 133              		.loc 1 308 0
 134 0006 03F00701 		and	r1, r3, #7
 135 000a 054A     		ldr	r2, .L10+4
 136 000c 1170     		strb	r1, [r2]
 309:Generated_Source\PSoC5/cyfitter_cfg.c **** 	CY_SET_XTND_REG8((void CYFAR *)(CYREG_BG_DFT1), ((bg_xover_inl_trim >> 4) & 0x0Fu));
 137              		.loc 1 309 0
 138 000e 1B09     		lsrs	r3, r3, #4
 139              	.LVL13:
 140 0010 0132     		adds	r2, r2, #1
 141 0012 1370     		strb	r3, [r2]
 310:Generated_Source\PSoC5/cyfitter_cfg.c **** 	CY_SET_XTND_REG8((void CYFAR *)CYREG_PUMP_CR0, 0x44u);
 142              		.loc 1 310 0
 143 0014 4422     		movs	r2, #68
ARM GAS  C:\Users\DGILLI~1\AppData\Local\Temp\ccXzsOUp.s 			page 9


 144 0016 034B     		ldr	r3, .L10+8
 145 0018 1A70     		strb	r2, [r3]
 146 001a 7047     		bx	lr
 147              	.L11:
 148              		.align	2
 149              	.L10:
 150 001c CF010049 		.word	1224737231
 151 0020 6E580040 		.word	1073764462
 152 0024 76580040 		.word	1073764470
 153              		.cfi_endproc
 154              	.LFE6:
 155              		.size	AnalogSetDefault, .-AnalogSetDefault
 156              		.section	.text.CYMEMZERO,"ax",%progbits
 157              		.align	2
 158              		.thumb
 159              		.thumb_func
 160              		.type	CYMEMZERO, %function
 161              	CYMEMZERO:
 162              	.LFB0:
  64:Generated_Source\PSoC5/cyfitter_cfg.c **** 	(void)memset(s, 0, n);
 163              		.loc 1 64 0
 164              		.cfi_startproc
 165              		@ args = 0, pretend = 0, frame = 0
 166              		@ frame_needed = 0, uses_anonymous_args = 0
 167              	.LVL14:
 168 0000 08B5     		push	{r3, lr}
 169              		.cfi_def_cfa_offset 8
 170              		.cfi_offset 3, -8
 171              		.cfi_offset 14, -4
 172 0002 0A46     		mov	r2, r1
  65:Generated_Source\PSoC5/cyfitter_cfg.c **** }
 173              		.loc 1 65 0
 174 0004 0021     		movs	r1, #0
 175              	.LVL15:
 176 0006 FFF7FEFF 		bl	memset
 177              	.LVL16:
 178 000a 08BD     		pop	{r3, pc}
 179              		.cfi_endproc
 180              	.LFE0:
 181              		.size	CYMEMZERO, .-CYMEMZERO
 182              		.section	.text.ClockSetup,"ax",%progbits
 183              		.align	2
 184              		.thumb
 185              		.thumb_func
 186              		.type	ClockSetup, %function
 187              	ClockSetup:
 188              	.LFB5:
 226:Generated_Source\PSoC5/cyfitter_cfg.c **** 	uint32 timeout;
 189              		.loc 1 226 0
 190              		.cfi_startproc
 191              		@ args = 0, pretend = 0, frame = 0
 192              		@ frame_needed = 0, uses_anonymous_args = 0
 193 0000 38B5     		push	{r3, r4, r5, lr}
 194              		.cfi_def_cfa_offset 16
 195              		.cfi_offset 3, -16
 196              		.cfi_offset 4, -12
 197              		.cfi_offset 5, -8
ARM GAS  C:\Users\DGILLI~1\AppData\Local\Temp\ccXzsOUp.s 			page 10


 198              		.cfi_offset 14, -4
 232:Generated_Source\PSoC5/cyfitter_cfg.c **** 	CY_SET_XTND_REG8((void CYFAR *)(CYREG_CLKDIST_DCFG0_CFG0 + 0x2u), 0x18u);
 199              		.loc 1 232 0
 200 0002 4FF41C72 		mov	r2, #624
 201 0006 334B     		ldr	r3, .L23
 202 0008 1A80     		strh	r2, [r3]	@ movhi
 233:Generated_Source\PSoC5/cyfitter_cfg.c **** 	CY_SET_XTND_REG16((void CYFAR *)(CYREG_CLKDIST_DCFG1_CFG0), 0x61A7u);
 203              		.loc 1 233 0
 204 000a 1822     		movs	r2, #24
 205 000c 0233     		adds	r3, r3, #2
 206 000e 1A70     		strb	r2, [r3]
 234:Generated_Source\PSoC5/cyfitter_cfg.c **** 	CY_SET_XTND_REG8((void CYFAR *)(CYREG_CLKDIST_DCFG1_CFG0 + 0x2u), 0x1Bu);
 207              		.loc 1 234 0
 208 0010 46F2A712 		movw	r2, #24999
 209 0014 0233     		adds	r3, r3, #2
 210 0016 1A80     		strh	r2, [r3]	@ movhi
 235:Generated_Source\PSoC5/cyfitter_cfg.c **** 
 211              		.loc 1 235 0
 212 0018 1B22     		movs	r2, #27
 213 001a 0233     		adds	r3, r3, #2
 214 001c 1A70     		strb	r2, [r3]
 238:Generated_Source\PSoC5/cyfitter_cfg.c **** 
 215              		.loc 1 238 0
 216 001e 0622     		movs	r2, #6
 217 0020 03F27A23 		addw	r3, r3, #634
 218 0024 1A70     		strb	r2, [r3]
 241:Generated_Source\PSoC5/cyfitter_cfg.c **** 	CY_SET_XTND_REG8((void CYFAR *)(CYREG_FASTCLK_XMHZ_CSR), 0x05u);
 219              		.loc 1 241 0
 220 0026 43F21332 		movw	r2, #13075
 221 002a EE3B     		subs	r3, r3, #238
 222 002c 1A80     		strh	r2, [r3]	@ movhi
 242:Generated_Source\PSoC5/cyfitter_cfg.c **** 	/* Wait up to 130000us for the XTAL to lock */
 223              		.loc 1 242 0
 224 002e 023B     		subs	r3, r3, #2
 225 0030 0522     		movs	r2, #5
 226 0032 1A70     		strb	r2, [r3]
 244:Generated_Source\PSoC5/cyfitter_cfg.c **** 	for (timeout = 130000u / 10u; (timeout > 0u) && ((CY_GET_XTND_REG8((void CYFAR *)CYREG_FASTCLK_XMH
 227              		.loc 1 244 0
 228 0034 1B78     		ldrb	r3, [r3]	@ zero_extendqisi2
 229              	.LVL17:
 245:Generated_Source\PSoC5/cyfitter_cfg.c **** 	{ 
 230              		.loc 1 245 0
 231 0036 43F2C824 		movw	r4, #13000
 232 003a 04E0     		b	.L15
 233              	.LVL18:
 234              	.L17:
 248:Generated_Source\PSoC5/cyfitter_cfg.c **** 	}
 235              		.loc 1 248 0 discriminator 4
 236 003c 4FF4F070 		mov	r0, #480
 237 0040 FFF7FEFF 		bl	CyDelayCycles
 238              	.LVL19:
 245:Generated_Source\PSoC5/cyfitter_cfg.c **** 	{ 
 239              		.loc 1 245 0 discriminator 4
 240 0044 013C     		subs	r4, r4, #1
 241              	.LVL20:
 242              	.L15:
 245:Generated_Source\PSoC5/cyfitter_cfg.c **** 	{ 
ARM GAS  C:\Users\DGILLI~1\AppData\Local\Temp\ccXzsOUp.s 			page 11


 243              		.loc 1 245 0 is_stmt 0 discriminator 1
 244 0046 24B1     		cbz	r4, .L16
 245:Generated_Source\PSoC5/cyfitter_cfg.c **** 	{ 
 245              		.loc 1 245 0 discriminator 3
 246 0048 234B     		ldr	r3, .L23+4
 247 004a 1B78     		ldrb	r3, [r3]	@ zero_extendqisi2
 248 004c 13F0800F 		tst	r3, #128
 249 0050 F4D1     		bne	.L17
 250              	.L16:
 252:Generated_Source\PSoC5/cyfitter_cfg.c **** 	CY_SET_XTND_REG8((void CYFAR *)(CYREG_IMO_TR1), (CY_GET_XTND_REG8((void CYFAR *)CYREG_FLSHID_CUST_
 251              		.loc 1 252 0 is_stmt 1
 252 0052 5222     		movs	r2, #82
 253 0054 214B     		ldr	r3, .L23+8
 254 0056 1A70     		strb	r2, [r3]
 253:Generated_Source\PSoC5/cyfitter_cfg.c **** 
 255              		.loc 1 253 0
 256 0058 214B     		ldr	r3, .L23+12
 257 005a 1B78     		ldrb	r3, [r3]	@ zero_extendqisi2
 258 005c DBB2     		uxtb	r3, r3
 259 005e 214A     		ldr	r2, .L23+16
 260 0060 1370     		strb	r3, [r2]
 256:Generated_Source\PSoC5/cyfitter_cfg.c **** 	CY_SET_XTND_REG16((void CYFAR *)(CYREG_FASTCLK_PLL_CFG0), 0x1251u);
 261              		.loc 1 256 0
 262 0062 4FF4E262 		mov	r2, #1808
 263 0066 204B     		ldr	r3, .L23+20
 264 0068 1A80     		strh	r2, [r3]	@ movhi
 257:Generated_Source\PSoC5/cyfitter_cfg.c **** 	/* Wait up to 250us for the PLL to lock */
 265              		.loc 1 257 0
 266 006a 41F25122 		movw	r2, #4689
 267 006e 023B     		subs	r3, r3, #2
 268 0070 1A80     		strh	r2, [r3]	@ movhi
 269              	.LVL21:
 259:Generated_Source\PSoC5/cyfitter_cfg.c **** 	for (timeout = 250u / 10u; (timeout > 0u) && (pllLock != 0x03u); timeout--)
 270              		.loc 1 259 0
 271 0072 0024     		movs	r4, #0
 260:Generated_Source\PSoC5/cyfitter_cfg.c **** 	{ 
 272              		.loc 1 260 0
 273 0074 1925     		movs	r5, #25
 274 0076 0CE0     		b	.L18
 275              	.LVL22:
 276              	.L20:
 262:Generated_Source\PSoC5/cyfitter_cfg.c **** 		CyDelayCycles(10u * 48u); /* Delay 10us based on 48MHz clock */
 277              		.loc 1 262 0 discriminator 4
 278 0078 1C4B     		ldr	r3, .L23+24
 279 007a 1B78     		ldrb	r3, [r3]	@ zero_extendqisi2
 280 007c 03F00103 		and	r3, r3, #1
 281 0080 43EA4404 		orr	r4, r3, r4, lsl #1
 282              	.LVL23:
 283 0084 04F00304 		and	r4, r4, #3
 284              	.LVL24:
 263:Generated_Source\PSoC5/cyfitter_cfg.c **** 	}
 285              		.loc 1 263 0 discriminator 4
 286 0088 4FF4F070 		mov	r0, #480
 287 008c FFF7FEFF 		bl	CyDelayCycles
 288              	.LVL25:
 260:Generated_Source\PSoC5/cyfitter_cfg.c **** 	{ 
 289              		.loc 1 260 0 discriminator 4
ARM GAS  C:\Users\DGILLI~1\AppData\Local\Temp\ccXzsOUp.s 			page 12


 290 0090 013D     		subs	r5, r5, #1
 291              	.LVL26:
 292              	.L18:
 260:Generated_Source\PSoC5/cyfitter_cfg.c **** 	{ 
 293              		.loc 1 260 0 is_stmt 0 discriminator 1
 294 0092 0DB1     		cbz	r5, .L19
 260:Generated_Source\PSoC5/cyfitter_cfg.c **** 	{ 
 295              		.loc 1 260 0 discriminator 3
 296 0094 032C     		cmp	r4, #3
 297 0096 EFD1     		bne	.L20
 298              	.L19:
 266:Generated_Source\PSoC5/cyfitter_cfg.c **** 	{
 299              		.loc 1 266 0 is_stmt 1
 300 0098 15B9     		cbnz	r5, .L21
 268:Generated_Source\PSoC5/cyfitter_cfg.c **** 	}
 301              		.loc 1 268 0
 302 009a 0320     		movs	r0, #3
 303 009c FFF7FEFF 		bl	CyClockStartupError
 304              	.LVL27:
 305              	.L21:
 272:Generated_Source\PSoC5/cyfitter_cfg.c **** 	CY_SET_XTND_REG8((void CYFAR *)(CYREG_CLKDIST_MSTR0), 0x07u);
 306              		.loc 1 272 0
 307 00a0 134B     		ldr	r3, .L23+28
 308 00a2 4FF48072 		mov	r2, #256
 309 00a6 1A80     		strh	r2, [r3]	@ movhi
 273:Generated_Source\PSoC5/cyfitter_cfg.c **** 	CY_SET_XTND_REG8((void CYFAR *)(CYREG_CLKDIST_BCFG0), 0x01u);
 310              		.loc 1 273 0
 311 00a8 0722     		movs	r2, #7
 312 00aa 1A70     		strb	r2, [r3]
 274:Generated_Source\PSoC5/cyfitter_cfg.c **** 	CY_SET_XTND_REG8((void CYFAR *)(CYREG_CLKDIST_BCFG2), 0x08u);
 313              		.loc 1 274 0
 314 00ac 0121     		movs	r1, #1
 315 00ae 114A     		ldr	r2, .L23+32
 316 00b0 1170     		strb	r1, [r2]
 275:Generated_Source\PSoC5/cyfitter_cfg.c **** 	CY_SET_XTND_REG8((void CYFAR *)(CYREG_CLKDIST_MSTR0), 0x00u);
 317              		.loc 1 275 0
 318 00b2 0821     		movs	r1, #8
 319 00b4 0232     		adds	r2, r2, #2
 320 00b6 1170     		strb	r1, [r2]
 276:Generated_Source\PSoC5/cyfitter_cfg.c **** 
 321              		.loc 1 276 0
 322 00b8 0022     		movs	r2, #0
 323 00ba 1A70     		strb	r2, [r3]
 279:Generated_Source\PSoC5/cyfitter_cfg.c **** 	CY_SET_XTND_REG8((void CYFAR *)(CYREG_CLKDIST_LD), 0x02u);
 324              		.loc 1 279 0
 325 00bc 0533     		adds	r3, r3, #5
 326 00be 1A70     		strb	r2, [r3]
 280:Generated_Source\PSoC5/cyfitter_cfg.c **** 
 327              		.loc 1 280 0
 328 00c0 0222     		movs	r2, #2
 329 00c2 083B     		subs	r3, r3, #8
 330 00c4 1A70     		strb	r2, [r3]
 282:Generated_Source\PSoC5/cyfitter_cfg.c **** }
 331              		.loc 1 282 0
 332 00c6 0C4A     		ldr	r2, .L23+36
 333 00c8 1378     		ldrb	r3, [r2]	@ zero_extendqisi2
 334 00ca 43F00303 		orr	r3, r3, #3
ARM GAS  C:\Users\DGILLI~1\AppData\Local\Temp\ccXzsOUp.s 			page 13


 335 00ce 1370     		strb	r3, [r2]
 336 00d0 38BD     		pop	{r3, r4, r5, pc}
 337              	.LVL28:
 338              	.L24:
 339 00d2 00BF     		.align	2
 340              	.L23:
 341 00d4 80400040 		.word	1073758336
 342 00d8 10420040 		.word	1073758736
 343 00dc 00420040 		.word	1073758720
 344 00e0 0F010049 		.word	1224737039
 345 00e4 A1460040 		.word	1073759905
 346 00e8 22420040 		.word	1073758754
 347 00ec 25420040 		.word	1073758757
 348 00f0 04400040 		.word	1073758212
 349 00f4 06400040 		.word	1073758214
 350 00f8 A2430040 		.word	1073759138
 351              		.cfi_endproc
 352              	.LFE5:
 353              		.size	ClockSetup, .-ClockSetup
 354              		.section	.text.CYCONFIGCPY,"ax",%progbits
 355              		.align	2
 356              		.thumb
 357              		.thumb_func
 358              		.type	CYCONFIGCPY, %function
 359              	CYCONFIGCPY:
 360              	.LFB1:
  71:Generated_Source\PSoC5/cyfitter_cfg.c **** 	(void)memcpy(dest, src, n);
 361              		.loc 1 71 0
 362              		.cfi_startproc
 363              		@ args = 0, pretend = 0, frame = 0
 364              		@ frame_needed = 0, uses_anonymous_args = 0
 365              	.LVL29:
 366 0000 08B5     		push	{r3, lr}
 367              		.cfi_def_cfa_offset 8
 368              		.cfi_offset 3, -8
 369              		.cfi_offset 14, -4
  72:Generated_Source\PSoC5/cyfitter_cfg.c **** }
 370              		.loc 1 72 0
 371 0002 FFF7FEFF 		bl	memcpy
 372              	.LVL30:
 373 0006 08BD     		pop	{r3, pc}
 374              		.cfi_endproc
 375              	.LFE1:
 376              		.size	CYCONFIGCPY, .-CYCONFIGCPY
 377              		.section	.text.SetAnalogRoutingPumps,"ax",%progbits
 378              		.align	2
 379              		.global	SetAnalogRoutingPumps
 380              		.thumb
 381              		.thumb_func
 382              		.type	SetAnalogRoutingPumps, %function
 383              	SetAnalogRoutingPumps:
 384              	.LFB7:
 311:Generated_Source\PSoC5/cyfitter_cfg.c **** }
 312:Generated_Source\PSoC5/cyfitter_cfg.c **** 
 313:Generated_Source\PSoC5/cyfitter_cfg.c **** 
 314:Generated_Source\PSoC5/cyfitter_cfg.c **** /*******************************************************************************
 315:Generated_Source\PSoC5/cyfitter_cfg.c **** * Function Name: SetAnalogRoutingPumps
ARM GAS  C:\Users\DGILLI~1\AppData\Local\Temp\ccXzsOUp.s 			page 14


 316:Generated_Source\PSoC5/cyfitter_cfg.c **** ********************************************************************************
 317:Generated_Source\PSoC5/cyfitter_cfg.c **** *
 318:Generated_Source\PSoC5/cyfitter_cfg.c **** * Summary:
 319:Generated_Source\PSoC5/cyfitter_cfg.c **** * Enables or disables the analog pumps feeding analog routing switches.
 320:Generated_Source\PSoC5/cyfitter_cfg.c **** * Intended to be called at startup, based on the Vdda system configuration;
 321:Generated_Source\PSoC5/cyfitter_cfg.c **** * may be called during operation when the user informs us that the Vdda voltage
 322:Generated_Source\PSoC5/cyfitter_cfg.c **** * crossed the pump threshold.
 323:Generated_Source\PSoC5/cyfitter_cfg.c **** *
 324:Generated_Source\PSoC5/cyfitter_cfg.c **** * Parameters:
 325:Generated_Source\PSoC5/cyfitter_cfg.c **** *  enabled - 1 to enable the pumps, 0 to disable the pumps
 326:Generated_Source\PSoC5/cyfitter_cfg.c **** *
 327:Generated_Source\PSoC5/cyfitter_cfg.c **** * Return:
 328:Generated_Source\PSoC5/cyfitter_cfg.c **** *  void
 329:Generated_Source\PSoC5/cyfitter_cfg.c **** *
 330:Generated_Source\PSoC5/cyfitter_cfg.c **** *******************************************************************************/
 331:Generated_Source\PSoC5/cyfitter_cfg.c **** void SetAnalogRoutingPumps(uint8 enabled)
 332:Generated_Source\PSoC5/cyfitter_cfg.c **** {
 385              		.loc 1 332 0
 386              		.cfi_startproc
 387              		@ args = 0, pretend = 0, frame = 0
 388              		@ frame_needed = 0, uses_anonymous_args = 0
 389              		@ link register save eliminated.
 390              	.LVL31:
 333:Generated_Source\PSoC5/cyfitter_cfg.c **** 	uint8 regValue = CY_GET_XTND_REG8((void CYFAR *)CYREG_PUMP_CR0);
 391              		.loc 1 333 0
 392 0000 024A     		ldr	r2, .L28
 393 0002 1378     		ldrb	r3, [r2]	@ zero_extendqisi2
 394 0004 DBB2     		uxtb	r3, r3
 395              	.LVL32:
 334:Generated_Source\PSoC5/cyfitter_cfg.c **** 	if (enabled != 0u)
 335:Generated_Source\PSoC5/cyfitter_cfg.c **** 	{
 336:Generated_Source\PSoC5/cyfitter_cfg.c **** 		regValue |= 0x00u;
 337:Generated_Source\PSoC5/cyfitter_cfg.c **** 	}
 338:Generated_Source\PSoC5/cyfitter_cfg.c **** 	else
 339:Generated_Source\PSoC5/cyfitter_cfg.c **** 	{
 340:Generated_Source\PSoC5/cyfitter_cfg.c **** 		regValue &= (uint8)~0x00u;
 341:Generated_Source\PSoC5/cyfitter_cfg.c **** 	}
 342:Generated_Source\PSoC5/cyfitter_cfg.c **** 	CY_SET_XTND_REG8((void CYFAR *)CYREG_PUMP_CR0, regValue);
 396              		.loc 1 342 0
 397 0006 1370     		strb	r3, [r2]
 398 0008 7047     		bx	lr
 399              	.L29:
 400 000a 00BF     		.align	2
 401              	.L28:
 402 000c 76580040 		.word	1073764470
 403              		.cfi_endproc
 404              	.LFE7:
 405              		.size	SetAnalogRoutingPumps, .-SetAnalogRoutingPumps
 406              		.section	.text.cyfitter_cfg,"ax",%progbits
 407              		.align	2
 408              		.global	cyfitter_cfg
 409              		.thumb
 410              		.thumb_func
 411              		.type	cyfitter_cfg, %function
 412              	cyfitter_cfg:
 413              	.LFB8:
 343:Generated_Source\PSoC5/cyfitter_cfg.c **** }
ARM GAS  C:\Users\DGILLI~1\AppData\Local\Temp\ccXzsOUp.s 			page 15


 344:Generated_Source\PSoC5/cyfitter_cfg.c **** 
 345:Generated_Source\PSoC5/cyfitter_cfg.c **** #define CY_AMUX_UNUSED CYREG_BOOST_SR
 346:Generated_Source\PSoC5/cyfitter_cfg.c **** 
 347:Generated_Source\PSoC5/cyfitter_cfg.c **** 
 348:Generated_Source\PSoC5/cyfitter_cfg.c **** /*******************************************************************************
 349:Generated_Source\PSoC5/cyfitter_cfg.c **** * Function Name: cyfitter_cfg
 350:Generated_Source\PSoC5/cyfitter_cfg.c **** ********************************************************************************
 351:Generated_Source\PSoC5/cyfitter_cfg.c **** * Summary:
 352:Generated_Source\PSoC5/cyfitter_cfg.c **** *  This function is called by the start-up code for the selected device. It
 353:Generated_Source\PSoC5/cyfitter_cfg.c **** *  performs all of the necessary device configuration based on the design
 354:Generated_Source\PSoC5/cyfitter_cfg.c **** *  settings.  This includes settings from the Design Wide Resources (DWR) such
 355:Generated_Source\PSoC5/cyfitter_cfg.c **** *  as Clocks and Pins as well as any component configuration that is necessary.
 356:Generated_Source\PSoC5/cyfitter_cfg.c **** *
 357:Generated_Source\PSoC5/cyfitter_cfg.c **** * Parameters:  
 358:Generated_Source\PSoC5/cyfitter_cfg.c **** *   void
 359:Generated_Source\PSoC5/cyfitter_cfg.c **** *
 360:Generated_Source\PSoC5/cyfitter_cfg.c **** * Return:
 361:Generated_Source\PSoC5/cyfitter_cfg.c **** *   void
 362:Generated_Source\PSoC5/cyfitter_cfg.c **** *
 363:Generated_Source\PSoC5/cyfitter_cfg.c **** *******************************************************************************/
 364:Generated_Source\PSoC5/cyfitter_cfg.c **** 
 365:Generated_Source\PSoC5/cyfitter_cfg.c **** void cyfitter_cfg(void)
 366:Generated_Source\PSoC5/cyfitter_cfg.c **** {
 414              		.loc 1 366 0
 415              		.cfi_startproc
 416              		@ args = 0, pretend = 0, frame = 0
 417              		@ frame_needed = 0, uses_anonymous_args = 0
 418 0000 70B5     		push	{r4, r5, r6, lr}
 419              		.cfi_def_cfa_offset 16
 420              		.cfi_offset 4, -16
 421              		.cfi_offset 5, -12
 422              		.cfi_offset 6, -8
 423              		.cfi_offset 14, -4
 367:Generated_Source\PSoC5/cyfitter_cfg.c **** #ifdef CYGlobalIntDisable
 368:Generated_Source\PSoC5/cyfitter_cfg.c **** 	/* Disable interrupts by default. Let user enable if/when they want. */
 369:Generated_Source\PSoC5/cyfitter_cfg.c **** 	CYGlobalIntDisable
 424              		.loc 1 369 0
 425              	@ 369 "Generated_Source\PSoC5\cyfitter_cfg.c" 1
 426 0002 72B6     		CPSID   i
 427              	@ 0 "" 2
 370:Generated_Source\PSoC5/cyfitter_cfg.c **** #endif
 371:Generated_Source\PSoC5/cyfitter_cfg.c **** 
 372:Generated_Source\PSoC5/cyfitter_cfg.c **** 	/* Enable/Disable Debug functionality based on settings from System DWR */
 373:Generated_Source\PSoC5/cyfitter_cfg.c **** 	CY_SET_XTND_REG8((void CYFAR *)CYREG_MLOGIC_DEBUG, (CY_GET_XTND_REG8((void CYFAR *)CYREG_MLOGIC_DE
 428              		.loc 1 373 0
 429              		.thumb
 430 0004 3F4A     		ldr	r2, .L36
 431 0006 1378     		ldrb	r3, [r2]	@ zero_extendqisi2
 432 0008 43F00403 		orr	r3, r3, #4
 433 000c 1370     		strb	r3, [r2]
 434              	.LVL33:
 435              	.LBB3:
 374:Generated_Source\PSoC5/cyfitter_cfg.c **** 
 375:Generated_Source\PSoC5/cyfitter_cfg.c **** 	{
 376:Generated_Source\PSoC5/cyfitter_cfg.c **** 
 377:Generated_Source\PSoC5/cyfitter_cfg.c **** 		CYPACKED typedef struct {
 378:Generated_Source\PSoC5/cyfitter_cfg.c **** 			void CYFAR *address;
ARM GAS  C:\Users\DGILLI~1\AppData\Local\Temp\ccXzsOUp.s 			page 16


 379:Generated_Source\PSoC5/cyfitter_cfg.c **** 			uint16 size;
 380:Generated_Source\PSoC5/cyfitter_cfg.c **** 		} CYPACKED_ATTR cfg_memset_t;
 381:Generated_Source\PSoC5/cyfitter_cfg.c **** 
 382:Generated_Source\PSoC5/cyfitter_cfg.c **** 
 383:Generated_Source\PSoC5/cyfitter_cfg.c **** 		CYPACKED typedef struct {
 384:Generated_Source\PSoC5/cyfitter_cfg.c **** 			void CYFAR *dest;
 385:Generated_Source\PSoC5/cyfitter_cfg.c **** 			const void CYFAR *src;
 386:Generated_Source\PSoC5/cyfitter_cfg.c **** 			uint16 size;
 387:Generated_Source\PSoC5/cyfitter_cfg.c **** 		} CYPACKED_ATTR cfg_memcpy_t;
 388:Generated_Source\PSoC5/cyfitter_cfg.c **** 
 389:Generated_Source\PSoC5/cyfitter_cfg.c **** 		static const cfg_memset_t CYCODE cfg_memset_list [] = {
 390:Generated_Source\PSoC5/cyfitter_cfg.c **** 			/* address, size */
 391:Generated_Source\PSoC5/cyfitter_cfg.c **** 			{(void CYFAR *)(CYREG_I2C_XCFG), 25u},
 392:Generated_Source\PSoC5/cyfitter_cfg.c **** 			{(void CYFAR *)(CYREG_PRT2_DR), 16u},
 393:Generated_Source\PSoC5/cyfitter_cfg.c **** 			{(void CYFAR *)(CYDEV_UCFG_B0_P0_U0_BASE), 4096u},
 394:Generated_Source\PSoC5/cyfitter_cfg.c **** 			{(void CYFAR *)(CYDEV_UCFG_B1_P2_U0_BASE), 2048u},
 395:Generated_Source\PSoC5/cyfitter_cfg.c **** 			{(void CYFAR *)(CYDEV_UCFG_DSI0_BASE), 2560u},
 396:Generated_Source\PSoC5/cyfitter_cfg.c **** 			{(void CYFAR *)(CYDEV_UCFG_DSI12_BASE), 512u},
 397:Generated_Source\PSoC5/cyfitter_cfg.c **** 			{(void CYFAR *)(CYREG_BCTL0_MDCLK_EN), 32u},
 398:Generated_Source\PSoC5/cyfitter_cfg.c **** 		};
 399:Generated_Source\PSoC5/cyfitter_cfg.c **** 
 400:Generated_Source\PSoC5/cyfitter_cfg.c **** 		static const cfg_memcpy_t CYCODE cfg_memcpy_list [] = {
 401:Generated_Source\PSoC5/cyfitter_cfg.c **** 			/* dest, src, size */
 402:Generated_Source\PSoC5/cyfitter_cfg.c **** 			{(void CYFAR *)(CYDEV_PRTDSI_PRT12_BASE), BS_IOPORT_7_VAL, 6u},
 403:Generated_Source\PSoC5/cyfitter_cfg.c **** 		};
 404:Generated_Source\PSoC5/cyfitter_cfg.c **** 
 405:Generated_Source\PSoC5/cyfitter_cfg.c **** 		uint8 CYDATA i;
 406:Generated_Source\PSoC5/cyfitter_cfg.c **** 
 407:Generated_Source\PSoC5/cyfitter_cfg.c **** 		/* Zero out critical memory blocks before beginning configuration */
 408:Generated_Source\PSoC5/cyfitter_cfg.c **** 		for (i = 0u; i < (sizeof(cfg_memset_list)/sizeof(cfg_memset_list[0])); i++)
 436              		.loc 1 408 0
 437 000e 0024     		movs	r4, #0
 438 0010 0CE0     		b	.L31
 439              	.LVL34:
 440              	.L32:
 441              	.LBB4:
 409:Generated_Source\PSoC5/cyfitter_cfg.c **** 		{
 410:Generated_Source\PSoC5/cyfitter_cfg.c **** 			const cfg_memset_t CYCODE * CYDATA ms = &cfg_memset_list[i];
 411:Generated_Source\PSoC5/cyfitter_cfg.c **** 			CYMEMZERO(ms->address, (size_t)(uint32)(ms->size));
 442              		.loc 1 411 0 discriminator 3
 443 0012 3D49     		ldr	r1, .L36+4
 444 0014 6300     		lsls	r3, r4, #1
 445 0016 1A19     		adds	r2, r3, r4
 446 0018 5200     		lsls	r2, r2, #1
 447 001a 0A44     		add	r2, r2, r1
 448 001c 2344     		add	r3, r3, r4
 449 001e 5B00     		lsls	r3, r3, #1
 450 0020 C858     		ldr	r0, [r1, r3]	@ unaligned
 451 0022 9188     		ldrh	r1, [r2, #4]
 452 0024 FFF7FEFF 		bl	CYMEMZERO
 453              	.LVL35:
 454              	.LBE4:
 408:Generated_Source\PSoC5/cyfitter_cfg.c **** 		{
 455              		.loc 1 408 0 discriminator 3
 456 0028 0134     		adds	r4, r4, #1
 457              	.LVL36:
 458 002a E4B2     		uxtb	r4, r4
ARM GAS  C:\Users\DGILLI~1\AppData\Local\Temp\ccXzsOUp.s 			page 17


 459              	.LVL37:
 460              	.L31:
 408:Generated_Source\PSoC5/cyfitter_cfg.c **** 		{
 461              		.loc 1 408 0 is_stmt 0 discriminator 1
 462 002c 062C     		cmp	r4, #6
 463 002e F0D9     		bls	.L32
 464 0030 0024     		movs	r4, #0
 465              	.LVL38:
 466 0032 0BE0     		b	.L33
 467              	.LVL39:
 468              	.L34:
 469              	.LBB5:
 412:Generated_Source\PSoC5/cyfitter_cfg.c **** 		}
 413:Generated_Source\PSoC5/cyfitter_cfg.c **** 
 414:Generated_Source\PSoC5/cyfitter_cfg.c **** 		/* Copy device configuration data into registers */
 415:Generated_Source\PSoC5/cyfitter_cfg.c **** 		for (i = 0u; i < (sizeof(cfg_memcpy_list)/sizeof(cfg_memcpy_list[0])); i++)
 416:Generated_Source\PSoC5/cyfitter_cfg.c **** 		{
 417:Generated_Source\PSoC5/cyfitter_cfg.c **** 			const cfg_memcpy_t CYCODE * CYDATA mc = &cfg_memcpy_list[i];
 418:Generated_Source\PSoC5/cyfitter_cfg.c **** 			void * CYDATA destPtr = mc->dest;
 470              		.loc 1 418 0 is_stmt 1 discriminator 3
 471 0034 3449     		ldr	r1, .L36+4
 472 0036 A300     		lsls	r3, r4, #2
 473 0038 1A19     		adds	r2, r3, r4
 474 003a 5200     		lsls	r2, r2, #1
 475 003c 0A44     		add	r2, r2, r1
 476              	.LVL40:
 419:Generated_Source\PSoC5/cyfitter_cfg.c **** 			const void * CYDATA srcPtr = mc->src;
 420:Generated_Source\PSoC5/cyfitter_cfg.c **** 			uint16 CYDATA numBytes = mc->size;
 421:Generated_Source\PSoC5/cyfitter_cfg.c **** 			CYCONFIGCPY(destPtr, srcPtr, numBytes);
 477              		.loc 1 421 0 discriminator 3
 478 003e D06A     		ldr	r0, [r2, #44]	@ unaligned
 479              	.LVL41:
 480 0040 116B     		ldr	r1, [r2, #48]	@ unaligned
 481              	.LVL42:
 482 0042 0622     		movs	r2, #6
 483 0044 FFF7FEFF 		bl	CYCONFIGCPY
 484              	.LVL43:
 485              	.LBE5:
 415:Generated_Source\PSoC5/cyfitter_cfg.c **** 		{
 486              		.loc 1 415 0 discriminator 3
 487 0048 0134     		adds	r4, r4, #1
 488              	.LVL44:
 489 004a E4B2     		uxtb	r4, r4
 490              	.LVL45:
 491              	.L33:
 415:Generated_Source\PSoC5/cyfitter_cfg.c **** 		{
 492              		.loc 1 415 0 is_stmt 0 discriminator 1
 493 004c 002C     		cmp	r4, #0
 494 004e F1D0     		beq	.L34
 422:Generated_Source\PSoC5/cyfitter_cfg.c **** 		}
 423:Generated_Source\PSoC5/cyfitter_cfg.c **** 
 424:Generated_Source\PSoC5/cyfitter_cfg.c **** 		cfg_write_bytes32(cy_cfg_addr_table, cy_cfg_data_table);
 495              		.loc 1 424 0 is_stmt 1
 496 0050 4FF09040 		mov	r0, #1207959552
 497 0054 2D49     		ldr	r1, .L36+8
 498 0056 FFF7FEFF 		bl	cfg_write_bytes32
 499              	.LVL46:
ARM GAS  C:\Users\DGILLI~1\AppData\Local\Temp\ccXzsOUp.s 			page 18


 425:Generated_Source\PSoC5/cyfitter_cfg.c **** 
 426:Generated_Source\PSoC5/cyfitter_cfg.c **** 		/* Enable digital routing */
 427:Generated_Source\PSoC5/cyfitter_cfg.c **** 		CY_SET_XTND_REG8((void CYFAR *)CYREG_BCTL0_BANK_CTL, CY_GET_XTND_REG8((void CYFAR *)CYREG_BCTL0_B
 500              		.loc 1 427 0
 501 005a 2D4A     		ldr	r2, .L36+12
 502 005c 1378     		ldrb	r3, [r2]	@ zero_extendqisi2
 503 005e 43F00203 		orr	r3, r3, #2
 504 0062 1370     		strb	r3, [r2]
 428:Generated_Source\PSoC5/cyfitter_cfg.c **** 		CY_SET_XTND_REG8((void CYFAR *)CYREG_BCTL1_BANK_CTL, CY_GET_XTND_REG8((void CYFAR *)CYREG_BCTL1_B
 505              		.loc 1 428 0
 506 0064 1032     		adds	r2, r2, #16
 507 0066 1378     		ldrb	r3, [r2]	@ zero_extendqisi2
 508 0068 43F00203 		orr	r3, r3, #2
 509 006c 1370     		strb	r3, [r2]
 429:Generated_Source\PSoC5/cyfitter_cfg.c **** 
 430:Generated_Source\PSoC5/cyfitter_cfg.c **** 		/* Enable UDB array */
 431:Generated_Source\PSoC5/cyfitter_cfg.c **** 		CY_SET_XTND_REG8((void CYFAR *)CYREG_PM_ACT_CFG0, CY_GET_XTND_REG8((void CYFAR *)CYREG_PM_ACT_CFG
 510              		.loc 1 431 0
 511 006e 294C     		ldr	r4, .L36+16
 512              	.LVL47:
 513 0070 2378     		ldrb	r3, [r4]	@ zero_extendqisi2
 514 0072 43F04003 		orr	r3, r3, #64
 515 0076 2370     		strb	r3, [r4]
 432:Generated_Source\PSoC5/cyfitter_cfg.c **** 		CY_SET_XTND_REG8((void CYFAR *)CYREG_PM_AVAIL_CR2, CY_GET_XTND_REG8((void CYFAR *)CYREG_PM_AVAIL_
 516              		.loc 1 432 0
 517 0078 A2F58632 		sub	r2, r2, #68608
 518 007c 513A     		subs	r2, r2, #81
 519 007e 1378     		ldrb	r3, [r2]	@ zero_extendqisi2
 520 0080 43F01003 		orr	r3, r3, #16
 521 0084 1370     		strb	r3, [r2]
 522              	.LBE3:
 433:Generated_Source\PSoC5/cyfitter_cfg.c **** 	}
 434:Generated_Source\PSoC5/cyfitter_cfg.c **** 
 435:Generated_Source\PSoC5/cyfitter_cfg.c **** 
 436:Generated_Source\PSoC5/cyfitter_cfg.c **** 	/* Perform second pass device configuration. These items must be configured in specific order afte
 437:Generated_Source\PSoC5/cyfitter_cfg.c **** 	CYCONFIGCPY((void CYFAR *)(CYREG_PRT0_DM0), (const void CYFAR *)(BS_IOPINS0_0_VAL), 8u);
 523              		.loc 1 437 0
 524 0086 2448     		ldr	r0, .L36+20
 525 0088 2449     		ldr	r1, .L36+24
 526 008a 0822     		movs	r2, #8
 527 008c FFF7FEFF 		bl	CYCONFIGCPY
 528              	.LVL48:
 438:Generated_Source\PSoC5/cyfitter_cfg.c **** 	CYCONFIGCPY((void CYFAR *)(CYREG_PRT12_DR), (const void CYFAR *)(BS_IOPINS0_7_VAL), 10u);
 529              		.loc 1 438 0
 530 0090 2348     		ldr	r0, .L36+28
 531 0092 2449     		ldr	r1, .L36+32
 532 0094 0A22     		movs	r2, #10
 533 0096 FFF7FEFF 		bl	CYCONFIGCPY
 534              	.LVL49:
 439:Generated_Source\PSoC5/cyfitter_cfg.c **** 	CYCONFIGCPY((void CYFAR *)(CYREG_PRT15_DM0), (const void CYFAR *)(BS_IOPINS0_8_VAL), 8u);
 535              		.loc 1 439 0
 536 009a 2348     		ldr	r0, .L36+36
 537 009c 2349     		ldr	r1, .L36+40
 538 009e 0822     		movs	r2, #8
 539 00a0 FFF7FEFF 		bl	CYCONFIGCPY
 540              	.LVL50:
 440:Generated_Source\PSoC5/cyfitter_cfg.c **** 	CYCONFIGCPY((void CYFAR *)(CYREG_PRT1_DM0), (const void CYFAR *)(BS_IOPINS0_1_VAL), 8u);
ARM GAS  C:\Users\DGILLI~1\AppData\Local\Temp\ccXzsOUp.s 			page 19


 541              		.loc 1 440 0
 542 00a4 2248     		ldr	r0, .L36+44
 543 00a6 2349     		ldr	r1, .L36+48
 544 00a8 0822     		movs	r2, #8
 545 00aa FFF7FEFF 		bl	CYCONFIGCPY
 546              	.LVL51:
 441:Generated_Source\PSoC5/cyfitter_cfg.c **** 	CYCONFIGCPY((void CYFAR *)(CYREG_PRT3_DM0), (const void CYFAR *)(BS_IOPINS0_3_VAL), 8u);
 547              		.loc 1 441 0
 548 00ae 2248     		ldr	r0, .L36+52
 549 00b0 2249     		ldr	r1, .L36+56
 550 00b2 0822     		movs	r2, #8
 551 00b4 FFF7FEFF 		bl	CYCONFIGCPY
 552              	.LVL52:
 442:Generated_Source\PSoC5/cyfitter_cfg.c **** 	CYCONFIGCPY((void CYFAR *)(CYREG_PRT4_DM0), (const void CYFAR *)(BS_IOPINS0_4_VAL), 8u);
 553              		.loc 1 442 0
 554 00b8 2148     		ldr	r0, .L36+60
 555 00ba 2249     		ldr	r1, .L36+64
 556 00bc 0822     		movs	r2, #8
 557 00be FFF7FEFF 		bl	CYCONFIGCPY
 558              	.LVL53:
 443:Generated_Source\PSoC5/cyfitter_cfg.c **** 	CYCONFIGCPY((void CYFAR *)(CYREG_PRT5_DM0), (const void CYFAR *)(BS_IOPINS0_5_VAL), 8u);
 559              		.loc 1 443 0
 560 00c2 2148     		ldr	r0, .L36+68
 561 00c4 2149     		ldr	r1, .L36+72
 562 00c6 0822     		movs	r2, #8
 563 00c8 FFF7FEFF 		bl	CYCONFIGCPY
 564              	.LVL54:
 444:Generated_Source\PSoC5/cyfitter_cfg.c **** 	CYCONFIGCPY((void CYFAR *)(CYREG_PRT6_DR), (const void CYFAR *)(BS_IOPINS0_6_VAL), 10u);
 565              		.loc 1 444 0
 566 00cc 2048     		ldr	r0, .L36+76
 567 00ce 2149     		ldr	r1, .L36+80
 568 00d0 0A22     		movs	r2, #10
 569 00d2 FFF7FEFF 		bl	CYCONFIGCPY
 570              	.LVL55:
 445:Generated_Source\PSoC5/cyfitter_cfg.c **** 	/* Switch Boost to the precision bandgap reference from its internal reference */
 446:Generated_Source\PSoC5/cyfitter_cfg.c **** 	CY_SET_REG8((void CYXDATA *)CYREG_BOOST_CR2, (CY_GET_REG8((void CYXDATA *)CYREG_BOOST_CR2) | 0x08u
 571              		.loc 1 446 0
 572 00d6 204A     		ldr	r2, .L36+84
 573 00d8 1378     		ldrb	r3, [r2]	@ zero_extendqisi2
 574 00da 43F00803 		orr	r3, r3, #8
 575 00de 1370     		strb	r3, [r2]
 447:Generated_Source\PSoC5/cyfitter_cfg.c **** 
 448:Generated_Source\PSoC5/cyfitter_cfg.c **** 	/* Set Flash Cycles based on max possible frequency in case a glitch occurs during ClockSetup(). *
 449:Generated_Source\PSoC5/cyfitter_cfg.c **** 	CY_SET_XTND_REG8((void CYFAR *)(CYREG_CACHE_CC_CTL), (((CYDEV_INSTRUCT_CACHE_ENABLED) != 0) ? 0x01
 576              		.loc 1 449 0
 577 00e0 1E4E     		ldr	r6, .L36+88
 578 00e2 0125     		movs	r5, #1
 579 00e4 3570     		strb	r5, [r6]
 450:Generated_Source\PSoC5/cyfitter_cfg.c **** 	/* Setup clocks based on selections from Clock DWR */
 451:Generated_Source\PSoC5/cyfitter_cfg.c **** 	ClockSetup();
 580              		.loc 1 451 0
 581 00e6 FFF7FEFF 		bl	ClockSetup
 582              	.LVL56:
 452:Generated_Source\PSoC5/cyfitter_cfg.c **** 	/* Set Flash Cycles based on newly configured 24.00MHz Bus Clock. */
 453:Generated_Source\PSoC5/cyfitter_cfg.c **** 	CY_SET_XTND_REG8((void CYFAR *)(CYREG_CACHE_CC_CTL), (((CYDEV_INSTRUCT_CACHE_ENABLED) != 0) ? 0x81
 583              		.loc 1 453 0
 584 00ea 8123     		movs	r3, #129
ARM GAS  C:\Users\DGILLI~1\AppData\Local\Temp\ccXzsOUp.s 			page 20


 585 00ec 3370     		strb	r3, [r6]
 454:Generated_Source\PSoC5/cyfitter_cfg.c **** 	CY_SET_XTND_REG8((void CYFAR *)(CYREG_PANTHER_WAITPIPE), 0x01u);
 586              		.loc 1 454 0
 587 00ee 1C4B     		ldr	r3, .L36+92
 588 00f0 1D70     		strb	r5, [r3]
 455:Generated_Source\PSoC5/cyfitter_cfg.c **** 
 456:Generated_Source\PSoC5/cyfitter_cfg.c **** 	/* Perform basic analog initialization to defaults */
 457:Generated_Source\PSoC5/cyfitter_cfg.c **** 	AnalogSetDefault();
 589              		.loc 1 457 0
 590 00f2 FFF7FEFF 		bl	AnalogSetDefault
 591              	.LVL57:
 458:Generated_Source\PSoC5/cyfitter_cfg.c **** 
 459:Generated_Source\PSoC5/cyfitter_cfg.c **** 	/* Configure alternate active mode */
 460:Generated_Source\PSoC5/cyfitter_cfg.c **** 	CYCONFIGCPY((void CYFAR *)CYDEV_PM_STBY_BASE, (const void CYFAR *)CYDEV_PM_ACT_BASE, 14u);
 592              		.loc 1 460 0
 593 00f6 1B48     		ldr	r0, .L36+96
 594 00f8 2146     		mov	r1, r4
 595 00fa 0E22     		movs	r2, #14
 596 00fc FFF7FEFF 		bl	CYCONFIGCPY
 597              	.LVL58:
 598 0100 70BD     		pop	{r4, r5, r6, pc}
 599              	.L37:
 600 0102 00BF     		.align	2
 601              	.L36:
 602 0104 E8460040 		.word	1073759976
 603 0108 00000000 		.word	.LANCHOR0
 604 010c 80000048 		.word	1207959680
 605 0110 03500140 		.word	1073827843
 606 0114 A0430040 		.word	1073759136
 607 0118 02510040 		.word	1073762562
 608 011c CC060048 		.word	1207961292
 609 0120 C0510040 		.word	1073762752
 610 0124 D4060048 		.word	1207961300
 611 0128 F2510040 		.word	1073762802
 612 012c E0060048 		.word	1207961312
 613 0130 12510040 		.word	1073762578
 614 0134 E8060048 		.word	1207961320
 615 0138 32510040 		.word	1073762610
 616 013c F0060048 		.word	1207961328
 617 0140 42510040 		.word	1073762626
 618 0144 F8060048 		.word	1207961336
 619 0148 52510040 		.word	1073762642
 620 014c 00070048 		.word	1207961344
 621 0150 60510040 		.word	1073762656
 622 0154 08070048 		.word	1207961352
 623 0158 22430040 		.word	1073759010
 624 015c 00480040 		.word	1073760256
 625 0160 04000840 		.word	1074266116
 626 0164 B0430040 		.word	1073759152
 627              		.cfi_endproc
 628              	.LFE8:
 629              		.size	cyfitter_cfg, .-cyfitter_cfg
 630              		.section	.rodata
 631              		.align	2
 632              		.set	.LANCHOR0,. + 0
 633              		.type	cfg_memset_list.4888, %object
 634              		.size	cfg_memset_list.4888, 42
ARM GAS  C:\Users\DGILLI~1\AppData\Local\Temp\ccXzsOUp.s 			page 21


 635              	cfg_memset_list.4888:
 636 0000 C8490040 		.word	1073760712
 637 0004 1900     		.short	25
 638 0006 20510040 		.4byte	1073762592
 639 000a 1000     		.short	16
 640 000c 00000140 		.word	1073807360
 641 0010 0010     		.short	4096
 642 0012 00140140 		.4byte	1073812480
 643 0016 0008     		.short	2048
 644 0018 00400140 		.word	1073823744
 645 001c 000A     		.short	2560
 646 001e 004C0140 		.4byte	1073826816
 647 0022 0002     		.short	512
 648 0024 00500140 		.word	1073827840
 649 0028 2000     		.short	32
 650 002a 0000     		.space	2
 651              		.type	cfg_memcpy_list.4889, %object
 652              		.size	cfg_memcpy_list.4889, 10
 653              	cfg_memcpy_list.4889:
 654 002c 60520040 		.word	1073762912
 655 0030 C4060048 		.word	1207961284
 656 0034 0600     		.short	6
 657 0036 0000     		.text
 658              	.Letext0:
 659              		.file 2 "c:\\program files (x86)\\cypress\\psoc creator\\4.0\\psoc creator\\import\\gnu\\arm\\4.9.
 660              		.file 3 "Generated_Source\\PSoC5\\cytypes.h"
 661              		.file 4 "Generated_Source\\PSoC5\\CyLib.h"