ARM GAS  C:\Users\DGILLI~1\AppData\Local\Temp\ccGJDzpl.s 			page 1


   1              		.syntax unified
   2              		.cpu cortex-m3
   3              		.fpu softvfp
   4              		.eabi_attribute 20, 1
   5              		.eabi_attribute 21, 1
   6              		.eabi_attribute 23, 3
   7              		.eabi_attribute 24, 1
   8              		.eabi_attribute 25, 1
   9              		.eabi_attribute 26, 1
  10              		.eabi_attribute 30, 1
  11              		.eabi_attribute 34, 1
  12              		.eabi_attribute 18, 4
  13              		.thumb
  14              		.file	"main.c"
  15              		.text
  16              	.Ltext0:
  17              		.cfi_sections	.debug_frame
  18              		.section	.text.toggleOnBoardLED,"ax",%progbits
  19              		.align	2
  20              		.global	toggleOnBoardLED
  21              		.thumb
  22              		.thumb_func
  23              		.type	toggleOnBoardLED, %function
  24              	toggleOnBoardLED:
  25              	.LFB63:
  26              		.file 1 "main.c"
   1:main.c        **** /* ========================================
   2:main.c        ****  *
   3:main.c        ****  * Copyright Land Boards, LLC, 2016
   4:main.c        ****  * All Rights Reserved
   5:main.c        ****  * UNPUBLISHED, LICENSED SOFTWARE.
   6:main.c        ****  *
   7:main.c        ****  * CONFIDENTIAL AND PROPRIETARY INFORMATION
   8:main.c        ****  * WHICH IS THE PROPERTY OF your company.
   9:main.c        ****  *
  10:main.c        ****  * ========================================
  11:main.c        **** */
  12:main.c        **** 
  13:main.c        **** #include <project.h>
  14:main.c        **** 
  15:main.c        **** // Prototypes
  16:main.c        **** 
  17:main.c        **** void initDIGIO8Card(void);
  18:main.c        **** void writeDIGIO8Card(uint8 outData);
  19:main.c        **** uint8 readDIGIO8Card(void);
  20:main.c        **** 
  21:main.c        **** uint8 ledVal;
  22:main.c        **** 
  23:main.c        **** void toggleOnBoardLED(void)
  24:main.c        **** {
  27              		.loc 1 24 0
  28              		.cfi_startproc
  29              		@ args = 0, pretend = 0, frame = 0
  30              		@ frame_needed = 0, uses_anonymous_args = 0
  31 0000 08B5     		push	{r3, lr}
  32              		.cfi_def_cfa_offset 8
  33              		.cfi_offset 3, -8
ARM GAS  C:\Users\DGILLI~1\AppData\Local\Temp\ccGJDzpl.s 			page 2


  34              		.cfi_offset 14, -4
  25:main.c        ****     LED_Write(1);
  35              		.loc 1 25 0
  36 0002 0120     		movs	r0, #1
  37 0004 FFF7FEFF 		bl	LED_Write
  38              	.LVL0:
  26:main.c        ****     CyDelay(10);
  39              		.loc 1 26 0
  40 0008 0A20     		movs	r0, #10
  41 000a FFF7FEFF 		bl	CyDelay
  42              	.LVL1:
  27:main.c        ****     LED_Write(0);
  43              		.loc 1 27 0
  44 000e 0020     		movs	r0, #0
  45 0010 FFF7FEFF 		bl	LED_Write
  46              	.LVL2:
  28:main.c        ****     CyDelay(10);
  47              		.loc 1 28 0
  48 0014 0A20     		movs	r0, #10
  49 0016 FFF7FEFF 		bl	CyDelay
  50              	.LVL3:
  51 001a 08BD     		pop	{r3, pc}
  52              		.cfi_endproc
  53              	.LFE63:
  54              		.size	toggleOnBoardLED, .-toggleOnBoardLED
  55              		.section	.text.main,"ax",%progbits
  56              		.align	2
  57              		.global	main
  58              		.thumb
  59              		.thumb_func
  60              		.type	main, %function
  61              	main:
  62              	.LFB64:
  29:main.c        **** }
  30:main.c        **** 
  31:main.c        **** int main()
  32:main.c        **** {
  63              		.loc 1 32 0
  64              		.cfi_startproc
  65              		@ args = 0, pretend = 0, frame = 0
  66              		@ frame_needed = 0, uses_anonymous_args = 0
  67 0000 10B5     		push	{r4, lr}
  68              		.cfi_def_cfa_offset 8
  69              		.cfi_offset 4, -8
  70              		.cfi_offset 14, -4
  71              	.LVL4:
  33:main.c        ****     uint8 myReadVal=0x55;
  34:main.c        ****     CyGlobalIntEnable; /* Enable global interrupts. */
  72              		.loc 1 34 0
  73              	@ 34 "main.c" 1
  74 0002 62B6     		CPSIE   i
  75              	@ 0 "" 2
  35:main.c        ****     initDIGIO8Card();
  76              		.loc 1 35 0
  77              		.thumb
  78 0004 FFF7FEFF 		bl	initDIGIO8Card
  79              	.LVL5:
ARM GAS  C:\Users\DGILLI~1\AppData\Local\Temp\ccGJDzpl.s 			page 3


  36:main.c        ****     CyDelay(500);
  80              		.loc 1 36 0
  81 0008 4FF4FA70 		mov	r0, #500
  82 000c FFF7FEFF 		bl	CyDelay
  83              	.LVL6:
  84              	.L4:
  37:main.c        ****     for(;;)
  38:main.c        ****     {
  39:main.c        ****         myReadVal = readDIGIO8Card();
  85              		.loc 1 39 0 discriminator 1
  86 0010 FFF7FEFF 		bl	readDIGIO8Card
  87              	.LVL7:
  88 0014 0446     		mov	r4, r0
  89              	.LVL8:
  40:main.c        ****         //toggleOnBoardLED();
  41:main.c        ****         Control_Reg_1_Write(myReadVal);
  90              		.loc 1 41 0 discriminator 1
  91 0016 FFF7FEFF 		bl	Control_Reg_1_Write
  92              	.LVL9:
  42:main.c        ****         //toggleOnBoardLED();
  43:main.c        ****         writeDIGIO8Card(myReadVal);
  93              		.loc 1 43 0 discriminator 1
  94 001a 2046     		mov	r0, r4
  95 001c FFF7FEFF 		bl	writeDIGIO8Card
  96              	.LVL10:
  44:main.c        ****         myReadVal ^= 0x0f;
  45:main.c        ****         //toggleOnBoardLED();
  46:main.c        ****     }
  97              		.loc 1 46 0 discriminator 1
  98 0020 F6E7     		b	.L4
  99              		.cfi_endproc
 100              	.LFE64:
 101              		.size	main, .-main
 102              		.comm	ledVal,1,1
 103 0022 00BF     		.text
 104              	.Letext0:
 105              		.file 2 "c:\\program files (x86)\\cypress\\psoc creator\\4.0\\psoc creator\\import\\gnu\\arm\\4.9.
 106              		.file 3 "c:\\program files (x86)\\cypress\\psoc creator\\4.0\\psoc creator\\import\\gnu\\arm\\4.9.
 107              		.file 4 "Generated_Source\\PSoC5/cytypes.h"
 108              		.file 5 "Generated_Source\\PSoC5/core_cm3.h"
 109              		.file 6 "Generated_Source\\PSoC5/LED.h"
 110              		.file 7 "Generated_Source\\PSoC5/CyLib.h"
 111              		.file 8 "Generated_Source\\PSoC5/Control_Reg_1.h"