ARM GAS  C:\Users\DGILLI~1\AppData\Local\Temp\cchCzDtg.s 			page 1


   1              		.syntax unified
   2              		.cpu cortex-m3
   3              		.fpu softvfp
   4              		.eabi_attribute 20, 1
   5              		.eabi_attribute 21, 1
   6              		.eabi_attribute 23, 3
   7              		.eabi_attribute 24, 1
   8              		.eabi_attribute 25, 1
   9              		.eabi_attribute 26, 1
  10              		.eabi_attribute 30, 1
  11              		.eabi_attribute 34, 1
  12              		.eabi_attribute 18, 4
  13              		.thumb
  14              		.file	"cyfitter_cfg.c"
  15              		.text
  16              	.Ltext0:
  17              		.cfi_sections	.debug_frame
  18              		.section	.text.CyClockStartupError,"ax",%progbits
  19              		.align	2
  20              		.thumb
  21              		.thumb_func
  22              		.type	CyClockStartupError, %function
  23              	CyClockStartupError:
  24              	.LFB3:
  25              		.file 1 "Generated_Source\\PSoC5\\cyfitter_cfg.c"
   1:Generated_Source\PSoC5/cyfitter_cfg.c **** /*******************************************************************************
   2:Generated_Source\PSoC5/cyfitter_cfg.c **** * File Name: cyfitter_cfg.c
   3:Generated_Source\PSoC5/cyfitter_cfg.c **** * 
   4:Generated_Source\PSoC5/cyfitter_cfg.c **** * PSoC Creator  4.0
   5:Generated_Source\PSoC5/cyfitter_cfg.c **** *
   6:Generated_Source\PSoC5/cyfitter_cfg.c **** * Description:
   7:Generated_Source\PSoC5/cyfitter_cfg.c **** * This file contains device initialization code.
   8:Generated_Source\PSoC5/cyfitter_cfg.c **** * Except for the user defined sections in CyClockStartupError(), this file should not be modified.
   9:Generated_Source\PSoC5/cyfitter_cfg.c **** * This file is automatically generated by PSoC Creator.
  10:Generated_Source\PSoC5/cyfitter_cfg.c **** *
  11:Generated_Source\PSoC5/cyfitter_cfg.c **** ********************************************************************************
  12:Generated_Source\PSoC5/cyfitter_cfg.c **** * Copyright (c) 2007-2016 Cypress Semiconductor.  All rights reserved.
  13:Generated_Source\PSoC5/cyfitter_cfg.c **** * You may use this file only in accordance with the license, terms, conditions, 
  14:Generated_Source\PSoC5/cyfitter_cfg.c **** * disclaimers, and limitations in the end user license agreement accompanying 
  15:Generated_Source\PSoC5/cyfitter_cfg.c **** * the software package with which this file was provided.
  16:Generated_Source\PSoC5/cyfitter_cfg.c **** ********************************************************************************/
  17:Generated_Source\PSoC5/cyfitter_cfg.c **** 
  18:Generated_Source\PSoC5/cyfitter_cfg.c **** #include <string.h>
  19:Generated_Source\PSoC5/cyfitter_cfg.c **** #include "cytypes.h"
  20:Generated_Source\PSoC5/cyfitter_cfg.c **** #include "cydevice_trm.h"
  21:Generated_Source\PSoC5/cyfitter_cfg.c **** #include "cyfitter.h"
  22:Generated_Source\PSoC5/cyfitter_cfg.c **** #include "CyLib.h"
  23:Generated_Source\PSoC5/cyfitter_cfg.c **** #include "cyfitter_cfg.h"
  24:Generated_Source\PSoC5/cyfitter_cfg.c **** #include "cyapicallbacks.h"
  25:Generated_Source\PSoC5/cyfitter_cfg.c **** 
  26:Generated_Source\PSoC5/cyfitter_cfg.c **** #define CY_NEED_CYCLOCKSTARTUPERROR 1
  27:Generated_Source\PSoC5/cyfitter_cfg.c **** 
  28:Generated_Source\PSoC5/cyfitter_cfg.c **** 
  29:Generated_Source\PSoC5/cyfitter_cfg.c **** #if defined(__GNUC__) || defined(__ARMCC_VERSION)
  30:Generated_Source\PSoC5/cyfitter_cfg.c ****     #define CYPACKED 
  31:Generated_Source\PSoC5/cyfitter_cfg.c ****     #define CYPACKED_ATTR __attribute__ ((packed))
  32:Generated_Source\PSoC5/cyfitter_cfg.c ****     #define CYALIGNED __attribute__ ((aligned))
ARM GAS  C:\Users\DGILLI~1\AppData\Local\Temp\cchCzDtg.s 			page 2


  33:Generated_Source\PSoC5/cyfitter_cfg.c ****     #define CY_CFG_UNUSED __attribute__ ((unused))
  34:Generated_Source\PSoC5/cyfitter_cfg.c ****     #ifndef CY_CFG_SECTION
  35:Generated_Source\PSoC5/cyfitter_cfg.c ****         #define CY_CFG_SECTION __attribute__ ((section(".psocinit")))
  36:Generated_Source\PSoC5/cyfitter_cfg.c ****     #endif
  37:Generated_Source\PSoC5/cyfitter_cfg.c ****     
  38:Generated_Source\PSoC5/cyfitter_cfg.c ****     #if defined(__ARMCC_VERSION)
  39:Generated_Source\PSoC5/cyfitter_cfg.c ****         #define CY_CFG_MEMORY_BARRIER() __memory_changed()
  40:Generated_Source\PSoC5/cyfitter_cfg.c ****     #else
  41:Generated_Source\PSoC5/cyfitter_cfg.c ****         #define CY_CFG_MEMORY_BARRIER() __sync_synchronize()
  42:Generated_Source\PSoC5/cyfitter_cfg.c ****     #endif
  43:Generated_Source\PSoC5/cyfitter_cfg.c ****     
  44:Generated_Source\PSoC5/cyfitter_cfg.c **** #elif defined(__ICCARM__)
  45:Generated_Source\PSoC5/cyfitter_cfg.c ****     #include <intrinsics.h>
  46:Generated_Source\PSoC5/cyfitter_cfg.c **** 
  47:Generated_Source\PSoC5/cyfitter_cfg.c ****     #define CYPACKED __packed
  48:Generated_Source\PSoC5/cyfitter_cfg.c ****     #define CYPACKED_ATTR 
  49:Generated_Source\PSoC5/cyfitter_cfg.c ****     #define CYALIGNED _Pragma("data_alignment=4")
  50:Generated_Source\PSoC5/cyfitter_cfg.c ****     #define CY_CFG_UNUSED _Pragma("diag_suppress=Pe177")
  51:Generated_Source\PSoC5/cyfitter_cfg.c ****     #define CY_CFG_SECTION _Pragma("location=\".psocinit\"")
  52:Generated_Source\PSoC5/cyfitter_cfg.c ****     
  53:Generated_Source\PSoC5/cyfitter_cfg.c ****     #define CY_CFG_MEMORY_BARRIER() __DMB()
  54:Generated_Source\PSoC5/cyfitter_cfg.c ****     
  55:Generated_Source\PSoC5/cyfitter_cfg.c **** #else
  56:Generated_Source\PSoC5/cyfitter_cfg.c ****     #error Unsupported toolchain
  57:Generated_Source\PSoC5/cyfitter_cfg.c **** #endif
  58:Generated_Source\PSoC5/cyfitter_cfg.c **** 
  59:Generated_Source\PSoC5/cyfitter_cfg.c **** 
  60:Generated_Source\PSoC5/cyfitter_cfg.c **** CY_CFG_UNUSED
  61:Generated_Source\PSoC5/cyfitter_cfg.c **** static void CYMEMZERO(void *s, size_t n);
  62:Generated_Source\PSoC5/cyfitter_cfg.c **** CY_CFG_UNUSED
  63:Generated_Source\PSoC5/cyfitter_cfg.c **** static void CYMEMZERO(void *s, size_t n)
  64:Generated_Source\PSoC5/cyfitter_cfg.c **** {
  65:Generated_Source\PSoC5/cyfitter_cfg.c **** 	(void)memset(s, 0, n);
  66:Generated_Source\PSoC5/cyfitter_cfg.c **** }
  67:Generated_Source\PSoC5/cyfitter_cfg.c **** CY_CFG_UNUSED
  68:Generated_Source\PSoC5/cyfitter_cfg.c **** static void CYCONFIGCPY(void *dest, const void *src, size_t n);
  69:Generated_Source\PSoC5/cyfitter_cfg.c **** CY_CFG_UNUSED
  70:Generated_Source\PSoC5/cyfitter_cfg.c **** static void CYCONFIGCPY(void *dest, const void *src, size_t n)
  71:Generated_Source\PSoC5/cyfitter_cfg.c **** {
  72:Generated_Source\PSoC5/cyfitter_cfg.c **** 	(void)memcpy(dest, src, n);
  73:Generated_Source\PSoC5/cyfitter_cfg.c **** }
  74:Generated_Source\PSoC5/cyfitter_cfg.c **** CY_CFG_UNUSED
  75:Generated_Source\PSoC5/cyfitter_cfg.c **** static void CYCONFIGCPYCODE(void *dest, const void *src, size_t n);
  76:Generated_Source\PSoC5/cyfitter_cfg.c **** CY_CFG_UNUSED
  77:Generated_Source\PSoC5/cyfitter_cfg.c **** static void CYCONFIGCPYCODE(void *dest, const void *src, size_t n)
  78:Generated_Source\PSoC5/cyfitter_cfg.c **** {
  79:Generated_Source\PSoC5/cyfitter_cfg.c **** 	(void)memcpy(dest, src, n);
  80:Generated_Source\PSoC5/cyfitter_cfg.c **** }
  81:Generated_Source\PSoC5/cyfitter_cfg.c **** 
  82:Generated_Source\PSoC5/cyfitter_cfg.c **** 
  83:Generated_Source\PSoC5/cyfitter_cfg.c **** 
  84:Generated_Source\PSoC5/cyfitter_cfg.c **** 
  85:Generated_Source\PSoC5/cyfitter_cfg.c **** /* Clock startup error codes                                                   */
  86:Generated_Source\PSoC5/cyfitter_cfg.c **** #define CYCLOCKSTART_NO_ERROR    0u
  87:Generated_Source\PSoC5/cyfitter_cfg.c **** #define CYCLOCKSTART_XTAL_ERROR  1u
  88:Generated_Source\PSoC5/cyfitter_cfg.c **** #define CYCLOCKSTART_32KHZ_ERROR 2u
  89:Generated_Source\PSoC5/cyfitter_cfg.c **** #define CYCLOCKSTART_PLL_ERROR   3u
ARM GAS  C:\Users\DGILLI~1\AppData\Local\Temp\cchCzDtg.s 			page 3


  90:Generated_Source\PSoC5/cyfitter_cfg.c **** 
  91:Generated_Source\PSoC5/cyfitter_cfg.c **** 
  92:Generated_Source\PSoC5/cyfitter_cfg.c **** #ifdef CY_NEED_CYCLOCKSTARTUPERROR
  93:Generated_Source\PSoC5/cyfitter_cfg.c **** /*******************************************************************************
  94:Generated_Source\PSoC5/cyfitter_cfg.c **** * Function Name: CyClockStartupError
  95:Generated_Source\PSoC5/cyfitter_cfg.c **** ********************************************************************************
  96:Generated_Source\PSoC5/cyfitter_cfg.c **** * Summary:
  97:Generated_Source\PSoC5/cyfitter_cfg.c **** *  If an error is encountered during clock configuration (crystal startup error,
  98:Generated_Source\PSoC5/cyfitter_cfg.c **** *  PLL lock error, etc.), the system will end up here.  Unless reimplemented by
  99:Generated_Source\PSoC5/cyfitter_cfg.c **** *  the customer, this function will stop in an infinite loop.
 100:Generated_Source\PSoC5/cyfitter_cfg.c **** *
 101:Generated_Source\PSoC5/cyfitter_cfg.c **** * Parameters:
 102:Generated_Source\PSoC5/cyfitter_cfg.c **** *   void
 103:Generated_Source\PSoC5/cyfitter_cfg.c **** *
 104:Generated_Source\PSoC5/cyfitter_cfg.c **** * Return:
 105:Generated_Source\PSoC5/cyfitter_cfg.c **** *   void
 106:Generated_Source\PSoC5/cyfitter_cfg.c **** *
 107:Generated_Source\PSoC5/cyfitter_cfg.c **** *******************************************************************************/
 108:Generated_Source\PSoC5/cyfitter_cfg.c **** CY_CFG_UNUSED
 109:Generated_Source\PSoC5/cyfitter_cfg.c **** static void CyClockStartupError(uint8 errorCode);
 110:Generated_Source\PSoC5/cyfitter_cfg.c **** CY_CFG_UNUSED
 111:Generated_Source\PSoC5/cyfitter_cfg.c **** static void CyClockStartupError(uint8 errorCode)
 112:Generated_Source\PSoC5/cyfitter_cfg.c **** {
  26              		.loc 1 112 0
  27              		.cfi_startproc
  28              		@ Volatile: function does not return.
  29              		@ args = 0, pretend = 0, frame = 0
  30              		@ frame_needed = 0, uses_anonymous_args = 0
  31              		@ link register save eliminated.
  32              	.LVL0:
  33              	.L2:
 113:Generated_Source\PSoC5/cyfitter_cfg.c ****     /* To remove the compiler warning if errorCode not used.                */
 114:Generated_Source\PSoC5/cyfitter_cfg.c ****     errorCode = errorCode;
 115:Generated_Source\PSoC5/cyfitter_cfg.c **** 
 116:Generated_Source\PSoC5/cyfitter_cfg.c ****     /* If we have a clock startup error (bad MHz crystal, PLL lock, etc.),  */
 117:Generated_Source\PSoC5/cyfitter_cfg.c ****     /* we will end up here to allow the customer to implement something to  */
 118:Generated_Source\PSoC5/cyfitter_cfg.c ****     /* deal with the clock condition.                                       */
 119:Generated_Source\PSoC5/cyfitter_cfg.c **** 
 120:Generated_Source\PSoC5/cyfitter_cfg.c **** #ifdef CY_CFG_CLOCK_STARTUP_ERROR_CALLBACK
 121:Generated_Source\PSoC5/cyfitter_cfg.c **** 	CY_CFG_Clock_Startup_ErrorCallback();
 122:Generated_Source\PSoC5/cyfitter_cfg.c **** #else
 123:Generated_Source\PSoC5/cyfitter_cfg.c **** 	/*  If not using CY_CFG_CLOCK_STARTUP_ERROR_CALLBACK, place your clock startup code here. */
 124:Generated_Source\PSoC5/cyfitter_cfg.c ****     /* `#START CyClockStartupError` */
 125:Generated_Source\PSoC5/cyfitter_cfg.c **** 
 126:Generated_Source\PSoC5/cyfitter_cfg.c **** 
 127:Generated_Source\PSoC5/cyfitter_cfg.c **** 
 128:Generated_Source\PSoC5/cyfitter_cfg.c ****     /* `#END` */
 129:Generated_Source\PSoC5/cyfitter_cfg.c **** 
 130:Generated_Source\PSoC5/cyfitter_cfg.c ****     /* If nothing else, stop here since the clocks have not started         */
 131:Generated_Source\PSoC5/cyfitter_cfg.c ****     /* correctly.                                                           */
 132:Generated_Source\PSoC5/cyfitter_cfg.c ****     while(1) {}
  34              		.loc 1 132 0 discriminator 1
  35 0000 FEE7     		b	.L2
  36              		.cfi_endproc
  37              	.LFE3:
  38              		.size	CyClockStartupError, .-CyClockStartupError
  39 0002 00BF     		.section	.text.cfg_write_bytes32,"ax",%progbits
ARM GAS  C:\Users\DGILLI~1\AppData\Local\Temp\cchCzDtg.s 			page 4


  40              		.align	2
  41              		.thumb
  42              		.thumb_func
  43              		.type	cfg_write_bytes32, %function
  44              	cfg_write_bytes32:
  45              	.LFB4:
 133:Generated_Source\PSoC5/cyfitter_cfg.c **** #endif /* CY_CFG_CLOCK_STARTUP_ERROR_CALLBACK */ 
 134:Generated_Source\PSoC5/cyfitter_cfg.c **** }
 135:Generated_Source\PSoC5/cyfitter_cfg.c **** #endif
 136:Generated_Source\PSoC5/cyfitter_cfg.c **** 
 137:Generated_Source\PSoC5/cyfitter_cfg.c **** #define CY_CFG_BASE_ADDR_COUNT 27u
 138:Generated_Source\PSoC5/cyfitter_cfg.c **** CYPACKED typedef struct
 139:Generated_Source\PSoC5/cyfitter_cfg.c **** {
 140:Generated_Source\PSoC5/cyfitter_cfg.c **** 	uint8 offset;
 141:Generated_Source\PSoC5/cyfitter_cfg.c **** 	uint8 value;
 142:Generated_Source\PSoC5/cyfitter_cfg.c **** } CYPACKED_ATTR cy_cfg_addrvalue_t;
 143:Generated_Source\PSoC5/cyfitter_cfg.c **** 
 144:Generated_Source\PSoC5/cyfitter_cfg.c **** #define cy_cfg_addr_table ((const uint32 CYFAR *)0x48000000u)
 145:Generated_Source\PSoC5/cyfitter_cfg.c **** #define cy_cfg_data_table ((const cy_cfg_addrvalue_t CYFAR *)0x4800006Cu)
 146:Generated_Source\PSoC5/cyfitter_cfg.c **** 
 147:Generated_Source\PSoC5/cyfitter_cfg.c **** /* IOPINS0_0 Address: CYREG_PRT0_DR Size (bytes): 10 */
 148:Generated_Source\PSoC5/cyfitter_cfg.c **** #define BS_IOPINS0_0_VAL ((const uint8 CYFAR *)0x480006A8u)
 149:Generated_Source\PSoC5/cyfitter_cfg.c **** 
 150:Generated_Source\PSoC5/cyfitter_cfg.c **** /* IOPINS0_7 Address: CYREG_PRT12_DM0 Size (bytes): 8 */
 151:Generated_Source\PSoC5/cyfitter_cfg.c **** #define BS_IOPINS0_7_VAL ((const uint8 CYFAR *)0x480006B4u)
 152:Generated_Source\PSoC5/cyfitter_cfg.c **** 
 153:Generated_Source\PSoC5/cyfitter_cfg.c **** /* IOPINS0_8 Address: CYREG_PRT15_DR Size (bytes): 10 */
 154:Generated_Source\PSoC5/cyfitter_cfg.c **** #define BS_IOPINS0_8_VAL ((const uint8 CYFAR *)0x480006BCu)
 155:Generated_Source\PSoC5/cyfitter_cfg.c **** 
 156:Generated_Source\PSoC5/cyfitter_cfg.c **** /* IOPINS0_1 Address: CYREG_PRT1_DM0 Size (bytes): 8 */
 157:Generated_Source\PSoC5/cyfitter_cfg.c **** #define BS_IOPINS0_1_VAL ((const uint8 CYFAR *)0x480006C8u)
 158:Generated_Source\PSoC5/cyfitter_cfg.c **** 
 159:Generated_Source\PSoC5/cyfitter_cfg.c **** /* IOPINS0_2 Address: CYREG_PRT2_DM0 Size (bytes): 8 */
 160:Generated_Source\PSoC5/cyfitter_cfg.c **** #define BS_IOPINS0_2_VAL ((const uint8 CYFAR *)0x480006D0u)
 161:Generated_Source\PSoC5/cyfitter_cfg.c **** 
 162:Generated_Source\PSoC5/cyfitter_cfg.c **** /* IOPINS0_3 Address: CYREG_PRT3_DR Size (bytes): 10 */
 163:Generated_Source\PSoC5/cyfitter_cfg.c **** #define BS_IOPINS0_3_VAL ((const uint8 CYFAR *)0x480006D8u)
 164:Generated_Source\PSoC5/cyfitter_cfg.c **** 
 165:Generated_Source\PSoC5/cyfitter_cfg.c **** /* IOPINS0_4 Address: CYREG_PRT4_DR Size (bytes): 10 */
 166:Generated_Source\PSoC5/cyfitter_cfg.c **** #define BS_IOPINS0_4_VAL ((const uint8 CYFAR *)0x480006E4u)
 167:Generated_Source\PSoC5/cyfitter_cfg.c **** 
 168:Generated_Source\PSoC5/cyfitter_cfg.c **** /* IOPINS0_5 Address: CYREG_PRT5_DM0 Size (bytes): 8 */
 169:Generated_Source\PSoC5/cyfitter_cfg.c **** #define BS_IOPINS0_5_VAL ((const uint8 CYFAR *)0x480006F0u)
 170:Generated_Source\PSoC5/cyfitter_cfg.c **** 
 171:Generated_Source\PSoC5/cyfitter_cfg.c **** /* IOPINS0_6 Address: CYREG_PRT6_DM0 Size (bytes): 8 */
 172:Generated_Source\PSoC5/cyfitter_cfg.c **** #define BS_IOPINS0_6_VAL ((const uint8 CYFAR *)0x480006F8u)
 173:Generated_Source\PSoC5/cyfitter_cfg.c **** 
 174:Generated_Source\PSoC5/cyfitter_cfg.c **** 
 175:Generated_Source\PSoC5/cyfitter_cfg.c **** /*******************************************************************************
 176:Generated_Source\PSoC5/cyfitter_cfg.c **** * Function Name: cfg_write_bytes32
 177:Generated_Source\PSoC5/cyfitter_cfg.c **** ********************************************************************************
 178:Generated_Source\PSoC5/cyfitter_cfg.c **** * Summary:
 179:Generated_Source\PSoC5/cyfitter_cfg.c **** *  This function is used for setting up the chip configuration areas that
 180:Generated_Source\PSoC5/cyfitter_cfg.c **** *  contain relatively sparse data.
 181:Generated_Source\PSoC5/cyfitter_cfg.c **** *
 182:Generated_Source\PSoC5/cyfitter_cfg.c **** * Parameters:
 183:Generated_Source\PSoC5/cyfitter_cfg.c **** *   void
ARM GAS  C:\Users\DGILLI~1\AppData\Local\Temp\cchCzDtg.s 			page 5


 184:Generated_Source\PSoC5/cyfitter_cfg.c **** *
 185:Generated_Source\PSoC5/cyfitter_cfg.c **** * Return:
 186:Generated_Source\PSoC5/cyfitter_cfg.c **** *   void
 187:Generated_Source\PSoC5/cyfitter_cfg.c **** *
 188:Generated_Source\PSoC5/cyfitter_cfg.c **** *******************************************************************************/
 189:Generated_Source\PSoC5/cyfitter_cfg.c **** static void cfg_write_bytes32(const uint32 addr_table[], const cy_cfg_addrvalue_t data_table[]);
 190:Generated_Source\PSoC5/cyfitter_cfg.c **** static void cfg_write_bytes32(const uint32 addr_table[], const cy_cfg_addrvalue_t data_table[])
 191:Generated_Source\PSoC5/cyfitter_cfg.c **** {
  46              		.loc 1 191 0
  47              		.cfi_startproc
  48              		@ args = 0, pretend = 0, frame = 0
  49              		@ frame_needed = 0, uses_anonymous_args = 0
  50              		@ link register save eliminated.
  51              	.LVL1:
  52 0000 F0B4     		push	{r4, r5, r6, r7}
  53              		.cfi_def_cfa_offset 16
  54              		.cfi_offset 4, -16
  55              		.cfi_offset 5, -12
  56              		.cfi_offset 6, -8
  57              		.cfi_offset 7, -4
  58              	.LVL2:
 192:Generated_Source\PSoC5/cyfitter_cfg.c **** 	/* For 32-bit little-endian architectures */
 193:Generated_Source\PSoC5/cyfitter_cfg.c **** 	uint32 i, j = 0u;
  59              		.loc 1 193 0
  60 0002 0022     		movs	r2, #0
 194:Generated_Source\PSoC5/cyfitter_cfg.c **** 	for (i = 0u; i < CY_CFG_BASE_ADDR_COUNT; i++)
  61              		.loc 1 194 0
  62 0004 1746     		mov	r7, r2
  63 0006 11E0     		b	.L4
  64              	.LVL3:
  65              	.L7:
  66              	.LBB2:
 195:Generated_Source\PSoC5/cyfitter_cfg.c **** 	{
 196:Generated_Source\PSoC5/cyfitter_cfg.c **** 		uint32 baseAddr = addr_table[i];
  67              		.loc 1 196 0
  68 0008 50F82760 		ldr	r6, [r0, r7, lsl #2]
  69              	.LVL4:
 197:Generated_Source\PSoC5/cyfitter_cfg.c **** 		uint8 count = (uint8)baseAddr;
  70              		.loc 1 197 0
  71 000c F3B2     		uxtb	r3, r6
  72              	.LVL5:
 198:Generated_Source\PSoC5/cyfitter_cfg.c **** 		baseAddr &= 0xFFFFFF00u;
  73              		.loc 1 198 0
  74 000e 26F0FF06 		bic	r6, r6, #255
  75              	.LVL6:
 199:Generated_Source\PSoC5/cyfitter_cfg.c **** 		while (count != 0u)
  76              		.loc 1 199 0
  77 0012 08E0     		b	.L5
  78              	.L6:
 200:Generated_Source\PSoC5/cyfitter_cfg.c **** 		{
 201:Generated_Source\PSoC5/cyfitter_cfg.c **** 			CY_SET_XTND_REG8((void CYFAR *)(baseAddr + data_table[j].offset), data_table[j].value);
  79              		.loc 1 201 0
  80 0014 01EB4205 		add	r5, r1, r2, lsl #1
  81 0018 11F81240 		ldrb	r4, [r1, r2, lsl #1]	@ zero_extendqisi2
  82 001c 6D78     		ldrb	r5, [r5, #1]	@ zero_extendqisi2
  83 001e A555     		strb	r5, [r4, r6]
 202:Generated_Source\PSoC5/cyfitter_cfg.c **** 			j++;
ARM GAS  C:\Users\DGILLI~1\AppData\Local\Temp\cchCzDtg.s 			page 6


  84              		.loc 1 202 0
  85 0020 0132     		adds	r2, r2, #1
  86              	.LVL7:
 203:Generated_Source\PSoC5/cyfitter_cfg.c **** 			count--;
  87              		.loc 1 203 0
  88 0022 013B     		subs	r3, r3, #1
  89              	.LVL8:
  90 0024 DBB2     		uxtb	r3, r3
  91              	.LVL9:
  92              	.L5:
 199:Generated_Source\PSoC5/cyfitter_cfg.c **** 		{
  93              		.loc 1 199 0
  94 0026 002B     		cmp	r3, #0
  95 0028 F4D1     		bne	.L6
  96              	.LBE2:
 194:Generated_Source\PSoC5/cyfitter_cfg.c **** 	{
  97              		.loc 1 194 0 discriminator 2
  98 002a 0137     		adds	r7, r7, #1
  99              	.LVL10:
 100              	.L4:
 194:Generated_Source\PSoC5/cyfitter_cfg.c **** 	{
 101              		.loc 1 194 0 is_stmt 0 discriminator 1
 102 002c 1A2F     		cmp	r7, #26
 103 002e EBD9     		bls	.L7
 204:Generated_Source\PSoC5/cyfitter_cfg.c **** 		}
 205:Generated_Source\PSoC5/cyfitter_cfg.c **** 	}
 206:Generated_Source\PSoC5/cyfitter_cfg.c **** }
 104              		.loc 1 206 0 is_stmt 1
 105 0030 F0BC     		pop	{r4, r5, r6, r7}
 106              		.cfi_restore 7
 107              		.cfi_restore 6
 108              		.cfi_restore 5
 109              		.cfi_restore 4
 110              		.cfi_def_cfa_offset 0
 111              	.LVL11:
 112 0032 7047     		bx	lr
 113              		.cfi_endproc
 114              	.LFE4:
 115              		.size	cfg_write_bytes32, .-cfg_write_bytes32
 116              		.section	.text.AnalogSetDefault,"ax",%progbits
 117              		.align	2
 118              		.thumb
 119              		.thumb_func
 120              		.type	AnalogSetDefault, %function
 121              	AnalogSetDefault:
 122              	.LFB6:
 207:Generated_Source\PSoC5/cyfitter_cfg.c **** 
 208:Generated_Source\PSoC5/cyfitter_cfg.c **** /*******************************************************************************
 209:Generated_Source\PSoC5/cyfitter_cfg.c **** * Function Name: ClockSetup
 210:Generated_Source\PSoC5/cyfitter_cfg.c **** ********************************************************************************
 211:Generated_Source\PSoC5/cyfitter_cfg.c **** *
 212:Generated_Source\PSoC5/cyfitter_cfg.c **** * Summary:
 213:Generated_Source\PSoC5/cyfitter_cfg.c **** *  Performs the initialization of all of the clocks in the device based on the
 214:Generated_Source\PSoC5/cyfitter_cfg.c **** *  settings in the Clock tab of the DWR.  This includes enabling the requested
 215:Generated_Source\PSoC5/cyfitter_cfg.c **** *  clocks and setting the necessary dividers to produce the desired frequency. 
 216:Generated_Source\PSoC5/cyfitter_cfg.c **** *
 217:Generated_Source\PSoC5/cyfitter_cfg.c **** * Parameters:
ARM GAS  C:\Users\DGILLI~1\AppData\Local\Temp\cchCzDtg.s 			page 7


 218:Generated_Source\PSoC5/cyfitter_cfg.c **** *  void
 219:Generated_Source\PSoC5/cyfitter_cfg.c **** *
 220:Generated_Source\PSoC5/cyfitter_cfg.c **** * Return:
 221:Generated_Source\PSoC5/cyfitter_cfg.c **** *  void
 222:Generated_Source\PSoC5/cyfitter_cfg.c **** *
 223:Generated_Source\PSoC5/cyfitter_cfg.c **** *******************************************************************************/
 224:Generated_Source\PSoC5/cyfitter_cfg.c **** static void ClockSetup(void);
 225:Generated_Source\PSoC5/cyfitter_cfg.c **** static void ClockSetup(void)
 226:Generated_Source\PSoC5/cyfitter_cfg.c **** {
 227:Generated_Source\PSoC5/cyfitter_cfg.c **** 	uint32 timeout;
 228:Generated_Source\PSoC5/cyfitter_cfg.c **** 	uint8 pllLock;
 229:Generated_Source\PSoC5/cyfitter_cfg.c **** 
 230:Generated_Source\PSoC5/cyfitter_cfg.c **** 
 231:Generated_Source\PSoC5/cyfitter_cfg.c **** 	/* Configure Digital Clocks based on settings from Clock DWR */
 232:Generated_Source\PSoC5/cyfitter_cfg.c **** 	CY_SET_XTND_REG16((void CYFAR *)(CYREG_CLKDIST_DCFG0_CFG0), 0x000Fu);
 233:Generated_Source\PSoC5/cyfitter_cfg.c **** 	CY_SET_XTND_REG8((void CYFAR *)(CYREG_CLKDIST_DCFG0_CFG0 + 0x2u), 0x1Au);
 234:Generated_Source\PSoC5/cyfitter_cfg.c **** 	CY_SET_XTND_REG16((void CYFAR *)(CYREG_CLKDIST_DCFG1_CFG0), 0x00F9u);
 235:Generated_Source\PSoC5/cyfitter_cfg.c **** 	CY_SET_XTND_REG8((void CYFAR *)(CYREG_CLKDIST_DCFG1_CFG0 + 0x2u), 0x1Bu);
 236:Generated_Source\PSoC5/cyfitter_cfg.c **** 
 237:Generated_Source\PSoC5/cyfitter_cfg.c **** 	/* Configure ILO based on settings from Clock DWR */
 238:Generated_Source\PSoC5/cyfitter_cfg.c **** 	CY_SET_XTND_REG8((void CYFAR *)(CYREG_SLOWCLK_ILO_CR0), 0x02u);
 239:Generated_Source\PSoC5/cyfitter_cfg.c **** 	CY_SET_XTND_REG8((void CYFAR *)(CYREG_CLKDIST_CR), 0x08u);
 240:Generated_Source\PSoC5/cyfitter_cfg.c **** 
 241:Generated_Source\PSoC5/cyfitter_cfg.c **** 	/* Configure XTAL based on settings from Clock DWR */
 242:Generated_Source\PSoC5/cyfitter_cfg.c **** 	CY_SET_XTND_REG16((void CYFAR *)(CYREG_FASTCLK_XMHZ_CFG0), 0x3313u);
 243:Generated_Source\PSoC5/cyfitter_cfg.c **** 	CY_SET_XTND_REG8((void CYFAR *)(CYREG_FASTCLK_XMHZ_CSR), 0x05u);
 244:Generated_Source\PSoC5/cyfitter_cfg.c **** 	/* Wait up to 130000us for the XTAL to lock */
 245:Generated_Source\PSoC5/cyfitter_cfg.c **** 	CY_GET_XTND_REG8((void CYFAR *)CYREG_FASTCLK_XMHZ_CSR);
 246:Generated_Source\PSoC5/cyfitter_cfg.c **** 	for (timeout = 130000u / 10u; (timeout > 0u) && ((CY_GET_XTND_REG8((void CYFAR *)CYREG_FASTCLK_XMH
 247:Generated_Source\PSoC5/cyfitter_cfg.c **** 	{ 
 248:Generated_Source\PSoC5/cyfitter_cfg.c **** 		
 249:Generated_Source\PSoC5/cyfitter_cfg.c **** 		CyDelayCycles(10u * 48u); /* Delay 10us based on 48MHz clock */
 250:Generated_Source\PSoC5/cyfitter_cfg.c **** 	}
 251:Generated_Source\PSoC5/cyfitter_cfg.c **** 	if (timeout == 0u)
 252:Generated_Source\PSoC5/cyfitter_cfg.c **** 	{
 253:Generated_Source\PSoC5/cyfitter_cfg.c **** 		CyClockStartupError(CYCLOCKSTART_XTAL_ERROR);
 254:Generated_Source\PSoC5/cyfitter_cfg.c **** 	}
 255:Generated_Source\PSoC5/cyfitter_cfg.c **** 
 256:Generated_Source\PSoC5/cyfitter_cfg.c **** 	/* Configure PLL based on settings from Clock DWR */
 257:Generated_Source\PSoC5/cyfitter_cfg.c **** 	CY_SET_XTND_REG16((void CYFAR *)(CYREG_FASTCLK_PLL_P), 0x050Cu);
 258:Generated_Source\PSoC5/cyfitter_cfg.c **** 	CY_SET_XTND_REG8((void CYFAR *)(CYREG_CLKDIST_CR), 0x09u);
 259:Generated_Source\PSoC5/cyfitter_cfg.c **** 	CY_SET_XTND_REG16((void CYFAR *)(CYREG_FASTCLK_PLL_CFG0), 0x1251u);
 260:Generated_Source\PSoC5/cyfitter_cfg.c **** 	/* Wait up to 250us for the PLL to lock */
 261:Generated_Source\PSoC5/cyfitter_cfg.c **** 	pllLock = 0u;
 262:Generated_Source\PSoC5/cyfitter_cfg.c **** 	for (timeout = 250u / 10u; (timeout > 0u) && (pllLock != 0x03u); timeout--)
 263:Generated_Source\PSoC5/cyfitter_cfg.c **** 	{ 
 264:Generated_Source\PSoC5/cyfitter_cfg.c **** 		pllLock = 0x03u & ((uint8)((uint8)pllLock << 1) | ((CY_GET_XTND_REG8((void CYFAR *)CYREG_FASTCLK_
 265:Generated_Source\PSoC5/cyfitter_cfg.c **** 		CyDelayCycles(10u * 48u); /* Delay 10us based on 48MHz clock */
 266:Generated_Source\PSoC5/cyfitter_cfg.c **** 	}
 267:Generated_Source\PSoC5/cyfitter_cfg.c **** 	/* If we ran out of time the PLL didn't lock so go to the error function */
 268:Generated_Source\PSoC5/cyfitter_cfg.c **** 	if (timeout == 0u)
 269:Generated_Source\PSoC5/cyfitter_cfg.c **** 	{
 270:Generated_Source\PSoC5/cyfitter_cfg.c **** 		CyClockStartupError(CYCLOCKSTART_PLL_ERROR);
 271:Generated_Source\PSoC5/cyfitter_cfg.c **** 	}
 272:Generated_Source\PSoC5/cyfitter_cfg.c **** 
 273:Generated_Source\PSoC5/cyfitter_cfg.c **** 	/* Configure Bus/Master Clock based on settings from Clock DWR */
 274:Generated_Source\PSoC5/cyfitter_cfg.c **** 	CY_SET_XTND_REG16((void CYFAR *)(CYREG_CLKDIST_MSTR0), 0x0100u);
ARM GAS  C:\Users\DGILLI~1\AppData\Local\Temp\cchCzDtg.s 			page 8


 275:Generated_Source\PSoC5/cyfitter_cfg.c **** 
 276:Generated_Source\PSoC5/cyfitter_cfg.c **** 	/* Configure IMO based on settings from Clock DWR */
 277:Generated_Source\PSoC5/cyfitter_cfg.c **** 	CY_SET_XTND_REG8((void CYFAR *)(CYREG_FASTCLK_IMO_CR), 0x03u);
 278:Generated_Source\PSoC5/cyfitter_cfg.c **** 	CY_SET_XTND_REG8((void CYFAR *)(CYREG_IMO_TR1), (CY_GET_XTND_REG8((void CYFAR *)CYREG_FLSHID_CUST_
 279:Generated_Source\PSoC5/cyfitter_cfg.c **** 	CY_SET_XTND_REG8((void CYFAR *)(CYREG_CLKDIST_MSTR0), 0x07u);
 280:Generated_Source\PSoC5/cyfitter_cfg.c **** 	CY_SET_XTND_REG8((void CYFAR *)(CYREG_CLKDIST_BCFG0), 0x00u);
 281:Generated_Source\PSoC5/cyfitter_cfg.c **** 	CY_SET_XTND_REG8((void CYFAR *)(CYREG_CLKDIST_BCFG2), 0x48u);
 282:Generated_Source\PSoC5/cyfitter_cfg.c **** 	CY_SET_XTND_REG8((void CYFAR *)(CYREG_CLKDIST_MSTR0), 0x00u);
 283:Generated_Source\PSoC5/cyfitter_cfg.c **** 	CY_SET_XTND_REG8((void CYFAR *)(CYREG_CLKDIST_LD), 0x02u);
 284:Generated_Source\PSoC5/cyfitter_cfg.c **** 
 285:Generated_Source\PSoC5/cyfitter_cfg.c **** 	CY_SET_XTND_REG8((void CYFAR *)(CYREG_PM_ACT_CFG2), ((CY_GET_XTND_REG8((void CYFAR *)CYREG_PM_ACT_
 286:Generated_Source\PSoC5/cyfitter_cfg.c **** }
 287:Generated_Source\PSoC5/cyfitter_cfg.c **** 
 288:Generated_Source\PSoC5/cyfitter_cfg.c **** 
 289:Generated_Source\PSoC5/cyfitter_cfg.c **** /* Analog API Functions */
 290:Generated_Source\PSoC5/cyfitter_cfg.c **** 
 291:Generated_Source\PSoC5/cyfitter_cfg.c **** 
 292:Generated_Source\PSoC5/cyfitter_cfg.c **** /*******************************************************************************
 293:Generated_Source\PSoC5/cyfitter_cfg.c **** * Function Name: AnalogSetDefault
 294:Generated_Source\PSoC5/cyfitter_cfg.c **** ********************************************************************************
 295:Generated_Source\PSoC5/cyfitter_cfg.c **** *
 296:Generated_Source\PSoC5/cyfitter_cfg.c **** * Summary:
 297:Generated_Source\PSoC5/cyfitter_cfg.c **** *  Sets up the analog portions of the chip to default values based on chip
 298:Generated_Source\PSoC5/cyfitter_cfg.c **** *  configuration options from the project.
 299:Generated_Source\PSoC5/cyfitter_cfg.c **** *
 300:Generated_Source\PSoC5/cyfitter_cfg.c **** * Parameters:
 301:Generated_Source\PSoC5/cyfitter_cfg.c **** *  void
 302:Generated_Source\PSoC5/cyfitter_cfg.c **** *
 303:Generated_Source\PSoC5/cyfitter_cfg.c **** * Return:
 304:Generated_Source\PSoC5/cyfitter_cfg.c **** *  void
 305:Generated_Source\PSoC5/cyfitter_cfg.c **** *
 306:Generated_Source\PSoC5/cyfitter_cfg.c **** *******************************************************************************/
 307:Generated_Source\PSoC5/cyfitter_cfg.c **** static void AnalogSetDefault(void);
 308:Generated_Source\PSoC5/cyfitter_cfg.c **** static void AnalogSetDefault(void)
 309:Generated_Source\PSoC5/cyfitter_cfg.c **** {
 123              		.loc 1 309 0
 124              		.cfi_startproc
 125              		@ args = 0, pretend = 0, frame = 0
 126              		@ frame_needed = 0, uses_anonymous_args = 0
 127              		@ link register save eliminated.
 310:Generated_Source\PSoC5/cyfitter_cfg.c **** 	uint8 bg_xover_inl_trim = CY_GET_XTND_REG8((void CYFAR *)(CYREG_FLSHID_MFG_CFG_BG_XOVER_INL_TRIM +
 128              		.loc 1 310 0
 129 0000 064B     		ldr	r3, .L10
 130 0002 1B78     		ldrb	r3, [r3]	@ zero_extendqisi2
 131 0004 DBB2     		uxtb	r3, r3
 132              	.LVL12:
 311:Generated_Source\PSoC5/cyfitter_cfg.c **** 	CY_SET_XTND_REG8((void CYFAR *)(CYREG_BG_DFT0), (bg_xover_inl_trim & 0x07u));
 133              		.loc 1 311 0
 134 0006 03F00701 		and	r1, r3, #7
 135 000a 054A     		ldr	r2, .L10+4
 136 000c 1170     		strb	r1, [r2]
 312:Generated_Source\PSoC5/cyfitter_cfg.c **** 	CY_SET_XTND_REG8((void CYFAR *)(CYREG_BG_DFT1), ((bg_xover_inl_trim >> 4) & 0x0Fu));
 137              		.loc 1 312 0
 138 000e 1B09     		lsrs	r3, r3, #4
 139              	.LVL13:
 140 0010 0132     		adds	r2, r2, #1
 141 0012 1370     		strb	r3, [r2]
ARM GAS  C:\Users\DGILLI~1\AppData\Local\Temp\cchCzDtg.s 			page 9


 313:Generated_Source\PSoC5/cyfitter_cfg.c **** 	CY_SET_XTND_REG8((void CYFAR *)CYREG_PUMP_CR0, 0x44u);
 142              		.loc 1 313 0
 143 0014 4422     		movs	r2, #68
 144 0016 034B     		ldr	r3, .L10+8
 145 0018 1A70     		strb	r2, [r3]
 146 001a 7047     		bx	lr
 147              	.L11:
 148              		.align	2
 149              	.L10:
 150 001c CF010049 		.word	1224737231
 151 0020 6E580040 		.word	1073764462
 152 0024 76580040 		.word	1073764470
 153              		.cfi_endproc
 154              	.LFE6:
 155              		.size	AnalogSetDefault, .-AnalogSetDefault
 156              		.section	.text.CYMEMZERO,"ax",%progbits
 157              		.align	2
 158              		.thumb
 159              		.thumb_func
 160              		.type	CYMEMZERO, %function
 161              	CYMEMZERO:
 162              	.LFB0:
  64:Generated_Source\PSoC5/cyfitter_cfg.c **** 	(void)memset(s, 0, n);
 163              		.loc 1 64 0
 164              		.cfi_startproc
 165              		@ args = 0, pretend = 0, frame = 0
 166              		@ frame_needed = 0, uses_anonymous_args = 0
 167              	.LVL14:
 168 0000 08B5     		push	{r3, lr}
 169              		.cfi_def_cfa_offset 8
 170              		.cfi_offset 3, -8
 171              		.cfi_offset 14, -4
 172 0002 0A46     		mov	r2, r1
  65:Generated_Source\PSoC5/cyfitter_cfg.c **** }
 173              		.loc 1 65 0
 174 0004 0021     		movs	r1, #0
 175              	.LVL15:
 176 0006 FFF7FEFF 		bl	memset
 177              	.LVL16:
 178 000a 08BD     		pop	{r3, pc}
 179              		.cfi_endproc
 180              	.LFE0:
 181              		.size	CYMEMZERO, .-CYMEMZERO
 182              		.section	.text.ClockSetup,"ax",%progbits
 183              		.align	2
 184              		.thumb
 185              		.thumb_func
 186              		.type	ClockSetup, %function
 187              	ClockSetup:
 188              	.LFB5:
 226:Generated_Source\PSoC5/cyfitter_cfg.c **** 	uint32 timeout;
 189              		.loc 1 226 0
 190              		.cfi_startproc
 191              		@ args = 0, pretend = 0, frame = 0
 192              		@ frame_needed = 0, uses_anonymous_args = 0
 193 0000 38B5     		push	{r3, r4, r5, lr}
 194              		.cfi_def_cfa_offset 16
ARM GAS  C:\Users\DGILLI~1\AppData\Local\Temp\cchCzDtg.s 			page 10


 195              		.cfi_offset 3, -16
 196              		.cfi_offset 4, -12
 197              		.cfi_offset 5, -8
 198              		.cfi_offset 14, -4
 232:Generated_Source\PSoC5/cyfitter_cfg.c **** 	CY_SET_XTND_REG8((void CYFAR *)(CYREG_CLKDIST_DCFG0_CFG0 + 0x2u), 0x1Au);
 199              		.loc 1 232 0
 200 0002 0F22     		movs	r2, #15
 201 0004 384B     		ldr	r3, .L24
 202 0006 1A80     		strh	r2, [r3]	@ movhi
 233:Generated_Source\PSoC5/cyfitter_cfg.c **** 	CY_SET_XTND_REG16((void CYFAR *)(CYREG_CLKDIST_DCFG1_CFG0), 0x00F9u);
 203              		.loc 1 233 0
 204 0008 1A22     		movs	r2, #26
 205 000a 0233     		adds	r3, r3, #2
 206 000c 1A70     		strb	r2, [r3]
 234:Generated_Source\PSoC5/cyfitter_cfg.c **** 	CY_SET_XTND_REG8((void CYFAR *)(CYREG_CLKDIST_DCFG1_CFG0 + 0x2u), 0x1Bu);
 207              		.loc 1 234 0
 208 000e F922     		movs	r2, #249
 209 0010 0233     		adds	r3, r3, #2
 210 0012 1A80     		strh	r2, [r3]	@ movhi
 235:Generated_Source\PSoC5/cyfitter_cfg.c **** 
 211              		.loc 1 235 0
 212 0014 1B22     		movs	r2, #27
 213 0016 0233     		adds	r3, r3, #2
 214 0018 1A70     		strb	r2, [r3]
 238:Generated_Source\PSoC5/cyfitter_cfg.c **** 	CY_SET_XTND_REG8((void CYFAR *)(CYREG_CLKDIST_CR), 0x08u);
 215              		.loc 1 238 0
 216 001a 0222     		movs	r2, #2
 217 001c 03F27A23 		addw	r3, r3, #634
 218 0020 1A70     		strb	r2, [r3]
 239:Generated_Source\PSoC5/cyfitter_cfg.c **** 
 219              		.loc 1 239 0
 220 0022 0822     		movs	r2, #8
 221 0024 4FF04023 		mov	r3, #1073758208
 222 0028 1A70     		strb	r2, [r3]
 242:Generated_Source\PSoC5/cyfitter_cfg.c **** 	CY_SET_XTND_REG8((void CYFAR *)(CYREG_FASTCLK_XMHZ_CSR), 0x05u);
 223              		.loc 1 242 0
 224 002a 43F21332 		movw	r2, #13075
 225 002e 03F21223 		addw	r3, r3, #530
 226 0032 1A80     		strh	r2, [r3]	@ movhi
 243:Generated_Source\PSoC5/cyfitter_cfg.c **** 	/* Wait up to 130000us for the XTAL to lock */
 227              		.loc 1 243 0
 228 0034 023B     		subs	r3, r3, #2
 229 0036 0522     		movs	r2, #5
 230 0038 1A70     		strb	r2, [r3]
 245:Generated_Source\PSoC5/cyfitter_cfg.c **** 	for (timeout = 130000u / 10u; (timeout > 0u) && ((CY_GET_XTND_REG8((void CYFAR *)CYREG_FASTCLK_XMH
 231              		.loc 1 245 0
 232 003a 1B78     		ldrb	r3, [r3]	@ zero_extendqisi2
 233              	.LVL17:
 246:Generated_Source\PSoC5/cyfitter_cfg.c **** 	{ 
 234              		.loc 1 246 0
 235 003c 43F2C824 		movw	r4, #13000
 236 0040 04E0     		b	.L15
 237              	.LVL18:
 238              	.L17:
 249:Generated_Source\PSoC5/cyfitter_cfg.c **** 	}
 239              		.loc 1 249 0 discriminator 4
 240 0042 4FF4F070 		mov	r0, #480
ARM GAS  C:\Users\DGILLI~1\AppData\Local\Temp\cchCzDtg.s 			page 11


 241 0046 FFF7FEFF 		bl	CyDelayCycles
 242              	.LVL19:
 246:Generated_Source\PSoC5/cyfitter_cfg.c **** 	{ 
 243              		.loc 1 246 0 discriminator 4
 244 004a 013C     		subs	r4, r4, #1
 245              	.LVL20:
 246              	.L15:
 246:Generated_Source\PSoC5/cyfitter_cfg.c **** 	{ 
 247              		.loc 1 246 0 is_stmt 0 discriminator 1
 248 004c 24B1     		cbz	r4, .L16
 246:Generated_Source\PSoC5/cyfitter_cfg.c **** 	{ 
 249              		.loc 1 246 0 discriminator 3
 250 004e 274B     		ldr	r3, .L24+4
 251 0050 1B78     		ldrb	r3, [r3]	@ zero_extendqisi2
 252 0052 13F0800F 		tst	r3, #128
 253 0056 F4D1     		bne	.L17
 254              	.L16:
 251:Generated_Source\PSoC5/cyfitter_cfg.c **** 	{
 255              		.loc 1 251 0 is_stmt 1
 256 0058 14B9     		cbnz	r4, .L18
 253:Generated_Source\PSoC5/cyfitter_cfg.c **** 	}
 257              		.loc 1 253 0
 258 005a 0120     		movs	r0, #1
 259 005c FFF7FEFF 		bl	CyClockStartupError
 260              	.LVL21:
 261              	.L18:
 257:Generated_Source\PSoC5/cyfitter_cfg.c **** 	CY_SET_XTND_REG8((void CYFAR *)(CYREG_CLKDIST_CR), 0x09u);
 262              		.loc 1 257 0
 263 0060 40F20C52 		movw	r2, #1292
 264 0064 224B     		ldr	r3, .L24+8
 265 0066 1A80     		strh	r2, [r3]	@ movhi
 258:Generated_Source\PSoC5/cyfitter_cfg.c **** 	CY_SET_XTND_REG16((void CYFAR *)(CYREG_FASTCLK_PLL_CFG0), 0x1251u);
 266              		.loc 1 258 0
 267 0068 0922     		movs	r2, #9
 268 006a 4FF04023 		mov	r3, #1073758208
 269 006e 1A70     		strb	r2, [r3]
 259:Generated_Source\PSoC5/cyfitter_cfg.c **** 	/* Wait up to 250us for the PLL to lock */
 270              		.loc 1 259 0
 271 0070 41F25122 		movw	r2, #4689
 272 0074 03F50873 		add	r3, r3, #544
 273 0078 1A80     		strh	r2, [r3]	@ movhi
 274              	.LVL22:
 261:Generated_Source\PSoC5/cyfitter_cfg.c **** 	for (timeout = 250u / 10u; (timeout > 0u) && (pllLock != 0x03u); timeout--)
 275              		.loc 1 261 0
 276 007a 0024     		movs	r4, #0
 262:Generated_Source\PSoC5/cyfitter_cfg.c **** 	{ 
 277              		.loc 1 262 0
 278 007c 1925     		movs	r5, #25
 279 007e 0CE0     		b	.L19
 280              	.LVL23:
 281              	.L21:
 264:Generated_Source\PSoC5/cyfitter_cfg.c **** 		CyDelayCycles(10u * 48u); /* Delay 10us based on 48MHz clock */
 282              		.loc 1 264 0 discriminator 4
 283 0080 1C4B     		ldr	r3, .L24+12
 284 0082 1B78     		ldrb	r3, [r3]	@ zero_extendqisi2
 285 0084 03F00103 		and	r3, r3, #1
 286 0088 43EA4404 		orr	r4, r3, r4, lsl #1
ARM GAS  C:\Users\DGILLI~1\AppData\Local\Temp\cchCzDtg.s 			page 12


 287              	.LVL24:
 288 008c 04F00304 		and	r4, r4, #3
 289              	.LVL25:
 265:Generated_Source\PSoC5/cyfitter_cfg.c **** 	}
 290              		.loc 1 265 0 discriminator 4
 291 0090 4FF4F070 		mov	r0, #480
 292 0094 FFF7FEFF 		bl	CyDelayCycles
 293              	.LVL26:
 262:Generated_Source\PSoC5/cyfitter_cfg.c **** 	{ 
 294              		.loc 1 262 0 discriminator 4
 295 0098 013D     		subs	r5, r5, #1
 296              	.LVL27:
 297              	.L19:
 262:Generated_Source\PSoC5/cyfitter_cfg.c **** 	{ 
 298              		.loc 1 262 0 is_stmt 0 discriminator 1
 299 009a 0DB1     		cbz	r5, .L20
 262:Generated_Source\PSoC5/cyfitter_cfg.c **** 	{ 
 300              		.loc 1 262 0 discriminator 3
 301 009c 032C     		cmp	r4, #3
 302 009e EFD1     		bne	.L21
 303              	.L20:
 268:Generated_Source\PSoC5/cyfitter_cfg.c **** 	{
 304              		.loc 1 268 0 is_stmt 1
 305 00a0 15B9     		cbnz	r5, .L22
 270:Generated_Source\PSoC5/cyfitter_cfg.c **** 	}
 306              		.loc 1 270 0
 307 00a2 0320     		movs	r0, #3
 308 00a4 FFF7FEFF 		bl	CyClockStartupError
 309              	.LVL28:
 310              	.L22:
 274:Generated_Source\PSoC5/cyfitter_cfg.c **** 
 311              		.loc 1 274 0
 312 00a8 134B     		ldr	r3, .L24+16
 313 00aa 4FF48072 		mov	r2, #256
 314 00ae 1A80     		strh	r2, [r3]	@ movhi
 277:Generated_Source\PSoC5/cyfitter_cfg.c **** 	CY_SET_XTND_REG8((void CYFAR *)(CYREG_IMO_TR1), (CY_GET_XTND_REG8((void CYFAR *)CYREG_FLSHID_CUST_
 315              		.loc 1 277 0
 316 00b0 0321     		movs	r1, #3
 317 00b2 124A     		ldr	r2, .L24+20
 318 00b4 1170     		strb	r1, [r2]
 278:Generated_Source\PSoC5/cyfitter_cfg.c **** 	CY_SET_XTND_REG8((void CYFAR *)(CYREG_CLKDIST_MSTR0), 0x07u);
 319              		.loc 1 278 0
 320 00b6 124A     		ldr	r2, .L24+24
 321 00b8 1278     		ldrb	r2, [r2]	@ zero_extendqisi2
 322 00ba D2B2     		uxtb	r2, r2
 323 00bc 1149     		ldr	r1, .L24+28
 324 00be 0A70     		strb	r2, [r1]
 279:Generated_Source\PSoC5/cyfitter_cfg.c **** 	CY_SET_XTND_REG8((void CYFAR *)(CYREG_CLKDIST_BCFG0), 0x00u);
 325              		.loc 1 279 0
 326 00c0 0722     		movs	r2, #7
 327 00c2 1A70     		strb	r2, [r3]
 280:Generated_Source\PSoC5/cyfitter_cfg.c **** 	CY_SET_XTND_REG8((void CYFAR *)(CYREG_CLKDIST_BCFG2), 0x48u);
 328              		.loc 1 280 0
 329 00c4 0022     		movs	r2, #0
 330 00c6 A1F29B61 		subw	r1, r1, #1691
 331 00ca 0A70     		strb	r2, [r1]
 281:Generated_Source\PSoC5/cyfitter_cfg.c **** 	CY_SET_XTND_REG8((void CYFAR *)(CYREG_CLKDIST_MSTR0), 0x00u);
ARM GAS  C:\Users\DGILLI~1\AppData\Local\Temp\cchCzDtg.s 			page 13


 332              		.loc 1 281 0
 333 00cc 4820     		movs	r0, #72
 334 00ce 0231     		adds	r1, r1, #2
 335 00d0 0870     		strb	r0, [r1]
 282:Generated_Source\PSoC5/cyfitter_cfg.c **** 	CY_SET_XTND_REG8((void CYFAR *)(CYREG_CLKDIST_LD), 0x02u);
 336              		.loc 1 282 0
 337 00d2 1A70     		strb	r2, [r3]
 283:Generated_Source\PSoC5/cyfitter_cfg.c **** 
 338              		.loc 1 283 0
 339 00d4 0222     		movs	r2, #2
 340 00d6 033B     		subs	r3, r3, #3
 341 00d8 1A70     		strb	r2, [r3]
 285:Generated_Source\PSoC5/cyfitter_cfg.c **** }
 342              		.loc 1 285 0
 343 00da 0B4A     		ldr	r2, .L24+32
 344 00dc 1378     		ldrb	r3, [r2]	@ zero_extendqisi2
 345 00de 43F00303 		orr	r3, r3, #3
 346 00e2 1370     		strb	r3, [r2]
 347 00e4 38BD     		pop	{r3, r4, r5, pc}
 348              	.LVL29:
 349              	.L25:
 350 00e6 00BF     		.align	2
 351              	.L24:
 352 00e8 80400040 		.word	1073758336
 353 00ec 10420040 		.word	1073758736
 354 00f0 22420040 		.word	1073758754
 355 00f4 25420040 		.word	1073758757
 356 00f8 04400040 		.word	1073758212
 357 00fc 00420040 		.word	1073758720
 358 0100 08010049 		.word	1224737032
 359 0104 A1460040 		.word	1073759905
 360 0108 A2430040 		.word	1073759138
 361              		.cfi_endproc
 362              	.LFE5:
 363              		.size	ClockSetup, .-ClockSetup
 364              		.section	.text.CYCONFIGCPY,"ax",%progbits
 365              		.align	2
 366              		.thumb
 367              		.thumb_func
 368              		.type	CYCONFIGCPY, %function
 369              	CYCONFIGCPY:
 370              	.LFB1:
  71:Generated_Source\PSoC5/cyfitter_cfg.c **** 	(void)memcpy(dest, src, n);
 371              		.loc 1 71 0
 372              		.cfi_startproc
 373              		@ args = 0, pretend = 0, frame = 0
 374              		@ frame_needed = 0, uses_anonymous_args = 0
 375              	.LVL30:
 376 0000 08B5     		push	{r3, lr}
 377              		.cfi_def_cfa_offset 8
 378              		.cfi_offset 3, -8
 379              		.cfi_offset 14, -4
  72:Generated_Source\PSoC5/cyfitter_cfg.c **** }
 380              		.loc 1 72 0
 381 0002 FFF7FEFF 		bl	memcpy
 382              	.LVL31:
 383 0006 08BD     		pop	{r3, pc}
ARM GAS  C:\Users\DGILLI~1\AppData\Local\Temp\cchCzDtg.s 			page 14


 384              		.cfi_endproc
 385              	.LFE1:
 386              		.size	CYCONFIGCPY, .-CYCONFIGCPY
 387              		.section	.text.SetAnalogRoutingPumps,"ax",%progbits
 388              		.align	2
 389              		.global	SetAnalogRoutingPumps
 390              		.thumb
 391              		.thumb_func
 392              		.type	SetAnalogRoutingPumps, %function
 393              	SetAnalogRoutingPumps:
 394              	.LFB7:
 314:Generated_Source\PSoC5/cyfitter_cfg.c **** }
 315:Generated_Source\PSoC5/cyfitter_cfg.c **** 
 316:Generated_Source\PSoC5/cyfitter_cfg.c **** 
 317:Generated_Source\PSoC5/cyfitter_cfg.c **** /*******************************************************************************
 318:Generated_Source\PSoC5/cyfitter_cfg.c **** * Function Name: SetAnalogRoutingPumps
 319:Generated_Source\PSoC5/cyfitter_cfg.c **** ********************************************************************************
 320:Generated_Source\PSoC5/cyfitter_cfg.c **** *
 321:Generated_Source\PSoC5/cyfitter_cfg.c **** * Summary:
 322:Generated_Source\PSoC5/cyfitter_cfg.c **** * Enables or disables the analog pumps feeding analog routing switches.
 323:Generated_Source\PSoC5/cyfitter_cfg.c **** * Intended to be called at startup, based on the Vdda system configuration;
 324:Generated_Source\PSoC5/cyfitter_cfg.c **** * may be called during operation when the user informs us that the Vdda voltage
 325:Generated_Source\PSoC5/cyfitter_cfg.c **** * crossed the pump threshold.
 326:Generated_Source\PSoC5/cyfitter_cfg.c **** *
 327:Generated_Source\PSoC5/cyfitter_cfg.c **** * Parameters:
 328:Generated_Source\PSoC5/cyfitter_cfg.c **** *  enabled - 1 to enable the pumps, 0 to disable the pumps
 329:Generated_Source\PSoC5/cyfitter_cfg.c **** *
 330:Generated_Source\PSoC5/cyfitter_cfg.c **** * Return:
 331:Generated_Source\PSoC5/cyfitter_cfg.c **** *  void
 332:Generated_Source\PSoC5/cyfitter_cfg.c **** *
 333:Generated_Source\PSoC5/cyfitter_cfg.c **** *******************************************************************************/
 334:Generated_Source\PSoC5/cyfitter_cfg.c **** void SetAnalogRoutingPumps(uint8 enabled)
 335:Generated_Source\PSoC5/cyfitter_cfg.c **** {
 395              		.loc 1 335 0
 396              		.cfi_startproc
 397              		@ args = 0, pretend = 0, frame = 0
 398              		@ frame_needed = 0, uses_anonymous_args = 0
 399              		@ link register save eliminated.
 400              	.LVL32:
 336:Generated_Source\PSoC5/cyfitter_cfg.c **** 	uint8 regValue = CY_GET_XTND_REG8((void CYFAR *)CYREG_PUMP_CR0);
 401              		.loc 1 336 0
 402 0000 024A     		ldr	r2, .L29
 403 0002 1378     		ldrb	r3, [r2]	@ zero_extendqisi2
 404 0004 DBB2     		uxtb	r3, r3
 405              	.LVL33:
 337:Generated_Source\PSoC5/cyfitter_cfg.c **** 	if (enabled != 0u)
 338:Generated_Source\PSoC5/cyfitter_cfg.c **** 	{
 339:Generated_Source\PSoC5/cyfitter_cfg.c **** 		regValue |= 0x00u;
 340:Generated_Source\PSoC5/cyfitter_cfg.c **** 	}
 341:Generated_Source\PSoC5/cyfitter_cfg.c **** 	else
 342:Generated_Source\PSoC5/cyfitter_cfg.c **** 	{
 343:Generated_Source\PSoC5/cyfitter_cfg.c **** 		regValue &= (uint8)~0x00u;
 344:Generated_Source\PSoC5/cyfitter_cfg.c **** 	}
 345:Generated_Source\PSoC5/cyfitter_cfg.c **** 	CY_SET_XTND_REG8((void CYFAR *)CYREG_PUMP_CR0, regValue);
 406              		.loc 1 345 0
 407 0006 1370     		strb	r3, [r2]
 408 0008 7047     		bx	lr
ARM GAS  C:\Users\DGILLI~1\AppData\Local\Temp\cchCzDtg.s 			page 15


 409              	.L30:
 410 000a 00BF     		.align	2
 411              	.L29:
 412 000c 76580040 		.word	1073764470
 413              		.cfi_endproc
 414              	.LFE7:
 415              		.size	SetAnalogRoutingPumps, .-SetAnalogRoutingPumps
 416              		.section	.text.cyfitter_cfg,"ax",%progbits
 417              		.align	2
 418              		.global	cyfitter_cfg
 419              		.thumb
 420              		.thumb_func
 421              		.type	cyfitter_cfg, %function
 422              	cyfitter_cfg:
 423              	.LFB8:
 346:Generated_Source\PSoC5/cyfitter_cfg.c **** }
 347:Generated_Source\PSoC5/cyfitter_cfg.c **** 
 348:Generated_Source\PSoC5/cyfitter_cfg.c **** #define CY_AMUX_UNUSED CYREG_BOOST_SR
 349:Generated_Source\PSoC5/cyfitter_cfg.c **** 
 350:Generated_Source\PSoC5/cyfitter_cfg.c **** 
 351:Generated_Source\PSoC5/cyfitter_cfg.c **** /*******************************************************************************
 352:Generated_Source\PSoC5/cyfitter_cfg.c **** * Function Name: cyfitter_cfg
 353:Generated_Source\PSoC5/cyfitter_cfg.c **** ********************************************************************************
 354:Generated_Source\PSoC5/cyfitter_cfg.c **** * Summary:
 355:Generated_Source\PSoC5/cyfitter_cfg.c **** *  This function is called by the start-up code for the selected device. It
 356:Generated_Source\PSoC5/cyfitter_cfg.c **** *  performs all of the necessary device configuration based on the design
 357:Generated_Source\PSoC5/cyfitter_cfg.c **** *  settings.  This includes settings from the Design Wide Resources (DWR) such
 358:Generated_Source\PSoC5/cyfitter_cfg.c **** *  as Clocks and Pins as well as any component configuration that is necessary.
 359:Generated_Source\PSoC5/cyfitter_cfg.c **** *
 360:Generated_Source\PSoC5/cyfitter_cfg.c **** * Parameters:  
 361:Generated_Source\PSoC5/cyfitter_cfg.c **** *   void
 362:Generated_Source\PSoC5/cyfitter_cfg.c **** *
 363:Generated_Source\PSoC5/cyfitter_cfg.c **** * Return:
 364:Generated_Source\PSoC5/cyfitter_cfg.c **** *   void
 365:Generated_Source\PSoC5/cyfitter_cfg.c **** *
 366:Generated_Source\PSoC5/cyfitter_cfg.c **** *******************************************************************************/
 367:Generated_Source\PSoC5/cyfitter_cfg.c **** 
 368:Generated_Source\PSoC5/cyfitter_cfg.c **** void cyfitter_cfg(void)
 369:Generated_Source\PSoC5/cyfitter_cfg.c **** {
 424              		.loc 1 369 0
 425              		.cfi_startproc
 426              		@ args = 0, pretend = 0, frame = 0
 427              		@ frame_needed = 0, uses_anonymous_args = 0
 428 0000 70B5     		push	{r4, r5, r6, lr}
 429              		.cfi_def_cfa_offset 16
 430              		.cfi_offset 4, -16
 431              		.cfi_offset 5, -12
 432              		.cfi_offset 6, -8
 433              		.cfi_offset 14, -4
 370:Generated_Source\PSoC5/cyfitter_cfg.c **** #ifdef CYGlobalIntDisable
 371:Generated_Source\PSoC5/cyfitter_cfg.c **** 	/* Disable interrupts by default. Let user enable if/when they want. */
 372:Generated_Source\PSoC5/cyfitter_cfg.c **** 	CYGlobalIntDisable
 434              		.loc 1 372 0
 435              	@ 372 "Generated_Source\PSoC5\cyfitter_cfg.c" 1
 436 0002 72B6     		CPSID   i
 437              	@ 0 "" 2
 373:Generated_Source\PSoC5/cyfitter_cfg.c **** #endif
ARM GAS  C:\Users\DGILLI~1\AppData\Local\Temp\cchCzDtg.s 			page 16


 374:Generated_Source\PSoC5/cyfitter_cfg.c **** 
 375:Generated_Source\PSoC5/cyfitter_cfg.c **** 	/* Enable/Disable Debug functionality based on settings from System DWR */
 376:Generated_Source\PSoC5/cyfitter_cfg.c **** 	CY_SET_XTND_REG8((void CYFAR *)CYREG_MLOGIC_DEBUG, (CY_GET_XTND_REG8((void CYFAR *)CYREG_MLOGIC_DE
 438              		.loc 1 376 0
 439              		.thumb
 440 0004 394A     		ldr	r2, .L35
 441 0006 1378     		ldrb	r3, [r2]	@ zero_extendqisi2
 442 0008 43F00403 		orr	r3, r3, #4
 443 000c 1370     		strb	r3, [r2]
 444              	.LVL34:
 445              	.LBB3:
 377:Generated_Source\PSoC5/cyfitter_cfg.c **** 
 378:Generated_Source\PSoC5/cyfitter_cfg.c **** 	{
 379:Generated_Source\PSoC5/cyfitter_cfg.c **** 
 380:Generated_Source\PSoC5/cyfitter_cfg.c **** 		CYPACKED typedef struct {
 381:Generated_Source\PSoC5/cyfitter_cfg.c **** 			void CYFAR *address;
 382:Generated_Source\PSoC5/cyfitter_cfg.c **** 			uint16 size;
 383:Generated_Source\PSoC5/cyfitter_cfg.c **** 		} CYPACKED_ATTR cfg_memset_t;
 384:Generated_Source\PSoC5/cyfitter_cfg.c **** 
 385:Generated_Source\PSoC5/cyfitter_cfg.c **** 		static const cfg_memset_t CYCODE cfg_memset_list [] = {
 386:Generated_Source\PSoC5/cyfitter_cfg.c **** 			/* address, size */
 387:Generated_Source\PSoC5/cyfitter_cfg.c **** 			{(void CYFAR *)(CYDEV_UCFG_B0_P0_U0_BASE), 4096u},
 388:Generated_Source\PSoC5/cyfitter_cfg.c **** 			{(void CYFAR *)(CYDEV_UCFG_B1_P2_U0_BASE), 2048u},
 389:Generated_Source\PSoC5/cyfitter_cfg.c **** 			{(void CYFAR *)(CYDEV_UCFG_DSI0_BASE), 2560u},
 390:Generated_Source\PSoC5/cyfitter_cfg.c **** 			{(void CYFAR *)(CYDEV_UCFG_DSI12_BASE), 512u},
 391:Generated_Source\PSoC5/cyfitter_cfg.c **** 			{(void CYFAR *)(CYREG_BCTL0_MDCLK_EN), 32u},
 392:Generated_Source\PSoC5/cyfitter_cfg.c **** 		};
 393:Generated_Source\PSoC5/cyfitter_cfg.c **** 
 394:Generated_Source\PSoC5/cyfitter_cfg.c **** 		uint8 CYDATA i;
 395:Generated_Source\PSoC5/cyfitter_cfg.c **** 
 396:Generated_Source\PSoC5/cyfitter_cfg.c **** 		/* Zero out critical memory blocks before beginning configuration */
 397:Generated_Source\PSoC5/cyfitter_cfg.c **** 		for (i = 0u; i < (sizeof(cfg_memset_list)/sizeof(cfg_memset_list[0])); i++)
 446              		.loc 1 397 0
 447 000e 0024     		movs	r4, #0
 448 0010 0CE0     		b	.L32
 449              	.LVL35:
 450              	.L33:
 451              	.LBB4:
 398:Generated_Source\PSoC5/cyfitter_cfg.c **** 		{
 399:Generated_Source\PSoC5/cyfitter_cfg.c **** 			const cfg_memset_t CYCODE * CYDATA ms = &cfg_memset_list[i];
 400:Generated_Source\PSoC5/cyfitter_cfg.c **** 			CYMEMZERO(ms->address, (size_t)(uint32)(ms->size));
 452              		.loc 1 400 0 discriminator 3
 453 0012 3749     		ldr	r1, .L35+4
 454 0014 6300     		lsls	r3, r4, #1
 455 0016 1A19     		adds	r2, r3, r4
 456 0018 5200     		lsls	r2, r2, #1
 457 001a 0A44     		add	r2, r2, r1
 458 001c 2344     		add	r3, r3, r4
 459 001e 5B00     		lsls	r3, r3, #1
 460 0020 C858     		ldr	r0, [r1, r3]	@ unaligned
 461 0022 9188     		ldrh	r1, [r2, #4]
 462 0024 FFF7FEFF 		bl	CYMEMZERO
 463              	.LVL36:
 464              	.LBE4:
 397:Generated_Source\PSoC5/cyfitter_cfg.c **** 		{
 465              		.loc 1 397 0 discriminator 3
 466 0028 0134     		adds	r4, r4, #1
ARM GAS  C:\Users\DGILLI~1\AppData\Local\Temp\cchCzDtg.s 			page 17


 467              	.LVL37:
 468 002a E4B2     		uxtb	r4, r4
 469              	.LVL38:
 470              	.L32:
 397:Generated_Source\PSoC5/cyfitter_cfg.c **** 		{
 471              		.loc 1 397 0 is_stmt 0 discriminator 1
 472 002c 042C     		cmp	r4, #4
 473 002e F0D9     		bls	.L33
 401:Generated_Source\PSoC5/cyfitter_cfg.c **** 		}
 402:Generated_Source\PSoC5/cyfitter_cfg.c **** 
 403:Generated_Source\PSoC5/cyfitter_cfg.c **** 		cfg_write_bytes32(cy_cfg_addr_table, cy_cfg_data_table);
 474              		.loc 1 403 0 is_stmt 1
 475 0030 4FF09040 		mov	r0, #1207959552
 476 0034 2F49     		ldr	r1, .L35+8
 477 0036 FFF7FEFF 		bl	cfg_write_bytes32
 478              	.LVL39:
 404:Generated_Source\PSoC5/cyfitter_cfg.c **** 
 405:Generated_Source\PSoC5/cyfitter_cfg.c **** 		/* Enable digital routing */
 406:Generated_Source\PSoC5/cyfitter_cfg.c **** 		CY_SET_XTND_REG8((void CYFAR *)CYREG_BCTL0_BANK_CTL, CY_GET_XTND_REG8((void CYFAR *)CYREG_BCTL0_B
 479              		.loc 1 406 0
 480 003a 2F4A     		ldr	r2, .L35+12
 481 003c 1378     		ldrb	r3, [r2]	@ zero_extendqisi2
 482 003e 43F00203 		orr	r3, r3, #2
 483 0042 1370     		strb	r3, [r2]
 407:Generated_Source\PSoC5/cyfitter_cfg.c **** 		CY_SET_XTND_REG8((void CYFAR *)CYREG_BCTL1_BANK_CTL, CY_GET_XTND_REG8((void CYFAR *)CYREG_BCTL1_B
 484              		.loc 1 407 0
 485 0044 1032     		adds	r2, r2, #16
 486 0046 1378     		ldrb	r3, [r2]	@ zero_extendqisi2
 487 0048 43F00203 		orr	r3, r3, #2
 488 004c 1370     		strb	r3, [r2]
 408:Generated_Source\PSoC5/cyfitter_cfg.c **** 
 409:Generated_Source\PSoC5/cyfitter_cfg.c **** 		/* Enable UDB array */
 410:Generated_Source\PSoC5/cyfitter_cfg.c **** 		CY_SET_XTND_REG8((void CYFAR *)CYREG_PM_ACT_CFG0, CY_GET_XTND_REG8((void CYFAR *)CYREG_PM_ACT_CFG
 489              		.loc 1 410 0
 490 004e 2B4C     		ldr	r4, .L35+16
 491              	.LVL40:
 492 0050 2378     		ldrb	r3, [r4]	@ zero_extendqisi2
 493 0052 43F04003 		orr	r3, r3, #64
 494 0056 2370     		strb	r3, [r4]
 411:Generated_Source\PSoC5/cyfitter_cfg.c **** 		CY_SET_XTND_REG8((void CYFAR *)CYREG_PM_AVAIL_CR2, CY_GET_XTND_REG8((void CYFAR *)CYREG_PM_AVAIL_
 495              		.loc 1 411 0
 496 0058 A2F58632 		sub	r2, r2, #68608
 497 005c 513A     		subs	r2, r2, #81
 498 005e 1378     		ldrb	r3, [r2]	@ zero_extendqisi2
 499 0060 43F01003 		orr	r3, r3, #16
 500 0064 1370     		strb	r3, [r2]
 501              	.LBE3:
 412:Generated_Source\PSoC5/cyfitter_cfg.c **** 	}
 413:Generated_Source\PSoC5/cyfitter_cfg.c **** 
 414:Generated_Source\PSoC5/cyfitter_cfg.c **** 
 415:Generated_Source\PSoC5/cyfitter_cfg.c **** 	/* Perform second pass device configuration. These items must be configured in specific order afte
 416:Generated_Source\PSoC5/cyfitter_cfg.c **** 	CYCONFIGCPY((void CYFAR *)(CYREG_PRT0_DR), (const void CYFAR *)(BS_IOPINS0_0_VAL), 10u);
 502              		.loc 1 416 0
 503 0066 2648     		ldr	r0, .L35+20
 504 0068 2649     		ldr	r1, .L35+24
 505 006a 0A22     		movs	r2, #10
 506 006c FFF7FEFF 		bl	CYCONFIGCPY
ARM GAS  C:\Users\DGILLI~1\AppData\Local\Temp\cchCzDtg.s 			page 18


 507              	.LVL41:
 417:Generated_Source\PSoC5/cyfitter_cfg.c **** 	CYCONFIGCPY((void CYFAR *)(CYREG_PRT12_DM0), (const void CYFAR *)(BS_IOPINS0_7_VAL), 8u);
 508              		.loc 1 417 0
 509 0070 2548     		ldr	r0, .L35+28
 510 0072 2649     		ldr	r1, .L35+32
 511 0074 0822     		movs	r2, #8
 512 0076 FFF7FEFF 		bl	CYCONFIGCPY
 513              	.LVL42:
 418:Generated_Source\PSoC5/cyfitter_cfg.c **** 	CYCONFIGCPY((void CYFAR *)(CYREG_PRT15_DR), (const void CYFAR *)(BS_IOPINS0_8_VAL), 10u);
 514              		.loc 1 418 0
 515 007a 2548     		ldr	r0, .L35+36
 516 007c 2549     		ldr	r1, .L35+40
 517 007e 0A22     		movs	r2, #10
 518 0080 FFF7FEFF 		bl	CYCONFIGCPY
 519              	.LVL43:
 419:Generated_Source\PSoC5/cyfitter_cfg.c **** 	CYCONFIGCPY((void CYFAR *)(CYREG_PRT1_DM0), (const void CYFAR *)(BS_IOPINS0_1_VAL), 8u);
 520              		.loc 1 419 0
 521 0084 2448     		ldr	r0, .L35+44
 522 0086 2549     		ldr	r1, .L35+48
 523 0088 0822     		movs	r2, #8
 524 008a FFF7FEFF 		bl	CYCONFIGCPY
 525              	.LVL44:
 420:Generated_Source\PSoC5/cyfitter_cfg.c **** 	CYCONFIGCPY((void CYFAR *)(CYREG_PRT2_DM0), (const void CYFAR *)(BS_IOPINS0_2_VAL), 8u);
 526              		.loc 1 420 0
 527 008e 2448     		ldr	r0, .L35+52
 528 0090 2449     		ldr	r1, .L35+56
 529 0092 0822     		movs	r2, #8
 530 0094 FFF7FEFF 		bl	CYCONFIGCPY
 531              	.LVL45:
 421:Generated_Source\PSoC5/cyfitter_cfg.c **** 	CYCONFIGCPY((void CYFAR *)(CYREG_PRT3_DR), (const void CYFAR *)(BS_IOPINS0_3_VAL), 10u);
 532              		.loc 1 421 0
 533 0098 2348     		ldr	r0, .L35+60
 534 009a 2449     		ldr	r1, .L35+64
 535 009c 0A22     		movs	r2, #10
 536 009e FFF7FEFF 		bl	CYCONFIGCPY
 537              	.LVL46:
 422:Generated_Source\PSoC5/cyfitter_cfg.c **** 	CYCONFIGCPY((void CYFAR *)(CYREG_PRT4_DR), (const void CYFAR *)(BS_IOPINS0_4_VAL), 10u);
 538              		.loc 1 422 0
 539 00a2 2348     		ldr	r0, .L35+68
 540 00a4 2349     		ldr	r1, .L35+72
 541 00a6 0A22     		movs	r2, #10
 542 00a8 FFF7FEFF 		bl	CYCONFIGCPY
 543              	.LVL47:
 423:Generated_Source\PSoC5/cyfitter_cfg.c **** 	CYCONFIGCPY((void CYFAR *)(CYREG_PRT5_DM0), (const void CYFAR *)(BS_IOPINS0_5_VAL), 8u);
 544              		.loc 1 423 0
 545 00ac 2248     		ldr	r0, .L35+76
 546 00ae 2349     		ldr	r1, .L35+80
 547 00b0 0822     		movs	r2, #8
 548 00b2 FFF7FEFF 		bl	CYCONFIGCPY
 549              	.LVL48:
 424:Generated_Source\PSoC5/cyfitter_cfg.c **** 	CYCONFIGCPY((void CYFAR *)(CYREG_PRT6_DM0), (const void CYFAR *)(BS_IOPINS0_6_VAL), 8u);
 550              		.loc 1 424 0
 551 00b6 2248     		ldr	r0, .L35+84
 552 00b8 2249     		ldr	r1, .L35+88
 553 00ba 0822     		movs	r2, #8
 554 00bc FFF7FEFF 		bl	CYCONFIGCPY
 555              	.LVL49:
ARM GAS  C:\Users\DGILLI~1\AppData\Local\Temp\cchCzDtg.s 			page 19


 425:Generated_Source\PSoC5/cyfitter_cfg.c **** 	/* Switch Boost to the precision bandgap reference from its internal reference */
 426:Generated_Source\PSoC5/cyfitter_cfg.c **** 	CY_SET_REG8((void CYXDATA *)CYREG_BOOST_CR2, (CY_GET_REG8((void CYXDATA *)CYREG_BOOST_CR2) | 0x08u
 556              		.loc 1 426 0
 557 00c0 214A     		ldr	r2, .L35+92
 558 00c2 1378     		ldrb	r3, [r2]	@ zero_extendqisi2
 559 00c4 43F00803 		orr	r3, r3, #8
 560 00c8 1370     		strb	r3, [r2]
 427:Generated_Source\PSoC5/cyfitter_cfg.c **** 
 428:Generated_Source\PSoC5/cyfitter_cfg.c **** 	/* Set Flash Cycles based on max possible frequency in case a glitch occurs during ClockSetup(). *
 429:Generated_Source\PSoC5/cyfitter_cfg.c **** 	CY_SET_XTND_REG8((void CYFAR *)(CYREG_CACHE_CC_CTL), (((CYDEV_INSTRUCT_CACHE_ENABLED) != 0) ? 0x01
 561              		.loc 1 429 0
 562 00ca 204E     		ldr	r6, .L35+96
 563 00cc 0125     		movs	r5, #1
 564 00ce 3570     		strb	r5, [r6]
 430:Generated_Source\PSoC5/cyfitter_cfg.c **** 	/* Setup clocks based on selections from Clock DWR */
 431:Generated_Source\PSoC5/cyfitter_cfg.c **** 	ClockSetup();
 565              		.loc 1 431 0
 566 00d0 FFF7FEFF 		bl	ClockSetup
 567              	.LVL50:
 432:Generated_Source\PSoC5/cyfitter_cfg.c **** 	/* Set Flash Cycles based on newly configured 32.00MHz Bus Clock. */
 433:Generated_Source\PSoC5/cyfitter_cfg.c **** 	CY_SET_XTND_REG8((void CYFAR *)(CYREG_CACHE_CC_CTL), (((CYDEV_INSTRUCT_CACHE_ENABLED) != 0) ? 0x81
 568              		.loc 1 433 0
 569 00d4 8123     		movs	r3, #129
 570 00d6 3370     		strb	r3, [r6]
 434:Generated_Source\PSoC5/cyfitter_cfg.c **** 	CY_SET_XTND_REG8((void CYFAR *)(CYREG_PANTHER_WAITPIPE), 0x01u);
 571              		.loc 1 434 0
 572 00d8 1D4B     		ldr	r3, .L35+100
 573 00da 1D70     		strb	r5, [r3]
 435:Generated_Source\PSoC5/cyfitter_cfg.c **** 
 436:Generated_Source\PSoC5/cyfitter_cfg.c **** 	/* Perform basic analog initialization to defaults */
 437:Generated_Source\PSoC5/cyfitter_cfg.c **** 	AnalogSetDefault();
 574              		.loc 1 437 0
 575 00dc FFF7FEFF 		bl	AnalogSetDefault
 576              	.LVL51:
 438:Generated_Source\PSoC5/cyfitter_cfg.c **** 
 439:Generated_Source\PSoC5/cyfitter_cfg.c **** 	/* Configure alternate active mode */
 440:Generated_Source\PSoC5/cyfitter_cfg.c **** 	CYCONFIGCPY((void CYFAR *)CYDEV_PM_STBY_BASE, (const void CYFAR *)CYDEV_PM_ACT_BASE, 14u);
 577              		.loc 1 440 0
 578 00e0 1C48     		ldr	r0, .L35+104
 579 00e2 2146     		mov	r1, r4
 580 00e4 0E22     		movs	r2, #14
 581 00e6 FFF7FEFF 		bl	CYCONFIGCPY
 582              	.LVL52:
 583 00ea 70BD     		pop	{r4, r5, r6, pc}
 584              	.L36:
 585              		.align	2
 586              	.L35:
 587 00ec E8460040 		.word	1073759976
 588 00f0 00000000 		.word	.LANCHOR0
 589 00f4 6C000048 		.word	1207959660
 590 00f8 03500140 		.word	1073827843
 591 00fc A0430040 		.word	1073759136
 592 0100 00510040 		.word	1073762560
 593 0104 A8060048 		.word	1207961256
 594 0108 C2510040 		.word	1073762754
 595 010c B4060048 		.word	1207961268
 596 0110 F0510040 		.word	1073762800
ARM GAS  C:\Users\DGILLI~1\AppData\Local\Temp\cchCzDtg.s 			page 20


 597 0114 BC060048 		.word	1207961276
 598 0118 12510040 		.word	1073762578
 599 011c C8060048 		.word	1207961288
 600 0120 22510040 		.word	1073762594
 601 0124 D0060048 		.word	1207961296
 602 0128 30510040 		.word	1073762608
 603 012c D8060048 		.word	1207961304
 604 0130 40510040 		.word	1073762624
 605 0134 E4060048 		.word	1207961316
 606 0138 52510040 		.word	1073762642
 607 013c F0060048 		.word	1207961328
 608 0140 62510040 		.word	1073762658
 609 0144 F8060048 		.word	1207961336
 610 0148 22430040 		.word	1073759010
 611 014c 00480040 		.word	1073760256
 612 0150 04000840 		.word	1074266116
 613 0154 B0430040 		.word	1073759152
 614              		.cfi_endproc
 615              	.LFE8:
 616              		.size	cyfitter_cfg, .-cyfitter_cfg
 617              		.section	.rodata
 618              		.align	2
 619              		.set	.LANCHOR0,. + 0
 620              		.type	cfg_memset_list.4883, %object
 621              		.size	cfg_memset_list.4883, 30
 622              	cfg_memset_list.4883:
 623 0000 00000140 		.word	1073807360
 624 0004 0010     		.short	4096
 625 0006 00140140 		.4byte	1073812480
 626 000a 0008     		.short	2048
 627 000c 00400140 		.word	1073823744
 628 0010 000A     		.short	2560
 629 0012 004C0140 		.4byte	1073826816
 630 0016 0002     		.short	512
 631 0018 00500140 		.word	1073827840
 632 001c 2000     		.short	32
 633 001e 0000     		.text
 634              	.Letext0:
 635              		.file 2 "c:\\program files (x86)\\cypress\\psoc creator\\4.0\\psoc creator\\import\\gnu\\arm\\4.9.
 636              		.file 3 "Generated_Source\\PSoC5\\cytypes.h"
 637              		.file 4 "Generated_Source\\PSoC5\\CyLib.h"