ARM GAS  C:\Users\DGILLI~1\AppData\Local\Temp\ccYBqQlK.s 			page 1


   1              		.syntax unified
   2              		.cpu cortex-m3
   3              		.fpu softvfp
   4              		.eabi_attribute 20, 1
   5              		.eabi_attribute 21, 1
   6              		.eabi_attribute 23, 3
   7              		.eabi_attribute 24, 1
   8              		.eabi_attribute 25, 1
   9              		.eabi_attribute 26, 1
  10              		.eabi_attribute 30, 1
  11              		.eabi_attribute 34, 1
  12              		.eabi_attribute 18, 4
  13              		.thumb
  14              		.file	"DIGIO8Driver.c"
  15              		.text
  16              	.Ltext0:
  17              		.cfi_sections	.debug_frame
  18              		.section	.text.initDIGIO8Card,"ax",%progbits
  19              		.align	2
  20              		.global	initDIGIO8Card
  21              		.thumb
  22              		.thumb_func
  23              		.type	initDIGIO8Card, %function
  24              	initDIGIO8Card:
  25              	.LFB63:
  26              		.file 1 "DIGIO8Driver.c"
   1:DIGIO8Driver.c **** /* ========================================
   2:DIGIO8Driver.c ****  * DIGIO8Driver.c
   3:DIGIO8Driver.c ****  * Copyright Land Boards LLC, 2017
   4:DIGIO8Driver.c ****  * All Rights Reserved
   5:DIGIO8Driver.c ****  * UNPUBLISHED, LICENSED SOFTWARE.
   6:DIGIO8Driver.c ****  *
   7:DIGIO8Driver.c ****  * CONFIDENTIAL AND PROPRIETARY INFORMATION
   8:DIGIO8Driver.c ****  * WHICH IS THE PROPERTY OF Land Boards, LLC.
   9:DIGIO8Driver.c ****  *
  10:DIGIO8Driver.c ****  * ========================================
  11:DIGIO8Driver.c **** */
  12:DIGIO8Driver.c **** 
  13:DIGIO8Driver.c **** #include <project.h>
  14:DIGIO8Driver.c **** 
  15:DIGIO8Driver.c **** uint8 myWrBuffer[2];
  16:DIGIO8Driver.c **** //uint8 wrDataBuffer[] = {0xf0,0,0,0,0,0x02,0xf0,0,0,0};
  17:DIGIO8Driver.c **** uint8 wrDataBuffer[] = {0xf0,0,0,0,0,0,0,0,0,0};
  18:DIGIO8Driver.c **** 
  19:DIGIO8Driver.c **** #define MCP23008_GPIOREGADR 0x09
  20:DIGIO8Driver.c **** #define MCP23008_OLATREGADR 0x0a
  21:DIGIO8Driver.c **** 
  22:DIGIO8Driver.c **** //////////////////////////////////////////////////////////////////////////////
  23:DIGIO8Driver.c **** // initDIGIO8Card(void) - 
  24:DIGIO8Driver.c **** //////////////////////////////////////////////////////////////////////////////
  25:DIGIO8Driver.c **** 
  26:DIGIO8Driver.c **** void initDIGIO8Card(void)
  27:DIGIO8Driver.c **** {
  27              		.loc 1 27 0
  28              		.cfi_startproc
  29              		@ args = 0, pretend = 0, frame = 0
  30              		@ frame_needed = 0, uses_anonymous_args = 0
ARM GAS  C:\Users\DGILLI~1\AppData\Local\Temp\ccYBqQlK.s 			page 2


  31 0000 08B5     		push	{r3, lr}
  32              		.cfi_def_cfa_offset 8
  33              		.cfi_offset 3, -8
  34              		.cfi_offset 14, -4
  28:DIGIO8Driver.c ****     I2C_MasterWriteBuf(0x20, wrDataBuffer, 10, I2C_MODE_COMPLETE_XFER);
  35              		.loc 1 28 0
  36 0002 2020     		movs	r0, #32
  37 0004 0249     		ldr	r1, .L3
  38 0006 0A22     		movs	r2, #10
  39 0008 0023     		movs	r3, #0
  40 000a FFF7FEFF 		bl	I2C_MasterWriteBuf
  41              	.LVL0:
  42 000e 08BD     		pop	{r3, pc}
  43              	.L4:
  44              		.align	2
  45              	.L3:
  46 0010 00000000 		.word	.LANCHOR0
  47              		.cfi_endproc
  48              	.LFE63:
  49              		.size	initDIGIO8Card, .-initDIGIO8Card
  50              		.section	.text.writeDIGIO8Card,"ax",%progbits
  51              		.align	2
  52              		.global	writeDIGIO8Card
  53              		.thumb
  54              		.thumb_func
  55              		.type	writeDIGIO8Card, %function
  56              	writeDIGIO8Card:
  57              	.LFB64:
  29:DIGIO8Driver.c **** }
  30:DIGIO8Driver.c **** 
  31:DIGIO8Driver.c **** //////////////////////////////////////////////////////////////////////////////
  32:DIGIO8Driver.c **** // writeDIGIO8Card(uint8_t outData) - 
  33:DIGIO8Driver.c **** //////////////////////////////////////////////////////////////////////////////
  34:DIGIO8Driver.c **** 
  35:DIGIO8Driver.c **** 
  36:DIGIO8Driver.c **** void writeDIGIO8Card(uint8 outData)
  37:DIGIO8Driver.c **** {
  58              		.loc 1 37 0
  59              		.cfi_startproc
  60              		@ args = 0, pretend = 0, frame = 0
  61              		@ frame_needed = 0, uses_anonymous_args = 0
  62              	.LVL1:
  63 0000 10B5     		push	{r4, lr}
  64              		.cfi_def_cfa_offset 8
  65              		.cfi_offset 4, -8
  66              		.cfi_offset 14, -4
  38:DIGIO8Driver.c ****     myWrBuffer[0]= MCP23008_OLATREGADR;
  67              		.loc 1 38 0
  68 0002 064C     		ldr	r4, .L7
  69 0004 0A23     		movs	r3, #10
  70 0006 2370     		strb	r3, [r4]
  39:DIGIO8Driver.c ****     myWrBuffer[1] = outData;
  71              		.loc 1 39 0
  72 0008 6070     		strb	r0, [r4, #1]
  40:DIGIO8Driver.c ****     Control_Reg_1_Write(myWrBuffer[1]);
  73              		.loc 1 40 0
  74 000a FFF7FEFF 		bl	Control_Reg_1_Write
ARM GAS  C:\Users\DGILLI~1\AppData\Local\Temp\ccYBqQlK.s 			page 3


  75              	.LVL2:
  41:DIGIO8Driver.c ****     I2C_MasterWriteBuf(0x20, myWrBuffer, 2, I2C_MODE_COMPLETE_XFER);
  76              		.loc 1 41 0
  77 000e 2020     		movs	r0, #32
  78 0010 2146     		mov	r1, r4
  79 0012 0222     		movs	r2, #2
  80 0014 0023     		movs	r3, #0
  81 0016 FFF7FEFF 		bl	I2C_MasterWriteBuf
  82              	.LVL3:
  83 001a 10BD     		pop	{r4, pc}
  84              	.L8:
  85              		.align	2
  86              	.L7:
  87 001c 00000000 		.word	myWrBuffer
  88              		.cfi_endproc
  89              	.LFE64:
  90              		.size	writeDIGIO8Card, .-writeDIGIO8Card
  91              		.section	.text.readDIGIO8Card,"ax",%progbits
  92              		.align	2
  93              		.global	readDIGIO8Card
  94              		.thumb
  95              		.thumb_func
  96              		.type	readDIGIO8Card, %function
  97              	readDIGIO8Card:
  98              	.LFB65:
  42:DIGIO8Driver.c **** }
  43:DIGIO8Driver.c **** 
  44:DIGIO8Driver.c **** //////////////////////////////////////////////////////////////////////////////
  45:DIGIO8Driver.c **** // readDIGIO8Card(void)
  46:DIGIO8Driver.c **** //////////////////////////////////////////////////////////////////////////////
  47:DIGIO8Driver.c **** 
  48:DIGIO8Driver.c **** uint8 readDIGIO8Card(void)
  49:DIGIO8Driver.c **** {
  99              		.loc 1 49 0
 100              		.cfi_startproc
 101              		@ args = 0, pretend = 0, frame = 0
 102              		@ frame_needed = 0, uses_anonymous_args = 0
 103 0000 08B5     		push	{r3, lr}
 104              		.cfi_def_cfa_offset 8
 105              		.cfi_offset 3, -8
 106              		.cfi_offset 14, -4
  50:DIGIO8Driver.c ****     uint8_t rdBuff;
  51:DIGIO8Driver.c ****     myWrBuffer[0] = MCP23008_GPIOREGADR;
 107              		.loc 1 51 0
 108 0002 0749     		ldr	r1, .L11
 109 0004 0923     		movs	r3, #9
 110 0006 0B70     		strb	r3, [r1]
  52:DIGIO8Driver.c ****     I2C_MasterWriteBuf(0x20, myWrBuffer, 1, I2C_MODE_COMPLETE_XFER);
 111              		.loc 1 52 0
 112 0008 2020     		movs	r0, #32
 113 000a 0122     		movs	r2, #1
 114 000c 0023     		movs	r3, #0
 115 000e FFF7FEFF 		bl	I2C_MasterWriteBuf
 116              	.LVL4:
  53:DIGIO8Driver.c ****     rdBuff = I2C_MasterReadByte(I2C_ACK_DATA);
 117              		.loc 1 53 0
 118 0012 0120     		movs	r0, #1
ARM GAS  C:\Users\DGILLI~1\AppData\Local\Temp\ccYBqQlK.s 			page 4


 119 0014 FFF7FEFF 		bl	I2C_MasterReadByte
 120              	.LVL5:
  54:DIGIO8Driver.c ****     return rdBuff>>4;
  55:DIGIO8Driver.c **** }
 121              		.loc 1 55 0
 122 0018 C0F30710 		ubfx	r0, r0, #4, #8
 123              	.LVL6:
 124 001c 08BD     		pop	{r3, pc}
 125              	.L12:
 126 001e 00BF     		.align	2
 127              	.L11:
 128 0020 00000000 		.word	myWrBuffer
 129              		.cfi_endproc
 130              	.LFE65:
 131              		.size	readDIGIO8Card, .-readDIGIO8Card
 132              		.global	wrDataBuffer
 133              		.comm	myWrBuffer,2,4
 134              		.data
 135              		.align	2
 136              		.set	.LANCHOR0,. + 0
 137              		.type	wrDataBuffer, %object
 138              		.size	wrDataBuffer, 10
 139              	wrDataBuffer:
 140 0000 F0       		.byte	-16
 141 0001 00       		.byte	0
 142 0002 00       		.byte	0
 143 0003 00       		.byte	0
 144 0004 00       		.byte	0
 145 0005 00       		.byte	0
 146 0006 00       		.byte	0
 147 0007 00       		.byte	0
 148 0008 00       		.byte	0
 149 0009 00       		.byte	0
 150 000a 0000     		.text
 151              	.Letext0:
 152              		.file 2 "c:\\program files (x86)\\cypress\\psoc creator\\4.0\\psoc creator\\import\\gnu\\arm\\4.9.
 153              		.file 3 "c:\\program files (x86)\\cypress\\psoc creator\\4.0\\psoc creator\\import\\gnu\\arm\\4.9.
 154              		.file 4 "Generated_Source\\PSoC5/cytypes.h"
 155              		.file 5 "Generated_Source\\PSoC5/core_cm3.h"
 156              		.file 6 "Generated_Source\\PSoC5/Control_Reg_1.h"
 157              		.file 7 "Generated_Source\\PSoC5/I2C.h"