ARM GAS  C:\Users\DGILLI~1\AppData\Local\Temp\ccL5aEqr.s 			page 1


   1              		.syntax unified
   2              		.cpu cortex-m3
   3              		.fpu softvfp
   4              		.eabi_attribute 20, 1
   5              		.eabi_attribute 21, 1
   6              		.eabi_attribute 23, 3
   7              		.eabi_attribute 24, 1
   8              		.eabi_attribute 25, 1
   9              		.eabi_attribute 26, 1
  10              		.eabi_attribute 30, 1
  11              		.eabi_attribute 34, 1
  12              		.eabi_attribute 18, 4
  13              		.thumb
  14              		.file	"main.c"
  15              		.text
  16              	.Ltext0:
  17              		.cfi_sections	.debug_frame
  18              		.section	.text.main,"ax",%progbits
  19              		.align	2
  20              		.global	main
  21              		.thumb
  22              		.thumb_func
  23              		.type	main, %function
  24              	main:
  25              	.LFB63:
  26              		.file 1 "main.c"
   1:main.c        **** /* ========================================
   2:main.c        ****  *
   3:main.c        ****  * Copyright Land Boards, LLC, 2016
   4:main.c        ****  * All Rights Reserved
   5:main.c        ****  * UNPUBLISHED, LICENSED SOFTWARE.
   6:main.c        ****  *
   7:main.c        ****  * CONFIDENTIAL AND PROPRIETARY INFORMATION
   8:main.c        ****  * WHICH IS THE PROPERTY OF your company.
   9:main.c        ****  *
  10:main.c        ****  * ========================================
  11:main.c        **** */
  12:main.c        **** 
  13:main.c        **** #include <project.h>
  14:main.c        **** 
  15:main.c        **** uint8 wrDataBuffer[] = {0,0,0,0,0,0,0,0,0,0};
  16:main.c        **** #define MCP23008_OLATADR 0x0a
  17:main.c        **** #define MCP23017_OLATADR 0x014
  18:main.c        **** #define MCP23008_BUFLEN 10
  19:main.c        **** #define MCP23017_BUFLEN 11
  20:main.c        **** 
  21:main.c        **** int main()
  22:main.c        **** {
  27              		.loc 1 22 0
  28              		.cfi_startproc
  29              		@ Volatile: function does not return.
  30              		@ args = 0, pretend = 0, frame = 0
  31              		@ frame_needed = 0, uses_anonymous_args = 0
  32 0000 08B5     		push	{r3, lr}
  33              		.cfi_def_cfa_offset 8
  34              		.cfi_offset 3, -8
  35              		.cfi_offset 14, -4
ARM GAS  C:\Users\DGILLI~1\AppData\Local\Temp\ccL5aEqr.s 			page 2


  23:main.c        ****     CyGlobalIntEnable; /* Enable global interrupts. */
  36              		.loc 1 23 0
  37              	@ 23 "main.c" 1
  38 0002 62B6     		CPSIE   i
  39              	@ 0 "" 2
  24:main.c        ****     I2C_Start();
  40              		.loc 1 24 0
  41              		.thumb
  42 0004 FFF7FEFF 		bl	I2C_Start
  43              	.LVL0:
  25:main.c        ****     I2C_MasterWriteBuf(0x20, wrDataBuffer, MCP23008_BUFLEN, I2C_MODE_COMPLETE_XFER);
  44              		.loc 1 25 0
  45 0008 134C     		ldr	r4, .L4
  46 000a 2020     		movs	r0, #32
  47 000c 2146     		mov	r1, r4
  48 000e 0A22     		movs	r2, #10
  49 0010 0023     		movs	r3, #0
  50 0012 FFF7FEFF 		bl	I2C_MasterWriteBuf
  51              	.LVL1:
  26:main.c        ****     CyDelay(500);
  52              		.loc 1 26 0
  53 0016 4FF4FA70 		mov	r0, #500
  54 001a FFF7FEFF 		bl	CyDelay
  55              	.LVL2:
  27:main.c        **** 
  28:main.c        ****     /* Place your initialization/startup code here (e.g. MyInst_Start()) */
  29:main.c        **** 
  30:main.c        ****     wrDataBuffer[0]= MCP23008_OLATADR;    // OLATA register address
  56              		.loc 1 30 0
  57 001e 0A23     		movs	r3, #10
  58 0020 2370     		strb	r3, [r4]
  59              	.L2:
  31:main.c        ****     for(;;)
  32:main.c        ****     {
  33:main.c        ****         wrDataBuffer[1] = 0x0;  // set the output to ZERO
  60              		.loc 1 33 0 discriminator 1
  61 0022 0D4C     		ldr	r4, .L4
  62 0024 0025     		movs	r5, #0
  63 0026 6570     		strb	r5, [r4, #1]
  34:main.c        ****         I2C_MasterWriteBuf(0x20, wrDataBuffer, 2, I2C_MODE_COMPLETE_XFER);
  64              		.loc 1 34 0 discriminator 1
  65 0028 2020     		movs	r0, #32
  66 002a 2146     		mov	r1, r4
  67 002c 0222     		movs	r2, #2
  68 002e 2B46     		mov	r3, r5
  69 0030 FFF7FEFF 		bl	I2C_MasterWriteBuf
  70              	.LVL3:
  35:main.c        ****         CyDelay(500);
  71              		.loc 1 35 0 discriminator 1
  72 0034 4FF4FA70 		mov	r0, #500
  73 0038 FFF7FEFF 		bl	CyDelay
  74              	.LVL4:
  36:main.c        ****         wrDataBuffer[1] = 0x1;  // set the output to ONE
  75              		.loc 1 36 0 discriminator 1
  76 003c 0123     		movs	r3, #1
  77 003e 6370     		strb	r3, [r4, #1]
  37:main.c        ****         I2C_MasterWriteBuf(0x20, wrDataBuffer, 2, I2C_MODE_COMPLETE_XFER);
ARM GAS  C:\Users\DGILLI~1\AppData\Local\Temp\ccL5aEqr.s 			page 3


  78              		.loc 1 37 0 discriminator 1
  79 0040 2020     		movs	r0, #32
  80 0042 2146     		mov	r1, r4
  81 0044 0222     		movs	r2, #2
  82 0046 2B46     		mov	r3, r5
  83 0048 FFF7FEFF 		bl	I2C_MasterWriteBuf
  84              	.LVL5:
  38:main.c        ****         CyDelay(500);
  85              		.loc 1 38 0 discriminator 1
  86 004c 4FF4FA70 		mov	r0, #500
  87 0050 FFF7FEFF 		bl	CyDelay
  88              	.LVL6:
  39:main.c        ****     }
  89              		.loc 1 39 0 discriminator 1
  90 0054 E5E7     		b	.L2
  91              	.L5:
  92 0056 00BF     		.align	2
  93              	.L4:
  94 0058 00000000 		.word	.LANCHOR0
  95              		.cfi_endproc
  96              	.LFE63:
  97              		.size	main, .-main
  98              		.section	.text.I2CWriteByte,"ax",%progbits
  99              		.align	2
 100              		.global	I2CWriteByte
 101              		.thumb
 102              		.thumb_func
 103              		.type	I2CWriteByte, %function
 104              	I2CWriteByte:
 105              	.LFB64:
  40:main.c        **** }
  41:main.c        **** 
  42:main.c        **** 
  43:main.c        **** //////////////////////////////////////////////////////////////////////////////
  44:main.c        **** // I2CWriteByte - Function to make it easier to write to a single location
  45:main.c        **** //////////////////////////////////////////////////////////////////////////////
  46:main.c        **** 
  47:main.c        **** int I2CWriteByte(uint8 I2C_addr, uint8 mcpRegister, uint8 outValue)
  48:main.c        **** {
 106              		.loc 1 48 0
 107              		.cfi_startproc
 108              		@ args = 0, pretend = 0, frame = 0
 109              		@ frame_needed = 0, uses_anonymous_args = 0
 110              	.LVL7:
 111 0000 08B5     		push	{r3, lr}
 112              		.cfi_def_cfa_offset 8
 113              		.cfi_offset 3, -8
 114              		.cfi_offset 14, -4
  49:main.c        ****     wrDataBuffer[0] = mcpRegister;
 115              		.loc 1 49 0
 116 0002 074B     		ldr	r3, .L9
 117 0004 1970     		strb	r1, [r3]
  50:main.c        ****     wrDataBuffer[1] = outValue;
 118              		.loc 1 50 0
 119 0006 5A70     		strb	r2, [r3, #1]
  51:main.c        ****     I2C_MasterWriteBuf(I2C_addr, wrDataBuffer, 2, I2C_MODE_COMPLETE_XFER);
 120              		.loc 1 51 0
ARM GAS  C:\Users\DGILLI~1\AppData\Local\Temp\ccL5aEqr.s 			page 4


 121 0008 1946     		mov	r1, r3
 122              	.LVL8:
 123 000a 0222     		movs	r2, #2
 124              	.LVL9:
 125 000c 0023     		movs	r3, #0
 126 000e FFF7FEFF 		bl	I2C_MasterWriteBuf
 127              	.LVL10:
 128              	.L7:
  52:main.c        **** //    WriteLED(!ReadLED());
  53:main.c        ****     while(I2C_MasterStatus() != I2C_MSTAT_WR_CMPLT);
 129              		.loc 1 53 0 discriminator 1
 130 0012 FFF7FEFF 		bl	I2C_MasterStatus
 131              	.LVL11:
 132 0016 0228     		cmp	r0, #2
 133 0018 FBD1     		bne	.L7
  54:main.c        ****     return(1);
  55:main.c        **** }
 134              		.loc 1 55 0
 135 001a 0120     		movs	r0, #1
 136 001c 08BD     		pop	{r3, pc}
 137              	.L10:
 138 001e 00BF     		.align	2
 139              	.L9:
 140 0020 00000000 		.word	.LANCHOR0
 141              		.cfi_endproc
 142              	.LFE64:
 143              		.size	I2CWriteByte, .-I2CWriteByte
 144              		.section	.text.I2CReadByte,"ax",%progbits
 145              		.align	2
 146              		.global	I2CReadByte
 147              		.thumb
 148              		.thumb_func
 149              		.type	I2CReadByte, %function
 150              	I2CReadByte:
 151              	.LFB65:
  56:main.c        **** 
  57:main.c        **** //////////////////////////////////////////////////////////////////////////////
  58:main.c        **** // I2CReadByte - Function to make it easier to read a byte from a single location
  59:main.c        **** //////////////////////////////////////////////////////////////////////////////
  60:main.c        **** 
  61:main.c        **** uint8 I2CReadByte(uint8 I2C_addr, uint8 mcpRegister)
  62:main.c        **** {
 152              		.loc 1 62 0
 153              		.cfi_startproc
 154              		@ args = 0, pretend = 0, frame = 0
 155              		@ frame_needed = 0, uses_anonymous_args = 0
 156              	.LVL12:
 157 0000 08B5     		push	{r3, lr}
 158              		.cfi_def_cfa_offset 8
 159              		.cfi_offset 3, -8
 160              		.cfi_offset 14, -4
  63:main.c        ****     uint8 rdBuff;
  64:main.c        ****     wrDataBuffer[0] = mcpRegister;
 161              		.loc 1 64 0
 162 0002 054B     		ldr	r3, .L13
 163 0004 1970     		strb	r1, [r3]
  65:main.c        ****     I2C_MasterWriteBuf(I2C_addr, wrDataBuffer, 1, I2C_MODE_COMPLETE_XFER);
ARM GAS  C:\Users\DGILLI~1\AppData\Local\Temp\ccL5aEqr.s 			page 5


 164              		.loc 1 65 0
 165 0006 1946     		mov	r1, r3
 166              	.LVL13:
 167 0008 0122     		movs	r2, #1
 168 000a 0023     		movs	r3, #0
 169 000c FFF7FEFF 		bl	I2C_MasterWriteBuf
 170              	.LVL14:
  66:main.c        ****     rdBuff = I2C_MasterReadByte(I2C_ACK_DATA);
 171              		.loc 1 66 0
 172 0010 0120     		movs	r0, #1
 173 0012 FFF7FEFF 		bl	I2C_MasterReadByte
 174              	.LVL15:
  67:main.c        ****     return(rdBuff);
  68:main.c        **** }
 175              		.loc 1 68 0
 176 0016 08BD     		pop	{r3, pc}
 177              	.L14:
 178              		.align	2
 179              	.L13:
 180 0018 00000000 		.word	.LANCHOR0
 181              		.cfi_endproc
 182              	.LFE65:
 183              		.size	I2CReadByte, .-I2CReadByte
 184              		.global	wrDataBuffer
 185              		.bss
 186              		.align	2
 187              		.set	.LANCHOR0,. + 0
 188              		.type	wrDataBuffer, %object
 189              		.size	wrDataBuffer, 10
 190              	wrDataBuffer:
 191 0000 00000000 		.space	10
 191      00000000 
 191      0000
 192 000a 0000     		.text
 193              	.Letext0:
 194              		.file 2 "c:\\program files (x86)\\cypress\\psoc creator\\4.0\\psoc creator\\import\\gnu\\arm\\4.9.
 195              		.file 3 "c:\\program files (x86)\\cypress\\psoc creator\\4.0\\psoc creator\\import\\gnu\\arm\\4.9.
 196              		.file 4 "Generated_Source\\PSoC5/cytypes.h"
 197              		.file 5 "Generated_Source\\PSoC5/core_cm3.h"
 198              		.file 6 "Generated_Source\\PSoC5/CyLib.h"
 199              		.file 7 "Generated_Source\\PSoC5/I2C.h"