ARM GAS  C:\Users\DGILLI~1\AppData\Local\Temp\ccIRQxCb.s 			page 1


   1              		.syntax unified
   2              		.cpu cortex-m3
   3              		.fpu softvfp
   4              		.eabi_attribute 20, 1
   5              		.eabi_attribute 21, 1
   6              		.eabi_attribute 23, 3
   7              		.eabi_attribute 24, 1
   8              		.eabi_attribute 25, 1
   9              		.eabi_attribute 26, 1
  10              		.eabi_attribute 30, 6
  11              		.eabi_attribute 34, 1
  12              		.eabi_attribute 18, 4
  13              		.thumb
  14              		.file	"myI2CMaster.c"
  15              		.text
  16              	.Ltext0:
  17              		.cfi_sections	.debug_frame
  18              		.comm	wrBuf,5,4
  19              		.comm	rdBuf,5,4
  20              		.section	.rodata
  21              		.align	2
  22              	.LC0:
  23 0000 5472616E 		.ascii	"Transfer has been halted.\000"
  23      73666572 
  23      20686173 
  23      20626565 
  23      6E206861 
  24 001a 0000     		.align	2
  25              	.LC1:
  26 001c 53686F72 		.ascii	"Short Transfer Error\000"
  26      74205472 
  26      616E7366 
  26      65722045 
  26      72726F72 
  27 0031 000000   		.align	2
  28              	.LC2:
  29 0034 536C6176 		.ascii	"Slave did not ack the address\000"
  29      65206469 
  29      64206E6F 
  29      74206163 
  29      6B207468 
  30 0052 0000     		.align	2
  31              	.LC3:
  32 0054 49324320 		.ascii	"I2C Master lost arbitration\000"
  32      4D617374 
  32      6572206C 
  32      6F737420 
  32      61726269 
  33              		.section	.text.sendBuffToI2C,"ax",%progbits
  34              		.align	2
  35              		.global	sendBuffToI2C
  36              		.thumb
  37              		.thumb_func
  38              		.type	sendBuffToI2C, %function
  39              	sendBuffToI2C:
  40              	.LFB63:
  41              		.file 1 "myI2CMaster.c"
ARM GAS  C:\Users\DGILLI~1\AppData\Local\Temp\ccIRQxCb.s 			page 2


   1:myI2CMaster.c **** /* ========================================
   2:myI2CMaster.c ****  *
   3:myI2CMaster.c ****  * Copyright YOUR COMPANY, THE YEAR
   4:myI2CMaster.c ****  * All Rights Reserved
   5:myI2CMaster.c ****  * UNPUBLISHED, LICENSED SOFTWARE.
   6:myI2CMaster.c ****  *
   7:myI2CMaster.c ****  * CONFIDENTIAL AND PROPRIETARY INFORMATION
   8:myI2CMaster.c ****  * WHICH IS THE PROPERTY OF your company.
   9:myI2CMaster.c ****  *
  10:myI2CMaster.c ****  * ========================================
  11:myI2CMaster.c **** */
  12:myI2CMaster.c **** 
  13:myI2CMaster.c **** #include "myI2CMaster.h"
  14:myI2CMaster.c **** 
  15:myI2CMaster.c **** uint8 wrBuf[WR_BUFFER_SIZE];
  16:myI2CMaster.c **** uint8 rdBuf[RD_BUFFER_SIZE];
  17:myI2CMaster.c **** 
  18:myI2CMaster.c **** //////////////////////////////////////////////////////////////////////////////////////////////////
  19:myI2CMaster.c **** // void sendBuffToI2C(void) - 
  20:myI2CMaster.c **** //////////////////////////////////////////////////////////////////////////////////////////////////
  21:myI2CMaster.c **** 
  22:myI2CMaster.c **** void sendBuffToI2C(uint8 slaveAddr)
  23:myI2CMaster.c **** {
  42              		.loc 1 23 0
  43              		.cfi_startproc
  44              		@ args = 0, pretend = 0, frame = 16
  45              		@ frame_needed = 1, uses_anonymous_args = 0
  46 0000 80B5     		push	{r7, lr}
  47              		.cfi_def_cfa_offset 8
  48              		.cfi_offset 7, -8
  49              		.cfi_offset 14, -4
  50 0002 84B0     		sub	sp, sp, #16
  51              		.cfi_def_cfa_offset 24
  52 0004 00AF     		add	r7, sp, #0
  53              		.cfi_def_cfa_register 7
  54 0006 0346     		mov	r3, r0
  55 0008 FB71     		strb	r3, [r7, #7]
  56              	.L2:
  24:myI2CMaster.c ****     uint8 temp;
  25:myI2CMaster.c ****     do
  26:myI2CMaster.c ****     {
  27:myI2CMaster.c ****         temp = I2CM_MasterWriteBuf(slaveAddr, (uint8 *)wrBuf, WR_BUFFER_SIZE, I2CM_MODE_COMPLETE_XF
  57              		.loc 1 27 0 discriminator 1
  58 000a FB79     		ldrb	r3, [r7, #7]	@ zero_extendqisi2
  59 000c 1846     		mov	r0, r3
  60 000e 1E49     		ldr	r1, .L9
  61 0010 0522     		movs	r2, #5
  62 0012 0023     		movs	r3, #0
  63 0014 FFF7FEFF 		bl	I2CM_MasterWriteBuf
  64 0018 0346     		mov	r3, r0
  65 001a FB73     		strb	r3, [r7, #15]
  28:myI2CMaster.c ****     }
  29:myI2CMaster.c ****     while (temp != I2CM_MSTR_NO_ERROR);
  66              		.loc 1 29 0 discriminator 1
  67 001c FB7B     		ldrb	r3, [r7, #15]	@ zero_extendqisi2
  68 001e 002B     		cmp	r3, #0
  69 0020 F3D1     		bne	.L2
ARM GAS  C:\Users\DGILLI~1\AppData\Local\Temp\ccIRQxCb.s 			page 3


  30:myI2CMaster.c ****     while(I2CM_MasterStatus() & I2CM_MSTAT_XFER_INP);       // Wait for the data transfer to comple
  70              		.loc 1 30 0
  71 0022 00BF     		nop
  72              	.L3:
  73              		.loc 1 30 0 is_stmt 0 discriminator 1
  74 0024 FFF7FEFF 		bl	I2CM_MasterStatus
  75 0028 0346     		mov	r3, r0
  76 002a 03F00403 		and	r3, r3, #4
  77 002e 002B     		cmp	r3, #0
  78 0030 F8D1     		bne	.L3
  31:myI2CMaster.c ****     temp = I2CM_MasterClearStatus();
  79              		.loc 1 31 0 is_stmt 1
  80 0032 FFF7FEFF 		bl	I2CM_MasterClearStatus
  81 0036 0346     		mov	r3, r0
  82 0038 FB73     		strb	r3, [r7, #15]
  32:myI2CMaster.c ****     if(temp & I2CM_MSTAT_ERR_XFER)  // If there is an error while transferring data */
  83              		.loc 1 32 0
  84 003a FB7B     		ldrb	r3, [r7, #15]	@ zero_extendqisi2
  85 003c 5BB2     		sxtb	r3, r3
  86 003e 002B     		cmp	r3, #0
  87 0040 1FDA     		bge	.L1
  33:myI2CMaster.c ****     {
  34:myI2CMaster.c ****         if (temp & I2CM_MSTAT_XFER_HALT)
  88              		.loc 1 34 0
  89 0042 FB7B     		ldrb	r3, [r7, #15]	@ zero_extendqisi2
  90 0044 03F00803 		and	r3, r3, #8
  91 0048 002B     		cmp	r3, #0
  92 004a 02D0     		beq	.L5
  35:myI2CMaster.c ****             printLine("Transfer has been halted.");
  93              		.loc 1 35 0
  94 004c 0F48     		ldr	r0, .L9+4
  95 004e FFF7FEFF 		bl	printLine
  96              	.L5:
  36:myI2CMaster.c ****         if (temp & I2CM_MSTAT_ERR_SHORT_XFER)
  97              		.loc 1 36 0
  98 0052 FB7B     		ldrb	r3, [r7, #15]	@ zero_extendqisi2
  99 0054 03F01003 		and	r3, r3, #16
 100 0058 002B     		cmp	r3, #0
 101 005a 02D0     		beq	.L6
  37:myI2CMaster.c ****             printLine("Short Transfer Error");
 102              		.loc 1 37 0
 103 005c 0C48     		ldr	r0, .L9+8
 104 005e FFF7FEFF 		bl	printLine
 105              	.L6:
  38:myI2CMaster.c ****         if (temp & I2CM_MSTAT_ERR_ADDR_NAK)
 106              		.loc 1 38 0
 107 0062 FB7B     		ldrb	r3, [r7, #15]	@ zero_extendqisi2
 108 0064 03F02003 		and	r3, r3, #32
 109 0068 002B     		cmp	r3, #0
 110 006a 02D0     		beq	.L7
  39:myI2CMaster.c ****             printLine("Slave did not ack the address");
 111              		.loc 1 39 0
 112 006c 0948     		ldr	r0, .L9+12
 113 006e FFF7FEFF 		bl	printLine
 114              	.L7:
  40:myI2CMaster.c ****         if (temp & I2CM_MSTAT_ERR_ARB_LOST)
 115              		.loc 1 40 0
ARM GAS  C:\Users\DGILLI~1\AppData\Local\Temp\ccIRQxCb.s 			page 4


 116 0072 FB7B     		ldrb	r3, [r7, #15]	@ zero_extendqisi2
 117 0074 03F04003 		and	r3, r3, #64
 118 0078 002B     		cmp	r3, #0
 119 007a 02D0     		beq	.L1
  41:myI2CMaster.c ****             printLine("I2C Master lost arbitration");
 120              		.loc 1 41 0
 121 007c 0648     		ldr	r0, .L9+16
 122 007e FFF7FEFF 		bl	printLine
 123              	.L1:
  42:myI2CMaster.c ****     }
  43:myI2CMaster.c ****     else /* Write completed without error */
  44:myI2CMaster.c ****     {
  45:myI2CMaster.c **** //            printSingleChar('K');
  46:myI2CMaster.c ****     }
  47:myI2CMaster.c **** }
 124              		.loc 1 47 0
 125 0082 1037     		adds	r7, r7, #16
 126              		.cfi_def_cfa_offset 8
 127 0084 BD46     		mov	sp, r7
 128              		.cfi_def_cfa_register 13
 129              		@ sp needed
 130 0086 80BD     		pop	{r7, pc}
 131              	.L10:
 132              		.align	2
 133              	.L9:
 134 0088 00000000 		.word	wrBuf
 135 008c 00000000 		.word	.LC0
 136 0090 1C000000 		.word	.LC1
 137 0094 34000000 		.word	.LC2
 138 0098 54000000 		.word	.LC3
 139              		.cfi_endproc
 140              	.LFE63:
 141              		.size	sendBuffToI2C, .-sendBuffToI2C
 142              		.section	.rodata
 143              		.align	2
 144              	.LC4:
 145 0070 5472616E 		.ascii	"Transfer in progress\000"
 145      73666572 
 145      20696E20 
 145      70726F67 
 145      72657373 
 146 0085 000000   		.section	.text.getBuffFromI2C,"ax",%progbits
 147              		.align	2
 148              		.global	getBuffFromI2C
 149              		.thumb
 150              		.thumb_func
 151              		.type	getBuffFromI2C, %function
 152              	getBuffFromI2C:
 153              	.LFB64:
  48:myI2CMaster.c **** 
  49:myI2CMaster.c **** 
  50:myI2CMaster.c **** //////////////////////////////////////////////////////////////////////////////////////////////////
  51:myI2CMaster.c **** // void sendBuffToI2C(void) - 
  52:myI2CMaster.c **** //////////////////////////////////////////////////////////////////////////////////////////////////
  53:myI2CMaster.c **** 
  54:myI2CMaster.c **** void getBuffFromI2C(uint8 slaveAddr)
  55:myI2CMaster.c **** {
ARM GAS  C:\Users\DGILLI~1\AppData\Local\Temp\ccIRQxCb.s 			page 5


 154              		.loc 1 55 0
 155              		.cfi_startproc
 156              		@ args = 0, pretend = 0, frame = 16
 157              		@ frame_needed = 1, uses_anonymous_args = 0
 158 0000 80B5     		push	{r7, lr}
 159              		.cfi_def_cfa_offset 8
 160              		.cfi_offset 7, -8
 161              		.cfi_offset 14, -4
 162 0002 84B0     		sub	sp, sp, #16
 163              		.cfi_def_cfa_offset 24
 164 0004 00AF     		add	r7, sp, #0
 165              		.cfi_def_cfa_register 7
 166 0006 0346     		mov	r3, r0
 167 0008 FB71     		strb	r3, [r7, #7]
  56:myI2CMaster.c ****     uint8 temp;
  57:myI2CMaster.c ****     I2CM_MasterReadBuf(slaveAddr, (uint8 *)rdBuf, RD_BUFFER_SIZE, I2CM_MODE_COMPLETE_XFER);
 168              		.loc 1 57 0
 169 000a FB79     		ldrb	r3, [r7, #7]	@ zero_extendqisi2
 170 000c 1846     		mov	r0, r3
 171 000e 2349     		ldr	r1, .L20
 172 0010 0522     		movs	r2, #5
 173 0012 0023     		movs	r3, #0
 174 0014 FFF7FEFF 		bl	I2CM_MasterReadBuf
  58:myI2CMaster.c ****     while ((I2CM_MasterStatus() & I2CM_MSTAT_RD_CMPLT) != I2CM_MSTAT_RD_CMPLT);         // wait for
 175              		.loc 1 58 0
 176 0018 00BF     		nop
 177              	.L12:
 178              		.loc 1 58 0 is_stmt 0 discriminator 1
 179 001a FFF7FEFF 		bl	I2CM_MasterStatus
 180 001e 0346     		mov	r3, r0
 181 0020 03F00103 		and	r3, r3, #1
 182 0024 002B     		cmp	r3, #0
 183 0026 F8D0     		beq	.L12
  59:myI2CMaster.c ****     temp = I2CM_MasterClearStatus();
 184              		.loc 1 59 0 is_stmt 1
 185 0028 FFF7FEFF 		bl	I2CM_MasterClearStatus
 186 002c 0346     		mov	r3, r0
 187 002e FB73     		strb	r3, [r7, #15]
  60:myI2CMaster.c ****     if(temp & I2CM_MSTAT_ERR_XFER)  // If there is an error while transferring data */
 188              		.loc 1 60 0
 189 0030 FB7B     		ldrb	r3, [r7, #15]	@ zero_extendqisi2
 190 0032 5BB2     		sxtb	r3, r3
 191 0034 002B     		cmp	r3, #0
 192 0036 28DA     		bge	.L13
  61:myI2CMaster.c ****     {
  62:myI2CMaster.c ****         if (temp & I2CM_MSTAT_XFER_INP)
 193              		.loc 1 62 0
 194 0038 FB7B     		ldrb	r3, [r7, #15]	@ zero_extendqisi2
 195 003a 03F00403 		and	r3, r3, #4
 196 003e 002B     		cmp	r3, #0
 197 0040 02D0     		beq	.L14
  63:myI2CMaster.c ****             printLine("Transfer in progress");
 198              		.loc 1 63 0
 199 0042 1748     		ldr	r0, .L20+4
 200 0044 FFF7FEFF 		bl	printLine
 201              	.L14:
  64:myI2CMaster.c ****         if (temp & I2CM_MSTAT_XFER_HALT)
ARM GAS  C:\Users\DGILLI~1\AppData\Local\Temp\ccIRQxCb.s 			page 6


 202              		.loc 1 64 0
 203 0048 FB7B     		ldrb	r3, [r7, #15]	@ zero_extendqisi2
 204 004a 03F00803 		and	r3, r3, #8
 205 004e 002B     		cmp	r3, #0
 206 0050 02D0     		beq	.L15
  65:myI2CMaster.c ****             printLine("Transfer has been halted.");
 207              		.loc 1 65 0
 208 0052 1448     		ldr	r0, .L20+8
 209 0054 FFF7FEFF 		bl	printLine
 210              	.L15:
  66:myI2CMaster.c ****         if (temp & I2CM_MSTAT_ERR_SHORT_XFER)
 211              		.loc 1 66 0
 212 0058 FB7B     		ldrb	r3, [r7, #15]	@ zero_extendqisi2
 213 005a 03F01003 		and	r3, r3, #16
 214 005e 002B     		cmp	r3, #0
 215 0060 02D0     		beq	.L16
  67:myI2CMaster.c ****             printLine("Short Transfer Error");
 216              		.loc 1 67 0
 217 0062 1148     		ldr	r0, .L20+12
 218 0064 FFF7FEFF 		bl	printLine
 219              	.L16:
  68:myI2CMaster.c ****         if (temp & I2CM_MSTAT_ERR_ADDR_NAK)
 220              		.loc 1 68 0
 221 0068 FB7B     		ldrb	r3, [r7, #15]	@ zero_extendqisi2
 222 006a 03F02003 		and	r3, r3, #32
 223 006e 002B     		cmp	r3, #0
 224 0070 02D0     		beq	.L17
  69:myI2CMaster.c ****             printLine("Slave did not ack the address");
 225              		.loc 1 69 0
 226 0072 0E48     		ldr	r0, .L20+16
 227 0074 FFF7FEFF 		bl	printLine
 228              	.L17:
  70:myI2CMaster.c ****         if (temp & I2CM_MSTAT_ERR_ARB_LOST)
 229              		.loc 1 70 0
 230 0078 FB7B     		ldrb	r3, [r7, #15]	@ zero_extendqisi2
 231 007a 03F04003 		and	r3, r3, #64
 232 007e 002B     		cmp	r3, #0
 233 0080 08D0     		beq	.L11
  71:myI2CMaster.c ****             printLine("I2C Master lost arbitration");
 234              		.loc 1 71 0
 235 0082 0B48     		ldr	r0, .L20+20
 236 0084 FFF7FEFF 		bl	printLine
 237 0088 04E0     		b	.L11
 238              	.L13:
  72:myI2CMaster.c ****     }
  73:myI2CMaster.c ****     else /* Write completed without error */
  74:myI2CMaster.c ****     {
  75:myI2CMaster.c ****         printSingleChar(rdBuf[0]);
 239              		.loc 1 75 0
 240 008a 044B     		ldr	r3, .L20
 241 008c 1B78     		ldrb	r3, [r3]	@ zero_extendqisi2
 242 008e 1846     		mov	r0, r3
 243 0090 FFF7FEFF 		bl	printSingleChar
 244              	.L11:
  76:myI2CMaster.c **** //            printSingleChar('k');
  77:myI2CMaster.c ****     }
  78:myI2CMaster.c **** }
ARM GAS  C:\Users\DGILLI~1\AppData\Local\Temp\ccIRQxCb.s 			page 7


 245              		.loc 1 78 0
 246 0094 1037     		adds	r7, r7, #16
 247              		.cfi_def_cfa_offset 8
 248 0096 BD46     		mov	sp, r7
 249              		.cfi_def_cfa_register 13
 250              		@ sp needed
 251 0098 80BD     		pop	{r7, pc}
 252              	.L21:
 253 009a 00BF     		.align	2
 254              	.L20:
 255 009c 00000000 		.word	rdBuf
 256 00a0 70000000 		.word	.LC4
 257 00a4 00000000 		.word	.LC0
 258 00a8 1C000000 		.word	.LC1
 259 00ac 34000000 		.word	.LC2
 260 00b0 54000000 		.word	.LC3
 261              		.cfi_endproc
 262              	.LFE64:
 263              		.size	getBuffFromI2C, .-getBuffFromI2C
 264              		.text
 265              	.Letext0:
 266              		.file 2 "c:\\program files (x86)\\cypress\\psoc creator\\4.0\\psoc creator\\import\\gnu\\arm\\4.9.
 267              		.file 3 "c:\\program files (x86)\\cypress\\psoc creator\\4.0\\psoc creator\\import\\gnu\\arm\\4.9.
 268              		.file 4 "Generated_Source\\PSoC5/cytypes.h"
 269              		.file 5 "Generated_Source\\PSoC5/core_cm3.h"